_ZZN3scn2v44impl35read_matching_string_classic_nocaseINS0_6ranges6detail9subrange_8subrangeINS0_6detail17basic_scan_bufferIcE16forward_iteratorENS3_18default_sentinel_tEEEEENS1_14parse_expectedIDTclL_ZNS3_5beginEEclsr3stdE7declvalIRNSt3__19add_constIT_E4typeEEEEEEESG_NSE_17basic_string_viewIcNSE_11char_traitsIcEEEEENKUlSG_T0_E_clIccEEDaSG_SQ_:
  865|  2.92M|#define SCN_UNLIKELY(x) __builtin_expect(!!(x), 0)
_ZZN3scn2v44impl35read_matching_string_classic_nocaseINS0_6ranges6detail9subrange_8subrangeINS0_6detail17basic_scan_bufferIwE16forward_iteratorENS3_18default_sentinel_tEEEEENS1_14parse_expectedIDTclL_ZNS3_5beginEEclsr3stdE7declvalIRNSt3__19add_constIT_E4typeEEEEEEESG_NSE_17basic_string_viewIcNSE_11char_traitsIcEEEEENKUlSG_T0_E_clIwcEEDaSG_SQ_:
  865|   271k|#define SCN_UNLIKELY(x) __builtin_expect(!!(x), 0)
_ZZN3scn2v44impl35read_matching_string_classic_nocaseINS0_6ranges6detail9subrange_8subrangeIPKwS8_EEEENS1_14parse_expectedIDTclL_ZNS3_5beginEEclsr3stdE7declvalIRNSt3__19add_constIT_E4typeEEEEEEESD_NSB_17basic_string_viewIcNSB_11char_traitsIcEEEEENKUlSD_T0_E_clIwcEEDaSD_SN_:
  865|   271k|#define SCN_UNLIKELY(x) __builtin_expect(!!(x), 0)

_ZN3scn2v46detail39code_point_length_by_starting_code_unitIcEEmT_:
 4067|  4.86M|{
 4068|  4.86M|    if constexpr (sizeof(U) == 1) {
 4069|  4.86M|        return utf8_code_point_length_by_starting_code_unit(ch);
 4070|       |    }
 4071|       |    else if constexpr (sizeof(U) == 2) {
 4072|       |        return utf16_code_point_length_by_starting_code_unit(ch);
 4073|       |    }
 4074|       |    else {
 4075|       |        // utf-32
 4076|       |        static_assert(sizeof(U) == 4);
 4077|       |        SCN_UNUSED(ch);
 4078|       |        return 1;
 4079|       |    }
 4080|  4.86M|}
_ZN3scn2v46detail44utf8_code_point_length_by_starting_code_unitIcEEmT_:
 4031|  4.86M|{
 4032|  4.86M|    static_assert(sizeof(U8) == 1);
 4033|       |
 4034|  4.86M|    SCN_GCC_COMPAT_PUSH
 4035|  4.86M|    SCN_GCC_COMPAT_IGNORE("-Wsign-conversion")
 4036|  4.86M|    constexpr char lengths[] =
 4037|  4.86M|        "\1\1\1\1\1\1\1\1"  // highest bit is 0 -> single-byte
 4038|  4.86M|        "\1\1\1\1\1\1\1\1"
 4039|  4.86M|        "\0\0\0\0\0\0\0\0"  // highest bits 10 -> error, non-initial
 4040|       |                            // byte
 4041|  4.86M|        "\2\2\2\2"          // highest bits 110 -> 2-byte cp
 4042|  4.86M|        "\3\3"              // highest bits 1110 -> 3-byte cp
 4043|  4.86M|        "\4";               // highest bits 11110 -> 4-byte cp
 4044|  4.86M|    return lengths[static_cast<unsigned char>(ch) >> 3];
 4045|  4.86M|    SCN_GCC_COMPAT_POP
 4046|  4.86M|}
_ZN3scn2v46detail28decode_code_point_exhaustiveIcEEDiNSt3__117basic_string_viewIT_NS3_11char_traitsIS5_EEEE:
 4273|  4.78M|{
 4274|  4.78M|    if constexpr (sizeof(CharT) == 1) {
 4275|  4.78M|        return decode_utf8_code_point_exhaustive(input);
 4276|       |    }
 4277|       |    else if constexpr (sizeof(CharT) == 2) {
 4278|       |        return decode_utf16_code_point_exhaustive(input);
 4279|       |    }
 4280|       |    else {
 4281|       |        SCN_EXPECT(input.size() == 1);
 4282|       |        auto cp = static_cast<char32_t>(input.front());
 4283|       |        if (SCN_UNLIKELY(cp >= invalid_code_point)) {
 4284|       |            return invalid_code_point;
 4285|       |        }
 4286|       |        return cp;
 4287|       |    }
 4288|  4.78M|}
_ZN3scn2v46detail33decode_utf8_code_point_exhaustiveENSt3__117basic_string_viewIcNS2_11char_traitsIcEEEE:
 4086|  4.78M|{
 4087|  4.78M|    SCN_EXPECT(!input.empty() && input.size() <= 4);
  ------------------
  |  |  930|  4.78M|#define SCN_EXPECT(cond) SCN_ASSERT(cond, "Precondition violation")
  |  |  ------------------
  |  |  |  |  927|  4.78M|#define SCN_ASSERT(cond, msg) assert((cond) && msg)
  |  |  ------------------
  ------------------
 4088|       |
 4089|  4.78M|    const auto is_trailing_code_unit = [](char ch) {
 4090|  4.78M|        return static_cast<unsigned char>(ch) >> 6 == 0x2;
 4091|  4.78M|    };
 4092|       |
 4093|  4.78M|    if (input.size() == 1) {
  ------------------
  |  Branch (4093:9): [True: 4.74M, False: 39.3k]
  ------------------
 4094|  4.74M|        if (static_cast<unsigned char>(input[0]) >= 0x80) {
  ------------------
  |  Branch (4094:13): [True: 2.08k, False: 4.73M]
  ------------------
 4095|  2.08k|            SCN_UNLIKELY_ATTR
 4096|  2.08k|            return invalid_code_point;
 4097|  2.08k|        }
 4098|  4.73M|        return static_cast<char32_t>(input[0]);
 4099|  4.74M|    }
 4100|       |
 4101|  39.3k|    if (input.size() == 2) {
  ------------------
  |  Branch (4101:9): [True: 20.7k, False: 18.5k]
  ------------------
 4102|  20.7k|        if ((static_cast<unsigned char>(input[0]) & 0xe0) != 0xc0) {
  ------------------
  |  Branch (4102:13): [True: 85, False: 20.7k]
  ------------------
 4103|     85|            SCN_UNLIKELY_ATTR
 4104|     85|            return invalid_code_point;
 4105|     85|        }
 4106|  20.7k|        if (!is_trailing_code_unit(input[1])) {
  ------------------
  |  Branch (4106:13): [True: 5.57k, False: 15.1k]
  ------------------
 4107|  5.57k|            SCN_UNLIKELY_ATTR
 4108|  5.57k|            return invalid_code_point;
 4109|  5.57k|        }
 4110|       |
 4111|  15.1k|        char32_t cp{};
 4112|  15.1k|        cp |= (static_cast<char32_t>(input[0]) & 0x1f) << 6;
 4113|  15.1k|        cp |= (static_cast<char32_t>(input[1]) & 0x3f) << 0;
 4114|  15.1k|        return cp;
 4115|  20.7k|    }
 4116|       |
 4117|  18.5k|    if (input.size() == 3) {
  ------------------
  |  Branch (4117:9): [True: 13.6k, False: 4.92k]
  ------------------
 4118|  13.6k|        if ((static_cast<unsigned char>(input[0]) & 0xf0) != 0xe0) {
  ------------------
  |  Branch (4118:13): [True: 53, False: 13.5k]
  ------------------
 4119|     53|            SCN_UNLIKELY_ATTR
 4120|     53|            return invalid_code_point;
 4121|     53|        }
 4122|  13.5k|        if (!is_trailing_code_unit(input[1]) ||
  ------------------
  |  Branch (4122:13): [True: 1.69k, False: 11.8k]
  ------------------
 4123|  13.5k|            !is_trailing_code_unit(input[2])) {
  ------------------
  |  Branch (4123:13): [True: 363, False: 11.4k]
  ------------------
 4124|  2.06k|            SCN_UNLIKELY_ATTR
 4125|  2.06k|            return invalid_code_point;
 4126|  2.06k|        }
 4127|       |
 4128|  11.4k|        char32_t cp{};
 4129|  11.4k|        cp |= (static_cast<char32_t>(input[0]) & 0x0f) << 12;
 4130|  11.4k|        cp |= (static_cast<char32_t>(input[1]) & 0x3f) << 6;
 4131|  11.4k|        cp |= (static_cast<char32_t>(input[2]) & 0x3f) << 0;
 4132|  11.4k|        return cp;
 4133|  13.5k|    }
 4134|       |
 4135|  4.92k|    if (input.size() == 4) {
  ------------------
  |  Branch (4135:9): [True: 4.92k, False: 0]
  ------------------
 4136|  4.92k|        if ((static_cast<unsigned char>(input[0]) & 0xf8) != 0xf0) {
  ------------------
  |  Branch (4136:13): [True: 0, False: 4.92k]
  ------------------
 4137|      0|            SCN_UNLIKELY_ATTR
 4138|      0|            return invalid_code_point;
 4139|      0|        }
 4140|  4.92k|        if (static_cast<unsigned char>(input[0]) > 0xf4) {
  ------------------
  |  Branch (4140:13): [True: 1.12k, False: 3.79k]
  ------------------
 4141|  1.12k|            SCN_UNLIKELY_ATTR
 4142|  1.12k|            return invalid_code_point;
 4143|  1.12k|        }
 4144|  3.79k|        if (!is_trailing_code_unit(input[1]) ||
  ------------------
  |  Branch (4144:13): [True: 1.71k, False: 2.08k]
  ------------------
 4145|  3.79k|            !is_trailing_code_unit(input[2]) ||
  ------------------
  |  Branch (4145:13): [True: 13, False: 2.07k]
  ------------------
 4146|  3.79k|            !is_trailing_code_unit(input[3])) {
  ------------------
  |  Branch (4146:13): [True: 11, False: 2.05k]
  ------------------
 4147|  1.73k|            SCN_UNLIKELY_ATTR
 4148|  1.73k|            return invalid_code_point;
 4149|  1.73k|        }
 4150|       |
 4151|  2.05k|        char32_t cp{};
 4152|  2.05k|        cp |= (static_cast<char32_t>(input[0]) & 0x07) << 18;
 4153|  2.05k|        cp |= (static_cast<char32_t>(input[1]) & 0x3f) << 12;
 4154|  2.05k|        cp |= (static_cast<char32_t>(input[2]) & 0x3f) << 6;
 4155|  2.05k|        cp |= (static_cast<char32_t>(input[3]) & 0x3f) << 0;
 4156|  2.05k|        return cp;
 4157|  3.79k|    }
 4158|       |
 4159|      0|#if !SCN_GCC || SCN_GCC >= SCN_COMPILER(8, 0, 0)
 4160|       |    // gcc 7 thinks we'll get here, even when we won't
 4161|      0|    SCN_EXPECT(false);
  ------------------
  |  |  930|      0|#define SCN_EXPECT(cond) SCN_ASSERT(cond, "Precondition violation")
  |  |  ------------------
  |  |  |  |  927|      0|#define SCN_ASSERT(cond, msg) assert((cond) && msg)
  |  |  ------------------
  ------------------
 4162|      0|#endif
 4163|      0|    SCN_UNREACHABLE;
  ------------------
  |  |  893|      0|#define SCN_UNREACHABLE __builtin_unreachable()
  ------------------
 4164|      0|}
_ZZN3scn2v46detail33decode_utf8_code_point_exhaustiveENSt3__117basic_string_viewIcNS2_11char_traitsIcEEEEENKUlcE_clEc:
 4089|  54.0k|    const auto is_trailing_code_unit = [](char ch) {
 4090|  54.0k|        return static_cast<unsigned char>(ch) >> 6 == 0x2;
 4091|  54.0k|    };
_ZN3scn2v46detail31make_string_view_from_iteratorsIcEENSt3__117basic_string_viewIT_NS3_11char_traitsIS5_EEEENS8_8iteratorES9_:
 3959|  3.10M|{
 3960|       |    if constexpr (std::is_constructible_v<std::basic_string_view<CharT>,
 3961|       |                                          decltype(first), decltype(last)> &&
 3962|       |                  !SCN_MSVC_DEBUG_ITERATORS) {
 3963|       |        return {first, last};
 3964|       |    }
 3965|  3.10M|    else {
 3966|  3.10M|        return {to_address(first), static_cast<size_t>(std::distance(
 3967|  3.10M|                                       to_address(first), to_address(last)))};
 3968|  3.10M|    }
 3969|  3.10M|}
_ZN3scn2v46detail10to_addressIRPKcEEDTclgssr3scn6detailE15to_address_implscDtfp_Efp_tlNS1_12priority_tagILm2EEEEEEOT_:
  315|  9.35M|{
  316|  9.35M|    return ::scn::detail::to_address_impl(SCN_FWD(p), priority_tag<2>{});
  ------------------
  |  |  936|  9.35M|#define SCN_FWD(x)          static_cast<decltype(x)&&>(x)
  ------------------
  317|  9.35M|}
_ZN3scn2v46detail15to_address_implIKcEEPT_S5_NS1_12priority_tagILm2EEE:
  293|  24.1M|{
  294|  24.1M|    return p;
  295|  24.1M|}
_ZN3scn2v46detail25make_string_view_iteratorIcEENSt3__117basic_string_viewIT_NS3_11char_traitsIS5_EEE8iteratorES8_S9_:
 3990|  7.28M|{
 3991|       |    if constexpr (std::is_constructible_v<
 3992|       |                      typename std::basic_string_view<CharT>::iterator,
 3993|       |                      decltype(it)> &&
 3994|  7.28M|                  !SCN_MSVC_DEBUG_ITERATORS) {
 3995|  7.28M|        SCN_UNUSED(sv);
  ------------------
  |  |  915|  7.28M|#define SCN_UNUSED(x) static_cast<void>(sizeof(x))
  ------------------
 3996|  7.28M|        return it;
 3997|       |    }
 3998|       |    else {
 3999|       |        return sv.begin() + std::distance(sv.data(), detail::to_address(it));
 4000|       |    }
 4001|  7.28M|}
_ZNK3scn2v46ranges6detail6begin_2fnclIRNSt3__117basic_string_viewIcNS6_11char_traitsIcEEEEEEDTclsr2fnE4implscDtfp_Efp_tlNS0_6detail12priority_tagILm3EEEEEEOT_:
 2868|   264k|    {
 2869|   264k|        return fn::impl(SCN_FWD(t), priority_tag<3>{});
  ------------------
  |  |  936|   264k|#define SCN_FWD(x)          static_cast<decltype(x)&&>(x)
  ------------------
 2870|   264k|    }
_ZN3scn2v46ranges6detail6begin_2fn4implIRNSt3__117basic_string_viewIcNS6_11char_traitsIcEEEEEENS6_9enable_ifIX24input_or_output_iteratorIDTcl10decay_copycldtscDtfp_Efp_5beginEEEEESE_E4typeEOT_NS0_6detail12priority_tagILm1EEE:
 2849|   264k|    {
 2850|   264k|        return decay_copy(t.begin());
 2851|   264k|    }
_ZN3scn2v46ranges6detail10decay_copyIPKcEEu7__decayIT_EOS6_:
 2093|  22.5M|{
 2094|  22.5M|    return SCN_FWD(t);
  ------------------
  |  |  936|  22.5M|#define SCN_FWD(x)          static_cast<decltype(x)&&>(x)
  ------------------
 2095|  22.5M|}
_ZNK3scn2v46ranges6detail4end_2fnclIRNSt3__117basic_string_viewIcNS6_11char_traitsIcEEEEEEDTclsr2fnE4implscDtfp_Efp_tlNS0_6detail12priority_tagILm3EEEEEEOT_:
 2925|  4.56M|    {
 2926|  4.56M|        return fn::impl(SCN_FWD(t), priority_tag<3>{});
  ------------------
  |  |  936|  4.56M|#define SCN_FWD(x)          static_cast<decltype(x)&&>(x)
  ------------------
 2927|  4.56M|    }
_ZN3scn2v46ranges6detail4end_2fn4implIRNSt3__117basic_string_viewIcNS6_11char_traitsIcEEEEPKcSD_EENS6_9enable_ifIX12sentinel_forIT0_T1_EEDTcl10decay_copycldtscDtfp_Efp_3endEEEE4typeEOT_NS0_6detail12priority_tagILm1EEE:
 2907|  4.56M|    {
 2908|  4.56M|        return decay_copy(SCN_FWD(t).end());
  ------------------
  |  |  936|  4.56M|#define SCN_FWD(x)          static_cast<decltype(x)&&>(x)
  ------------------
 2909|  4.56M|    }
_ZN3scn2v44scanIJaENS0_6ranges6detail9subrange_8subrangeIPKcS7_EEvEENS0_13scan_expectedINS0_11scan_resultINSt3__111conditionalIXsr3stdE9is_same_vIu11__remove_cvIu20__remove_reference_tIT0_EEP8_IO_FILEEESH_NS0_6detail22borrowed_tail_subrangeISD_Xsr6rangesE14borrowed_rangeISD_EEE4typeEE4typeEJDpT_EEEEEOSD_NS0_24basic_scan_format_stringIcNSI_13type_identityISD_E4typeEJDpNSU_ISO_E4typeEEEE:
 9374|   157k|{
 9375|   157k|    auto result = make_scan_result<Source, Args...>();
 9376|   157k|    fill_scan_result(result, vscan(SCN_FWD(source), format,
  ------------------
  |  |  936|   157k|#define SCN_FWD(x)          static_cast<decltype(x)&&>(x)
  ------------------
 9377|   157k|                                   make_scan_args(result->values())));
 9378|   157k|    return result;
 9379|   157k|}
_ZN3scn2v416make_scan_resultINS0_6ranges6detail9subrange_8subrangeIPKcS7_EEJaEEEDav:
 9330|   341k|{
 9331|   341k|    return scan_result_type<Source, Args...>();
 9332|   341k|}
_ZN3scn2v48expectedINS0_11scan_resultINS0_6ranges6detail9subrange_8subrangeIPKcS8_EEJaEEENS0_10scan_errorEEC2Ev:
 1551|   341k|    constexpr expected() = default;
_ZN3scn2v46detail21expected_storage_baseINS0_11scan_resultINS0_6ranges6detail9subrange_8subrangeIPKcS9_EEJaEEENS0_10scan_errorELb1EEC2Ev:
  426|   341k|        : m_value(T{}), m_has_value(true)
  427|   341k|    {
  428|   341k|    }
_ZN3scn2v411scan_resultINS0_6ranges6detail9subrange_8subrangeIPKcS7_EEJaEEC2Ev:
 6264|   341k|    constexpr scan_result() = default;
_ZN3scn2v46detail25scan_result_range_storageINS0_6ranges6detail9subrange_8subrangeIPKcS8_EEEC2Ev:
 6107|  2.27M|    constexpr scan_result_range_storage() = default;
_ZN3scn2v46ranges6detail9subrange_8subrangeIPKcS6_EC2Ev:
 3459|  2.27M|    subrange() = default;
_ZN3scn2v46detail25scan_result_value_storageIJaEEC2Ev:
 6038|   860k|    constexpr scan_result_value_storage() = default;
_ZN3scn2v416fill_scan_resultINS0_11scan_resultINS0_6ranges6detail9subrange_8subrangeIPKcS8_EEJaEEES9_TnPNSt3__19enable_ifIXsr3stdE13conjunction_vINS0_6detail25is_specialization_of_implIu11__remove_cvIu20__remove_reference_tIT_EES2_EENSB_7is_sameINSF_10range_typeET0_EEEEvE4typeELPv0EEEvRNS0_13scan_expectedISF_EEONSR_ISL_EE:
 9315|   341k|{
 9316|   341k|    if (SCN_UNLIKELY(!in)) {
  ------------------
  |  |  865|   341k|#define SCN_UNLIKELY(x) __builtin_expect(!!(x), 0)
  |  |  ------------------
  |  |  |  Branch (865:25): [True: 43.7k, False: 297k]
  |  |  ------------------
  ------------------
 9317|  43.7k|        out = unexpected(in.error());
 9318|  43.7k|    }
 9319|   297k|    else {
 9320|   297k|        out->set_range(SCN_MOVE(*in));
  ------------------
  |  |  934|   297k|    static_cast<    \
  |  |  935|   297k|        typename ::scn::detail::remove_reference<decltype(x)>::type&&>(x)
  ------------------
 9321|   297k|    }
 9322|   341k|}
_ZNK3scn2v48expectedINS0_6ranges6detail9subrange_8subrangeIPKcS7_EENS0_10scan_errorEEcvbEv:
 1739|  2.27M|    {
 1740|  2.27M|        return has_value();
 1741|  2.27M|    }
_ZNK3scn2v46detail21expected_storage_baseINS0_6ranges6detail9subrange_8subrangeIPKcS8_EENS0_10scan_errorELb1EE9has_valueEv:
  489|  4.55M|    {
  490|  4.55M|        return m_has_value;
  491|  4.55M|    }
_ZNR3scn2v48expectedINS0_6ranges6detail9subrange_8subrangeIPKcS7_EENS0_10scan_errorEE5errorEv:
 1745|   262k|    {
 1746|   262k|        SCN_EXPECT(!has_value());
  ------------------
  |  |  930|   262k|#define SCN_EXPECT(cond) SCN_ASSERT(cond, "Precondition violation")
  |  |  ------------------
  |  |  |  |  927|   262k|#define SCN_ASSERT(cond, msg) assert((cond) && msg)
  |  |  ------------------
  ------------------
 1747|   262k|        return this->get_unexpected().error();
 1748|   262k|    }
_ZNR3scn2v46detail21expected_storage_baseINS0_6ranges6detail9subrange_8subrangeIPKcS8_EENS0_10scan_errorELb1EE14get_unexpectedEv:
  472|   262k|    {
  473|   262k|        return m_unexpected;
  474|   262k|    }
_ZNR3scn2v410unexpectedINS0_10scan_errorEE5errorEv:
  364|  17.8M|    {
  365|  17.8M|        return m_unexpected;
  366|  17.8M|    }
_ZN3scn2v410unexpectedINS0_10scan_errorEEC2IRS2_vEEOT_:
  349|  7.94M|        : m_unexpected(std::forward<Err>(e))
  350|  7.94M|    {
  351|  7.94M|        SCN_UNLIKELY_ATTR SCN_UNUSED(m_unexpected);
  ------------------
  |  |  915|  7.94M|#define SCN_UNUSED(x) static_cast<void>(sizeof(x))
  ------------------
  352|  7.94M|    }
_ZN3scn2v48expectedINS0_11scan_resultINS0_6ranges6detail9subrange_8subrangeIPKcS8_EEJaEEENS0_10scan_errorEEC2ISB_TnPNSt3__19enable_ifIXsr3stdE18is_constructible_vISB_OT_EEvE4typeELPv0ETnPNSF_IXsr3stdE16is_convertible_vISH_SB_EEvE4typeELSL_0EEEONS0_10unexpectedISG_EE:
 1615|  43.7k|        : base(unexpect, std::move(e.error())),
 1616|  43.7k|          ctor_base(detail::non_default_ctor_tag_t{})
 1617|  43.7k|    {
 1618|  43.7k|    }
_ZN3scn2v46detail21expected_storage_baseINS0_11scan_resultINS0_6ranges6detail9subrange_8subrangeIPKcS9_EEJaEEENS0_10scan_errorELb1EEC2IJSC_EvEENS0_10unexpect_tEDpOT_:
  449|  43.7k|        : m_unexpected(std::in_place, std::forward<Args>(args)...),
  450|  43.7k|          m_has_value(false)
  451|  43.7k|    {
  452|  43.7k|    }
_ZN3scn2v410unexpectedINS0_10scan_errorEEC2IJS2_EvEENSt3__110in_place_tEDpOT_:
  358|  10.2M|        : m_unexpected(std::forward<Args>(args)...)
  359|  10.2M|    {
  360|  10.2M|        SCN_UNLIKELY_ATTR SCN_UNUSED(m_unexpected);
  ------------------
  |  |  915|  10.2M|#define SCN_UNUSED(x) static_cast<void>(sizeof(x))
  ------------------
  361|  10.2M|    }
_ZN3scn2v46detail26expected_default_ctor_baseINS0_11scan_resultINS0_6ranges6detail9subrange_8subrangeIPKcS9_EEJaEEENS0_10scan_errorELb1EEC2ENS1_22non_default_ctor_tag_tE:
 1315|  43.7k|    {
 1316|  43.7k|    }
_ZN3scn2v48expectedINS0_11scan_resultINS0_6ranges6detail9subrange_8subrangeIPKcS8_EEJaEEENS0_10scan_errorEEaSEOSC_:
 1556|  43.7k|    constexpr expected& operator=(expected&&) = default;
_ZN3scn2v46detail24expected_operations_baseINS0_11scan_resultINS0_6ranges6detail9subrange_8subrangeIPKcS9_EEJaEEENS0_10scan_errorEvEaSEOSD_:
  902|  43.7k|    {
  903|  43.7k|        assign_common(std::move(other));
  904|  43.7k|        return *this;
  905|  43.7k|    }
_ZN3scn2v46detail24expected_operations_baseINS0_11scan_resultINS0_6ranges6detail9subrange_8subrangeIPKcS9_EEJaEEENS0_10scan_errorEvE13assign_commonISD_EEvOT_:
  949|  43.7k|    {
  950|  43.7k|        if (this->has_value()) {
  ------------------
  |  Branch (950:13): [True: 43.7k, False: 0]
  ------------------
  951|  43.7k|            if (other.has_value()) {
  ------------------
  |  Branch (951:17): [True: 0, False: 43.7k]
  ------------------
  952|      0|                return reassign_value(std::forward<Other>(other));
  953|      0|            }
  954|  43.7k|            return assign_unexpected_over_value(std::forward<Other>(other));
  955|  43.7k|        }
  956|       |
  957|      0|        if (other.has_value()) {
  ------------------
  |  Branch (957:13): [True: 0, False: 0]
  ------------------
  958|      0|            return assign_value_over_unexpected(std::forward<Other>(other));
  959|      0|        }
  960|      0|        return reassign_unexpected(std::forward<Other>(other));
  961|      0|    }
_ZNK3scn2v46detail21expected_storage_baseINS0_11scan_resultINS0_6ranges6detail9subrange_8subrangeIPKcS9_EEJaEEENS0_10scan_errorELb1EE9has_valueEv:
  489|  1.36M|    {
  490|  1.36M|        return m_has_value;
  491|  1.36M|    }
_ZNR3scn2v46detail21expected_storage_baseINS0_11scan_resultINS0_6ranges6detail9subrange_8subrangeIPKcS9_EEJaEEENS0_10scan_errorELb1EE9get_valueEv:
  455|   937k|    {
  456|   937k|        return m_value;
  457|   937k|    }
_ZN3scn2v46detail24expected_operations_baseINS0_11scan_resultINS0_6ranges6detail9subrange_8subrangeIPKcS9_EEJaEEENS0_10scan_errorEvE28assign_unexpected_over_valueISD_EEvOT_:
 1045|  43.7k|    {
 1046|  43.7k|        this->destroy_value();
 1047|  43.7k|        this->construct_unexpected(std::forward<Other>(other).get_unexpected());
 1048|  43.7k|    }
_ZN3scn2v46detail21expected_storage_baseINS0_11scan_resultINS0_6ranges6detail9subrange_8subrangeIPKcS9_EEJaEEENS0_10scan_errorELb1EE13destroy_valueEv:
  510|  43.7k|    static constexpr void destroy_value() noexcept {}
_ZN3scn2v46detail21expected_storage_baseINS0_11scan_resultINS0_6ranges6detail9subrange_8subrangeIPKcS9_EEJaEEENS0_10scan_errorELb1EE20construct_unexpectedIJNS0_10unexpectedISC_EEEEEvDpOT_:
  503|  43.7k|    {
  504|  43.7k|        scn::detail::construct_at(&get_unexpected(),
  505|  43.7k|                                  std::forward<Args>(args)...);
  506|  43.7k|        m_has_value = false;
  507|  43.7k|    }
_ZN3scn2v46detail12construct_atINS0_10unexpectedINS0_10scan_errorEEEJS5_EEEPT_S7_DpOT0_:
  395|  1.57M|{
  396|  1.57M|    return ::new (const_cast<void*>(static_cast<const volatile void*>(p)))
  397|  1.57M|        T(std::forward<Args>(args)...);
  398|  1.57M|}
_ZNR3scn2v46detail21expected_storage_baseINS0_11scan_resultINS0_6ranges6detail9subrange_8subrangeIPKcS9_EEJaEEENS0_10scan_errorELb1EE14get_unexpectedEv:
  472|  43.7k|    {
  473|  43.7k|        return m_unexpected;
  474|  43.7k|    }
_ZNO3scn2v46detail21expected_storage_baseINS0_11scan_resultINS0_6ranges6detail9subrange_8subrangeIPKcS9_EEJaEEENS0_10scan_errorELb1EE14get_unexpectedEv:
  480|  43.7k|    {
  481|  43.7k|        return std::move(m_unexpected);
  482|  43.7k|    }
_ZN3scn2v46detail25scan_result_range_storageINS0_6ranges6detail9subrange_8subrangeIPKcS8_EEE9set_rangeIS9_EEvOT_:
 6138|  2.01M|    {
 6139|  2.01M|        m_range = std::forward<Other>(r);
 6140|  2.01M|    }
_ZNR3scn2v48expectedINS0_6ranges6detail9subrange_8subrangeIPKcS7_EENS0_10scan_errorEEdeIS8_TnPNSt3__19enable_ifIXntsr3stdE9is_void_vIT_EEvE4typeELPv0EEERSE_v:
 1794|  2.01M|    {
 1795|  2.01M|        return value();
 1796|  2.01M|    }
_ZNR3scn2v48expectedINS0_6ranges6detail9subrange_8subrangeIPKcS7_EENS0_10scan_errorEE5valueIS8_TnPNSt3__19enable_ifIXntsr3stdE9is_void_vIT_EEvE4typeELPv0EEERSE_v:
 1768|  2.01M|    {
 1769|  2.01M|        SCN_EXPECT(has_value());
  ------------------
  |  |  930|  2.01M|#define SCN_EXPECT(cond) SCN_ASSERT(cond, "Precondition violation")
  |  |  ------------------
  |  |  |  |  927|  2.01M|#define SCN_ASSERT(cond, msg) assert((cond) && msg)
  |  |  ------------------
  ------------------
 1770|  2.01M|        return this->get_value();
 1771|  2.01M|    }
_ZNR3scn2v46detail21expected_storage_baseINS0_6ranges6detail9subrange_8subrangeIPKcS8_EENS0_10scan_errorELb1EE9get_valueEv:
  455|  2.01M|    {
  456|  2.01M|        return m_value;
  457|  2.01M|    }
_ZN3scn2v45vscanINS0_6ranges6detail9subrange_8subrangeIPKcS7_EEEENS0_13scan_expectedINSt3__111conditionalIXsr3stdE9is_same_vIu11__remove_cvIu20__remove_reference_tIT_EEP8_IO_FILEEESG_NS0_6detail22borrowed_tail_subrangeISC_Xsr6rangesE14borrowed_rangeISC_EEE4typeEE4typeEEEOSC_NSA_17basic_string_viewIcNSA_11char_traitsIcEEEENS0_15basic_scan_argsINS0_18basic_scan_contextINSH_16buffer_range_tagEcEEEE:
 9154|  1.05M|{
 9155|  1.05M|    return detail::vscan_generic(SCN_FWD(source), format, args);
  ------------------
  |  |  936|  1.05M|#define SCN_FWD(x)          static_cast<decltype(x)&&>(x)
  ------------------
 9156|  1.05M|}
_ZN3scn2v46detail13vscan_genericINS0_6ranges6detail9subrange_8subrangeIPKcS8_EEcEENS0_13scan_expectedINSt3__111conditionalIXsr3stdE9is_same_vIu11__remove_cvIu20__remove_reference_tIT_EEP8_IO_FILEEESH_NS1_22borrowed_tail_subrangeISD_Xsr6rangesE14borrowed_rangeISD_EEE4typeEE4typeEEEOSD_NSB_17basic_string_viewIT0_NSB_11char_traitsISQ_EEEENS0_15basic_scan_argsINS0_18basic_scan_contextINS1_16buffer_range_tagESQ_EEEE:
 9091|  1.05M|{
 9092|  1.05M|    auto buffer = make_scan_buffer(range);
 9093|       |
 9094|  1.05M|    auto result = vscan_impl(buffer, format, args);
 9095|  1.05M|    if (SCN_UNLIKELY(!result)) {
  ------------------
  |  |  865|  1.05M|#define SCN_UNLIKELY(x) __builtin_expect(!!(x), 0)
  |  |  ------------------
  |  |  |  Branch (865:25): [True: 125k, False: 932k]
  |  |  ------------------
  ------------------
 9096|   125k|        return unexpected(result.error());
 9097|   125k|    }
 9098|   932k|    return make_vscan_result_range(SCN_FWD(range), *result);
  ------------------
  |  |  936|   932k|#define SCN_FWD(x)          static_cast<decltype(x)&&>(x)
  ------------------
 9099|  1.05M|}
_ZN3scn2v46detail16make_scan_bufferINS0_6ranges6detail9subrange_8subrangeIPKcS8_EEEEDaRKT_:
 5074|  2.27M|{
 5075|  2.27M|    using T = decltype(_make_scan_buffer::impl(range, priority_tag<4>{}));
 5076|       |
 5077|  2.27M|    static_assert(!std::is_same_v<T, invalid_char_type>,
 5078|  2.27M|                  "\n"
 5079|  2.27M|                  "Unsupported range type given as input to a scanning "
 5080|  2.27M|                  "function.\n"
 5081|  2.27M|                  "A range needs to have a character type (value type) "
 5082|  2.27M|                  "of either `char` or `wchar_t` to be scannable.\n"
 5083|  2.27M|                  "For proper `wchar_t` support, <scn/xchar.h> needs "
 5084|  2.27M|                  "to be included.\n"
 5085|  2.27M|                  "See the scnlib documentation for more details.");
 5086|  2.27M|    static_assert(
 5087|  2.27M|        !std::is_same_v<T, custom_char_traits>,
 5088|  2.27M|        "\n"
 5089|  2.27M|        "Unsupported range type given as input to a scanning "
 5090|  2.27M|        "function.\n"
 5091|  2.27M|        "String types (std::basic_string, and std::basic_string_view) "
 5092|  2.27M|        "need to use std::char_traits. Strings with custom Traits are "
 5093|  2.27M|        "not supported.");
 5094|  2.27M|    static_assert(!std::is_same_v<T, file_marker_found>,
 5095|  2.27M|                  "\n"
 5096|  2.27M|                  "Unsupported range type given as input to a scanning "
 5097|  2.27M|                  "function.\n"
 5098|  2.27M|                  "file_marker_found cannot be used as an "
 5099|  2.27M|                  "source range type to scn::scan.\n"
 5100|  2.27M|                  "To read from stdin, use scn::input or scn::prompt, "
 5101|  2.27M|                  "and do not provide an explicit source range, "
 5102|  2.27M|                  "or use scn::scan with a FILE* directly.");
 5103|  2.27M|    static_assert(!std::is_same_v<T, insufficient_range>,
 5104|  2.27M|                  "\n"
 5105|  2.27M|                  "Unsupported range type given as input to a scanning "
 5106|  2.27M|                  "function.\n"
 5107|  2.27M|                  "In order to be scannable, a range needs to satisfy "
 5108|  2.27M|                  "`forward_range`. `input_range` is not sufficient.");
 5109|  2.27M|    static_assert(!std::is_same_v<T, invalid_input_range>,
 5110|  2.27M|                  "\n"
 5111|  2.27M|                  "Unsupported range type given as input to a scanning "
 5112|  2.27M|                  "function.\n"
 5113|  2.27M|                  "A range needs to model forward_range and have a valid "
 5114|  2.27M|                  "character type (char or wchar_t) to be scannable.\n"
 5115|  2.27M|                  "Examples of scannable ranges are std::string, "
 5116|  2.27M|                  "std::string_view, "
 5117|  2.27M|                  "std::vector<char>, and scn::istreambuf_view.\n"
 5118|  2.27M|                  "See the scnlib documentation for more details.");
 5119|       |
 5120|  2.27M|    return _make_scan_buffer::impl(range, priority_tag<4>{});
 5121|  2.27M|}
_ZN3scn2v46detail17_make_scan_buffer4implINS0_6ranges6detail9subrange_8subrangeIPKcS9_EETnPNSt3__19enable_ifIXaasr6rangesE16contiguous_rangeIT_Esr6rangesE11sized_rangeISD_EEvE4typeELPv0EEEDaRKSD_NS1_12priority_tagILm2EEE:
 5013|  2.27M|{
 5014|  2.27M|    if constexpr (is_valid_char_type<detail::char_t<Range>>) {
 5015|  2.27M|        return std::basic_string_view{ranges::data(r), ranges::size(r)};
 5016|       |    }
 5017|       |    else {
 5018|       |        return invalid_char_type{};
 5019|       |    }
 5020|  2.27M|}
_ZNK3scn2v46ranges6detail5data_2fnclIRKNS2_9subrange_8subrangeIPKcS9_EEEEDTclsr2fnE4implscDtfp_Efp_tlNS0_6detail12priority_tagILm1EEEEEEOT_:
 2999|  2.27M|    {
 3000|  2.27M|        return fn::impl(SCN_FWD(t), priority_tag<1>{});
  ------------------
  |  |  936|  2.27M|#define SCN_FWD(x)          static_cast<decltype(x)&&>(x)
  ------------------
 3001|  2.27M|    }
_ZN3scn2v46ranges6detail5data_2fn4implIKNS2_9subrange_8subrangeIPKcS9_EES9_EENSt3__19enable_ifIX19is_object_pointer_vIT0_EESE_E4typeERT_NS0_6detail12priority_tagILm1EEE:
 2980|  2.27M|    {
 2981|  2.27M|        return t.data();
 2982|  2.27M|    }
_ZNK3scn2v46ranges14view_interfaceINS1_6detail9subrange_8subrangeIPKcS7_EEE4dataIS8_vEEDav:
 3382|  2.27M|    {
 3383|  2.27M|        return detail::to_address(ranges::begin(derived()));
 3384|  2.27M|    }
_ZN3scn2v46detail10to_addressIPKcEEDTclgssr3scn6detailE15to_address_implscDtfp_Efp_tlNS1_12priority_tagILm2EEEEEEOT_:
  315|  14.8M|{
  316|  14.8M|    return ::scn::detail::to_address_impl(SCN_FWD(p), priority_tag<2>{});
  ------------------
  |  |  936|  14.8M|#define SCN_FWD(x)          static_cast<decltype(x)&&>(x)
  ------------------
  317|  14.8M|}
_ZNK3scn2v46ranges6detail6begin_2fnclIRKNS2_9subrange_8subrangeIPKcS9_EEEEDTclsr2fnE4implscDtfp_Efp_tlNS0_6detail12priority_tagILm3EEEEEEOT_:
 2868|  4.29M|    {
 2869|  4.29M|        return fn::impl(SCN_FWD(t), priority_tag<3>{});
  ------------------
  |  |  936|  4.29M|#define SCN_FWD(x)          static_cast<decltype(x)&&>(x)
  ------------------
 2870|  4.29M|    }
_ZN3scn2v46ranges6detail6begin_2fn4implIRKNS2_9subrange_8subrangeIPKcS9_EEEENSt3__19enable_ifIX24input_or_output_iteratorIDTcl10decay_copycldtscDtfp_Efp_5beginEEEEESG_E4typeEOT_NS0_6detail12priority_tagILm1EEE:
 2849|  4.29M|    {
 2850|  4.29M|        return decay_copy(t.begin());
 2851|  4.29M|    }
_ZNK3scn2v46ranges6detail9subrange_8subrangeIPKcS6_E5beginEv:
 3479|  42.1M|    {
 3480|  42.1M|        return m_iterator;
 3481|  42.1M|    }
_ZNK3scn2v46ranges14view_interfaceINS1_6detail9subrange_8subrangeIPKcS7_EEE7derivedEv:
 3338|  2.27M|    {
 3339|  2.27M|        return static_cast<const D&>(*this);
 3340|  2.27M|    }
_ZNK3scn2v46ranges6detail5size_2fnclIRKNS2_9subrange_8subrangeIPKcS9_EEEEDTclsr2fnE4implclsr3stdE7forwardIT_Efp_EtlNS0_6detail12priority_tagILm3EEEEEEOSD_:
 3074|  2.27M|    {
 3075|  2.27M|        return fn::impl(std::forward<T>(t), priority_tag<3>{});
 3076|  2.27M|    }
_ZN3scn2v46ranges6detail5size_2fn4implIRKNS2_9subrange_8subrangeIPKcS9_EEmEENSt3__19enable_ifIXaasr3stdE13is_integral_vIT0_Ent19disable_sized_rangeIu11__remove_cvIu20__remove_reference_tIT_EEEESF_E4typeEOSG_NS0_6detail12priority_tagILm2EEE:
 3040|  2.27M|    {
 3041|  2.27M|        return decay_copy(SCN_FWD(t).size());
  ------------------
  |  |  936|  2.27M|#define SCN_FWD(x)          static_cast<decltype(x)&&>(x)
  ------------------
 3042|  2.27M|    }
_ZN3scn2v46ranges6detail10decay_copyImEEu7__decayIT_EOS4_:
 2093|  5.66M|{
 2094|  5.66M|    return SCN_FWD(t);
  ------------------
  |  |  936|  5.66M|#define SCN_FWD(x)          static_cast<decltype(x)&&>(x)
  ------------------
 2095|  5.66M|}
_ZNK3scn2v46ranges6detail9subrange_8subrangeIPKcS6_E4sizeIS6_TnPNSt3__19enable_ifIX18sized_sentinel_forIS6_T_EEvE4typeELPv0EEEmv:
 3495|  9.88M|    {
 3496|  9.88M|        return static_cast<size_t>(m_sentinel - m_iterator);
 3497|  9.88M|    }
_ZNK3scn2v48expectedIlNS0_10scan_errorEEcvbEv:
 1739|  8.43M|    {
 1740|  8.43M|        return has_value();
 1741|  8.43M|    }
_ZNK3scn2v46detail21expected_storage_baseIlNS0_10scan_errorELb1EE9has_valueEv:
  489|  16.0M|    {
  490|  16.0M|        return m_has_value;
  491|  16.0M|    }
_ZNR3scn2v48expectedIlNS0_10scan_errorEE5errorEv:
 1745|  1.57M|    {
 1746|  1.57M|        SCN_EXPECT(!has_value());
  ------------------
  |  |  930|  1.57M|#define SCN_EXPECT(cond) SCN_ASSERT(cond, "Precondition violation")
  |  |  ------------------
  |  |  |  |  927|  1.57M|#define SCN_ASSERT(cond, msg) assert((cond) && msg)
  |  |  ------------------
  ------------------
 1747|  1.57M|        return this->get_unexpected().error();
 1748|  1.57M|    }
_ZNR3scn2v46detail21expected_storage_baseIlNS0_10scan_errorELb1EE14get_unexpectedEv:
  472|  1.57M|    {
  473|  1.57M|        return m_unexpected;
  474|  1.57M|    }
_ZN3scn2v48expectedINS0_6ranges6detail9subrange_8subrangeIPKcS7_EENS0_10scan_errorEEC2IS9_TnPNSt3__19enable_ifIXsr3stdE18is_constructible_vIS9_OT_EEvE4typeELPv0ETnPNSD_IXsr3stdE16is_convertible_vISF_S9_EEvE4typeELSJ_0EEEONS0_10unexpectedISE_EE:
 1615|   262k|        : base(unexpect, std::move(e.error())),
 1616|   262k|          ctor_base(detail::non_default_ctor_tag_t{})
 1617|   262k|    {
 1618|   262k|    }
_ZN3scn2v46detail21expected_storage_baseINS0_6ranges6detail9subrange_8subrangeIPKcS8_EENS0_10scan_errorELb1EEC2IJSA_EvEENS0_10unexpect_tEDpOT_:
  449|   262k|        : m_unexpected(std::in_place, std::forward<Args>(args)...),
  450|   262k|          m_has_value(false)
  451|   262k|    {
  452|   262k|    }
_ZN3scn2v46detail26expected_default_ctor_baseINS0_6ranges6detail9subrange_8subrangeIPKcS8_EENS0_10scan_errorELb1EEC2ENS1_22non_default_ctor_tag_tE:
 1315|  2.27M|    {
 1316|  2.27M|    }
_ZN3scn2v46detail23make_vscan_result_rangeINS0_6ranges6detail9subrange_8subrangeIPKcS8_EEEENS1_22borrowed_tail_subrangeIT_Xsr6rangesE14borrowed_rangeISB_EEE4typeEOSB_l:
 6368|  2.01M|{
 6369|       |    if constexpr (ranges::random_access_iterator<
 6370|  2.01M|                      ranges::iterator_t<SourceRange>>) {
 6371|  2.01M|        return {ranges::begin(source) + n, make_vscan_result_range_end(source)};
 6372|       |    }
 6373|       |    else {
 6374|       |        auto it = ranges::begin(source);
 6375|       |        while (n > 0) {
 6376|       |            --n;
 6377|       |            ++it;
 6378|       |        }
 6379|       |        return {SCN_MOVE(it), make_vscan_result_range_end(source)};
 6380|       |    }
 6381|  2.01M|}
_ZNK3scn2v46ranges6detail6begin_2fnclIRNS2_9subrange_8subrangeIPKcS9_EEEEDTclsr2fnE4implscDtfp_Efp_tlNS0_6detail12priority_tagILm3EEEEEEOT_:
 2868|  11.3M|    {
 2869|  11.3M|        return fn::impl(SCN_FWD(t), priority_tag<3>{});
  ------------------
  |  |  936|  11.3M|#define SCN_FWD(x)          static_cast<decltype(x)&&>(x)
  ------------------
 2870|  11.3M|    }
_ZN3scn2v46ranges6detail6begin_2fn4implIRNS2_9subrange_8subrangeIPKcS9_EEEENSt3__19enable_ifIX24input_or_output_iteratorIDTcl10decay_copycldtscDtfp_Efp_5beginEEEEESF_E4typeEOT_NS0_6detail12priority_tagILm1EEE:
 2849|  11.3M|    {
 2850|  11.3M|        return decay_copy(t.begin());
 2851|  11.3M|    }
_ZN3scn2v46detail27make_vscan_result_range_endINS0_6ranges6detail9subrange_8subrangeIPKcS8_EEEEDaRT_:
 6355|  2.01M|{
 6356|  2.01M|    return ranges::end(source);
 6357|  2.01M|}
_ZNK3scn2v46ranges6detail4end_2fnclIRNS2_9subrange_8subrangeIPKcS9_EEEEDTclsr2fnE4implscDtfp_Efp_tlNS0_6detail12priority_tagILm3EEEEEEOT_:
 2925|  2.01M|    {
 2926|  2.01M|        return fn::impl(SCN_FWD(t), priority_tag<3>{});
  ------------------
  |  |  936|  2.01M|#define SCN_FWD(x)          static_cast<decltype(x)&&>(x)
  ------------------
 2927|  2.01M|    }
_ZN3scn2v46ranges6detail4end_2fn4implIRNS2_9subrange_8subrangeIPKcS9_EES9_S9_EENSt3__19enable_ifIX12sentinel_forIT0_T1_EEDTcl10decay_copycldtscDtfp_Efp_3endEEEE4typeEOT_NS0_6detail12priority_tagILm1EEE:
 2907|  2.01M|    {
 2908|  2.01M|        return decay_copy(SCN_FWD(t).end());
  ------------------
  |  |  936|  2.01M|#define SCN_FWD(x)          static_cast<decltype(x)&&>(x)
  ------------------
 2909|  2.01M|    }
_ZNK3scn2v46ranges6detail9subrange_8subrangeIPKcS6_E3endEv:
 3483|  29.4M|    {
 3484|  29.4M|        return m_sentinel;
 3485|  29.4M|    }
_ZNR3scn2v48expectedIlNS0_10scan_errorEEdeIlTnPNSt3__19enable_ifIXntsr3stdE9is_void_vIT_EEvE4typeELPv0EEERS7_v:
 1794|  6.07M|    {
 1795|  6.07M|        return value();
 1796|  6.07M|    }
_ZNR3scn2v48expectedIlNS0_10scan_errorEE5valueIlTnPNSt3__19enable_ifIXntsr3stdE9is_void_vIT_EEvE4typeELPv0EEERS7_v:
 1768|  6.07M|    {
 1769|  6.07M|        SCN_EXPECT(has_value());
  ------------------
  |  |  930|  6.07M|#define SCN_EXPECT(cond) SCN_ASSERT(cond, "Precondition violation")
  |  |  ------------------
  |  |  |  |  927|  6.07M|#define SCN_ASSERT(cond, msg) assert((cond) && msg)
  |  |  ------------------
  ------------------
 1770|  6.07M|        return this->get_value();
 1771|  6.07M|    }
_ZNR3scn2v46detail21expected_storage_baseIlNS0_10scan_errorELb1EE9get_valueEv:
  455|  6.07M|    {
  456|  6.07M|        return m_value;
  457|  6.07M|    }
_ZN3scn2v48expectedINS0_6ranges6detail9subrange_8subrangeIPKcS7_EENS0_10scan_errorEEC2IS8_vEEOT_:
 1569|  2.01M|        : base(std::in_place, std::forward<U>(val)),
 1570|  2.01M|          ctor_base(detail::non_default_ctor_tag_t{})
 1571|  2.01M|    {
 1572|  2.01M|    }
_ZN3scn2v46detail21expected_storage_baseINS0_6ranges6detail9subrange_8subrangeIPKcS8_EENS0_10scan_errorELb1EEC2IJS9_EvEENSt3__110in_place_tEDpOT_:
  440|  2.01M|        : m_value(std::forward<Args>(args)...), m_has_value(true)
  441|  2.01M|    {
  442|  2.01M|    }
_ZNK3scn2v424basic_scan_format_stringIcNS0_6ranges6detail9subrange_8subrangeIPKcS7_EEJaEEcvNSt3__117basic_string_viewIcNSA_11char_traitsIcEEEEEv:
 8461|   315k|    {
 8462|   315k|        return m_str;
 8463|   315k|    }
_ZN3scn2v414make_scan_argsINS0_18basic_scan_contextINS0_6detail16buffer_range_tagEcEEJaEEEDaRNSt3__15tupleIJDpT0_EEE:
 5803|   631k|{
 5804|   631k|    detail::check_scan_arg_types<Args...>();
 5805|   631k|    return detail::scan_arg_store<Context, Args...>(values);
 5806|   631k|}
_ZN3scn2v46detail20check_scan_arg_typesIJaEEEbv:
 5518|   860k|{
 5519|   860k|    constexpr bool default_constructible_constraint =
 5520|   860k|        std::conjunction_v<std::is_default_constructible<Args>...>;
 5521|   860k|    static_assert(default_constructible_constraint,
 5522|   860k|                  "Scan argument types must be default constructible");
 5523|       |
 5524|   860k|    constexpr bool destructible_constraint =
 5525|   860k|        std::conjunction_v<std::is_destructible<Args>...>;
 5526|   860k|    static_assert(destructible_constraint,
 5527|   860k|                  "Scan argument types must be Destructible");
 5528|       |
 5529|   860k|    constexpr bool non_reference_constraint =
 5530|   860k|        !std::conjunction_v<std::false_type, std::is_reference<Args>...>;
 5531|   860k|    static_assert(non_reference_constraint,
 5532|   860k|                  "Scan argument types must not be references");
 5533|       |
 5534|   860k|    constexpr bool movable_constraint =
 5535|   860k|        std::conjunction_v<std::is_move_constructible<Args>...>;
 5536|   860k|    static_assert(movable_constraint,
 5537|   860k|                  "Scan argument types must be move constructible");
 5538|       |
 5539|   860k|    return default_constructible_constraint && destructible_constraint &&
  ------------------
  |  Branch (5539:12): [Folded - Ignored]
  |  Branch (5539:48): [Folded - Ignored]
  ------------------
 5540|   860k|           non_reference_constraint && movable_constraint;
  ------------------
  |  Branch (5540:12): [Folded - Ignored]
  |  Branch (5540:40): [Folded - Ignored]
  ------------------
 5541|   860k|}
_ZN3scn2v46detail14scan_arg_storeINS0_18basic_scan_contextINS1_16buffer_range_tagEcEEJaEEC2ERNSt3__15tupleIJaEEE:
 5779|   631k|        : args(std::apply(make_argptrs<Args...>, args))
 5780|   631k|    {
 5781|   631k|    }
_ZN3scn2v46detail14scan_arg_storeINS0_18basic_scan_contextINS1_16buffer_range_tagEcEEJaEE12make_argptrsIJaEEENSt3__15arrayIPvLm1EEEDpRT_:
 5788|   631k|    {
 5789|   631k|        return {detail::make_arg<
 5790|   631k|            kind, Context,
 5791|   631k|            mapped_type_constant<remove_cvref_t<A>,
 5792|   631k|                                 typename Context::char_type>::value>(args)...};
 5793|   631k|    }
_ZN3scn2v46detail8make_argILNS1_19scan_arg_store_kindE0ENS0_18basic_scan_contextINS1_16buffer_range_tagEcEELNS1_8arg_typeE1EavEEPvRT2_:
 5568|   631k|{
 5569|   631k|    return make_value<Context>(value).ref_value;
 5570|   631k|}
_ZN3scn2v46detail10make_valueINS0_18basic_scan_contextINS1_16buffer_range_tagEcEEaEEDaRT0_:
 5503|   684k|{
 5504|   684k|    auto&& arg = arg_mapper<typename Context::char_type>().map(value);
 5505|       |
 5506|       |    if constexpr (!std::is_same_v<remove_cvref_t<decltype(arg)>,
 5507|   684k|                                  needs_context_tag>) {
 5508|   684k|        return make_value_impl<T>(SCN_FWD(arg));
  ------------------
  |  |  936|   684k|#define SCN_FWD(x)          static_cast<decltype(x)&&>(x)
  ------------------
 5509|       |    }
 5510|       |    else {
 5511|       |        return make_value_impl<T>(arg_mapper<typename Context::char_type>().map(
 5512|       |            value, context_tag<Context>{}));
 5513|       |    }
 5514|   684k|}
_ZN3scn2v46detail10arg_mapperIcE3mapERa:
 5342|   684k|    {                                                                        \
 5343|   684k|        return val;                                                          \
 5344|   684k|    }
_ZN3scn2v46detail15make_value_implIaRaEEDaOT0_:
 5472|   860k|{
 5473|   860k|    using arg_nocvref_t = remove_cvref_t<Arg>;
 5474|   860k|    static_assert(!std::is_same_v<arg_nocvref_t, needs_context_tag>);
 5475|       |
 5476|   860k|    constexpr bool scannable_char =
 5477|   860k|        !std::is_same_v<arg_nocvref_t, unscannable_char>;
 5478|   860k|    static_assert(scannable_char,
 5479|   860k|                  "Cannot scan an argument of an unsupported character "
 5480|   860k|                  "type (i.e. char from a wchar_t source)");
 5481|       |
 5482|   860k|    constexpr bool scannable_const =
 5483|   860k|        !std::is_same_v<arg_nocvref_t, unscannable_const>;
 5484|   860k|    static_assert(scannable_const, "Cannot scan a const argument");
 5485|       |
 5486|   860k|    constexpr bool scannable_disabled =
 5487|   860k|        !std::is_same_v<arg_nocvref_t, unscannable_disabled>;
 5488|   860k|    static_assert(scannable_disabled,
 5489|   860k|                  "Cannot scan an argument that has been disabled by "
 5490|   860k|                  "flag (SCN_DISABLE_TYPE_*)");
 5491|       |
 5492|   860k|    constexpr bool scannable = !std::is_same_v<arg_nocvref_t, unscannable>;
 5493|   860k|    static_assert(
 5494|   860k|        scannable,
 5495|   860k|        "Cannot scan an argument. To make a type T scannable, provide "
 5496|   860k|        "a scn::scanner<T, CharT> specialization.");
 5497|       |
 5498|   860k|    return arg_value{arg};
 5499|   860k|}
_ZN3scn2v46detail9arg_valueC2IaEERT_:
 5256|   860k|    explicit constexpr arg_value(T& val) : ref_value{std::addressof(val)}
 5257|   860k|    {
 5258|   860k|    }
_ZNR3scn2v46detail25scan_result_value_storageIJaEE6valuesEv:
 6047|   799k|    {
 6048|   799k|        return m_values;
 6049|   799k|    }
_ZN3scn2v415basic_scan_argsINS0_18basic_scan_contextINS0_6detail16buffer_range_tagEcEEEC2IJaEEERKNS3_14scan_arg_storeIS5_JDpT_EEE:
 5829|   631k|        : basic_scan_args(store.desc, store.args.data())
 5830|   631k|    {
 5831|   631k|    }
_ZN3scn2v415basic_scan_argsINS0_18basic_scan_contextINS0_6detail16buffer_range_tagEcEEEC2EmPKPv:
 5881|  4.23M|        : m_desc(desc), m_builtin_values(data)
 5882|  4.23M|    {
 5883|  4.23M|    }
_ZN3scn2v46ranges6detail9subrange_8subrangeIPKcS6_EC2IS6_TnPNSt3__19enable_ifIXsr3stdE16is_convertible_vIT_S6_EEvE4typeELPv0EEESB_S6_:
 3464|  21.8M|        : m_iterator(SCN_MOVE(i)), m_sentinel(SCN_MOVE(s))
  ------------------
  |  |  934|  21.8M|    static_cast<    \
  |  |  935|  21.8M|        typename ::scn::detail::remove_reference<decltype(x)>::type&&>(x)
  ------------------
                      : m_iterator(SCN_MOVE(i)), m_sentinel(SCN_MOVE(s))
  ------------------
  |  |  934|  21.8M|    static_cast<    \
  |  |  935|  21.8M|        typename ::scn::detail::remove_reference<decltype(x)>::type&&>(x)
  ------------------
 3465|  21.8M|    {
 3466|  21.8M|    }
_ZN3scn2v414runtime_formatENSt3__117basic_string_viewIcNS1_11char_traitsIcEEEE:
 8134|  4.23M|{
 8135|  4.23M|    return s;
 8136|  4.23M|}
_ZN3scn2v46detail27basic_runtime_format_stringIcEC2ENSt3__117basic_string_viewIcNS4_11char_traitsIcEEEE:
 8111|  4.23M|    basic_runtime_format_string(std::basic_string_view<CharT> s) : str(s) {}
_ZN3scn2v424basic_scan_format_stringIcNS0_6ranges6detail9subrange_8subrangeIPKcS7_EEJaEEC2ENS0_6detail27basic_runtime_format_stringIcEE:
 8456|   315k|        : m_str(r.str)
 8457|   315k|    {
 8458|   315k|    }
_ZNK3scn2v48expectedINS0_11scan_resultINS0_6ranges6detail9subrange_8subrangeIPKcS8_EEJaEEENS0_10scan_errorEEcvbEv:
 1739|   341k|    {
 1740|   341k|        return has_value();
 1741|   341k|    }
_ZN3scn2v48expectedINS0_11scan_resultINS0_6ranges6detail9subrange_8subrangeIPKcS8_EEJaEEENS0_10scan_errorEEptEv:
 1814|   937k|    {
 1815|   937k|        return &value();
 1816|   937k|    }
_ZNR3scn2v48expectedINS0_11scan_resultINS0_6ranges6detail9subrange_8subrangeIPKcS8_EEJaEEENS0_10scan_errorEE5valueISA_TnPNSt3__19enable_ifIXntsr3stdE9is_void_vIT_EEvE4typeELPv0EEERSG_v:
 1768|   937k|    {
 1769|   937k|        SCN_EXPECT(has_value());
  ------------------
  |  |  930|   937k|#define SCN_EXPECT(cond) SCN_ASSERT(cond, "Precondition violation")
  |  |  ------------------
  |  |  |  |  927|   937k|#define SCN_ASSERT(cond, msg) assert((cond) && msg)
  |  |  ------------------
  ------------------
 1770|   937k|        return this->get_value();
 1771|   937k|    }
_ZNK3scn2v46detail25scan_result_range_storageINS0_6ranges6detail9subrange_8subrangeIPKcS8_EEE5beginEv:
 6127|  2.01M|    {
 6128|  2.01M|        return ranges::begin(m_range);
 6129|  2.01M|    }
_ZN3scn2v44scanIJaENSt3__16localeENS0_6ranges6detail9subrange_8subrangeIPKcS9_EEvvEENS0_13scan_expectedINS0_11scan_resultINS2_11conditionalIXsr3stdE9is_same_vIu11__remove_cvIu20__remove_reference_tIT1_EEP8_IO_FILEEESI_NS0_6detail22borrowed_tail_subrangeISE_Xsr6rangesE14borrowed_rangeISE_EEE4typeEE4typeEJDpT_EEEEERKT0_OSE_NS0_24basic_scan_format_stringIcNSJ_13type_identityISE_E4typeEJDpNSY_ISP_E4typeEEEE:
 9443|   157k|{
 9444|   157k|    auto result = make_scan_result<Source, Args...>();
 9445|   157k|    fill_scan_result(result, vscan(loc, SCN_FWD(source), format,
  ------------------
  |  |  936|   157k|#define SCN_FWD(x)          static_cast<decltype(x)&&>(x)
  ------------------
 9446|   157k|                                   make_scan_args(result->values())));
 9447|   157k|    return result;
 9448|   157k|}
_ZN3scn2v45vscanINS0_6ranges6detail9subrange_8subrangeIPKcS7_EENSt3__16localeEvEENS0_13scan_expectedINS9_11conditionalIXsr3stdE9is_same_vIu11__remove_cvIu20__remove_reference_tIT_EEP8_IO_FILEEESH_NS0_6detail22borrowed_tail_subrangeISD_Xsr6rangesE14borrowed_rangeISD_EEE4typeEE4typeEEERKT0_OSD_NS9_17basic_string_viewIcNS9_11char_traitsIcEEEENS0_15basic_scan_argsINS0_18basic_scan_contextINSI_16buffer_range_tagEcEEEE:
 9172|  1.05M|{
 9173|  1.05M|    return detail::vscan_localized_generic(loc, SCN_FWD(source), format, args);
  ------------------
  |  |  936|  1.05M|#define SCN_FWD(x)          static_cast<decltype(x)&&>(x)
  ------------------
 9174|  1.05M|}
_ZN3scn2v46detail23vscan_localized_genericINSt3__16localeENS0_6ranges6detail9subrange_8subrangeIPKcSA_EEcEENS0_13scan_expectedINS3_11conditionalIXsr3stdE9is_same_vIu11__remove_cvIu20__remove_reference_tIT0_EEP8_IO_FILEEESI_NS1_22borrowed_tail_subrangeISE_Xsr6rangesE14borrowed_rangeISE_EEE4typeEE4typeEEERKT_OSE_NS3_17basic_string_viewIT1_NS3_11char_traitsISU_EEEENS0_15basic_scan_argsINS0_18basic_scan_contextINS1_16buffer_range_tagESU_EEEE:
 9107|  1.05M|{
 9108|  1.05M|#if !SCN_DISABLE_LOCALE
 9109|  1.05M|    auto buffer = detail::make_scan_buffer(range);
 9110|       |
 9111|  1.05M|    SCN_CLANG_PUSH_IGNORE_UNDEFINED_TEMPLATE
 9112|  1.05M|    auto result = detail::vscan_localized_impl(loc, buffer, format, args);
 9113|  1.05M|    SCN_CLANG_POP_IGNORE_UNDEFINED_TEMPLATE
 9114|       |
 9115|  1.05M|    if (SCN_UNLIKELY(!result)) {
  ------------------
  |  |  865|  1.05M|#define SCN_UNLIKELY(x) __builtin_expect(!!(x), 0)
  |  |  ------------------
  |  |  |  Branch (865:25): [True: 125k, False: 932k]
  |  |  ------------------
  ------------------
 9116|   125k|        return unexpected(result.error());
 9117|   125k|    }
 9118|   932k|    return detail::make_vscan_result_range(SCN_FWD(range), *result);
  ------------------
  |  |  936|   932k|#define SCN_FWD(x)          static_cast<decltype(x)&&>(x)
  ------------------
 9119|       |#else
 9120|       |    static_assert(dependent_false<Locale>::value,
 9121|       |                  "Can't use scan(locale, ...) with SCN_DISABLE_LOCALE on");
 9122|       |
 9123|       |    return {};
 9124|       |#endif
 9125|  1.05M|}
_ZN3scn2v410scan_valueIaNS0_6ranges6detail9subrange_8subrangeIPKcS7_EEvEENS0_13scan_expectedINS0_11scan_resultINSt3__111conditionalIXsr3stdE9is_same_vIu11__remove_cvIu20__remove_reference_tIT0_EEP8_IO_FILEEESH_NS0_6detail22borrowed_tail_subrangeISD_Xsr6rangesE14borrowed_rangeISD_EEE4typeEE4typeEJT_EEEEEOSD_:
 9484|  26.4k|{
 9485|  26.4k|    auto result = make_scan_result<Source, T>();
 9486|  26.4k|    fill_scan_result(
 9487|  26.4k|        result, vscan_value(SCN_FWD(source),
  ------------------
  |  |  936|  26.4k|#define SCN_FWD(x)          static_cast<decltype(x)&&>(x)
  ------------------
 9488|  26.4k|                            detail::make_arg<scan_context>(result->value())));
 9489|  26.4k|    return result;
 9490|  26.4k|}
_ZN3scn2v411vscan_valueINS0_6ranges6detail9subrange_8subrangeIPKcS7_EEEENS0_13scan_expectedINSt3__111conditionalIXsr3stdE9is_same_vIu11__remove_cvIu20__remove_reference_tIT_EEP8_IO_FILEEESG_NS0_6detail22borrowed_tail_subrangeISC_Xsr6rangesE14borrowed_rangeISC_EEE4typeEE4typeEEEOSC_NS0_14basic_scan_argINS0_18basic_scan_contextINSH_16buffer_range_tagEcEEEE:
 9185|   164k|{
 9186|   164k|    return detail::vscan_value_generic(SCN_FWD(source), arg);
  ------------------
  |  |  936|   164k|#define SCN_FWD(x)          static_cast<decltype(x)&&>(x)
  ------------------
 9187|   164k|}
_ZN3scn2v46detail19vscan_value_genericINS0_6ranges6detail9subrange_8subrangeIPKcS8_EEcEENS0_13scan_expectedINSt3__111conditionalIXsr3stdE9is_same_vIu11__remove_cvIu20__remove_reference_tIT_EEP8_IO_FILEEESH_NS1_22borrowed_tail_subrangeISD_Xsr6rangesE14borrowed_rangeISD_EEE4typeEE4typeEEEOSD_NS0_14basic_scan_argINS0_18basic_scan_contextINS1_16buffer_range_tagET0_EEEE:
 9131|   164k|{
 9132|   164k|    auto buffer = detail::make_scan_buffer(range);
 9133|       |
 9134|   164k|    auto result = detail::vscan_value_impl(buffer, arg);
 9135|   164k|    if (SCN_UNLIKELY(!result)) {
  ------------------
  |  |  865|   164k|#define SCN_UNLIKELY(x) __builtin_expect(!!(x), 0)
  |  |  ------------------
  |  |  |  Branch (865:25): [True: 12.5k, False: 152k]
  |  |  ------------------
  ------------------
 9136|  12.5k|        return unexpected(result.error());
 9137|  12.5k|    }
 9138|   152k|    return detail::make_vscan_result_range(SCN_FWD(range), *result);
  ------------------
  |  |  936|   152k|#define SCN_FWD(x)          static_cast<decltype(x)&&>(x)
  ------------------
 9139|   164k|}
_ZN3scn2v46detail8make_argINS0_18basic_scan_contextINS1_16buffer_range_tagEcEEaEENS0_14basic_scan_argIT_EERT0_:
 5553|  52.8k|{
 5554|  52.8k|    check_scan_arg_types<T>();
 5555|       |
 5556|  52.8k|    basic_scan_arg<Context> arg;
 5557|  52.8k|    arg.m_type = mapped_type_constant<T, typename Context::char_type>::value;
 5558|  52.8k|    arg.m_value = make_value<Context>(value);
 5559|  52.8k|    return arg;
 5560|  52.8k|}
_ZN3scn2v414basic_scan_argINS0_18basic_scan_contextINS0_6detail16buffer_range_tagEcEEEC2Ev:
 5648|  4.56M|    constexpr basic_scan_arg() = default;
_ZN3scn2v46detail9arg_valueC2Ev:
 5253|  5.62M|    arg_value() = default;
_ZNR3scn2v46detail25scan_result_value_storageIJaEE5valueILm1ETnPNSt3__19enable_ifIXeqT_Li1EEvE4typeELPv0EEEDcv:
 6069|  61.3k|    {
 6070|  61.3k|        return std::get<0>(m_values);
 6071|  61.3k|    }
_ZN3scn2v44scanIJhENS0_6ranges6detail9subrange_8subrangeIPKcS7_EEvEENS0_13scan_expectedINS0_11scan_resultINSt3__111conditionalIXsr3stdE9is_same_vIu11__remove_cvIu20__remove_reference_tIT0_EEP8_IO_FILEEESH_NS0_6detail22borrowed_tail_subrangeISD_Xsr6rangesE14borrowed_rangeISD_EEE4typeEE4typeEJDpT_EEEEEOSD_NS0_24basic_scan_format_stringIcNSI_13type_identityISD_E4typeEJDpNSU_ISO_E4typeEEEE:
 9374|   152k|{
 9375|   152k|    auto result = make_scan_result<Source, Args...>();
 9376|   152k|    fill_scan_result(result, vscan(SCN_FWD(source), format,
  ------------------
  |  |  936|   152k|#define SCN_FWD(x)          static_cast<decltype(x)&&>(x)
  ------------------
 9377|   152k|                                   make_scan_args(result->values())));
 9378|   152k|    return result;
 9379|   152k|}
_ZN3scn2v416make_scan_resultINS0_6ranges6detail9subrange_8subrangeIPKcS7_EEJhEEEDav:
 9330|   327k|{
 9331|   327k|    return scan_result_type<Source, Args...>();
 9332|   327k|}
_ZN3scn2v48expectedINS0_11scan_resultINS0_6ranges6detail9subrange_8subrangeIPKcS8_EEJhEEENS0_10scan_errorEEC2Ev:
 1551|   327k|    constexpr expected() = default;
_ZN3scn2v46detail21expected_storage_baseINS0_11scan_resultINS0_6ranges6detail9subrange_8subrangeIPKcS9_EEJhEEENS0_10scan_errorELb1EEC2Ev:
  426|   327k|        : m_value(T{}), m_has_value(true)
  427|   327k|    {
  428|   327k|    }
_ZN3scn2v411scan_resultINS0_6ranges6detail9subrange_8subrangeIPKcS7_EEJhEEC2Ev:
 6264|   327k|    constexpr scan_result() = default;
_ZN3scn2v46detail25scan_result_value_storageIJhEEC2Ev:
 6038|   833k|    constexpr scan_result_value_storage() = default;
_ZN3scn2v416fill_scan_resultINS0_11scan_resultINS0_6ranges6detail9subrange_8subrangeIPKcS8_EEJhEEES9_TnPNSt3__19enable_ifIXsr3stdE13conjunction_vINS0_6detail25is_specialization_of_implIu11__remove_cvIu20__remove_reference_tIT_EES2_EENSB_7is_sameINSF_10range_typeET0_EEEEvE4typeELPv0EEEvRNS0_13scan_expectedISF_EEONSR_ISL_EE:
 9315|   327k|{
 9316|   327k|    if (SCN_UNLIKELY(!in)) {
  ------------------
  |  |  865|   327k|#define SCN_UNLIKELY(x) __builtin_expect(!!(x), 0)
  |  |  ------------------
  |  |  |  Branch (865:25): [True: 43.7k, False: 284k]
  |  |  ------------------
  ------------------
 9317|  43.7k|        out = unexpected(in.error());
 9318|  43.7k|    }
 9319|   284k|    else {
 9320|   284k|        out->set_range(SCN_MOVE(*in));
  ------------------
  |  |  934|   284k|    static_cast<    \
  |  |  935|   284k|        typename ::scn::detail::remove_reference<decltype(x)>::type&&>(x)
  ------------------
 9321|   284k|    }
 9322|   327k|}
_ZN3scn2v48expectedINS0_11scan_resultINS0_6ranges6detail9subrange_8subrangeIPKcS8_EEJhEEENS0_10scan_errorEEC2ISB_TnPNSt3__19enable_ifIXsr3stdE18is_constructible_vISB_OT_EEvE4typeELPv0ETnPNSF_IXsr3stdE16is_convertible_vISH_SB_EEvE4typeELSL_0EEEONS0_10unexpectedISG_EE:
 1615|  43.7k|        : base(unexpect, std::move(e.error())),
 1616|  43.7k|          ctor_base(detail::non_default_ctor_tag_t{})
 1617|  43.7k|    {
 1618|  43.7k|    }
_ZN3scn2v46detail21expected_storage_baseINS0_11scan_resultINS0_6ranges6detail9subrange_8subrangeIPKcS9_EEJhEEENS0_10scan_errorELb1EEC2IJSC_EvEENS0_10unexpect_tEDpOT_:
  449|  43.7k|        : m_unexpected(std::in_place, std::forward<Args>(args)...),
  450|  43.7k|          m_has_value(false)
  451|  43.7k|    {
  452|  43.7k|    }
_ZN3scn2v46detail26expected_default_ctor_baseINS0_11scan_resultINS0_6ranges6detail9subrange_8subrangeIPKcS9_EEJhEEENS0_10scan_errorELb1EEC2ENS1_22non_default_ctor_tag_tE:
 1315|  43.7k|    {
 1316|  43.7k|    }
_ZN3scn2v48expectedINS0_11scan_resultINS0_6ranges6detail9subrange_8subrangeIPKcS8_EEJhEEENS0_10scan_errorEEaSEOSC_:
 1556|  43.7k|    constexpr expected& operator=(expected&&) = default;
_ZN3scn2v46detail24expected_operations_baseINS0_11scan_resultINS0_6ranges6detail9subrange_8subrangeIPKcS9_EEJhEEENS0_10scan_errorEvEaSEOSD_:
  902|  43.7k|    {
  903|  43.7k|        assign_common(std::move(other));
  904|  43.7k|        return *this;
  905|  43.7k|    }
_ZN3scn2v46detail24expected_operations_baseINS0_11scan_resultINS0_6ranges6detail9subrange_8subrangeIPKcS9_EEJhEEENS0_10scan_errorEvE13assign_commonISD_EEvOT_:
  949|  43.7k|    {
  950|  43.7k|        if (this->has_value()) {
  ------------------
  |  Branch (950:13): [True: 43.7k, False: 0]
  ------------------
  951|  43.7k|            if (other.has_value()) {
  ------------------
  |  Branch (951:17): [True: 0, False: 43.7k]
  ------------------
  952|      0|                return reassign_value(std::forward<Other>(other));
  953|      0|            }
  954|  43.7k|            return assign_unexpected_over_value(std::forward<Other>(other));
  955|  43.7k|        }
  956|       |
  957|      0|        if (other.has_value()) {
  ------------------
  |  Branch (957:13): [True: 0, False: 0]
  ------------------
  958|      0|            return assign_value_over_unexpected(std::forward<Other>(other));
  959|      0|        }
  960|      0|        return reassign_unexpected(std::forward<Other>(other));
  961|      0|    }
_ZNK3scn2v46detail21expected_storage_baseINS0_11scan_resultINS0_6ranges6detail9subrange_8subrangeIPKcS9_EEJhEEENS0_10scan_errorELb1EE9has_valueEv:
  489|  1.31M|    {
  490|  1.31M|        return m_has_value;
  491|  1.31M|    }
_ZNR3scn2v46detail21expected_storage_baseINS0_11scan_resultINS0_6ranges6detail9subrange_8subrangeIPKcS9_EEJhEEENS0_10scan_errorELb1EE9get_valueEv:
  455|   896k|    {
  456|   896k|        return m_value;
  457|   896k|    }
_ZN3scn2v46detail24expected_operations_baseINS0_11scan_resultINS0_6ranges6detail9subrange_8subrangeIPKcS9_EEJhEEENS0_10scan_errorEvE28assign_unexpected_over_valueISD_EEvOT_:
 1045|  43.7k|    {
 1046|  43.7k|        this->destroy_value();
 1047|  43.7k|        this->construct_unexpected(std::forward<Other>(other).get_unexpected());
 1048|  43.7k|    }
_ZN3scn2v46detail21expected_storage_baseINS0_11scan_resultINS0_6ranges6detail9subrange_8subrangeIPKcS9_EEJhEEENS0_10scan_errorELb1EE13destroy_valueEv:
  510|  43.7k|    static constexpr void destroy_value() noexcept {}
_ZN3scn2v46detail21expected_storage_baseINS0_11scan_resultINS0_6ranges6detail9subrange_8subrangeIPKcS9_EEJhEEENS0_10scan_errorELb1EE20construct_unexpectedIJNS0_10unexpectedISC_EEEEEvDpOT_:
  503|  43.7k|    {
  504|  43.7k|        scn::detail::construct_at(&get_unexpected(),
  505|  43.7k|                                  std::forward<Args>(args)...);
  506|  43.7k|        m_has_value = false;
  507|  43.7k|    }
_ZNR3scn2v46detail21expected_storage_baseINS0_11scan_resultINS0_6ranges6detail9subrange_8subrangeIPKcS9_EEJhEEENS0_10scan_errorELb1EE14get_unexpectedEv:
  472|  43.7k|    {
  473|  43.7k|        return m_unexpected;
  474|  43.7k|    }
_ZNO3scn2v46detail21expected_storage_baseINS0_11scan_resultINS0_6ranges6detail9subrange_8subrangeIPKcS9_EEJhEEENS0_10scan_errorELb1EE14get_unexpectedEv:
  480|  43.7k|    {
  481|  43.7k|        return std::move(m_unexpected);
  482|  43.7k|    }
_ZNK3scn2v424basic_scan_format_stringIcNS0_6ranges6detail9subrange_8subrangeIPKcS7_EEJhEEcvNSt3__117basic_string_viewIcNSA_11char_traitsIcEEEEEv:
 8461|   304k|    {
 8462|   304k|        return m_str;
 8463|   304k|    }
_ZN3scn2v414make_scan_argsINS0_18basic_scan_contextINS0_6detail16buffer_range_tagEcEEJhEEEDaRNSt3__15tupleIJDpT0_EEE:
 5803|   609k|{
 5804|   609k|    detail::check_scan_arg_types<Args...>();
 5805|   609k|    return detail::scan_arg_store<Context, Args...>(values);
 5806|   609k|}
_ZN3scn2v46detail20check_scan_arg_typesIJhEEEbv:
 5518|   833k|{
 5519|   833k|    constexpr bool default_constructible_constraint =
 5520|   833k|        std::conjunction_v<std::is_default_constructible<Args>...>;
 5521|   833k|    static_assert(default_constructible_constraint,
 5522|   833k|                  "Scan argument types must be default constructible");
 5523|       |
 5524|   833k|    constexpr bool destructible_constraint =
 5525|   833k|        std::conjunction_v<std::is_destructible<Args>...>;
 5526|   833k|    static_assert(destructible_constraint,
 5527|   833k|                  "Scan argument types must be Destructible");
 5528|       |
 5529|   833k|    constexpr bool non_reference_constraint =
 5530|   833k|        !std::conjunction_v<std::false_type, std::is_reference<Args>...>;
 5531|   833k|    static_assert(non_reference_constraint,
 5532|   833k|                  "Scan argument types must not be references");
 5533|       |
 5534|   833k|    constexpr bool movable_constraint =
 5535|   833k|        std::conjunction_v<std::is_move_constructible<Args>...>;
 5536|   833k|    static_assert(movable_constraint,
 5537|   833k|                  "Scan argument types must be move constructible");
 5538|       |
 5539|   833k|    return default_constructible_constraint && destructible_constraint &&
  ------------------
  |  Branch (5539:12): [Folded - Ignored]
  |  Branch (5539:48): [Folded - Ignored]
  ------------------
 5540|   833k|           non_reference_constraint && movable_constraint;
  ------------------
  |  Branch (5540:12): [Folded - Ignored]
  |  Branch (5540:40): [Folded - Ignored]
  ------------------
 5541|   833k|}
_ZN3scn2v46detail14scan_arg_storeINS0_18basic_scan_contextINS1_16buffer_range_tagEcEEJhEEC2ERNSt3__15tupleIJhEEE:
 5779|   609k|        : args(std::apply(make_argptrs<Args...>, args))
 5780|   609k|    {
 5781|   609k|    }
_ZN3scn2v46detail14scan_arg_storeINS0_18basic_scan_contextINS1_16buffer_range_tagEcEEJhEE12make_argptrsIJhEEENSt3__15arrayIPvLm1EEEDpRT_:
 5788|   609k|    {
 5789|   609k|        return {detail::make_arg<
 5790|   609k|            kind, Context,
 5791|   609k|            mapped_type_constant<remove_cvref_t<A>,
 5792|   609k|                                 typename Context::char_type>::value>(args)...};
 5793|   609k|    }
_ZN3scn2v46detail8make_argILNS1_19scan_arg_store_kindE0ENS0_18basic_scan_contextINS1_16buffer_range_tagEcEELNS1_8arg_typeE6EhvEEPvRT2_:
 5568|   609k|{
 5569|   609k|    return make_value<Context>(value).ref_value;
 5570|   609k|}
_ZN3scn2v46detail10make_valueINS0_18basic_scan_contextINS1_16buffer_range_tagEcEEhEEDaRT0_:
 5503|   656k|{
 5504|   656k|    auto&& arg = arg_mapper<typename Context::char_type>().map(value);
 5505|       |
 5506|       |    if constexpr (!std::is_same_v<remove_cvref_t<decltype(arg)>,
 5507|   656k|                                  needs_context_tag>) {
 5508|   656k|        return make_value_impl<T>(SCN_FWD(arg));
  ------------------
  |  |  936|   656k|#define SCN_FWD(x)          static_cast<decltype(x)&&>(x)
  ------------------
 5509|       |    }
 5510|       |    else {
 5511|       |        return make_value_impl<T>(arg_mapper<typename Context::char_type>().map(
 5512|       |            value, context_tag<Context>{}));
 5513|       |    }
 5514|   656k|}
_ZN3scn2v46detail10arg_mapperIcE3mapERh:
 5342|   656k|    {                                                                        \
 5343|   656k|        return val;                                                          \
 5344|   656k|    }
_ZN3scn2v46detail15make_value_implIhRhEEDaOT0_:
 5472|   833k|{
 5473|   833k|    using arg_nocvref_t = remove_cvref_t<Arg>;
 5474|   833k|    static_assert(!std::is_same_v<arg_nocvref_t, needs_context_tag>);
 5475|       |
 5476|   833k|    constexpr bool scannable_char =
 5477|   833k|        !std::is_same_v<arg_nocvref_t, unscannable_char>;
 5478|   833k|    static_assert(scannable_char,
 5479|   833k|                  "Cannot scan an argument of an unsupported character "
 5480|   833k|                  "type (i.e. char from a wchar_t source)");
 5481|       |
 5482|   833k|    constexpr bool scannable_const =
 5483|   833k|        !std::is_same_v<arg_nocvref_t, unscannable_const>;
 5484|   833k|    static_assert(scannable_const, "Cannot scan a const argument");
 5485|       |
 5486|   833k|    constexpr bool scannable_disabled =
 5487|   833k|        !std::is_same_v<arg_nocvref_t, unscannable_disabled>;
 5488|   833k|    static_assert(scannable_disabled,
 5489|   833k|                  "Cannot scan an argument that has been disabled by "
 5490|   833k|                  "flag (SCN_DISABLE_TYPE_*)");
 5491|       |
 5492|   833k|    constexpr bool scannable = !std::is_same_v<arg_nocvref_t, unscannable>;
 5493|   833k|    static_assert(
 5494|   833k|        scannable,
 5495|   833k|        "Cannot scan an argument. To make a type T scannable, provide "
 5496|   833k|        "a scn::scanner<T, CharT> specialization.");
 5497|       |
 5498|   833k|    return arg_value{arg};
 5499|   833k|}
_ZN3scn2v46detail9arg_valueC2IhEERT_:
 5256|   833k|    explicit constexpr arg_value(T& val) : ref_value{std::addressof(val)}
 5257|   833k|    {
 5258|   833k|    }
_ZNR3scn2v46detail25scan_result_value_storageIJhEE6valuesEv:
 6047|   777k|    {
 6048|   777k|        return m_values;
 6049|   777k|    }
_ZN3scn2v415basic_scan_argsINS0_18basic_scan_contextINS0_6detail16buffer_range_tagEcEEEC2IJhEEERKNS3_14scan_arg_storeIS5_JDpT_EEE:
 5829|   609k|        : basic_scan_args(store.desc, store.args.data())
 5830|   609k|    {
 5831|   609k|    }
_ZN3scn2v424basic_scan_format_stringIcNS0_6ranges6detail9subrange_8subrangeIPKcS7_EEJhEEC2ENS0_6detail27basic_runtime_format_stringIcEE:
 8456|   304k|        : m_str(r.str)
 8457|   304k|    {
 8458|   304k|    }
_ZNK3scn2v48expectedINS0_11scan_resultINS0_6ranges6detail9subrange_8subrangeIPKcS8_EEJhEEENS0_10scan_errorEEcvbEv:
 1739|   327k|    {
 1740|   327k|        return has_value();
 1741|   327k|    }
_ZN3scn2v48expectedINS0_11scan_resultINS0_6ranges6detail9subrange_8subrangeIPKcS8_EEJhEEENS0_10scan_errorEEptEv:
 1814|   896k|    {
 1815|   896k|        return &value();
 1816|   896k|    }
_ZNR3scn2v48expectedINS0_11scan_resultINS0_6ranges6detail9subrange_8subrangeIPKcS8_EEJhEEENS0_10scan_errorEE5valueISA_TnPNSt3__19enable_ifIXntsr3stdE9is_void_vIT_EEvE4typeELPv0EEERSG_v:
 1768|   896k|    {
 1769|   896k|        SCN_EXPECT(has_value());
  ------------------
  |  |  930|   896k|#define SCN_EXPECT(cond) SCN_ASSERT(cond, "Precondition violation")
  |  |  ------------------
  |  |  |  |  927|   896k|#define SCN_ASSERT(cond, msg) assert((cond) && msg)
  |  |  ------------------
  ------------------
 1770|   896k|        return this->get_value();
 1771|   896k|    }
_ZN3scn2v44scanIJhENSt3__16localeENS0_6ranges6detail9subrange_8subrangeIPKcS9_EEvvEENS0_13scan_expectedINS0_11scan_resultINS2_11conditionalIXsr3stdE9is_same_vIu11__remove_cvIu20__remove_reference_tIT1_EEP8_IO_FILEEESI_NS0_6detail22borrowed_tail_subrangeISE_Xsr6rangesE14borrowed_rangeISE_EEE4typeEE4typeEJDpT_EEEEERKT0_OSE_NS0_24basic_scan_format_stringIcNSJ_13type_identityISE_E4typeEJDpNSY_ISP_E4typeEEEE:
 9443|   152k|{
 9444|   152k|    auto result = make_scan_result<Source, Args...>();
 9445|   152k|    fill_scan_result(result, vscan(loc, SCN_FWD(source), format,
  ------------------
  |  |  936|   152k|#define SCN_FWD(x)          static_cast<decltype(x)&&>(x)
  ------------------
 9446|   152k|                                   make_scan_args(result->values())));
 9447|   152k|    return result;
 9448|   152k|}
_ZN3scn2v410scan_valueIhNS0_6ranges6detail9subrange_8subrangeIPKcS7_EEvEENS0_13scan_expectedINS0_11scan_resultINSt3__111conditionalIXsr3stdE9is_same_vIu11__remove_cvIu20__remove_reference_tIT0_EEP8_IO_FILEEESH_NS0_6detail22borrowed_tail_subrangeISD_Xsr6rangesE14borrowed_rangeISD_EEE4typeEE4typeEJT_EEEEEOSD_:
 9484|  23.5k|{
 9485|  23.5k|    auto result = make_scan_result<Source, T>();
 9486|  23.5k|    fill_scan_result(
 9487|  23.5k|        result, vscan_value(SCN_FWD(source),
  ------------------
  |  |  936|  23.5k|#define SCN_FWD(x)          static_cast<decltype(x)&&>(x)
  ------------------
 9488|  23.5k|                            detail::make_arg<scan_context>(result->value())));
 9489|  23.5k|    return result;
 9490|  23.5k|}
_ZN3scn2v46detail8make_argINS0_18basic_scan_contextINS1_16buffer_range_tagEcEEhEENS0_14basic_scan_argIT_EERT0_:
 5553|  46.9k|{
 5554|  46.9k|    check_scan_arg_types<T>();
 5555|       |
 5556|  46.9k|    basic_scan_arg<Context> arg;
 5557|  46.9k|    arg.m_type = mapped_type_constant<T, typename Context::char_type>::value;
 5558|  46.9k|    arg.m_value = make_value<Context>(value);
 5559|  46.9k|    return arg;
 5560|  46.9k|}
_ZNR3scn2v46detail25scan_result_value_storageIJhEE5valueILm1ETnPNSt3__19enable_ifIXeqT_Li1EEvE4typeELPv0EEEDcv:
 6069|  55.4k|    {
 6070|  55.4k|        return std::get<0>(m_values);
 6071|  55.4k|    }
_ZN3scn2v44scanIJiENS0_6ranges6detail9subrange_8subrangeIPKcS7_EEvEENS0_13scan_expectedINS0_11scan_resultINSt3__111conditionalIXsr3stdE9is_same_vIu11__remove_cvIu20__remove_reference_tIT0_EEP8_IO_FILEEESH_NS0_6detail22borrowed_tail_subrangeISD_Xsr6rangesE14borrowed_rangeISD_EEE4typeEE4typeEJDpT_EEEEEOSD_NS0_24basic_scan_format_stringIcNSI_13type_identityISD_E4typeEJDpNSU_ISO_E4typeEEEE:
 9374|   198k|{
 9375|   198k|    auto result = make_scan_result<Source, Args...>();
 9376|   198k|    fill_scan_result(result, vscan(SCN_FWD(source), format,
  ------------------
  |  |  936|   198k|#define SCN_FWD(x)          static_cast<decltype(x)&&>(x)
  ------------------
 9377|   198k|                                   make_scan_args(result->values())));
 9378|   198k|    return result;
 9379|   198k|}
_ZN3scn2v416make_scan_resultINS0_6ranges6detail9subrange_8subrangeIPKcS7_EEJiEEEDav:
 9330|   428k|{
 9331|   428k|    return scan_result_type<Source, Args...>();
 9332|   428k|}
_ZN3scn2v48expectedINS0_11scan_resultINS0_6ranges6detail9subrange_8subrangeIPKcS8_EEJiEEENS0_10scan_errorEEC2Ev:
 1551|   428k|    constexpr expected() = default;
_ZN3scn2v46detail21expected_storage_baseINS0_11scan_resultINS0_6ranges6detail9subrange_8subrangeIPKcS9_EEJiEEENS0_10scan_errorELb1EEC2Ev:
  426|   428k|        : m_value(T{}), m_has_value(true)
  427|   428k|    {
  428|   428k|    }
_ZN3scn2v411scan_resultINS0_6ranges6detail9subrange_8subrangeIPKcS7_EEJiEEC2Ev:
 6264|   428k|    constexpr scan_result() = default;
_ZN3scn2v46detail25scan_result_value_storageIJiEEC2Ev:
 6038|  1.03M|    constexpr scan_result_value_storage() = default;
_ZN3scn2v416fill_scan_resultINS0_11scan_resultINS0_6ranges6detail9subrange_8subrangeIPKcS8_EEJiEEES9_TnPNSt3__19enable_ifIXsr3stdE13conjunction_vINS0_6detail25is_specialization_of_implIu11__remove_cvIu20__remove_reference_tIT_EES2_EENSB_7is_sameINSF_10range_typeET0_EEEEvE4typeELPv0EEEvRNS0_13scan_expectedISF_EEONSR_ISL_EE:
 9315|   428k|{
 9316|   428k|    if (SCN_UNLIKELY(!in)) {
  ------------------
  |  |  865|   428k|#define SCN_UNLIKELY(x) __builtin_expect(!!(x), 0)
  |  |  ------------------
  |  |  |  Branch (865:25): [True: 43.7k, False: 384k]
  |  |  ------------------
  ------------------
 9317|  43.7k|        out = unexpected(in.error());
 9318|  43.7k|    }
 9319|   384k|    else {
 9320|   384k|        out->set_range(SCN_MOVE(*in));
  ------------------
  |  |  934|   384k|    static_cast<    \
  |  |  935|   384k|        typename ::scn::detail::remove_reference<decltype(x)>::type&&>(x)
  ------------------
 9321|   384k|    }
 9322|   428k|}
_ZN3scn2v48expectedINS0_11scan_resultINS0_6ranges6detail9subrange_8subrangeIPKcS8_EEJiEEENS0_10scan_errorEEC2ISB_TnPNSt3__19enable_ifIXsr3stdE18is_constructible_vISB_OT_EEvE4typeELPv0ETnPNSF_IXsr3stdE16is_convertible_vISH_SB_EEvE4typeELSL_0EEEONS0_10unexpectedISG_EE:
 1615|  43.7k|        : base(unexpect, std::move(e.error())),
 1616|  43.7k|          ctor_base(detail::non_default_ctor_tag_t{})
 1617|  43.7k|    {
 1618|  43.7k|    }
_ZN3scn2v46detail21expected_storage_baseINS0_11scan_resultINS0_6ranges6detail9subrange_8subrangeIPKcS9_EEJiEEENS0_10scan_errorELb1EEC2IJSC_EvEENS0_10unexpect_tEDpOT_:
  449|  43.7k|        : m_unexpected(std::in_place, std::forward<Args>(args)...),
  450|  43.7k|          m_has_value(false)
  451|  43.7k|    {
  452|  43.7k|    }
_ZN3scn2v46detail26expected_default_ctor_baseINS0_11scan_resultINS0_6ranges6detail9subrange_8subrangeIPKcS9_EEJiEEENS0_10scan_errorELb1EEC2ENS1_22non_default_ctor_tag_tE:
 1315|  43.7k|    {
 1316|  43.7k|    }
_ZN3scn2v48expectedINS0_11scan_resultINS0_6ranges6detail9subrange_8subrangeIPKcS8_EEJiEEENS0_10scan_errorEEaSEOSC_:
 1556|  43.7k|    constexpr expected& operator=(expected&&) = default;
_ZN3scn2v46detail24expected_operations_baseINS0_11scan_resultINS0_6ranges6detail9subrange_8subrangeIPKcS9_EEJiEEENS0_10scan_errorEvEaSEOSD_:
  902|  43.7k|    {
  903|  43.7k|        assign_common(std::move(other));
  904|  43.7k|        return *this;
  905|  43.7k|    }
_ZN3scn2v46detail24expected_operations_baseINS0_11scan_resultINS0_6ranges6detail9subrange_8subrangeIPKcS9_EEJiEEENS0_10scan_errorEvE13assign_commonISD_EEvOT_:
  949|  43.7k|    {
  950|  43.7k|        if (this->has_value()) {
  ------------------
  |  Branch (950:13): [True: 43.7k, False: 0]
  ------------------
  951|  43.7k|            if (other.has_value()) {
  ------------------
  |  Branch (951:17): [True: 0, False: 43.7k]
  ------------------
  952|      0|                return reassign_value(std::forward<Other>(other));
  953|      0|            }
  954|  43.7k|            return assign_unexpected_over_value(std::forward<Other>(other));
  955|  43.7k|        }
  956|       |
  957|      0|        if (other.has_value()) {
  ------------------
  |  Branch (957:13): [True: 0, False: 0]
  ------------------
  958|      0|            return assign_value_over_unexpected(std::forward<Other>(other));
  959|      0|        }
  960|      0|        return reassign_unexpected(std::forward<Other>(other));
  961|      0|    }
_ZNK3scn2v46detail21expected_storage_baseINS0_11scan_resultINS0_6ranges6detail9subrange_8subrangeIPKcS9_EEJiEEENS0_10scan_errorELb1EE9has_valueEv:
  489|  1.71M|    {
  490|  1.71M|        return m_has_value;
  491|  1.71M|    }
_ZNR3scn2v46detail21expected_storage_baseINS0_11scan_resultINS0_6ranges6detail9subrange_8subrangeIPKcS9_EEJiEEENS0_10scan_errorELb1EE9get_valueEv:
  455|  1.19M|    {
  456|  1.19M|        return m_value;
  457|  1.19M|    }
_ZN3scn2v46detail24expected_operations_baseINS0_11scan_resultINS0_6ranges6detail9subrange_8subrangeIPKcS9_EEJiEEENS0_10scan_errorEvE28assign_unexpected_over_valueISD_EEvOT_:
 1045|  43.7k|    {
 1046|  43.7k|        this->destroy_value();
 1047|  43.7k|        this->construct_unexpected(std::forward<Other>(other).get_unexpected());
 1048|  43.7k|    }
_ZN3scn2v46detail21expected_storage_baseINS0_11scan_resultINS0_6ranges6detail9subrange_8subrangeIPKcS9_EEJiEEENS0_10scan_errorELb1EE13destroy_valueEv:
  510|  43.7k|    static constexpr void destroy_value() noexcept {}
_ZN3scn2v46detail21expected_storage_baseINS0_11scan_resultINS0_6ranges6detail9subrange_8subrangeIPKcS9_EEJiEEENS0_10scan_errorELb1EE20construct_unexpectedIJNS0_10unexpectedISC_EEEEEvDpOT_:
  503|  43.7k|    {
  504|  43.7k|        scn::detail::construct_at(&get_unexpected(),
  505|  43.7k|                                  std::forward<Args>(args)...);
  506|  43.7k|        m_has_value = false;
  507|  43.7k|    }
_ZNR3scn2v46detail21expected_storage_baseINS0_11scan_resultINS0_6ranges6detail9subrange_8subrangeIPKcS9_EEJiEEENS0_10scan_errorELb1EE14get_unexpectedEv:
  472|  43.7k|    {
  473|  43.7k|        return m_unexpected;
  474|  43.7k|    }
_ZNO3scn2v46detail21expected_storage_baseINS0_11scan_resultINS0_6ranges6detail9subrange_8subrangeIPKcS9_EEJiEEENS0_10scan_errorELb1EE14get_unexpectedEv:
  480|  43.7k|    {
  481|  43.7k|        return std::move(m_unexpected);
  482|  43.7k|    }
_ZNK3scn2v424basic_scan_format_stringIcNS0_6ranges6detail9subrange_8subrangeIPKcS7_EEJiEEcvNSt3__117basic_string_viewIcNSA_11char_traitsIcEEEEEv:
 8461|   397k|    {
 8462|   397k|        return m_str;
 8463|   397k|    }
_ZN3scn2v414make_scan_argsINS0_18basic_scan_contextINS0_6detail16buffer_range_tagEcEEJiEEEDaRNSt3__15tupleIJDpT0_EEE:
 5803|   796k|{
 5804|   796k|    detail::check_scan_arg_types<Args...>();
 5805|   796k|    return detail::scan_arg_store<Context, Args...>(values);
 5806|   796k|}
_ZN3scn2v46detail20check_scan_arg_typesIJiEEEbv:
 5518|  1.03M|{
 5519|  1.03M|    constexpr bool default_constructible_constraint =
 5520|  1.03M|        std::conjunction_v<std::is_default_constructible<Args>...>;
 5521|  1.03M|    static_assert(default_constructible_constraint,
 5522|  1.03M|                  "Scan argument types must be default constructible");
 5523|       |
 5524|  1.03M|    constexpr bool destructible_constraint =
 5525|  1.03M|        std::conjunction_v<std::is_destructible<Args>...>;
 5526|  1.03M|    static_assert(destructible_constraint,
 5527|  1.03M|                  "Scan argument types must be Destructible");
 5528|       |
 5529|  1.03M|    constexpr bool non_reference_constraint =
 5530|  1.03M|        !std::conjunction_v<std::false_type, std::is_reference<Args>...>;
 5531|  1.03M|    static_assert(non_reference_constraint,
 5532|  1.03M|                  "Scan argument types must not be references");
 5533|       |
 5534|  1.03M|    constexpr bool movable_constraint =
 5535|  1.03M|        std::conjunction_v<std::is_move_constructible<Args>...>;
 5536|  1.03M|    static_assert(movable_constraint,
 5537|  1.03M|                  "Scan argument types must be move constructible");
 5538|       |
 5539|  1.03M|    return default_constructible_constraint && destructible_constraint &&
  ------------------
  |  Branch (5539:12): [Folded - Ignored]
  |  Branch (5539:48): [Folded - Ignored]
  ------------------
 5540|  1.03M|           non_reference_constraint && movable_constraint;
  ------------------
  |  Branch (5540:12): [Folded - Ignored]
  |  Branch (5540:40): [Folded - Ignored]
  ------------------
 5541|  1.03M|}
_ZN3scn2v46detail14scan_arg_storeINS0_18basic_scan_contextINS1_16buffer_range_tagEcEEJiEEC2ERNSt3__15tupleIJiEEE:
 5779|   796k|        : args(std::apply(make_argptrs<Args...>, args))
 5780|   796k|    {
 5781|   796k|    }
_ZN3scn2v46detail14scan_arg_storeINS0_18basic_scan_contextINS1_16buffer_range_tagEcEEJiEE12make_argptrsIJiEEENSt3__15arrayIPvLm1EEEDpRT_:
 5788|   796k|    {
 5789|   796k|        return {detail::make_arg<
 5790|   796k|            kind, Context,
 5791|   796k|            mapped_type_constant<remove_cvref_t<A>,
 5792|   796k|                                 typename Context::char_type>::value>(args)...};
 5793|   796k|    }
_ZN3scn2v46detail8make_argILNS1_19scan_arg_store_kindE0ENS0_18basic_scan_contextINS1_16buffer_range_tagEcEELNS1_8arg_typeE3EivEEPvRT2_:
 5568|   796k|{
 5569|   796k|    return make_value<Context>(value).ref_value;
 5570|   796k|}
_ZN3scn2v46detail10make_valueINS0_18basic_scan_contextINS1_16buffer_range_tagEcEEiEEDaRT0_:
 5503|   857k|{
 5504|   857k|    auto&& arg = arg_mapper<typename Context::char_type>().map(value);
 5505|       |
 5506|       |    if constexpr (!std::is_same_v<remove_cvref_t<decltype(arg)>,
 5507|   857k|                                  needs_context_tag>) {
 5508|   857k|        return make_value_impl<T>(SCN_FWD(arg));
  ------------------
  |  |  936|   857k|#define SCN_FWD(x)          static_cast<decltype(x)&&>(x)
  ------------------
 5509|       |    }
 5510|       |    else {
 5511|       |        return make_value_impl<T>(arg_mapper<typename Context::char_type>().map(
 5512|       |            value, context_tag<Context>{}));
 5513|       |    }
 5514|   857k|}
_ZN3scn2v46detail10arg_mapperIcE3mapERi:
 5342|   857k|    {                                                                        \
 5343|   857k|        return val;                                                          \
 5344|   857k|    }
_ZN3scn2v46detail15make_value_implIiRiEEDaOT0_:
 5472|  1.03M|{
 5473|  1.03M|    using arg_nocvref_t = remove_cvref_t<Arg>;
 5474|  1.03M|    static_assert(!std::is_same_v<arg_nocvref_t, needs_context_tag>);
 5475|       |
 5476|  1.03M|    constexpr bool scannable_char =
 5477|  1.03M|        !std::is_same_v<arg_nocvref_t, unscannable_char>;
 5478|  1.03M|    static_assert(scannable_char,
 5479|  1.03M|                  "Cannot scan an argument of an unsupported character "
 5480|  1.03M|                  "type (i.e. char from a wchar_t source)");
 5481|       |
 5482|  1.03M|    constexpr bool scannable_const =
 5483|  1.03M|        !std::is_same_v<arg_nocvref_t, unscannable_const>;
 5484|  1.03M|    static_assert(scannable_const, "Cannot scan a const argument");
 5485|       |
 5486|  1.03M|    constexpr bool scannable_disabled =
 5487|  1.03M|        !std::is_same_v<arg_nocvref_t, unscannable_disabled>;
 5488|  1.03M|    static_assert(scannable_disabled,
 5489|  1.03M|                  "Cannot scan an argument that has been disabled by "
 5490|  1.03M|                  "flag (SCN_DISABLE_TYPE_*)");
 5491|       |
 5492|  1.03M|    constexpr bool scannable = !std::is_same_v<arg_nocvref_t, unscannable>;
 5493|  1.03M|    static_assert(
 5494|  1.03M|        scannable,
 5495|  1.03M|        "Cannot scan an argument. To make a type T scannable, provide "
 5496|  1.03M|        "a scn::scanner<T, CharT> specialization.");
 5497|       |
 5498|  1.03M|    return arg_value{arg};
 5499|  1.03M|}
_ZN3scn2v46detail9arg_valueC2IiEERT_:
 5256|  1.03M|    explicit constexpr arg_value(T& val) : ref_value{std::addressof(val)}
 5257|  1.03M|    {
 5258|  1.03M|    }
_ZNR3scn2v46detail25scan_result_value_storageIJiEE6valuesEv:
 6047|   964k|    {
 6048|   964k|        return m_values;
 6049|   964k|    }
_ZN3scn2v415basic_scan_argsINS0_18basic_scan_contextINS0_6detail16buffer_range_tagEcEEEC2IJiEEERKNS3_14scan_arg_storeIS5_JDpT_EEE:
 5829|   796k|        : basic_scan_args(store.desc, store.args.data())
 5830|   796k|    {
 5831|   796k|    }
_ZN3scn2v424basic_scan_format_stringIcNS0_6ranges6detail9subrange_8subrangeIPKcS7_EEJiEEC2ENS0_6detail27basic_runtime_format_stringIcEE:
 8456|   397k|        : m_str(r.str)
 8457|   397k|    {
 8458|   397k|    }
_ZNK3scn2v48expectedINS0_11scan_resultINS0_6ranges6detail9subrange_8subrangeIPKcS8_EEJiEEENS0_10scan_errorEEcvbEv:
 1739|   428k|    {
 1740|   428k|        return has_value();
 1741|   428k|    }
_ZN3scn2v48expectedINS0_11scan_resultINS0_6ranges6detail9subrange_8subrangeIPKcS8_EEJiEEENS0_10scan_errorEEptEv:
 1814|  1.19M|    {
 1815|  1.19M|        return &value();
 1816|  1.19M|    }
_ZNR3scn2v48expectedINS0_11scan_resultINS0_6ranges6detail9subrange_8subrangeIPKcS8_EEJiEEENS0_10scan_errorEE5valueISA_TnPNSt3__19enable_ifIXntsr3stdE9is_void_vIT_EEvE4typeELPv0EEERSG_v:
 1768|  1.19M|    {
 1769|  1.19M|        SCN_EXPECT(has_value());
  ------------------
  |  |  930|  1.19M|#define SCN_EXPECT(cond) SCN_ASSERT(cond, "Precondition violation")
  |  |  ------------------
  |  |  |  |  927|  1.19M|#define SCN_ASSERT(cond, msg) assert((cond) && msg)
  |  |  ------------------
  ------------------
 1770|  1.19M|        return this->get_value();
 1771|  1.19M|    }
_ZN3scn2v44scanIJiENSt3__16localeENS0_6ranges6detail9subrange_8subrangeIPKcS9_EEvvEENS0_13scan_expectedINS0_11scan_resultINS2_11conditionalIXsr3stdE9is_same_vIu11__remove_cvIu20__remove_reference_tIT1_EEP8_IO_FILEEESI_NS0_6detail22borrowed_tail_subrangeISE_Xsr6rangesE14borrowed_rangeISE_EEE4typeEE4typeEJDpT_EEEEERKT0_OSE_NS0_24basic_scan_format_stringIcNSJ_13type_identityISE_E4typeEJDpNSY_ISP_E4typeEEEE:
 9443|   198k|{
 9444|   198k|    auto result = make_scan_result<Source, Args...>();
 9445|   198k|    fill_scan_result(result, vscan(loc, SCN_FWD(source), format,
  ------------------
  |  |  936|   198k|#define SCN_FWD(x)          static_cast<decltype(x)&&>(x)
  ------------------
 9446|   198k|                                   make_scan_args(result->values())));
 9447|   198k|    return result;
 9448|   198k|}
_ZN3scn2v410scan_valueIiNS0_6ranges6detail9subrange_8subrangeIPKcS7_EEvEENS0_13scan_expectedINS0_11scan_resultINSt3__111conditionalIXsr3stdE9is_same_vIu11__remove_cvIu20__remove_reference_tIT0_EEP8_IO_FILEEESH_NS0_6detail22borrowed_tail_subrangeISD_Xsr6rangesE14borrowed_rangeISD_EEE4typeEE4typeEJT_EEEEEOSD_:
 9484|  30.6k|{
 9485|  30.6k|    auto result = make_scan_result<Source, T>();
 9486|  30.6k|    fill_scan_result(
 9487|  30.6k|        result, vscan_value(SCN_FWD(source),
  ------------------
  |  |  936|  30.6k|#define SCN_FWD(x)          static_cast<decltype(x)&&>(x)
  ------------------
 9488|  30.6k|                            detail::make_arg<scan_context>(result->value())));
 9489|  30.6k|    return result;
 9490|  30.6k|}
_ZN3scn2v46detail8make_argINS0_18basic_scan_contextINS1_16buffer_range_tagEcEEiEENS0_14basic_scan_argIT_EERT0_:
 5553|  60.7k|{
 5554|  60.7k|    check_scan_arg_types<T>();
 5555|       |
 5556|  60.7k|    basic_scan_arg<Context> arg;
 5557|  60.7k|    arg.m_type = mapped_type_constant<T, typename Context::char_type>::value;
 5558|  60.7k|    arg.m_value = make_value<Context>(value);
 5559|  60.7k|    return arg;
 5560|  60.7k|}
_ZNR3scn2v46detail25scan_result_value_storageIJiEE5valueILm1ETnPNSt3__19enable_ifIXeqT_Li1EEvE4typeELPv0EEEDcv:
 6069|  69.1k|    {
 6070|  69.1k|        return std::get<0>(m_values);
 6071|  69.1k|    }
_ZN3scn2v44scanIJjENS0_6ranges6detail9subrange_8subrangeIPKcS7_EEvEENS0_13scan_expectedINS0_11scan_resultINSt3__111conditionalIXsr3stdE9is_same_vIu11__remove_cvIu20__remove_reference_tIT0_EEP8_IO_FILEEESH_NS0_6detail22borrowed_tail_subrangeISD_Xsr6rangesE14borrowed_rangeISD_EEE4typeEE4typeEJDpT_EEEEEOSD_NS0_24basic_scan_format_stringIcNSI_13type_identityISD_E4typeEJDpNSU_ISO_E4typeEEEE:
 9374|   171k|{
 9375|   171k|    auto result = make_scan_result<Source, Args...>();
 9376|   171k|    fill_scan_result(result, vscan(SCN_FWD(source), format,
  ------------------
  |  |  936|   171k|#define SCN_FWD(x)          static_cast<decltype(x)&&>(x)
  ------------------
 9377|   171k|                                   make_scan_args(result->values())));
 9378|   171k|    return result;
 9379|   171k|}
_ZN3scn2v416make_scan_resultINS0_6ranges6detail9subrange_8subrangeIPKcS7_EEJjEEEDav:
 9330|   369k|{
 9331|   369k|    return scan_result_type<Source, Args...>();
 9332|   369k|}
_ZN3scn2v48expectedINS0_11scan_resultINS0_6ranges6detail9subrange_8subrangeIPKcS8_EEJjEEENS0_10scan_errorEEC2Ev:
 1551|   369k|    constexpr expected() = default;
_ZN3scn2v46detail21expected_storage_baseINS0_11scan_resultINS0_6ranges6detail9subrange_8subrangeIPKcS9_EEJjEEENS0_10scan_errorELb1EEC2Ev:
  426|   369k|        : m_value(T{}), m_has_value(true)
  427|   369k|    {
  428|   369k|    }
_ZN3scn2v411scan_resultINS0_6ranges6detail9subrange_8subrangeIPKcS7_EEJjEEC2Ev:
 6264|   369k|    constexpr scan_result() = default;
_ZN3scn2v46detail25scan_result_value_storageIJjEEC2Ev:
 6038|   917k|    constexpr scan_result_value_storage() = default;
_ZN3scn2v416fill_scan_resultINS0_11scan_resultINS0_6ranges6detail9subrange_8subrangeIPKcS8_EEJjEEES9_TnPNSt3__19enable_ifIXsr3stdE13conjunction_vINS0_6detail25is_specialization_of_implIu11__remove_cvIu20__remove_reference_tIT_EES2_EENSB_7is_sameINSF_10range_typeET0_EEEEvE4typeELPv0EEEvRNS0_13scan_expectedISF_EEONSR_ISL_EE:
 9315|   369k|{
 9316|   369k|    if (SCN_UNLIKELY(!in)) {
  ------------------
  |  |  865|   369k|#define SCN_UNLIKELY(x) __builtin_expect(!!(x), 0)
  |  |  ------------------
  |  |  |  Branch (865:25): [True: 43.7k, False: 326k]
  |  |  ------------------
  ------------------
 9317|  43.7k|        out = unexpected(in.error());
 9318|  43.7k|    }
 9319|   326k|    else {
 9320|   326k|        out->set_range(SCN_MOVE(*in));
  ------------------
  |  |  934|   326k|    static_cast<    \
  |  |  935|   326k|        typename ::scn::detail::remove_reference<decltype(x)>::type&&>(x)
  ------------------
 9321|   326k|    }
 9322|   369k|}
_ZN3scn2v48expectedINS0_11scan_resultINS0_6ranges6detail9subrange_8subrangeIPKcS8_EEJjEEENS0_10scan_errorEEC2ISB_TnPNSt3__19enable_ifIXsr3stdE18is_constructible_vISB_OT_EEvE4typeELPv0ETnPNSF_IXsr3stdE16is_convertible_vISH_SB_EEvE4typeELSL_0EEEONS0_10unexpectedISG_EE:
 1615|  43.7k|        : base(unexpect, std::move(e.error())),
 1616|  43.7k|          ctor_base(detail::non_default_ctor_tag_t{})
 1617|  43.7k|    {
 1618|  43.7k|    }
_ZN3scn2v46detail21expected_storage_baseINS0_11scan_resultINS0_6ranges6detail9subrange_8subrangeIPKcS9_EEJjEEENS0_10scan_errorELb1EEC2IJSC_EvEENS0_10unexpect_tEDpOT_:
  449|  43.7k|        : m_unexpected(std::in_place, std::forward<Args>(args)...),
  450|  43.7k|          m_has_value(false)
  451|  43.7k|    {
  452|  43.7k|    }
_ZN3scn2v46detail26expected_default_ctor_baseINS0_11scan_resultINS0_6ranges6detail9subrange_8subrangeIPKcS9_EEJjEEENS0_10scan_errorELb1EEC2ENS1_22non_default_ctor_tag_tE:
 1315|  43.7k|    {
 1316|  43.7k|    }
_ZN3scn2v48expectedINS0_11scan_resultINS0_6ranges6detail9subrange_8subrangeIPKcS8_EEJjEEENS0_10scan_errorEEaSEOSC_:
 1556|  43.7k|    constexpr expected& operator=(expected&&) = default;
_ZN3scn2v46detail24expected_operations_baseINS0_11scan_resultINS0_6ranges6detail9subrange_8subrangeIPKcS9_EEJjEEENS0_10scan_errorEvEaSEOSD_:
  902|  43.7k|    {
  903|  43.7k|        assign_common(std::move(other));
  904|  43.7k|        return *this;
  905|  43.7k|    }
_ZN3scn2v46detail24expected_operations_baseINS0_11scan_resultINS0_6ranges6detail9subrange_8subrangeIPKcS9_EEJjEEENS0_10scan_errorEvE13assign_commonISD_EEvOT_:
  949|  43.7k|    {
  950|  43.7k|        if (this->has_value()) {
  ------------------
  |  Branch (950:13): [True: 43.7k, False: 0]
  ------------------
  951|  43.7k|            if (other.has_value()) {
  ------------------
  |  Branch (951:17): [True: 0, False: 43.7k]
  ------------------
  952|      0|                return reassign_value(std::forward<Other>(other));
  953|      0|            }
  954|  43.7k|            return assign_unexpected_over_value(std::forward<Other>(other));
  955|  43.7k|        }
  956|       |
  957|      0|        if (other.has_value()) {
  ------------------
  |  Branch (957:13): [True: 0, False: 0]
  ------------------
  958|      0|            return assign_value_over_unexpected(std::forward<Other>(other));
  959|      0|        }
  960|      0|        return reassign_unexpected(std::forward<Other>(other));
  961|      0|    }
_ZNK3scn2v46detail21expected_storage_baseINS0_11scan_resultINS0_6ranges6detail9subrange_8subrangeIPKcS9_EEJjEEENS0_10scan_errorELb1EE9has_valueEv:
  489|  1.47M|    {
  490|  1.47M|        return m_has_value;
  491|  1.47M|    }
_ZNR3scn2v46detail21expected_storage_baseINS0_11scan_resultINS0_6ranges6detail9subrange_8subrangeIPKcS9_EEJjEEENS0_10scan_errorELb1EE9get_valueEv:
  455|  1.02M|    {
  456|  1.02M|        return m_value;
  457|  1.02M|    }
_ZN3scn2v46detail24expected_operations_baseINS0_11scan_resultINS0_6ranges6detail9subrange_8subrangeIPKcS9_EEJjEEENS0_10scan_errorEvE28assign_unexpected_over_valueISD_EEvOT_:
 1045|  43.7k|    {
 1046|  43.7k|        this->destroy_value();
 1047|  43.7k|        this->construct_unexpected(std::forward<Other>(other).get_unexpected());
 1048|  43.7k|    }
_ZN3scn2v46detail21expected_storage_baseINS0_11scan_resultINS0_6ranges6detail9subrange_8subrangeIPKcS9_EEJjEEENS0_10scan_errorELb1EE13destroy_valueEv:
  510|  43.7k|    static constexpr void destroy_value() noexcept {}
_ZN3scn2v46detail21expected_storage_baseINS0_11scan_resultINS0_6ranges6detail9subrange_8subrangeIPKcS9_EEJjEEENS0_10scan_errorELb1EE20construct_unexpectedIJNS0_10unexpectedISC_EEEEEvDpOT_:
  503|  43.7k|    {
  504|  43.7k|        scn::detail::construct_at(&get_unexpected(),
  505|  43.7k|                                  std::forward<Args>(args)...);
  506|  43.7k|        m_has_value = false;
  507|  43.7k|    }
_ZNR3scn2v46detail21expected_storage_baseINS0_11scan_resultINS0_6ranges6detail9subrange_8subrangeIPKcS9_EEJjEEENS0_10scan_errorELb1EE14get_unexpectedEv:
  472|  43.7k|    {
  473|  43.7k|        return m_unexpected;
  474|  43.7k|    }
_ZNO3scn2v46detail21expected_storage_baseINS0_11scan_resultINS0_6ranges6detail9subrange_8subrangeIPKcS9_EEJjEEENS0_10scan_errorELb1EE14get_unexpectedEv:
  480|  43.7k|    {
  481|  43.7k|        return std::move(m_unexpected);
  482|  43.7k|    }
_ZNK3scn2v424basic_scan_format_stringIcNS0_6ranges6detail9subrange_8subrangeIPKcS7_EEJjEEcvNSt3__117basic_string_viewIcNSA_11char_traitsIcEEEEEv:
 8461|   343k|    {
 8462|   343k|        return m_str;
 8463|   343k|    }
_ZN3scn2v414make_scan_argsINS0_18basic_scan_contextINS0_6detail16buffer_range_tagEcEEJjEEEDaRNSt3__15tupleIJDpT0_EEE:
 5803|   689k|{
 5804|   689k|    detail::check_scan_arg_types<Args...>();
 5805|   689k|    return detail::scan_arg_store<Context, Args...>(values);
 5806|   689k|}
_ZN3scn2v46detail20check_scan_arg_typesIJjEEEbv:
 5518|   917k|{
 5519|   917k|    constexpr bool default_constructible_constraint =
 5520|   917k|        std::conjunction_v<std::is_default_constructible<Args>...>;
 5521|   917k|    static_assert(default_constructible_constraint,
 5522|   917k|                  "Scan argument types must be default constructible");
 5523|       |
 5524|   917k|    constexpr bool destructible_constraint =
 5525|   917k|        std::conjunction_v<std::is_destructible<Args>...>;
 5526|   917k|    static_assert(destructible_constraint,
 5527|   917k|                  "Scan argument types must be Destructible");
 5528|       |
 5529|   917k|    constexpr bool non_reference_constraint =
 5530|   917k|        !std::conjunction_v<std::false_type, std::is_reference<Args>...>;
 5531|   917k|    static_assert(non_reference_constraint,
 5532|   917k|                  "Scan argument types must not be references");
 5533|       |
 5534|   917k|    constexpr bool movable_constraint =
 5535|   917k|        std::conjunction_v<std::is_move_constructible<Args>...>;
 5536|   917k|    static_assert(movable_constraint,
 5537|   917k|                  "Scan argument types must be move constructible");
 5538|       |
 5539|   917k|    return default_constructible_constraint && destructible_constraint &&
  ------------------
  |  Branch (5539:12): [Folded - Ignored]
  |  Branch (5539:48): [Folded - Ignored]
  ------------------
 5540|   917k|           non_reference_constraint && movable_constraint;
  ------------------
  |  Branch (5540:12): [Folded - Ignored]
  |  Branch (5540:40): [Folded - Ignored]
  ------------------
 5541|   917k|}
_ZN3scn2v46detail14scan_arg_storeINS0_18basic_scan_contextINS1_16buffer_range_tagEcEEJjEEC2ERNSt3__15tupleIJjEEE:
 5779|   689k|        : args(std::apply(make_argptrs<Args...>, args))
 5780|   689k|    {
 5781|   689k|    }
_ZN3scn2v46detail14scan_arg_storeINS0_18basic_scan_contextINS1_16buffer_range_tagEcEEJjEE12make_argptrsIJjEEENSt3__15arrayIPvLm1EEEDpRT_:
 5788|   689k|    {
 5789|   689k|        return {detail::make_arg<
 5790|   689k|            kind, Context,
 5791|   689k|            mapped_type_constant<remove_cvref_t<A>,
 5792|   689k|                                 typename Context::char_type>::value>(args)...};
 5793|   689k|    }
_ZN3scn2v46detail8make_argILNS1_19scan_arg_store_kindE0ENS0_18basic_scan_contextINS1_16buffer_range_tagEcEELNS1_8arg_typeE8EjvEEPvRT2_:
 5568|   689k|{
 5569|   689k|    return make_value<Context>(value).ref_value;
 5570|   689k|}
_ZN3scn2v46detail10make_valueINS0_18basic_scan_contextINS1_16buffer_range_tagEcEEjEEDaRT0_:
 5503|   741k|{
 5504|   741k|    auto&& arg = arg_mapper<typename Context::char_type>().map(value);
 5505|       |
 5506|       |    if constexpr (!std::is_same_v<remove_cvref_t<decltype(arg)>,
 5507|   741k|                                  needs_context_tag>) {
 5508|   741k|        return make_value_impl<T>(SCN_FWD(arg));
  ------------------
  |  |  936|   741k|#define SCN_FWD(x)          static_cast<decltype(x)&&>(x)
  ------------------
 5509|       |    }
 5510|       |    else {
 5511|       |        return make_value_impl<T>(arg_mapper<typename Context::char_type>().map(
 5512|       |            value, context_tag<Context>{}));
 5513|       |    }
 5514|   741k|}
_ZN3scn2v46detail10arg_mapperIcE3mapERj:
 5342|   741k|    {                                                                        \
 5343|   741k|        return val;                                                          \
 5344|   741k|    }
_ZN3scn2v46detail15make_value_implIjRjEEDaOT0_:
 5472|   917k|{
 5473|   917k|    using arg_nocvref_t = remove_cvref_t<Arg>;
 5474|   917k|    static_assert(!std::is_same_v<arg_nocvref_t, needs_context_tag>);
 5475|       |
 5476|   917k|    constexpr bool scannable_char =
 5477|   917k|        !std::is_same_v<arg_nocvref_t, unscannable_char>;
 5478|   917k|    static_assert(scannable_char,
 5479|   917k|                  "Cannot scan an argument of an unsupported character "
 5480|   917k|                  "type (i.e. char from a wchar_t source)");
 5481|       |
 5482|   917k|    constexpr bool scannable_const =
 5483|   917k|        !std::is_same_v<arg_nocvref_t, unscannable_const>;
 5484|   917k|    static_assert(scannable_const, "Cannot scan a const argument");
 5485|       |
 5486|   917k|    constexpr bool scannable_disabled =
 5487|   917k|        !std::is_same_v<arg_nocvref_t, unscannable_disabled>;
 5488|   917k|    static_assert(scannable_disabled,
 5489|   917k|                  "Cannot scan an argument that has been disabled by "
 5490|   917k|                  "flag (SCN_DISABLE_TYPE_*)");
 5491|       |
 5492|   917k|    constexpr bool scannable = !std::is_same_v<arg_nocvref_t, unscannable>;
 5493|   917k|    static_assert(
 5494|   917k|        scannable,
 5495|   917k|        "Cannot scan an argument. To make a type T scannable, provide "
 5496|   917k|        "a scn::scanner<T, CharT> specialization.");
 5497|       |
 5498|   917k|    return arg_value{arg};
 5499|   917k|}
_ZN3scn2v46detail9arg_valueC2IjEERT_:
 5256|   917k|    explicit constexpr arg_value(T& val) : ref_value{std::addressof(val)}
 5257|   917k|    {
 5258|   917k|    }
_ZNR3scn2v46detail25scan_result_value_storageIJjEE6valuesEv:
 6047|   857k|    {
 6048|   857k|        return m_values;
 6049|   857k|    }
_ZN3scn2v415basic_scan_argsINS0_18basic_scan_contextINS0_6detail16buffer_range_tagEcEEEC2IJjEEERKNS3_14scan_arg_storeIS5_JDpT_EEE:
 5829|   689k|        : basic_scan_args(store.desc, store.args.data())
 5830|   689k|    {
 5831|   689k|    }
_ZN3scn2v424basic_scan_format_stringIcNS0_6ranges6detail9subrange_8subrangeIPKcS7_EEJjEEC2ENS0_6detail27basic_runtime_format_stringIcEE:
 8456|   343k|        : m_str(r.str)
 8457|   343k|    {
 8458|   343k|    }
_ZNK3scn2v48expectedINS0_11scan_resultINS0_6ranges6detail9subrange_8subrangeIPKcS8_EEJjEEENS0_10scan_errorEEcvbEv:
 1739|   369k|    {
 1740|   369k|        return has_value();
 1741|   369k|    }
_ZN3scn2v48expectedINS0_11scan_resultINS0_6ranges6detail9subrange_8subrangeIPKcS8_EEJjEEENS0_10scan_errorEEptEv:
 1814|  1.02M|    {
 1815|  1.02M|        return &value();
 1816|  1.02M|    }
_ZNR3scn2v48expectedINS0_11scan_resultINS0_6ranges6detail9subrange_8subrangeIPKcS8_EEJjEEENS0_10scan_errorEE5valueISA_TnPNSt3__19enable_ifIXntsr3stdE9is_void_vIT_EEvE4typeELPv0EEERSG_v:
 1768|  1.02M|    {
 1769|  1.02M|        SCN_EXPECT(has_value());
  ------------------
  |  |  930|  1.02M|#define SCN_EXPECT(cond) SCN_ASSERT(cond, "Precondition violation")
  |  |  ------------------
  |  |  |  |  927|  1.02M|#define SCN_ASSERT(cond, msg) assert((cond) && msg)
  |  |  ------------------
  ------------------
 1770|  1.02M|        return this->get_value();
 1771|  1.02M|    }
_ZN3scn2v44scanIJjENSt3__16localeENS0_6ranges6detail9subrange_8subrangeIPKcS9_EEvvEENS0_13scan_expectedINS0_11scan_resultINS2_11conditionalIXsr3stdE9is_same_vIu11__remove_cvIu20__remove_reference_tIT1_EEP8_IO_FILEEESI_NS0_6detail22borrowed_tail_subrangeISE_Xsr6rangesE14borrowed_rangeISE_EEE4typeEE4typeEJDpT_EEEEERKT0_OSE_NS0_24basic_scan_format_stringIcNSJ_13type_identityISE_E4typeEJDpNSY_ISP_E4typeEEEE:
 9443|   171k|{
 9444|   171k|    auto result = make_scan_result<Source, Args...>();
 9445|   171k|    fill_scan_result(result, vscan(loc, SCN_FWD(source), format,
  ------------------
  |  |  936|   171k|#define SCN_FWD(x)          static_cast<decltype(x)&&>(x)
  ------------------
 9446|   171k|                                   make_scan_args(result->values())));
 9447|   171k|    return result;
 9448|   171k|}
_ZN3scn2v410scan_valueIjNS0_6ranges6detail9subrange_8subrangeIPKcS7_EEvEENS0_13scan_expectedINS0_11scan_resultINSt3__111conditionalIXsr3stdE9is_same_vIu11__remove_cvIu20__remove_reference_tIT0_EEP8_IO_FILEEESH_NS0_6detail22borrowed_tail_subrangeISD_Xsr6rangesE14borrowed_rangeISD_EEE4typeEE4typeEJT_EEEEEOSD_:
 9484|  26.2k|{
 9485|  26.2k|    auto result = make_scan_result<Source, T>();
 9486|  26.2k|    fill_scan_result(
 9487|  26.2k|        result, vscan_value(SCN_FWD(source),
  ------------------
  |  |  936|  26.2k|#define SCN_FWD(x)          static_cast<decltype(x)&&>(x)
  ------------------
 9488|  26.2k|                            detail::make_arg<scan_context>(result->value())));
 9489|  26.2k|    return result;
 9490|  26.2k|}
_ZN3scn2v46detail8make_argINS0_18basic_scan_contextINS1_16buffer_range_tagEcEEjEENS0_14basic_scan_argIT_EERT0_:
 5553|  52.3k|{
 5554|  52.3k|    check_scan_arg_types<T>();
 5555|       |
 5556|  52.3k|    basic_scan_arg<Context> arg;
 5557|  52.3k|    arg.m_type = mapped_type_constant<T, typename Context::char_type>::value;
 5558|  52.3k|    arg.m_value = make_value<Context>(value);
 5559|  52.3k|    return arg;
 5560|  52.3k|}
_ZNR3scn2v46detail25scan_result_value_storageIJjEE5valueILm1ETnPNSt3__19enable_ifIXeqT_Li1EEvE4typeELPv0EEEDcv:
 6069|  60.8k|    {
 6070|  60.8k|        return std::get<0>(m_values);
 6071|  60.8k|    }
_ZN3scn2v44scanIJxENS0_6ranges6detail9subrange_8subrangeIPKcS7_EEvEENS0_13scan_expectedINS0_11scan_resultINSt3__111conditionalIXsr3stdE9is_same_vIu11__remove_cvIu20__remove_reference_tIT0_EEP8_IO_FILEEESH_NS0_6detail22borrowed_tail_subrangeISD_Xsr6rangesE14borrowed_rangeISD_EEE4typeEE4typeEJDpT_EEEEEOSD_NS0_24basic_scan_format_stringIcNSI_13type_identityISD_E4typeEJDpNSU_ISO_E4typeEEEE:
 9374|   202k|{
 9375|   202k|    auto result = make_scan_result<Source, Args...>();
 9376|   202k|    fill_scan_result(result, vscan(SCN_FWD(source), format,
  ------------------
  |  |  936|   202k|#define SCN_FWD(x)          static_cast<decltype(x)&&>(x)
  ------------------
 9377|   202k|                                   make_scan_args(result->values())));
 9378|   202k|    return result;
 9379|   202k|}
_ZN3scn2v416make_scan_resultINS0_6ranges6detail9subrange_8subrangeIPKcS7_EEJxEEEDav:
 9330|   436k|{
 9331|   436k|    return scan_result_type<Source, Args...>();
 9332|   436k|}
_ZN3scn2v48expectedINS0_11scan_resultINS0_6ranges6detail9subrange_8subrangeIPKcS8_EEJxEEENS0_10scan_errorEEC2Ev:
 1551|   436k|    constexpr expected() = default;
_ZN3scn2v46detail21expected_storage_baseINS0_11scan_resultINS0_6ranges6detail9subrange_8subrangeIPKcS9_EEJxEEENS0_10scan_errorELb1EEC2Ev:
  426|   436k|        : m_value(T{}), m_has_value(true)
  427|   436k|    {
  428|   436k|    }
_ZN3scn2v411scan_resultINS0_6ranges6detail9subrange_8subrangeIPKcS7_EEJxEEC2Ev:
 6264|   436k|    constexpr scan_result() = default;
_ZN3scn2v46detail25scan_result_value_storageIJxEEC2Ev:
 6038|  1.05M|    constexpr scan_result_value_storage() = default;
_ZN3scn2v416fill_scan_resultINS0_11scan_resultINS0_6ranges6detail9subrange_8subrangeIPKcS8_EEJxEEES9_TnPNSt3__19enable_ifIXsr3stdE13conjunction_vINS0_6detail25is_specialization_of_implIu11__remove_cvIu20__remove_reference_tIT_EES2_EENSB_7is_sameINSF_10range_typeET0_EEEEvE4typeELPv0EEEvRNS0_13scan_expectedISF_EEONSR_ISL_EE:
 9315|   436k|{
 9316|   436k|    if (SCN_UNLIKELY(!in)) {
  ------------------
  |  |  865|   436k|#define SCN_UNLIKELY(x) __builtin_expect(!!(x), 0)
  |  |  ------------------
  |  |  |  Branch (865:25): [True: 43.7k, False: 392k]
  |  |  ------------------
  ------------------
 9317|  43.7k|        out = unexpected(in.error());
 9318|  43.7k|    }
 9319|   392k|    else {
 9320|   392k|        out->set_range(SCN_MOVE(*in));
  ------------------
  |  |  934|   392k|    static_cast<    \
  |  |  935|   392k|        typename ::scn::detail::remove_reference<decltype(x)>::type&&>(x)
  ------------------
 9321|   392k|    }
 9322|   436k|}
_ZN3scn2v48expectedINS0_11scan_resultINS0_6ranges6detail9subrange_8subrangeIPKcS8_EEJxEEENS0_10scan_errorEEC2ISB_TnPNSt3__19enable_ifIXsr3stdE18is_constructible_vISB_OT_EEvE4typeELPv0ETnPNSF_IXsr3stdE16is_convertible_vISH_SB_EEvE4typeELSL_0EEEONS0_10unexpectedISG_EE:
 1615|  43.7k|        : base(unexpect, std::move(e.error())),
 1616|  43.7k|          ctor_base(detail::non_default_ctor_tag_t{})
 1617|  43.7k|    {
 1618|  43.7k|    }
_ZN3scn2v46detail21expected_storage_baseINS0_11scan_resultINS0_6ranges6detail9subrange_8subrangeIPKcS9_EEJxEEENS0_10scan_errorELb1EEC2IJSC_EvEENS0_10unexpect_tEDpOT_:
  449|  43.7k|        : m_unexpected(std::in_place, std::forward<Args>(args)...),
  450|  43.7k|          m_has_value(false)
  451|  43.7k|    {
  452|  43.7k|    }
_ZN3scn2v46detail26expected_default_ctor_baseINS0_11scan_resultINS0_6ranges6detail9subrange_8subrangeIPKcS9_EEJxEEENS0_10scan_errorELb1EEC2ENS1_22non_default_ctor_tag_tE:
 1315|  43.7k|    {
 1316|  43.7k|    }
_ZN3scn2v48expectedINS0_11scan_resultINS0_6ranges6detail9subrange_8subrangeIPKcS8_EEJxEEENS0_10scan_errorEEaSEOSC_:
 1556|  43.7k|    constexpr expected& operator=(expected&&) = default;
_ZN3scn2v46detail24expected_operations_baseINS0_11scan_resultINS0_6ranges6detail9subrange_8subrangeIPKcS9_EEJxEEENS0_10scan_errorEvEaSEOSD_:
  902|  43.7k|    {
  903|  43.7k|        assign_common(std::move(other));
  904|  43.7k|        return *this;
  905|  43.7k|    }
_ZN3scn2v46detail24expected_operations_baseINS0_11scan_resultINS0_6ranges6detail9subrange_8subrangeIPKcS9_EEJxEEENS0_10scan_errorEvE13assign_commonISD_EEvOT_:
  949|  43.7k|    {
  950|  43.7k|        if (this->has_value()) {
  ------------------
  |  Branch (950:13): [True: 43.7k, False: 0]
  ------------------
  951|  43.7k|            if (other.has_value()) {
  ------------------
  |  Branch (951:17): [True: 0, False: 43.7k]
  ------------------
  952|      0|                return reassign_value(std::forward<Other>(other));
  953|      0|            }
  954|  43.7k|            return assign_unexpected_over_value(std::forward<Other>(other));
  955|  43.7k|        }
  956|       |
  957|      0|        if (other.has_value()) {
  ------------------
  |  Branch (957:13): [True: 0, False: 0]
  ------------------
  958|      0|            return assign_value_over_unexpected(std::forward<Other>(other));
  959|      0|        }
  960|      0|        return reassign_unexpected(std::forward<Other>(other));
  961|      0|    }
_ZNK3scn2v46detail21expected_storage_baseINS0_11scan_resultINS0_6ranges6detail9subrange_8subrangeIPKcS9_EEJxEEENS0_10scan_errorELb1EE9has_valueEv:
  489|  1.74M|    {
  490|  1.74M|        return m_has_value;
  491|  1.74M|    }
_ZNR3scn2v46detail21expected_storage_baseINS0_11scan_resultINS0_6ranges6detail9subrange_8subrangeIPKcS9_EEJxEEENS0_10scan_errorELb1EE9get_valueEv:
  455|  1.22M|    {
  456|  1.22M|        return m_value;
  457|  1.22M|    }
_ZN3scn2v46detail24expected_operations_baseINS0_11scan_resultINS0_6ranges6detail9subrange_8subrangeIPKcS9_EEJxEEENS0_10scan_errorEvE28assign_unexpected_over_valueISD_EEvOT_:
 1045|  43.7k|    {
 1046|  43.7k|        this->destroy_value();
 1047|  43.7k|        this->construct_unexpected(std::forward<Other>(other).get_unexpected());
 1048|  43.7k|    }
_ZN3scn2v46detail21expected_storage_baseINS0_11scan_resultINS0_6ranges6detail9subrange_8subrangeIPKcS9_EEJxEEENS0_10scan_errorELb1EE13destroy_valueEv:
  510|  43.7k|    static constexpr void destroy_value() noexcept {}
_ZN3scn2v46detail21expected_storage_baseINS0_11scan_resultINS0_6ranges6detail9subrange_8subrangeIPKcS9_EEJxEEENS0_10scan_errorELb1EE20construct_unexpectedIJNS0_10unexpectedISC_EEEEEvDpOT_:
  503|  43.7k|    {
  504|  43.7k|        scn::detail::construct_at(&get_unexpected(),
  505|  43.7k|                                  std::forward<Args>(args)...);
  506|  43.7k|        m_has_value = false;
  507|  43.7k|    }
_ZNR3scn2v46detail21expected_storage_baseINS0_11scan_resultINS0_6ranges6detail9subrange_8subrangeIPKcS9_EEJxEEENS0_10scan_errorELb1EE14get_unexpectedEv:
  472|  43.7k|    {
  473|  43.7k|        return m_unexpected;
  474|  43.7k|    }
_ZNO3scn2v46detail21expected_storage_baseINS0_11scan_resultINS0_6ranges6detail9subrange_8subrangeIPKcS9_EEJxEEENS0_10scan_errorELb1EE14get_unexpectedEv:
  480|  43.7k|    {
  481|  43.7k|        return std::move(m_unexpected);
  482|  43.7k|    }
_ZNK3scn2v424basic_scan_format_stringIcNS0_6ranges6detail9subrange_8subrangeIPKcS7_EEJxEEcvNSt3__117basic_string_viewIcNSA_11char_traitsIcEEEEEv:
 8461|   405k|    {
 8462|   405k|        return m_str;
 8463|   405k|    }
_ZN3scn2v414make_scan_argsINS0_18basic_scan_contextINS0_6detail16buffer_range_tagEcEEJxEEEDaRNSt3__15tupleIJDpT0_EEE:
 5803|   811k|{
 5804|   811k|    detail::check_scan_arg_types<Args...>();
 5805|   811k|    return detail::scan_arg_store<Context, Args...>(values);
 5806|   811k|}
_ZN3scn2v46detail20check_scan_arg_typesIJxEEEbv:
 5518|  1.05M|{
 5519|  1.05M|    constexpr bool default_constructible_constraint =
 5520|  1.05M|        std::conjunction_v<std::is_default_constructible<Args>...>;
 5521|  1.05M|    static_assert(default_constructible_constraint,
 5522|  1.05M|                  "Scan argument types must be default constructible");
 5523|       |
 5524|  1.05M|    constexpr bool destructible_constraint =
 5525|  1.05M|        std::conjunction_v<std::is_destructible<Args>...>;
 5526|  1.05M|    static_assert(destructible_constraint,
 5527|  1.05M|                  "Scan argument types must be Destructible");
 5528|       |
 5529|  1.05M|    constexpr bool non_reference_constraint =
 5530|  1.05M|        !std::conjunction_v<std::false_type, std::is_reference<Args>...>;
 5531|  1.05M|    static_assert(non_reference_constraint,
 5532|  1.05M|                  "Scan argument types must not be references");
 5533|       |
 5534|  1.05M|    constexpr bool movable_constraint =
 5535|  1.05M|        std::conjunction_v<std::is_move_constructible<Args>...>;
 5536|  1.05M|    static_assert(movable_constraint,
 5537|  1.05M|                  "Scan argument types must be move constructible");
 5538|       |
 5539|  1.05M|    return default_constructible_constraint && destructible_constraint &&
  ------------------
  |  Branch (5539:12): [Folded - Ignored]
  |  Branch (5539:48): [Folded - Ignored]
  ------------------
 5540|  1.05M|           non_reference_constraint && movable_constraint;
  ------------------
  |  Branch (5540:12): [Folded - Ignored]
  |  Branch (5540:40): [Folded - Ignored]
  ------------------
 5541|  1.05M|}
_ZN3scn2v46detail14scan_arg_storeINS0_18basic_scan_contextINS1_16buffer_range_tagEcEEJxEEC2ERNSt3__15tupleIJxEEE:
 5779|   811k|        : args(std::apply(make_argptrs<Args...>, args))
 5780|   811k|    {
 5781|   811k|    }
_ZN3scn2v46detail14scan_arg_storeINS0_18basic_scan_contextINS1_16buffer_range_tagEcEEJxEE12make_argptrsIJxEEENSt3__15arrayIPvLm1EEEDpRT_:
 5788|   811k|    {
 5789|   811k|        return {detail::make_arg<
 5790|   811k|            kind, Context,
 5791|   811k|            mapped_type_constant<remove_cvref_t<A>,
 5792|   811k|                                 typename Context::char_type>::value>(args)...};
 5793|   811k|    }
_ZN3scn2v46detail8make_argILNS1_19scan_arg_store_kindE0ENS0_18basic_scan_contextINS1_16buffer_range_tagEcEELNS1_8arg_typeE5ExvEEPvRT2_:
 5568|   811k|{
 5569|   811k|    return make_value<Context>(value).ref_value;
 5570|   811k|}
_ZN3scn2v46detail10make_valueINS0_18basic_scan_contextINS1_16buffer_range_tagEcEExEEDaRT0_:
 5503|   873k|{
 5504|   873k|    auto&& arg = arg_mapper<typename Context::char_type>().map(value);
 5505|       |
 5506|       |    if constexpr (!std::is_same_v<remove_cvref_t<decltype(arg)>,
 5507|   873k|                                  needs_context_tag>) {
 5508|   873k|        return make_value_impl<T>(SCN_FWD(arg));
  ------------------
  |  |  936|   873k|#define SCN_FWD(x)          static_cast<decltype(x)&&>(x)
  ------------------
 5509|       |    }
 5510|       |    else {
 5511|       |        return make_value_impl<T>(arg_mapper<typename Context::char_type>().map(
 5512|       |            value, context_tag<Context>{}));
 5513|       |    }
 5514|   873k|}
_ZN3scn2v46detail10arg_mapperIcE3mapERx:
 5342|   873k|    {                                                                        \
 5343|   873k|        return val;                                                          \
 5344|   873k|    }
_ZN3scn2v46detail15make_value_implIxRxEEDaOT0_:
 5472|  1.05M|{
 5473|  1.05M|    using arg_nocvref_t = remove_cvref_t<Arg>;
 5474|  1.05M|    static_assert(!std::is_same_v<arg_nocvref_t, needs_context_tag>);
 5475|       |
 5476|  1.05M|    constexpr bool scannable_char =
 5477|  1.05M|        !std::is_same_v<arg_nocvref_t, unscannable_char>;
 5478|  1.05M|    static_assert(scannable_char,
 5479|  1.05M|                  "Cannot scan an argument of an unsupported character "
 5480|  1.05M|                  "type (i.e. char from a wchar_t source)");
 5481|       |
 5482|  1.05M|    constexpr bool scannable_const =
 5483|  1.05M|        !std::is_same_v<arg_nocvref_t, unscannable_const>;
 5484|  1.05M|    static_assert(scannable_const, "Cannot scan a const argument");
 5485|       |
 5486|  1.05M|    constexpr bool scannable_disabled =
 5487|  1.05M|        !std::is_same_v<arg_nocvref_t, unscannable_disabled>;
 5488|  1.05M|    static_assert(scannable_disabled,
 5489|  1.05M|                  "Cannot scan an argument that has been disabled by "
 5490|  1.05M|                  "flag (SCN_DISABLE_TYPE_*)");
 5491|       |
 5492|  1.05M|    constexpr bool scannable = !std::is_same_v<arg_nocvref_t, unscannable>;
 5493|  1.05M|    static_assert(
 5494|  1.05M|        scannable,
 5495|  1.05M|        "Cannot scan an argument. To make a type T scannable, provide "
 5496|  1.05M|        "a scn::scanner<T, CharT> specialization.");
 5497|       |
 5498|  1.05M|    return arg_value{arg};
 5499|  1.05M|}
_ZN3scn2v46detail9arg_valueC2IxEERT_:
 5256|  1.05M|    explicit constexpr arg_value(T& val) : ref_value{std::addressof(val)}
 5257|  1.05M|    {
 5258|  1.05M|    }
_ZNR3scn2v46detail25scan_result_value_storageIJxEE6valuesEv:
 6047|   980k|    {
 6048|   980k|        return m_values;
 6049|   980k|    }
_ZN3scn2v415basic_scan_argsINS0_18basic_scan_contextINS0_6detail16buffer_range_tagEcEEEC2IJxEEERKNS3_14scan_arg_storeIS5_JDpT_EEE:
 5829|   811k|        : basic_scan_args(store.desc, store.args.data())
 5830|   811k|    {
 5831|   811k|    }
_ZN3scn2v424basic_scan_format_stringIcNS0_6ranges6detail9subrange_8subrangeIPKcS7_EEJxEEC2ENS0_6detail27basic_runtime_format_stringIcEE:
 8456|   405k|        : m_str(r.str)
 8457|   405k|    {
 8458|   405k|    }
_ZNK3scn2v48expectedINS0_11scan_resultINS0_6ranges6detail9subrange_8subrangeIPKcS8_EEJxEEENS0_10scan_errorEEcvbEv:
 1739|   436k|    {
 1740|   436k|        return has_value();
 1741|   436k|    }
_ZN3scn2v48expectedINS0_11scan_resultINS0_6ranges6detail9subrange_8subrangeIPKcS8_EEJxEEENS0_10scan_errorEEptEv:
 1814|  1.22M|    {
 1815|  1.22M|        return &value();
 1816|  1.22M|    }
_ZNR3scn2v48expectedINS0_11scan_resultINS0_6ranges6detail9subrange_8subrangeIPKcS8_EEJxEEENS0_10scan_errorEE5valueISA_TnPNSt3__19enable_ifIXntsr3stdE9is_void_vIT_EEvE4typeELPv0EEERSG_v:
 1768|  1.22M|    {
 1769|  1.22M|        SCN_EXPECT(has_value());
  ------------------
  |  |  930|  1.22M|#define SCN_EXPECT(cond) SCN_ASSERT(cond, "Precondition violation")
  |  |  ------------------
  |  |  |  |  927|  1.22M|#define SCN_ASSERT(cond, msg) assert((cond) && msg)
  |  |  ------------------
  ------------------
 1770|  1.22M|        return this->get_value();
 1771|  1.22M|    }
_ZN3scn2v44scanIJxENSt3__16localeENS0_6ranges6detail9subrange_8subrangeIPKcS9_EEvvEENS0_13scan_expectedINS0_11scan_resultINS2_11conditionalIXsr3stdE9is_same_vIu11__remove_cvIu20__remove_reference_tIT1_EEP8_IO_FILEEESI_NS0_6detail22borrowed_tail_subrangeISE_Xsr6rangesE14borrowed_rangeISE_EEE4typeEE4typeEJDpT_EEEEERKT0_OSE_NS0_24basic_scan_format_stringIcNSJ_13type_identityISE_E4typeEJDpNSY_ISP_E4typeEEEE:
 9443|   202k|{
 9444|   202k|    auto result = make_scan_result<Source, Args...>();
 9445|   202k|    fill_scan_result(result, vscan(loc, SCN_FWD(source), format,
  ------------------
  |  |  936|   202k|#define SCN_FWD(x)          static_cast<decltype(x)&&>(x)
  ------------------
 9446|   202k|                                   make_scan_args(result->values())));
 9447|   202k|    return result;
 9448|   202k|}
_ZN3scn2v410scan_valueIxNS0_6ranges6detail9subrange_8subrangeIPKcS7_EEvEENS0_13scan_expectedINS0_11scan_resultINSt3__111conditionalIXsr3stdE9is_same_vIu11__remove_cvIu20__remove_reference_tIT0_EEP8_IO_FILEEESH_NS0_6detail22borrowed_tail_subrangeISD_Xsr6rangesE14borrowed_rangeISD_EEE4typeEE4typeEJT_EEEEEOSD_:
 9484|  31.2k|{
 9485|  31.2k|    auto result = make_scan_result<Source, T>();
 9486|  31.2k|    fill_scan_result(
 9487|  31.2k|        result, vscan_value(SCN_FWD(source),
  ------------------
  |  |  936|  31.2k|#define SCN_FWD(x)          static_cast<decltype(x)&&>(x)
  ------------------
 9488|  31.2k|                            detail::make_arg<scan_context>(result->value())));
 9489|  31.2k|    return result;
 9490|  31.2k|}
_ZN3scn2v46detail8make_argINS0_18basic_scan_contextINS1_16buffer_range_tagEcEExEENS0_14basic_scan_argIT_EERT0_:
 5553|  61.8k|{
 5554|  61.8k|    check_scan_arg_types<T>();
 5555|       |
 5556|  61.8k|    basic_scan_arg<Context> arg;
 5557|  61.8k|    arg.m_type = mapped_type_constant<T, typename Context::char_type>::value;
 5558|  61.8k|    arg.m_value = make_value<Context>(value);
 5559|  61.8k|    return arg;
 5560|  61.8k|}
_ZNR3scn2v46detail25scan_result_value_storageIJxEE5valueILm1ETnPNSt3__19enable_ifIXeqT_Li1EEvE4typeELPv0EEEDcv:
 6069|  70.3k|    {
 6070|  70.3k|        return std::get<0>(m_values);
 6071|  70.3k|    }
_ZN3scn2v44scanIJyENS0_6ranges6detail9subrange_8subrangeIPKcS7_EEvEENS0_13scan_expectedINS0_11scan_resultINSt3__111conditionalIXsr3stdE9is_same_vIu11__remove_cvIu20__remove_reference_tIT0_EEP8_IO_FILEEESH_NS0_6detail22borrowed_tail_subrangeISD_Xsr6rangesE14borrowed_rangeISD_EEE4typeEE4typeEJDpT_EEEEEOSD_NS0_24basic_scan_format_stringIcNSI_13type_identityISD_E4typeEJDpNSU_ISO_E4typeEEEE:
 9374|   173k|{
 9375|   173k|    auto result = make_scan_result<Source, Args...>();
 9376|   173k|    fill_scan_result(result, vscan(SCN_FWD(source), format,
  ------------------
  |  |  936|   173k|#define SCN_FWD(x)          static_cast<decltype(x)&&>(x)
  ------------------
 9377|   173k|                                   make_scan_args(result->values())));
 9378|   173k|    return result;
 9379|   173k|}
_ZN3scn2v416make_scan_resultINS0_6ranges6detail9subrange_8subrangeIPKcS7_EEJyEEEDav:
 9330|   374k|{
 9331|   374k|    return scan_result_type<Source, Args...>();
 9332|   374k|}
_ZN3scn2v48expectedINS0_11scan_resultINS0_6ranges6detail9subrange_8subrangeIPKcS8_EEJyEEENS0_10scan_errorEEC2Ev:
 1551|   374k|    constexpr expected() = default;
_ZN3scn2v46detail21expected_storage_baseINS0_11scan_resultINS0_6ranges6detail9subrange_8subrangeIPKcS9_EEJyEEENS0_10scan_errorELb1EEC2Ev:
  426|   374k|        : m_value(T{}), m_has_value(true)
  427|   374k|    {
  428|   374k|    }
_ZN3scn2v411scan_resultINS0_6ranges6detail9subrange_8subrangeIPKcS7_EEJyEEC2Ev:
 6264|   374k|    constexpr scan_result() = default;
_ZN3scn2v46detail25scan_result_value_storageIJyEEC2Ev:
 6038|   926k|    constexpr scan_result_value_storage() = default;
_ZN3scn2v416fill_scan_resultINS0_11scan_resultINS0_6ranges6detail9subrange_8subrangeIPKcS8_EEJyEEES9_TnPNSt3__19enable_ifIXsr3stdE13conjunction_vINS0_6detail25is_specialization_of_implIu11__remove_cvIu20__remove_reference_tIT_EES2_EENSB_7is_sameINSF_10range_typeET0_EEEEvE4typeELPv0EEEvRNS0_13scan_expectedISF_EEONSR_ISL_EE:
 9315|   374k|{
 9316|   374k|    if (SCN_UNLIKELY(!in)) {
  ------------------
  |  |  865|   374k|#define SCN_UNLIKELY(x) __builtin_expect(!!(x), 0)
  |  |  ------------------
  |  |  |  Branch (865:25): [True: 43.7k, False: 330k]
  |  |  ------------------
  ------------------
 9317|  43.7k|        out = unexpected(in.error());
 9318|  43.7k|    }
 9319|   330k|    else {
 9320|   330k|        out->set_range(SCN_MOVE(*in));
  ------------------
  |  |  934|   330k|    static_cast<    \
  |  |  935|   330k|        typename ::scn::detail::remove_reference<decltype(x)>::type&&>(x)
  ------------------
 9321|   330k|    }
 9322|   374k|}
_ZN3scn2v48expectedINS0_11scan_resultINS0_6ranges6detail9subrange_8subrangeIPKcS8_EEJyEEENS0_10scan_errorEEC2ISB_TnPNSt3__19enable_ifIXsr3stdE18is_constructible_vISB_OT_EEvE4typeELPv0ETnPNSF_IXsr3stdE16is_convertible_vISH_SB_EEvE4typeELSL_0EEEONS0_10unexpectedISG_EE:
 1615|  43.7k|        : base(unexpect, std::move(e.error())),
 1616|  43.7k|          ctor_base(detail::non_default_ctor_tag_t{})
 1617|  43.7k|    {
 1618|  43.7k|    }
_ZN3scn2v46detail21expected_storage_baseINS0_11scan_resultINS0_6ranges6detail9subrange_8subrangeIPKcS9_EEJyEEENS0_10scan_errorELb1EEC2IJSC_EvEENS0_10unexpect_tEDpOT_:
  449|  43.7k|        : m_unexpected(std::in_place, std::forward<Args>(args)...),
  450|  43.7k|          m_has_value(false)
  451|  43.7k|    {
  452|  43.7k|    }
_ZN3scn2v46detail26expected_default_ctor_baseINS0_11scan_resultINS0_6ranges6detail9subrange_8subrangeIPKcS9_EEJyEEENS0_10scan_errorELb1EEC2ENS1_22non_default_ctor_tag_tE:
 1315|  43.7k|    {
 1316|  43.7k|    }
_ZN3scn2v48expectedINS0_11scan_resultINS0_6ranges6detail9subrange_8subrangeIPKcS8_EEJyEEENS0_10scan_errorEEaSEOSC_:
 1556|  43.7k|    constexpr expected& operator=(expected&&) = default;
_ZN3scn2v46detail24expected_operations_baseINS0_11scan_resultINS0_6ranges6detail9subrange_8subrangeIPKcS9_EEJyEEENS0_10scan_errorEvEaSEOSD_:
  902|  43.7k|    {
  903|  43.7k|        assign_common(std::move(other));
  904|  43.7k|        return *this;
  905|  43.7k|    }
_ZN3scn2v46detail24expected_operations_baseINS0_11scan_resultINS0_6ranges6detail9subrange_8subrangeIPKcS9_EEJyEEENS0_10scan_errorEvE13assign_commonISD_EEvOT_:
  949|  43.7k|    {
  950|  43.7k|        if (this->has_value()) {
  ------------------
  |  Branch (950:13): [True: 43.7k, False: 0]
  ------------------
  951|  43.7k|            if (other.has_value()) {
  ------------------
  |  Branch (951:17): [True: 0, False: 43.7k]
  ------------------
  952|      0|                return reassign_value(std::forward<Other>(other));
  953|      0|            }
  954|  43.7k|            return assign_unexpected_over_value(std::forward<Other>(other));
  955|  43.7k|        }
  956|       |
  957|      0|        if (other.has_value()) {
  ------------------
  |  Branch (957:13): [True: 0, False: 0]
  ------------------
  958|      0|            return assign_value_over_unexpected(std::forward<Other>(other));
  959|      0|        }
  960|      0|        return reassign_unexpected(std::forward<Other>(other));
  961|      0|    }
_ZNK3scn2v46detail21expected_storage_baseINS0_11scan_resultINS0_6ranges6detail9subrange_8subrangeIPKcS9_EEJyEEENS0_10scan_errorELb1EE9has_valueEv:
  489|  1.49M|    {
  490|  1.49M|        return m_has_value;
  491|  1.49M|    }
_ZNR3scn2v46detail21expected_storage_baseINS0_11scan_resultINS0_6ranges6detail9subrange_8subrangeIPKcS9_EEJyEEENS0_10scan_errorELb1EE9get_valueEv:
  455|  1.03M|    {
  456|  1.03M|        return m_value;
  457|  1.03M|    }
_ZN3scn2v46detail24expected_operations_baseINS0_11scan_resultINS0_6ranges6detail9subrange_8subrangeIPKcS9_EEJyEEENS0_10scan_errorEvE28assign_unexpected_over_valueISD_EEvOT_:
 1045|  43.7k|    {
 1046|  43.7k|        this->destroy_value();
 1047|  43.7k|        this->construct_unexpected(std::forward<Other>(other).get_unexpected());
 1048|  43.7k|    }
_ZN3scn2v46detail21expected_storage_baseINS0_11scan_resultINS0_6ranges6detail9subrange_8subrangeIPKcS9_EEJyEEENS0_10scan_errorELb1EE13destroy_valueEv:
  510|  43.7k|    static constexpr void destroy_value() noexcept {}
_ZN3scn2v46detail21expected_storage_baseINS0_11scan_resultINS0_6ranges6detail9subrange_8subrangeIPKcS9_EEJyEEENS0_10scan_errorELb1EE20construct_unexpectedIJNS0_10unexpectedISC_EEEEEvDpOT_:
  503|  43.7k|    {
  504|  43.7k|        scn::detail::construct_at(&get_unexpected(),
  505|  43.7k|                                  std::forward<Args>(args)...);
  506|  43.7k|        m_has_value = false;
  507|  43.7k|    }
_ZNR3scn2v46detail21expected_storage_baseINS0_11scan_resultINS0_6ranges6detail9subrange_8subrangeIPKcS9_EEJyEEENS0_10scan_errorELb1EE14get_unexpectedEv:
  472|  43.7k|    {
  473|  43.7k|        return m_unexpected;
  474|  43.7k|    }
_ZNO3scn2v46detail21expected_storage_baseINS0_11scan_resultINS0_6ranges6detail9subrange_8subrangeIPKcS9_EEJyEEENS0_10scan_errorELb1EE14get_unexpectedEv:
  480|  43.7k|    {
  481|  43.7k|        return std::move(m_unexpected);
  482|  43.7k|    }
_ZNK3scn2v424basic_scan_format_stringIcNS0_6ranges6detail9subrange_8subrangeIPKcS7_EEJyEEcvNSt3__117basic_string_viewIcNSA_11char_traitsIcEEEEEv:
 8461|   347k|    {
 8462|   347k|        return m_str;
 8463|   347k|    }
_ZN3scn2v414make_scan_argsINS0_18basic_scan_contextINS0_6detail16buffer_range_tagEcEEJyEEEDaRNSt3__15tupleIJDpT0_EEE:
 5803|   696k|{
 5804|   696k|    detail::check_scan_arg_types<Args...>();
 5805|   696k|    return detail::scan_arg_store<Context, Args...>(values);
 5806|   696k|}
_ZN3scn2v46detail20check_scan_arg_typesIJyEEEbv:
 5518|   926k|{
 5519|   926k|    constexpr bool default_constructible_constraint =
 5520|   926k|        std::conjunction_v<std::is_default_constructible<Args>...>;
 5521|   926k|    static_assert(default_constructible_constraint,
 5522|   926k|                  "Scan argument types must be default constructible");
 5523|       |
 5524|   926k|    constexpr bool destructible_constraint =
 5525|   926k|        std::conjunction_v<std::is_destructible<Args>...>;
 5526|   926k|    static_assert(destructible_constraint,
 5527|   926k|                  "Scan argument types must be Destructible");
 5528|       |
 5529|   926k|    constexpr bool non_reference_constraint =
 5530|   926k|        !std::conjunction_v<std::false_type, std::is_reference<Args>...>;
 5531|   926k|    static_assert(non_reference_constraint,
 5532|   926k|                  "Scan argument types must not be references");
 5533|       |
 5534|   926k|    constexpr bool movable_constraint =
 5535|   926k|        std::conjunction_v<std::is_move_constructible<Args>...>;
 5536|   926k|    static_assert(movable_constraint,
 5537|   926k|                  "Scan argument types must be move constructible");
 5538|       |
 5539|   926k|    return default_constructible_constraint && destructible_constraint &&
  ------------------
  |  Branch (5539:12): [Folded - Ignored]
  |  Branch (5539:48): [Folded - Ignored]
  ------------------
 5540|   926k|           non_reference_constraint && movable_constraint;
  ------------------
  |  Branch (5540:12): [Folded - Ignored]
  |  Branch (5540:40): [Folded - Ignored]
  ------------------
 5541|   926k|}
_ZN3scn2v46detail14scan_arg_storeINS0_18basic_scan_contextINS1_16buffer_range_tagEcEEJyEEC2ERNSt3__15tupleIJyEEE:
 5779|   696k|        : args(std::apply(make_argptrs<Args...>, args))
 5780|   696k|    {
 5781|   696k|    }
_ZN3scn2v46detail14scan_arg_storeINS0_18basic_scan_contextINS1_16buffer_range_tagEcEEJyEE12make_argptrsIJyEEENSt3__15arrayIPvLm1EEEDpRT_:
 5788|   696k|    {
 5789|   696k|        return {detail::make_arg<
 5790|   696k|            kind, Context,
 5791|   696k|            mapped_type_constant<remove_cvref_t<A>,
 5792|   696k|                                 typename Context::char_type>::value>(args)...};
 5793|   696k|    }
_ZN3scn2v46detail8make_argILNS1_19scan_arg_store_kindE0ENS0_18basic_scan_contextINS1_16buffer_range_tagEcEELNS1_8arg_typeE10EyvEEPvRT2_:
 5568|   696k|{
 5569|   696k|    return make_value<Context>(value).ref_value;
 5570|   696k|}
_ZN3scn2v46detail10make_valueINS0_18basic_scan_contextINS1_16buffer_range_tagEcEEyEEDaRT0_:
 5503|   749k|{
 5504|   749k|    auto&& arg = arg_mapper<typename Context::char_type>().map(value);
 5505|       |
 5506|       |    if constexpr (!std::is_same_v<remove_cvref_t<decltype(arg)>,
 5507|   749k|                                  needs_context_tag>) {
 5508|   749k|        return make_value_impl<T>(SCN_FWD(arg));
  ------------------
  |  |  936|   749k|#define SCN_FWD(x)          static_cast<decltype(x)&&>(x)
  ------------------
 5509|       |    }
 5510|       |    else {
 5511|       |        return make_value_impl<T>(arg_mapper<typename Context::char_type>().map(
 5512|       |            value, context_tag<Context>{}));
 5513|       |    }
 5514|   749k|}
_ZN3scn2v46detail10arg_mapperIcE3mapERy:
 5342|   749k|    {                                                                        \
 5343|   749k|        return val;                                                          \
 5344|   749k|    }
_ZN3scn2v46detail15make_value_implIyRyEEDaOT0_:
 5472|   926k|{
 5473|   926k|    using arg_nocvref_t = remove_cvref_t<Arg>;
 5474|   926k|    static_assert(!std::is_same_v<arg_nocvref_t, needs_context_tag>);
 5475|       |
 5476|   926k|    constexpr bool scannable_char =
 5477|   926k|        !std::is_same_v<arg_nocvref_t, unscannable_char>;
 5478|   926k|    static_assert(scannable_char,
 5479|   926k|                  "Cannot scan an argument of an unsupported character "
 5480|   926k|                  "type (i.e. char from a wchar_t source)");
 5481|       |
 5482|   926k|    constexpr bool scannable_const =
 5483|   926k|        !std::is_same_v<arg_nocvref_t, unscannable_const>;
 5484|   926k|    static_assert(scannable_const, "Cannot scan a const argument");
 5485|       |
 5486|   926k|    constexpr bool scannable_disabled =
 5487|   926k|        !std::is_same_v<arg_nocvref_t, unscannable_disabled>;
 5488|   926k|    static_assert(scannable_disabled,
 5489|   926k|                  "Cannot scan an argument that has been disabled by "
 5490|   926k|                  "flag (SCN_DISABLE_TYPE_*)");
 5491|       |
 5492|   926k|    constexpr bool scannable = !std::is_same_v<arg_nocvref_t, unscannable>;
 5493|   926k|    static_assert(
 5494|   926k|        scannable,
 5495|   926k|        "Cannot scan an argument. To make a type T scannable, provide "
 5496|   926k|        "a scn::scanner<T, CharT> specialization.");
 5497|       |
 5498|   926k|    return arg_value{arg};
 5499|   926k|}
_ZN3scn2v46detail9arg_valueC2IyEERT_:
 5256|   926k|    explicit constexpr arg_value(T& val) : ref_value{std::addressof(val)}
 5257|   926k|    {
 5258|   926k|    }
_ZNR3scn2v46detail25scan_result_value_storageIJyEE6valuesEv:
 6047|   864k|    {
 6048|   864k|        return m_values;
 6049|   864k|    }
_ZN3scn2v415basic_scan_argsINS0_18basic_scan_contextINS0_6detail16buffer_range_tagEcEEEC2IJyEEERKNS3_14scan_arg_storeIS5_JDpT_EEE:
 5829|   696k|        : basic_scan_args(store.desc, store.args.data())
 5830|   696k|    {
 5831|   696k|    }
_ZN3scn2v424basic_scan_format_stringIcNS0_6ranges6detail9subrange_8subrangeIPKcS7_EEJyEEC2ENS0_6detail27basic_runtime_format_stringIcEE:
 8456|   347k|        : m_str(r.str)
 8457|   347k|    {
 8458|   347k|    }
_ZNK3scn2v48expectedINS0_11scan_resultINS0_6ranges6detail9subrange_8subrangeIPKcS8_EEJyEEENS0_10scan_errorEEcvbEv:
 1739|   374k|    {
 1740|   374k|        return has_value();
 1741|   374k|    }
_ZN3scn2v48expectedINS0_11scan_resultINS0_6ranges6detail9subrange_8subrangeIPKcS8_EEJyEEENS0_10scan_errorEEptEv:
 1814|  1.03M|    {
 1815|  1.03M|        return &value();
 1816|  1.03M|    }
_ZNR3scn2v48expectedINS0_11scan_resultINS0_6ranges6detail9subrange_8subrangeIPKcS8_EEJyEEENS0_10scan_errorEE5valueISA_TnPNSt3__19enable_ifIXntsr3stdE9is_void_vIT_EEvE4typeELPv0EEERSG_v:
 1768|  1.03M|    {
 1769|  1.03M|        SCN_EXPECT(has_value());
  ------------------
  |  |  930|  1.03M|#define SCN_EXPECT(cond) SCN_ASSERT(cond, "Precondition violation")
  |  |  ------------------
  |  |  |  |  927|  1.03M|#define SCN_ASSERT(cond, msg) assert((cond) && msg)
  |  |  ------------------
  ------------------
 1770|  1.03M|        return this->get_value();
 1771|  1.03M|    }
_ZN3scn2v44scanIJyENSt3__16localeENS0_6ranges6detail9subrange_8subrangeIPKcS9_EEvvEENS0_13scan_expectedINS0_11scan_resultINS2_11conditionalIXsr3stdE9is_same_vIu11__remove_cvIu20__remove_reference_tIT1_EEP8_IO_FILEEESI_NS0_6detail22borrowed_tail_subrangeISE_Xsr6rangesE14borrowed_rangeISE_EEE4typeEE4typeEJDpT_EEEEERKT0_OSE_NS0_24basic_scan_format_stringIcNSJ_13type_identityISE_E4typeEJDpNSY_ISP_E4typeEEEE:
 9443|   173k|{
 9444|   173k|    auto result = make_scan_result<Source, Args...>();
 9445|   173k|    fill_scan_result(result, vscan(loc, SCN_FWD(source), format,
  ------------------
  |  |  936|   173k|#define SCN_FWD(x)          static_cast<decltype(x)&&>(x)
  ------------------
 9446|   173k|                                   make_scan_args(result->values())));
 9447|   173k|    return result;
 9448|   173k|}
_ZN3scn2v410scan_valueIyNS0_6ranges6detail9subrange_8subrangeIPKcS7_EEvEENS0_13scan_expectedINS0_11scan_resultINSt3__111conditionalIXsr3stdE9is_same_vIu11__remove_cvIu20__remove_reference_tIT0_EEP8_IO_FILEEESH_NS0_6detail22borrowed_tail_subrangeISD_Xsr6rangesE14borrowed_rangeISD_EEE4typeEE4typeEJT_EEEEEOSD_:
 9484|  26.5k|{
 9485|  26.5k|    auto result = make_scan_result<Source, T>();
 9486|  26.5k|    fill_scan_result(
 9487|  26.5k|        result, vscan_value(SCN_FWD(source),
  ------------------
  |  |  936|  26.5k|#define SCN_FWD(x)          static_cast<decltype(x)&&>(x)
  ------------------
 9488|  26.5k|                            detail::make_arg<scan_context>(result->value())));
 9489|  26.5k|    return result;
 9490|  26.5k|}
_ZN3scn2v46detail8make_argINS0_18basic_scan_contextINS1_16buffer_range_tagEcEEyEENS0_14basic_scan_argIT_EERT0_:
 5553|  53.0k|{
 5554|  53.0k|    check_scan_arg_types<T>();
 5555|       |
 5556|  53.0k|    basic_scan_arg<Context> arg;
 5557|  53.0k|    arg.m_type = mapped_type_constant<T, typename Context::char_type>::value;
 5558|  53.0k|    arg.m_value = make_value<Context>(value);
 5559|  53.0k|    return arg;
 5560|  53.0k|}
_ZNR3scn2v46detail25scan_result_value_storageIJyEE5valueILm1ETnPNSt3__19enable_ifIXeqT_Li1EEvE4typeELPv0EEEDcv:
 6069|  61.5k|    {
 6070|  61.5k|        return std::get<0>(m_values);
 6071|  61.5k|    }
_ZNK3scn2v46ranges6detail6begin_2fnclIRKNSt3__15dequeIcNS6_9allocatorIcEEEEEEDTclsr2fnE4implscDtfp_Efp_tlNS0_6detail12priority_tagILm3EEEEEEOT_:
 2868|   262k|    {
 2869|   262k|        return fn::impl(SCN_FWD(t), priority_tag<3>{});
  ------------------
  |  |  936|   262k|#define SCN_FWD(x)          static_cast<decltype(x)&&>(x)
  ------------------
 2870|   262k|    }
_ZN3scn2v46ranges6detail6begin_2fn4implIRKNSt3__15dequeIcNS6_9allocatorIcEEEEEENS6_9enable_ifIX24input_or_output_iteratorIDTcl10decay_copycldtscDtfp_Efp_5beginEEEEESF_E4typeEOT_NS0_6detail12priority_tagILm1EEE:
 2849|   262k|    {
 2850|   262k|        return decay_copy(t.begin());
 2851|   262k|    }
_ZN3scn2v46ranges6detail10decay_copyINSt3__116__deque_iteratorIcPKcRS6_PKS7_lLl4096EEEEEu7__decayIT_EOSC_:
 2093|  49.2M|{
 2094|  49.2M|    return SCN_FWD(t);
  ------------------
  |  |  936|  49.2M|#define SCN_FWD(x)          static_cast<decltype(x)&&>(x)
  ------------------
 2095|  49.2M|}
_ZNK3scn2v46ranges6detail4end_2fnclIRKNSt3__15dequeIcNS6_9allocatorIcEEEEEEDTclsr2fnE4implscDtfp_Efp_tlNS0_6detail12priority_tagILm3EEEEEEOT_:
 2925|  4.56M|    {
 2926|  4.56M|        return fn::impl(SCN_FWD(t), priority_tag<3>{});
  ------------------
  |  |  936|  4.56M|#define SCN_FWD(x)          static_cast<decltype(x)&&>(x)
  ------------------
 2927|  4.56M|    }
_ZN3scn2v46ranges6detail4end_2fn4implIRKNSt3__15dequeIcNS6_9allocatorIcEEEENS6_16__deque_iteratorIcPKcRSE_PKSF_lLl4096EEESJ_EENS6_9enable_ifIX12sentinel_forIT0_T1_EEDTcl10decay_copycldtscDtfp_Efp_3endEEEE4typeEOT_NS0_6detail12priority_tagILm1EEE:
 2907|  4.56M|    {
 2908|  4.56M|        return decay_copy(SCN_FWD(t).end());
  ------------------
  |  |  936|  4.56M|#define SCN_FWD(x)          static_cast<decltype(x)&&>(x)
  ------------------
 2909|  4.56M|    }
_ZN3scn2v44scanIJaENS0_6ranges6detail9subrange_8subrangeINSt3__116__deque_iteratorIcPKcRS8_PKS9_lLl4096EEESD_EEvEENS0_13scan_expectedINS0_11scan_resultINS6_11conditionalIXsr3stdE9is_same_vIu11__remove_cvIu20__remove_reference_tIT0_EEP8_IO_FILEEESM_NS0_6detail22borrowed_tail_subrangeISI_Xsr6rangesE14borrowed_rangeISI_EEE4typeEE4typeEJDpT_EEEEEOSI_NS0_24basic_scan_format_stringIcNSN_13type_identityISI_E4typeEJDpNSZ_IST_E4typeEEEE:
 9374|   158k|{
 9375|   158k|    auto result = make_scan_result<Source, Args...>();
 9376|   158k|    fill_scan_result(result, vscan(SCN_FWD(source), format,
  ------------------
  |  |  936|   158k|#define SCN_FWD(x)          static_cast<decltype(x)&&>(x)
  ------------------
 9377|   158k|                                   make_scan_args(result->values())));
 9378|   158k|    return result;
 9379|   158k|}
_ZN3scn2v416make_scan_resultINS0_6ranges6detail9subrange_8subrangeINSt3__116__deque_iteratorIcPKcRS8_PKS9_lLl4096EEESD_EEJaEEEDav:
 9330|   342k|{
 9331|   342k|    return scan_result_type<Source, Args...>();
 9332|   342k|}
_ZN3scn2v48expectedINS0_11scan_resultINS0_6ranges6detail9subrange_8subrangeINSt3__116__deque_iteratorIcPKcRS9_PKSA_lLl4096EEESE_EEJaEEENS0_10scan_errorEEC2Ev:
 1551|   342k|    constexpr expected() = default;
_ZN3scn2v46detail21expected_storage_baseINS0_11scan_resultINS0_6ranges6detail9subrange_8subrangeINSt3__116__deque_iteratorIcPKcRSA_PKSB_lLl4096EEESF_EEJaEEENS0_10scan_errorELb1EEC2Ev:
  426|   342k|        : m_value(T{}), m_has_value(true)
  427|   342k|    {
  428|   342k|    }
_ZN3scn2v411scan_resultINS0_6ranges6detail9subrange_8subrangeINSt3__116__deque_iteratorIcPKcRS8_PKS9_lLl4096EEESD_EEJaEEC2Ev:
 6264|   342k|    constexpr scan_result() = default;
_ZN3scn2v46detail25scan_result_range_storageINS0_6ranges6detail9subrange_8subrangeINSt3__116__deque_iteratorIcPKcRS9_PKSA_lLl4096EEESE_EEEC2Ev:
 6107|  2.28M|    constexpr scan_result_range_storage() = default;
_ZN3scn2v46ranges6detail9subrange_8subrangeINSt3__116__deque_iteratorIcPKcRS7_PKS8_lLl4096EEESC_EC2Ev:
 3459|  2.28M|    subrange() = default;
_ZN3scn2v416fill_scan_resultINS0_11scan_resultINS0_6ranges6detail9subrange_8subrangeINSt3__116__deque_iteratorIcPKcRS9_PKSA_lLl4096EEESE_EEJaEEESF_TnPNS7_9enable_ifIXsr3stdE13conjunction_vINS0_6detail25is_specialization_of_implIu11__remove_cvIu20__remove_reference_tIT_EES2_EENS7_7is_sameINSK_10range_typeET0_EEEEvE4typeELPv0EEEvRNS0_13scan_expectedISK_EEONSW_ISQ_EE:
 9315|   342k|{
 9316|   342k|    if (SCN_UNLIKELY(!in)) {
  ------------------
  |  |  865|   342k|#define SCN_UNLIKELY(x) __builtin_expect(!!(x), 0)
  |  |  ------------------
  |  |  |  Branch (865:25): [True: 43.7k, False: 298k]
  |  |  ------------------
  ------------------
 9317|  43.7k|        out = unexpected(in.error());
 9318|  43.7k|    }
 9319|   298k|    else {
 9320|   298k|        out->set_range(SCN_MOVE(*in));
  ------------------
  |  |  934|   298k|    static_cast<    \
  |  |  935|   298k|        typename ::scn::detail::remove_reference<decltype(x)>::type&&>(x)
  ------------------
 9321|   298k|    }
 9322|   342k|}
_ZNK3scn2v48expectedINS0_6ranges6detail9subrange_8subrangeINSt3__116__deque_iteratorIcPKcRS8_PKS9_lLl4096EEESD_EENS0_10scan_errorEEcvbEv:
 1739|  2.28M|    {
 1740|  2.28M|        return has_value();
 1741|  2.28M|    }
_ZNK3scn2v46detail21expected_storage_baseINS0_6ranges6detail9subrange_8subrangeINSt3__116__deque_iteratorIcPKcRS9_PKSA_lLl4096EEESE_EENS0_10scan_errorELb1EE9has_valueEv:
  489|  4.56M|    {
  490|  4.56M|        return m_has_value;
  491|  4.56M|    }
_ZNR3scn2v48expectedINS0_6ranges6detail9subrange_8subrangeINSt3__116__deque_iteratorIcPKcRS8_PKS9_lLl4096EEESD_EENS0_10scan_errorEE5errorEv:
 1745|   262k|    {
 1746|   262k|        SCN_EXPECT(!has_value());
  ------------------
  |  |  930|   262k|#define SCN_EXPECT(cond) SCN_ASSERT(cond, "Precondition violation")
  |  |  ------------------
  |  |  |  |  927|   262k|#define SCN_ASSERT(cond, msg) assert((cond) && msg)
  |  |  ------------------
  ------------------
 1747|   262k|        return this->get_unexpected().error();
 1748|   262k|    }
_ZNR3scn2v46detail21expected_storage_baseINS0_6ranges6detail9subrange_8subrangeINSt3__116__deque_iteratorIcPKcRS9_PKSA_lLl4096EEESE_EENS0_10scan_errorELb1EE14get_unexpectedEv:
  472|   262k|    {
  473|   262k|        return m_unexpected;
  474|   262k|    }
_ZN3scn2v48expectedINS0_11scan_resultINS0_6ranges6detail9subrange_8subrangeINSt3__116__deque_iteratorIcPKcRS9_PKSA_lLl4096EEESE_EEJaEEENS0_10scan_errorEEC2ISH_TnPNS7_9enable_ifIXsr3stdE18is_constructible_vISH_OT_EEvE4typeELPv0ETnPNSK_IXsr3stdE16is_convertible_vISM_SH_EEvE4typeELSQ_0EEEONS0_10unexpectedISL_EE:
 1615|  43.7k|        : base(unexpect, std::move(e.error())),
 1616|  43.7k|          ctor_base(detail::non_default_ctor_tag_t{})
 1617|  43.7k|    {
 1618|  43.7k|    }
_ZN3scn2v46detail21expected_storage_baseINS0_11scan_resultINS0_6ranges6detail9subrange_8subrangeINSt3__116__deque_iteratorIcPKcRSA_PKSB_lLl4096EEESF_EEJaEEENS0_10scan_errorELb1EEC2IJSI_EvEENS0_10unexpect_tEDpOT_:
  449|  43.7k|        : m_unexpected(std::in_place, std::forward<Args>(args)...),
  450|  43.7k|          m_has_value(false)
  451|  43.7k|    {
  452|  43.7k|    }
_ZN3scn2v46detail26expected_default_ctor_baseINS0_11scan_resultINS0_6ranges6detail9subrange_8subrangeINSt3__116__deque_iteratorIcPKcRSA_PKSB_lLl4096EEESF_EEJaEEENS0_10scan_errorELb1EEC2ENS1_22non_default_ctor_tag_tE:
 1315|  43.7k|    {
 1316|  43.7k|    }
_ZN3scn2v48expectedINS0_11scan_resultINS0_6ranges6detail9subrange_8subrangeINSt3__116__deque_iteratorIcPKcRS9_PKSA_lLl4096EEESE_EEJaEEENS0_10scan_errorEEaSEOSI_:
 1556|  43.7k|    constexpr expected& operator=(expected&&) = default;
_ZN3scn2v46detail24expected_operations_baseINS0_11scan_resultINS0_6ranges6detail9subrange_8subrangeINSt3__116__deque_iteratorIcPKcRSA_PKSB_lLl4096EEESF_EEJaEEENS0_10scan_errorEvEaSEOSJ_:
  902|  43.7k|    {
  903|  43.7k|        assign_common(std::move(other));
  904|  43.7k|        return *this;
  905|  43.7k|    }
_ZN3scn2v46detail24expected_operations_baseINS0_11scan_resultINS0_6ranges6detail9subrange_8subrangeINSt3__116__deque_iteratorIcPKcRSA_PKSB_lLl4096EEESF_EEJaEEENS0_10scan_errorEvE13assign_commonISJ_EEvOT_:
  949|  43.7k|    {
  950|  43.7k|        if (this->has_value()) {
  ------------------
  |  Branch (950:13): [True: 43.7k, False: 0]
  ------------------
  951|  43.7k|            if (other.has_value()) {
  ------------------
  |  Branch (951:17): [True: 0, False: 43.7k]
  ------------------
  952|      0|                return reassign_value(std::forward<Other>(other));
  953|      0|            }
  954|  43.7k|            return assign_unexpected_over_value(std::forward<Other>(other));
  955|  43.7k|        }
  956|       |
  957|      0|        if (other.has_value()) {
  ------------------
  |  Branch (957:13): [True: 0, False: 0]
  ------------------
  958|      0|            return assign_value_over_unexpected(std::forward<Other>(other));
  959|      0|        }
  960|      0|        return reassign_unexpected(std::forward<Other>(other));
  961|      0|    }
_ZNK3scn2v46detail21expected_storage_baseINS0_11scan_resultINS0_6ranges6detail9subrange_8subrangeINSt3__116__deque_iteratorIcPKcRSA_PKSB_lLl4096EEESF_EEJaEEENS0_10scan_errorELb1EE9has_valueEv:
  489|  1.36M|    {
  490|  1.36M|        return m_has_value;
  491|  1.36M|    }
_ZNR3scn2v46detail21expected_storage_baseINS0_11scan_resultINS0_6ranges6detail9subrange_8subrangeINSt3__116__deque_iteratorIcPKcRSA_PKSB_lLl4096EEESF_EEJaEEENS0_10scan_errorELb1EE9get_valueEv:
  455|   939k|    {
  456|   939k|        return m_value;
  457|   939k|    }
_ZN3scn2v46detail24expected_operations_baseINS0_11scan_resultINS0_6ranges6detail9subrange_8subrangeINSt3__116__deque_iteratorIcPKcRSA_PKSB_lLl4096EEESF_EEJaEEENS0_10scan_errorEvE28assign_unexpected_over_valueISJ_EEvOT_:
 1045|  43.7k|    {
 1046|  43.7k|        this->destroy_value();
 1047|  43.7k|        this->construct_unexpected(std::forward<Other>(other).get_unexpected());
 1048|  43.7k|    }
_ZN3scn2v46detail21expected_storage_baseINS0_11scan_resultINS0_6ranges6detail9subrange_8subrangeINSt3__116__deque_iteratorIcPKcRSA_PKSB_lLl4096EEESF_EEJaEEENS0_10scan_errorELb1EE13destroy_valueEv:
  510|  43.7k|    static constexpr void destroy_value() noexcept {}
_ZN3scn2v46detail21expected_storage_baseINS0_11scan_resultINS0_6ranges6detail9subrange_8subrangeINSt3__116__deque_iteratorIcPKcRSA_PKSB_lLl4096EEESF_EEJaEEENS0_10scan_errorELb1EE20construct_unexpectedIJNS0_10unexpectedISI_EEEEEvDpOT_:
  503|  43.7k|    {
  504|  43.7k|        scn::detail::construct_at(&get_unexpected(),
  505|  43.7k|                                  std::forward<Args>(args)...);
  506|  43.7k|        m_has_value = false;
  507|  43.7k|    }
_ZNR3scn2v46detail21expected_storage_baseINS0_11scan_resultINS0_6ranges6detail9subrange_8subrangeINSt3__116__deque_iteratorIcPKcRSA_PKSB_lLl4096EEESF_EEJaEEENS0_10scan_errorELb1EE14get_unexpectedEv:
  472|  43.7k|    {
  473|  43.7k|        return m_unexpected;
  474|  43.7k|    }
_ZNO3scn2v46detail21expected_storage_baseINS0_11scan_resultINS0_6ranges6detail9subrange_8subrangeINSt3__116__deque_iteratorIcPKcRSA_PKSB_lLl4096EEESF_EEJaEEENS0_10scan_errorELb1EE14get_unexpectedEv:
  480|  43.7k|    {
  481|  43.7k|        return std::move(m_unexpected);
  482|  43.7k|    }
_ZN3scn2v46detail25scan_result_range_storageINS0_6ranges6detail9subrange_8subrangeINSt3__116__deque_iteratorIcPKcRS9_PKSA_lLl4096EEESE_EEE9set_rangeISF_EEvOT_:
 6138|  2.02M|    {
 6139|  2.02M|        m_range = std::forward<Other>(r);
 6140|  2.02M|    }
_ZNR3scn2v48expectedINS0_6ranges6detail9subrange_8subrangeINSt3__116__deque_iteratorIcPKcRS8_PKS9_lLl4096EEESD_EENS0_10scan_errorEEdeISE_TnPNS6_9enable_ifIXntsr3stdE9is_void_vIT_EEvE4typeELPv0EEERSJ_v:
 1794|  2.02M|    {
 1795|  2.02M|        return value();
 1796|  2.02M|    }
_ZNR3scn2v48expectedINS0_6ranges6detail9subrange_8subrangeINSt3__116__deque_iteratorIcPKcRS8_PKS9_lLl4096EEESD_EENS0_10scan_errorEE5valueISE_TnPNS6_9enable_ifIXntsr3stdE9is_void_vIT_EEvE4typeELPv0EEERSJ_v:
 1768|  2.02M|    {
 1769|  2.02M|        SCN_EXPECT(has_value());
  ------------------
  |  |  930|  2.02M|#define SCN_EXPECT(cond) SCN_ASSERT(cond, "Precondition violation")
  |  |  ------------------
  |  |  |  |  927|  2.02M|#define SCN_ASSERT(cond, msg) assert((cond) && msg)
  |  |  ------------------
  ------------------
 1770|  2.02M|        return this->get_value();
 1771|  2.02M|    }
_ZNR3scn2v46detail21expected_storage_baseINS0_6ranges6detail9subrange_8subrangeINSt3__116__deque_iteratorIcPKcRS9_PKSA_lLl4096EEESE_EENS0_10scan_errorELb1EE9get_valueEv:
  455|  2.02M|    {
  456|  2.02M|        return m_value;
  457|  2.02M|    }
_ZN3scn2v45vscanINS0_6ranges6detail9subrange_8subrangeINSt3__116__deque_iteratorIcPKcRS8_PKS9_lLl4096EEESD_EEEENS0_13scan_expectedINS6_11conditionalIXsr3stdE9is_same_vIu11__remove_cvIu20__remove_reference_tIT_EEP8_IO_FILEEESL_NS0_6detail22borrowed_tail_subrangeISH_Xsr6rangesE14borrowed_rangeISH_EEE4typeEE4typeEEEOSH_NS6_17basic_string_viewIcNS6_11char_traitsIcEEEENS0_15basic_scan_argsINS0_18basic_scan_contextINSM_16buffer_range_tagEcEEEE:
 9154|  1.06M|{
 9155|  1.06M|    return detail::vscan_generic(SCN_FWD(source), format, args);
  ------------------
  |  |  936|  1.06M|#define SCN_FWD(x)          static_cast<decltype(x)&&>(x)
  ------------------
 9156|  1.06M|}
_ZN3scn2v46detail13vscan_genericINS0_6ranges6detail9subrange_8subrangeINSt3__116__deque_iteratorIcPKcRS9_PKSA_lLl4096EEESE_EEcEENS0_13scan_expectedINS7_11conditionalIXsr3stdE9is_same_vIu11__remove_cvIu20__remove_reference_tIT_EEP8_IO_FILEEESM_NS1_22borrowed_tail_subrangeISI_Xsr6rangesE14borrowed_rangeISI_EEE4typeEE4typeEEEOSI_NS7_17basic_string_viewIT0_NS7_11char_traitsISV_EEEENS0_15basic_scan_argsINS0_18basic_scan_contextINS1_16buffer_range_tagESV_EEEE:
 9091|  1.06M|{
 9092|  1.06M|    auto buffer = make_scan_buffer(range);
 9093|       |
 9094|  1.06M|    auto result = vscan_impl(buffer, format, args);
 9095|  1.06M|    if (SCN_UNLIKELY(!result)) {
  ------------------
  |  |  865|  1.06M|#define SCN_UNLIKELY(x) __builtin_expect(!!(x), 0)
  |  |  ------------------
  |  |  |  Branch (865:25): [True: 125k, False: 935k]
  |  |  ------------------
  ------------------
 9096|   125k|        return unexpected(result.error());
 9097|   125k|    }
 9098|   935k|    return make_vscan_result_range(SCN_FWD(range), *result);
  ------------------
  |  |  936|   935k|#define SCN_FWD(x)          static_cast<decltype(x)&&>(x)
  ------------------
 9099|  1.06M|}
_ZN3scn2v46detail16make_scan_bufferINS0_6ranges6detail9subrange_8subrangeINSt3__116__deque_iteratorIcPKcRS9_PKSA_lLl4096EEESE_EEEEDaRKT_:
 5074|  2.28M|{
 5075|  2.28M|    using T = decltype(_make_scan_buffer::impl(range, priority_tag<4>{}));
 5076|       |
 5077|  2.28M|    static_assert(!std::is_same_v<T, invalid_char_type>,
 5078|  2.28M|                  "\n"
 5079|  2.28M|                  "Unsupported range type given as input to a scanning "
 5080|  2.28M|                  "function.\n"
 5081|  2.28M|                  "A range needs to have a character type (value type) "
 5082|  2.28M|                  "of either `char` or `wchar_t` to be scannable.\n"
 5083|  2.28M|                  "For proper `wchar_t` support, <scn/xchar.h> needs "
 5084|  2.28M|                  "to be included.\n"
 5085|  2.28M|                  "See the scnlib documentation for more details.");
 5086|  2.28M|    static_assert(
 5087|  2.28M|        !std::is_same_v<T, custom_char_traits>,
 5088|  2.28M|        "\n"
 5089|  2.28M|        "Unsupported range type given as input to a scanning "
 5090|  2.28M|        "function.\n"
 5091|  2.28M|        "String types (std::basic_string, and std::basic_string_view) "
 5092|  2.28M|        "need to use std::char_traits. Strings with custom Traits are "
 5093|  2.28M|        "not supported.");
 5094|  2.28M|    static_assert(!std::is_same_v<T, file_marker_found>,
 5095|  2.28M|                  "\n"
 5096|  2.28M|                  "Unsupported range type given as input to a scanning "
 5097|  2.28M|                  "function.\n"
 5098|  2.28M|                  "file_marker_found cannot be used as an "
 5099|  2.28M|                  "source range type to scn::scan.\n"
 5100|  2.28M|                  "To read from stdin, use scn::input or scn::prompt, "
 5101|  2.28M|                  "and do not provide an explicit source range, "
 5102|  2.28M|                  "or use scn::scan with a FILE* directly.");
 5103|  2.28M|    static_assert(!std::is_same_v<T, insufficient_range>,
 5104|  2.28M|                  "\n"
 5105|  2.28M|                  "Unsupported range type given as input to a scanning "
 5106|  2.28M|                  "function.\n"
 5107|  2.28M|                  "In order to be scannable, a range needs to satisfy "
 5108|  2.28M|                  "`forward_range`. `input_range` is not sufficient.");
 5109|  2.28M|    static_assert(!std::is_same_v<T, invalid_input_range>,
 5110|  2.28M|                  "\n"
 5111|  2.28M|                  "Unsupported range type given as input to a scanning "
 5112|  2.28M|                  "function.\n"
 5113|  2.28M|                  "A range needs to model forward_range and have a valid "
 5114|  2.28M|                  "character type (char or wchar_t) to be scannable.\n"
 5115|  2.28M|                  "Examples of scannable ranges are std::string, "
 5116|  2.28M|                  "std::string_view, "
 5117|  2.28M|                  "std::vector<char>, and scn::istreambuf_view.\n"
 5118|  2.28M|                  "See the scnlib documentation for more details.");
 5119|       |
 5120|  2.28M|    return _make_scan_buffer::impl(range, priority_tag<4>{});
 5121|  2.28M|}
_ZN3scn2v46detail17_make_scan_buffer4implINS0_6ranges6detail9subrange_8subrangeINSt3__116__deque_iteratorIcPKcRSA_PKSB_lLl4096EEESF_EEEEDaRKT_NS1_12priority_tagILm0EEE:
 5044|  2.28M|{
 5045|       |    if constexpr (std::is_same_v<Range, file_marker>) {
 5046|       |        return file_marker_found{};
 5047|       |    }
 5048|       |    else if constexpr (!ranges::forward_range<Range>) {
 5049|       |        if constexpr (ranges::range<Range>) {
 5050|       |            return insufficient_range{};
 5051|       |        }
 5052|       |        else {
 5053|       |            return invalid_input_range{};
 5054|       |        }
 5055|       |    }
 5056|       |    else if constexpr (!is_valid_char_type<detail::char_t<Range>>) {
 5057|       |        return invalid_char_type{};
 5058|       |    }
 5059|  2.28M|    else {
 5060|  2.28M|        return make_forward_scan_buffer(r);
 5061|  2.28M|    }
 5062|  2.28M|}
_ZN3scn2v46detail24make_forward_scan_bufferINS0_6ranges6detail9subrange_8subrangeINSt3__116__deque_iteratorIcPKcRS9_PKSA_lLl4096EEESE_EEEEDaRKT_:
 4878|  2.28M|{
 4879|  2.28M|    return basic_scan_forward_buffer_impl(range);
 4880|  2.28M|}
_ZN3scn2v46detail30basic_scan_forward_buffer_implINS0_6ranges6detail9subrange_8subrangeINSt3__116__deque_iteratorIcPKcRS9_PKSA_lLl4096EEESE_EEEC2IRKSF_TnPNS7_9enable_ifIXaa11is_not_selfIT_SG_Esr3stdE16is_convertible_vISL_SJ_EEvE4typeELPv0EEEOSL_:
 4763|  2.28M|        : m_range(std::addressof(static_cast<const Range&>(SCN_FWD(r)))),
  ------------------
  |  |  936|  2.28M|#define SCN_FWD(x)          static_cast<decltype(x)&&>(x)
  ------------------
 4764|  2.28M|          m_cursor(ranges::begin(*m_range))
 4765|  2.28M|    {
 4766|  2.28M|    }
_ZN3scn2v46detail30basic_scan_forward_buffer_baseIcEC2Ev:
 4735|  2.28M|    basic_scan_forward_buffer_base() : base(typename base::non_contiguous_tag{})
 4736|  2.28M|    {
 4737|  2.28M|    }
_ZN3scn2v46detail17basic_scan_bufferIcEC2ENS3_18non_contiguous_tagENSt3__117basic_string_viewIcNS5_11char_traitsIcEEEE:
 4426|  2.28M|        : m_current_view(sv), m_is_contiguous(false)
 4427|  2.28M|    {
 4428|  2.28M|    }
_ZN3scn2v46detail17basic_scan_bufferIcED2Ev:
 4340|  2.28M|    virtual ~basic_scan_buffer() = default;
_ZNK3scn2v46ranges6detail6begin_2fnclIRKNS2_9subrange_8subrangeINSt3__116__deque_iteratorIcPKcRSA_PKSB_lLl4096EEESF_EEEEDTclsr2fnE4implscDtfp_Efp_tlNS0_6detail12priority_tagILm3EEEEEEOT_:
 2868|  4.30M|    {
 2869|  4.30M|        return fn::impl(SCN_FWD(t), priority_tag<3>{});
  ------------------
  |  |  936|  4.30M|#define SCN_FWD(x)          static_cast<decltype(x)&&>(x)
  ------------------
 2870|  4.30M|    }
_ZN3scn2v46ranges6detail6begin_2fn4implIRKNS2_9subrange_8subrangeINSt3__116__deque_iteratorIcPKcRSA_PKSB_lLl4096EEESF_EEEENS8_9enable_ifIX24input_or_output_iteratorIDTcl10decay_copycldtscDtfp_Efp_5beginEEEEESL_E4typeEOT_NS0_6detail12priority_tagILm1EEE:
 2849|  4.30M|    {
 2850|  4.30M|        return decay_copy(t.begin());
 2851|  4.30M|    }
_ZNK3scn2v46ranges6detail9subrange_8subrangeINSt3__116__deque_iteratorIcPKcRS7_PKS8_lLl4096EEESC_E5beginEv:
 3479|  6.32M|    {
 3480|  6.32M|        return m_iterator;
 3481|  6.32M|    }
_ZN3scn2v46detail30basic_scan_forward_buffer_implINS0_6ranges6detail9subrange_8subrangeINSt3__116__deque_iteratorIcPKcRS9_PKSA_lLl4096EEESE_EEE4fillEv:
 4769|  12.2M|    {
 4770|  12.2M|        if (m_cursor == ranges::end(*m_range)) {
  ------------------
  |  Branch (4770:13): [True: 300k, False: 11.9M]
  ------------------
 4771|   300k|            return false;
 4772|   300k|        }
 4773|  11.9M|        if constexpr (mp_valid_v<less_than_compare, iterator, sentinel>) {
 4774|  11.9M|            SCN_EXPECT(m_cursor < ranges::end(*m_range));
  ------------------
  |  |  930|  11.9M|#define SCN_EXPECT(cond) SCN_ASSERT(cond, "Precondition violation")
  |  |  ------------------
  |  |  |  |  927|  11.9M|#define SCN_ASSERT(cond, msg) assert((cond) && msg)
  |  |  ------------------
  ------------------
 4775|  11.9M|        }
 4776|  11.9M|        if (!this->m_current_view.empty()) {
  ------------------
  |  Branch (4776:13): [True: 9.72M, False: 2.19M]
  ------------------
 4777|  9.72M|            this->m_putback_buffer.insert(this->m_putback_buffer.end(),
 4778|  9.72M|                                          this->m_current_view.begin(),
 4779|  9.72M|                                          this->m_current_view.end());
 4780|  9.72M|        }
 4781|  11.9M|        m_latest = *m_cursor;
 4782|  11.9M|        ++m_cursor;
 4783|  11.9M|        this->m_current_view = std::basic_string_view<char_type>{&m_latest, 1};
 4784|  11.9M|        if constexpr (mp_valid_v<less_than_compare, iterator, sentinel>) {
 4785|  11.9M|            SCN_EXPECT(m_cursor <= ranges::end(*m_range));
  ------------------
  |  |  930|  11.9M|#define SCN_EXPECT(cond) SCN_ASSERT(cond, "Precondition violation")
  |  |  ------------------
  |  |  |  |  927|  11.9M|#define SCN_ASSERT(cond, msg) assert((cond) && msg)
  |  |  ------------------
  ------------------
 4786|  11.9M|        }
 4787|  11.9M|        return true;
 4788|  12.2M|    }
_ZNK3scn2v46ranges6detail4end_2fnclIRKNS2_9subrange_8subrangeINSt3__116__deque_iteratorIcPKcRSA_PKSB_lLl4096EEESF_EEEEDTclsr2fnE4implscDtfp_Efp_tlNS0_6detail12priority_tagILm3EEEEEEOT_:
 2925|  36.0M|    {
 2926|  36.0M|        return fn::impl(SCN_FWD(t), priority_tag<3>{});
  ------------------
  |  |  936|  36.0M|#define SCN_FWD(x)          static_cast<decltype(x)&&>(x)
  ------------------
 2927|  36.0M|    }
_ZN3scn2v46ranges6detail4end_2fn4implIRKNS2_9subrange_8subrangeINSt3__116__deque_iteratorIcPKcRSA_PKSB_lLl4096EEESF_EESF_SF_EENS8_9enable_ifIX12sentinel_forIT0_T1_EEDTcl10decay_copycldtscDtfp_Efp_3endEEEE4typeEOT_NS0_6detail12priority_tagILm1EEE:
 2907|  36.0M|    {
 2908|  36.0M|        return decay_copy(SCN_FWD(t).end());
  ------------------
  |  |  936|  36.0M|#define SCN_FWD(x)          static_cast<decltype(x)&&>(x)
  ------------------
 2909|  36.0M|    }
_ZNK3scn2v46ranges6detail9subrange_8subrangeINSt3__116__deque_iteratorIcPKcRS7_PKS8_lLl4096EEESC_E3endEv:
 3483|  38.0M|    {
 3484|  38.0M|        return m_sentinel;
 3485|  38.0M|    }
_ZN3scn2v46detail17basic_scan_bufferIcE4syncEl:
 4345|  2.28M|    {
 4346|  2.28M|        SCN_UNUSED(position);
  ------------------
  |  |  915|  2.28M|#define SCN_UNUSED(x) static_cast<void>(sizeof(x))
  ------------------
 4347|  2.28M|    }
_ZN3scn2v48expectedINS0_6ranges6detail9subrange_8subrangeINSt3__116__deque_iteratorIcPKcRS8_PKS9_lLl4096EEESD_EENS0_10scan_errorEEC2ISF_TnPNS6_9enable_ifIXsr3stdE18is_constructible_vISF_OT_EEvE4typeELPv0ETnPNSI_IXsr3stdE16is_convertible_vISK_SF_EEvE4typeELSO_0EEEONS0_10unexpectedISJ_EE:
 1615|   262k|        : base(unexpect, std::move(e.error())),
 1616|   262k|          ctor_base(detail::non_default_ctor_tag_t{})
 1617|   262k|    {
 1618|   262k|    }
_ZN3scn2v46detail21expected_storage_baseINS0_6ranges6detail9subrange_8subrangeINSt3__116__deque_iteratorIcPKcRS9_PKSA_lLl4096EEESE_EENS0_10scan_errorELb1EEC2IJSG_EvEENS0_10unexpect_tEDpOT_:
  449|   262k|        : m_unexpected(std::in_place, std::forward<Args>(args)...),
  450|   262k|          m_has_value(false)
  451|   262k|    {
  452|   262k|    }
_ZN3scn2v46detail26expected_default_ctor_baseINS0_6ranges6detail9subrange_8subrangeINSt3__116__deque_iteratorIcPKcRS9_PKSA_lLl4096EEESE_EENS0_10scan_errorELb1EEC2ENS1_22non_default_ctor_tag_tE:
 1315|  2.28M|    {
 1316|  2.28M|    }
_ZN3scn2v46detail23make_vscan_result_rangeINS0_6ranges6detail9subrange_8subrangeINSt3__116__deque_iteratorIcPKcRS9_PKSA_lLl4096EEESE_EEEENS1_22borrowed_tail_subrangeIT_Xsr6rangesE14borrowed_rangeISH_EEE4typeEOSH_l:
 6368|  2.02M|{
 6369|       |    if constexpr (ranges::random_access_iterator<
 6370|  2.02M|                      ranges::iterator_t<SourceRange>>) {
 6371|  2.02M|        return {ranges::begin(source) + n, make_vscan_result_range_end(source)};
 6372|       |    }
 6373|       |    else {
 6374|       |        auto it = ranges::begin(source);
 6375|       |        while (n > 0) {
 6376|       |            --n;
 6377|       |            ++it;
 6378|       |        }
 6379|       |        return {SCN_MOVE(it), make_vscan_result_range_end(source)};
 6380|       |    }
 6381|  2.02M|}
_ZNK3scn2v46ranges6detail6begin_2fnclIRNS2_9subrange_8subrangeINSt3__116__deque_iteratorIcPKcRSA_PKSB_lLl4096EEESF_EEEEDTclsr2fnE4implscDtfp_Efp_tlNS0_6detail12priority_tagILm3EEEEEEOT_:
 2868|  2.02M|    {
 2869|  2.02M|        return fn::impl(SCN_FWD(t), priority_tag<3>{});
  ------------------
  |  |  936|  2.02M|#define SCN_FWD(x)          static_cast<decltype(x)&&>(x)
  ------------------
 2870|  2.02M|    }
_ZN3scn2v46ranges6detail6begin_2fn4implIRNS2_9subrange_8subrangeINSt3__116__deque_iteratorIcPKcRSA_PKSB_lLl4096EEESF_EEEENS8_9enable_ifIX24input_or_output_iteratorIDTcl10decay_copycldtscDtfp_Efp_5beginEEEEESK_E4typeEOT_NS0_6detail12priority_tagILm1EEE:
 2849|  2.02M|    {
 2850|  2.02M|        return decay_copy(t.begin());
 2851|  2.02M|    }
_ZN3scn2v46detail27make_vscan_result_range_endINS0_6ranges6detail9subrange_8subrangeINSt3__116__deque_iteratorIcPKcRS9_PKSA_lLl4096EEESE_EEEEDaRT_:
 6355|  2.02M|{
 6356|  2.02M|    return ranges::end(source);
 6357|  2.02M|}
_ZNK3scn2v46ranges6detail4end_2fnclIRNS2_9subrange_8subrangeINSt3__116__deque_iteratorIcPKcRSA_PKSB_lLl4096EEESF_EEEEDTclsr2fnE4implscDtfp_Efp_tlNS0_6detail12priority_tagILm3EEEEEEOT_:
 2925|  2.02M|    {
 2926|  2.02M|        return fn::impl(SCN_FWD(t), priority_tag<3>{});
  ------------------
  |  |  936|  2.02M|#define SCN_FWD(x)          static_cast<decltype(x)&&>(x)
  ------------------
 2927|  2.02M|    }
_ZN3scn2v46ranges6detail4end_2fn4implIRNS2_9subrange_8subrangeINSt3__116__deque_iteratorIcPKcRSA_PKSB_lLl4096EEESF_EESF_SF_EENS8_9enable_ifIX12sentinel_forIT0_T1_EEDTcl10decay_copycldtscDtfp_Efp_3endEEEE4typeEOT_NS0_6detail12priority_tagILm1EEE:
 2907|  2.02M|    {
 2908|  2.02M|        return decay_copy(SCN_FWD(t).end());
  ------------------
  |  |  936|  2.02M|#define SCN_FWD(x)          static_cast<decltype(x)&&>(x)
  ------------------
 2909|  2.02M|    }
_ZN3scn2v48expectedINS0_6ranges6detail9subrange_8subrangeINSt3__116__deque_iteratorIcPKcRS8_PKS9_lLl4096EEESD_EENS0_10scan_errorEEC2ISE_vEEOT_:
 1569|  2.02M|        : base(std::in_place, std::forward<U>(val)),
 1570|  2.02M|          ctor_base(detail::non_default_ctor_tag_t{})
 1571|  2.02M|    {
 1572|  2.02M|    }
_ZN3scn2v46detail21expected_storage_baseINS0_6ranges6detail9subrange_8subrangeINSt3__116__deque_iteratorIcPKcRS9_PKSA_lLl4096EEESE_EENS0_10scan_errorELb1EEC2IJSF_EvEENS7_10in_place_tEDpOT_:
  440|  2.02M|        : m_value(std::forward<Args>(args)...), m_has_value(true)
  441|  2.02M|    {
  442|  2.02M|    }
_ZNK3scn2v424basic_scan_format_stringIcNS0_6ranges6detail9subrange_8subrangeINSt3__116__deque_iteratorIcPKcRS8_PKS9_lLl4096EEESD_EEJaEEcvNS6_17basic_string_viewIcNS6_11char_traitsIcEEEEEv:
 8461|   316k|    {
 8462|   316k|        return m_str;
 8463|   316k|    }
_ZN3scn2v46ranges6detail9subrange_8subrangeINSt3__116__deque_iteratorIcPKcRS7_PKS8_lLl4096EEESC_EC2ISC_TnPNS5_9enable_ifIXsr3stdE16is_convertible_vIT_SC_EEvE4typeELPv0EEESG_SC_:
 3464|  4.30M|        : m_iterator(SCN_MOVE(i)), m_sentinel(SCN_MOVE(s))
  ------------------
  |  |  934|  4.30M|    static_cast<    \
  |  |  935|  4.30M|        typename ::scn::detail::remove_reference<decltype(x)>::type&&>(x)
  ------------------
                      : m_iterator(SCN_MOVE(i)), m_sentinel(SCN_MOVE(s))
  ------------------
  |  |  934|  4.30M|    static_cast<    \
  |  |  935|  4.30M|        typename ::scn::detail::remove_reference<decltype(x)>::type&&>(x)
  ------------------
 3465|  4.30M|    {
 3466|  4.30M|    }
_ZN3scn2v424basic_scan_format_stringIcNS0_6ranges6detail9subrange_8subrangeINSt3__116__deque_iteratorIcPKcRS8_PKS9_lLl4096EEESD_EEJaEEC2ENS0_6detail27basic_runtime_format_stringIcEE:
 8456|   316k|        : m_str(r.str)
 8457|   316k|    {
 8458|   316k|    }
_ZNK3scn2v48expectedINS0_11scan_resultINS0_6ranges6detail9subrange_8subrangeINSt3__116__deque_iteratorIcPKcRS9_PKSA_lLl4096EEESE_EEJaEEENS0_10scan_errorEEcvbEv:
 1739|   342k|    {
 1740|   342k|        return has_value();
 1741|   342k|    }
_ZN3scn2v48expectedINS0_11scan_resultINS0_6ranges6detail9subrange_8subrangeINSt3__116__deque_iteratorIcPKcRS9_PKSA_lLl4096EEESE_EEJaEEENS0_10scan_errorEEptEv:
 1814|   939k|    {
 1815|   939k|        return &value();
 1816|   939k|    }
_ZNR3scn2v48expectedINS0_11scan_resultINS0_6ranges6detail9subrange_8subrangeINSt3__116__deque_iteratorIcPKcRS9_PKSA_lLl4096EEESE_EEJaEEENS0_10scan_errorEE5valueISG_TnPNS7_9enable_ifIXntsr3stdE9is_void_vIT_EEvE4typeELPv0EEERSL_v:
 1768|   939k|    {
 1769|   939k|        SCN_EXPECT(has_value());
  ------------------
  |  |  930|   939k|#define SCN_EXPECT(cond) SCN_ASSERT(cond, "Precondition violation")
  |  |  ------------------
  |  |  |  |  927|   939k|#define SCN_ASSERT(cond, msg) assert((cond) && msg)
  |  |  ------------------
  ------------------
 1770|   939k|        return this->get_value();
 1771|   939k|    }
_ZNK3scn2v46detail25scan_result_range_storageINS0_6ranges6detail9subrange_8subrangeINSt3__116__deque_iteratorIcPKcRS9_PKSA_lLl4096EEESE_EEE5beginEv:
 6127|  2.02M|    {
 6128|  2.02M|        return ranges::begin(m_range);
 6129|  2.02M|    }
_ZN3scn2v44scanIJaENSt3__16localeENS0_6ranges6detail9subrange_8subrangeINS2_16__deque_iteratorIcPKcRS9_PKSA_lLl4096EEESE_EEvvEENS0_13scan_expectedINS0_11scan_resultINS2_11conditionalIXsr3stdE9is_same_vIu11__remove_cvIu20__remove_reference_tIT1_EEP8_IO_FILEEESN_NS0_6detail22borrowed_tail_subrangeISJ_Xsr6rangesE14borrowed_rangeISJ_EEE4typeEE4typeEJDpT_EEEEERKT0_OSJ_NS0_24basic_scan_format_stringIcNSO_13type_identityISJ_E4typeEJDpNS13_ISU_E4typeEEEE:
 9443|   158k|{
 9444|   158k|    auto result = make_scan_result<Source, Args...>();
 9445|   158k|    fill_scan_result(result, vscan(loc, SCN_FWD(source), format,
  ------------------
  |  |  936|   158k|#define SCN_FWD(x)          static_cast<decltype(x)&&>(x)
  ------------------
 9446|   158k|                                   make_scan_args(result->values())));
 9447|   158k|    return result;
 9448|   158k|}
_ZN3scn2v45vscanINS0_6ranges6detail9subrange_8subrangeINSt3__116__deque_iteratorIcPKcRS8_PKS9_lLl4096EEESD_EENS6_6localeEvEENS0_13scan_expectedINS6_11conditionalIXsr3stdE9is_same_vIu11__remove_cvIu20__remove_reference_tIT_EEP8_IO_FILEEESM_NS0_6detail22borrowed_tail_subrangeISI_Xsr6rangesE14borrowed_rangeISI_EEE4typeEE4typeEEERKT0_OSI_NS6_17basic_string_viewIcNS6_11char_traitsIcEEEENS0_15basic_scan_argsINS0_18basic_scan_contextINSN_16buffer_range_tagEcEEEE:
 9172|  1.06M|{
 9173|  1.06M|    return detail::vscan_localized_generic(loc, SCN_FWD(source), format, args);
  ------------------
  |  |  936|  1.06M|#define SCN_FWD(x)          static_cast<decltype(x)&&>(x)
  ------------------
 9174|  1.06M|}
_ZN3scn2v46detail23vscan_localized_genericINSt3__16localeENS0_6ranges6detail9subrange_8subrangeINS3_16__deque_iteratorIcPKcRSA_PKSB_lLl4096EEESF_EEcEENS0_13scan_expectedINS3_11conditionalIXsr3stdE9is_same_vIu11__remove_cvIu20__remove_reference_tIT0_EEP8_IO_FILEEESN_NS1_22borrowed_tail_subrangeISJ_Xsr6rangesE14borrowed_rangeISJ_EEE4typeEE4typeEEERKT_OSJ_NS3_17basic_string_viewIT1_NS3_11char_traitsISZ_EEEENS0_15basic_scan_argsINS0_18basic_scan_contextINS1_16buffer_range_tagESZ_EEEE:
 9107|  1.06M|{
 9108|  1.06M|#if !SCN_DISABLE_LOCALE
 9109|  1.06M|    auto buffer = detail::make_scan_buffer(range);
 9110|       |
 9111|  1.06M|    SCN_CLANG_PUSH_IGNORE_UNDEFINED_TEMPLATE
 9112|  1.06M|    auto result = detail::vscan_localized_impl(loc, buffer, format, args);
 9113|  1.06M|    SCN_CLANG_POP_IGNORE_UNDEFINED_TEMPLATE
 9114|       |
 9115|  1.06M|    if (SCN_UNLIKELY(!result)) {
  ------------------
  |  |  865|  1.06M|#define SCN_UNLIKELY(x) __builtin_expect(!!(x), 0)
  |  |  ------------------
  |  |  |  Branch (865:25): [True: 125k, False: 935k]
  |  |  ------------------
  ------------------
 9116|   125k|        return unexpected(result.error());
 9117|   125k|    }
 9118|   935k|    return detail::make_vscan_result_range(SCN_FWD(range), *result);
  ------------------
  |  |  936|   935k|#define SCN_FWD(x)          static_cast<decltype(x)&&>(x)
  ------------------
 9119|       |#else
 9120|       |    static_assert(dependent_false<Locale>::value,
 9121|       |                  "Can't use scan(locale, ...) with SCN_DISABLE_LOCALE on");
 9122|       |
 9123|       |    return {};
 9124|       |#endif
 9125|  1.06M|}
_ZN3scn2v410scan_valueIaNS0_6ranges6detail9subrange_8subrangeINSt3__116__deque_iteratorIcPKcRS8_PKS9_lLl4096EEESD_EEvEENS0_13scan_expectedINS0_11scan_resultINS6_11conditionalIXsr3stdE9is_same_vIu11__remove_cvIu20__remove_reference_tIT0_EEP8_IO_FILEEESM_NS0_6detail22borrowed_tail_subrangeISI_Xsr6rangesE14borrowed_rangeISI_EEE4typeEE4typeEJT_EEEEEOSI_:
 9484|  26.4k|{
 9485|  26.4k|    auto result = make_scan_result<Source, T>();
 9486|  26.4k|    fill_scan_result(
 9487|  26.4k|        result, vscan_value(SCN_FWD(source),
  ------------------
  |  |  936|  26.4k|#define SCN_FWD(x)          static_cast<decltype(x)&&>(x)
  ------------------
 9488|  26.4k|                            detail::make_arg<scan_context>(result->value())));
 9489|  26.4k|    return result;
 9490|  26.4k|}
_ZN3scn2v411vscan_valueINS0_6ranges6detail9subrange_8subrangeINSt3__116__deque_iteratorIcPKcRS8_PKS9_lLl4096EEESD_EEEENS0_13scan_expectedINS6_11conditionalIXsr3stdE9is_same_vIu11__remove_cvIu20__remove_reference_tIT_EEP8_IO_FILEEESL_NS0_6detail22borrowed_tail_subrangeISH_Xsr6rangesE14borrowed_rangeISH_EEE4typeEE4typeEEEOSH_NS0_14basic_scan_argINS0_18basic_scan_contextINSM_16buffer_range_tagEcEEEE:
 9185|   163k|{
 9186|   163k|    return detail::vscan_value_generic(SCN_FWD(source), arg);
  ------------------
  |  |  936|   163k|#define SCN_FWD(x)          static_cast<decltype(x)&&>(x)
  ------------------
 9187|   163k|}
_ZN3scn2v46detail19vscan_value_genericINS0_6ranges6detail9subrange_8subrangeINSt3__116__deque_iteratorIcPKcRS9_PKSA_lLl4096EEESE_EEcEENS0_13scan_expectedINS7_11conditionalIXsr3stdE9is_same_vIu11__remove_cvIu20__remove_reference_tIT_EEP8_IO_FILEEESM_NS1_22borrowed_tail_subrangeISI_Xsr6rangesE14borrowed_rangeISI_EEE4typeEE4typeEEEOSI_NS0_14basic_scan_argINS0_18basic_scan_contextINS1_16buffer_range_tagET0_EEEE:
 9131|   163k|{
 9132|   163k|    auto buffer = detail::make_scan_buffer(range);
 9133|       |
 9134|   163k|    auto result = detail::vscan_value_impl(buffer, arg);
 9135|   163k|    if (SCN_UNLIKELY(!result)) {
  ------------------
  |  |  865|   163k|#define SCN_UNLIKELY(x) __builtin_expect(!!(x), 0)
  |  |  ------------------
  |  |  |  Branch (865:25): [True: 12.5k, False: 150k]
  |  |  ------------------
  ------------------
 9136|  12.5k|        return unexpected(result.error());
 9137|  12.5k|    }
 9138|   150k|    return detail::make_vscan_result_range(SCN_FWD(range), *result);
  ------------------
  |  |  936|   150k|#define SCN_FWD(x)          static_cast<decltype(x)&&>(x)
  ------------------
 9139|   163k|}
_ZN3scn2v44scanIJhENS0_6ranges6detail9subrange_8subrangeINSt3__116__deque_iteratorIcPKcRS8_PKS9_lLl4096EEESD_EEvEENS0_13scan_expectedINS0_11scan_resultINS6_11conditionalIXsr3stdE9is_same_vIu11__remove_cvIu20__remove_reference_tIT0_EEP8_IO_FILEEESM_NS0_6detail22borrowed_tail_subrangeISI_Xsr6rangesE14borrowed_rangeISI_EEE4typeEE4typeEJDpT_EEEEEOSI_NS0_24basic_scan_format_stringIcNSN_13type_identityISI_E4typeEJDpNSZ_IST_E4typeEEEE:
 9374|   152k|{
 9375|   152k|    auto result = make_scan_result<Source, Args...>();
 9376|   152k|    fill_scan_result(result, vscan(SCN_FWD(source), format,
  ------------------
  |  |  936|   152k|#define SCN_FWD(x)          static_cast<decltype(x)&&>(x)
  ------------------
 9377|   152k|                                   make_scan_args(result->values())));
 9378|   152k|    return result;
 9379|   152k|}
_ZN3scn2v416make_scan_resultINS0_6ranges6detail9subrange_8subrangeINSt3__116__deque_iteratorIcPKcRS8_PKS9_lLl4096EEESD_EEJhEEEDav:
 9330|   328k|{
 9331|   328k|    return scan_result_type<Source, Args...>();
 9332|   328k|}
_ZN3scn2v48expectedINS0_11scan_resultINS0_6ranges6detail9subrange_8subrangeINSt3__116__deque_iteratorIcPKcRS9_PKSA_lLl4096EEESE_EEJhEEENS0_10scan_errorEEC2Ev:
 1551|   328k|    constexpr expected() = default;
_ZN3scn2v46detail21expected_storage_baseINS0_11scan_resultINS0_6ranges6detail9subrange_8subrangeINSt3__116__deque_iteratorIcPKcRSA_PKSB_lLl4096EEESF_EEJhEEENS0_10scan_errorELb1EEC2Ev:
  426|   328k|        : m_value(T{}), m_has_value(true)
  427|   328k|    {
  428|   328k|    }
_ZN3scn2v411scan_resultINS0_6ranges6detail9subrange_8subrangeINSt3__116__deque_iteratorIcPKcRS8_PKS9_lLl4096EEESD_EEJhEEC2Ev:
 6264|   328k|    constexpr scan_result() = default;
_ZN3scn2v416fill_scan_resultINS0_11scan_resultINS0_6ranges6detail9subrange_8subrangeINSt3__116__deque_iteratorIcPKcRS9_PKSA_lLl4096EEESE_EEJhEEESF_TnPNS7_9enable_ifIXsr3stdE13conjunction_vINS0_6detail25is_specialization_of_implIu11__remove_cvIu20__remove_reference_tIT_EES2_EENS7_7is_sameINSK_10range_typeET0_EEEEvE4typeELPv0EEEvRNS0_13scan_expectedISK_EEONSW_ISQ_EE:
 9315|   328k|{
 9316|   328k|    if (SCN_UNLIKELY(!in)) {
  ------------------
  |  |  865|   328k|#define SCN_UNLIKELY(x) __builtin_expect(!!(x), 0)
  |  |  ------------------
  |  |  |  Branch (865:25): [True: 43.7k, False: 285k]
  |  |  ------------------
  ------------------
 9317|  43.7k|        out = unexpected(in.error());
 9318|  43.7k|    }
 9319|   285k|    else {
 9320|   285k|        out->set_range(SCN_MOVE(*in));
  ------------------
  |  |  934|   285k|    static_cast<    \
  |  |  935|   285k|        typename ::scn::detail::remove_reference<decltype(x)>::type&&>(x)
  ------------------
 9321|   285k|    }
 9322|   328k|}
_ZN3scn2v48expectedINS0_11scan_resultINS0_6ranges6detail9subrange_8subrangeINSt3__116__deque_iteratorIcPKcRS9_PKSA_lLl4096EEESE_EEJhEEENS0_10scan_errorEEC2ISH_TnPNS7_9enable_ifIXsr3stdE18is_constructible_vISH_OT_EEvE4typeELPv0ETnPNSK_IXsr3stdE16is_convertible_vISM_SH_EEvE4typeELSQ_0EEEONS0_10unexpectedISL_EE:
 1615|  43.7k|        : base(unexpect, std::move(e.error())),
 1616|  43.7k|          ctor_base(detail::non_default_ctor_tag_t{})
 1617|  43.7k|    {
 1618|  43.7k|    }
_ZN3scn2v46detail21expected_storage_baseINS0_11scan_resultINS0_6ranges6detail9subrange_8subrangeINSt3__116__deque_iteratorIcPKcRSA_PKSB_lLl4096EEESF_EEJhEEENS0_10scan_errorELb1EEC2IJSI_EvEENS0_10unexpect_tEDpOT_:
  449|  43.7k|        : m_unexpected(std::in_place, std::forward<Args>(args)...),
  450|  43.7k|          m_has_value(false)
  451|  43.7k|    {
  452|  43.7k|    }
_ZN3scn2v46detail26expected_default_ctor_baseINS0_11scan_resultINS0_6ranges6detail9subrange_8subrangeINSt3__116__deque_iteratorIcPKcRSA_PKSB_lLl4096EEESF_EEJhEEENS0_10scan_errorELb1EEC2ENS1_22non_default_ctor_tag_tE:
 1315|  43.7k|    {
 1316|  43.7k|    }
_ZN3scn2v48expectedINS0_11scan_resultINS0_6ranges6detail9subrange_8subrangeINSt3__116__deque_iteratorIcPKcRS9_PKSA_lLl4096EEESE_EEJhEEENS0_10scan_errorEEaSEOSI_:
 1556|  43.7k|    constexpr expected& operator=(expected&&) = default;
_ZN3scn2v46detail24expected_operations_baseINS0_11scan_resultINS0_6ranges6detail9subrange_8subrangeINSt3__116__deque_iteratorIcPKcRSA_PKSB_lLl4096EEESF_EEJhEEENS0_10scan_errorEvEaSEOSJ_:
  902|  43.7k|    {
  903|  43.7k|        assign_common(std::move(other));
  904|  43.7k|        return *this;
  905|  43.7k|    }
_ZN3scn2v46detail24expected_operations_baseINS0_11scan_resultINS0_6ranges6detail9subrange_8subrangeINSt3__116__deque_iteratorIcPKcRSA_PKSB_lLl4096EEESF_EEJhEEENS0_10scan_errorEvE13assign_commonISJ_EEvOT_:
  949|  43.7k|    {
  950|  43.7k|        if (this->has_value()) {
  ------------------
  |  Branch (950:13): [True: 43.7k, False: 0]
  ------------------
  951|  43.7k|            if (other.has_value()) {
  ------------------
  |  Branch (951:17): [True: 0, False: 43.7k]
  ------------------
  952|      0|                return reassign_value(std::forward<Other>(other));
  953|      0|            }
  954|  43.7k|            return assign_unexpected_over_value(std::forward<Other>(other));
  955|  43.7k|        }
  956|       |
  957|      0|        if (other.has_value()) {
  ------------------
  |  Branch (957:13): [True: 0, False: 0]
  ------------------
  958|      0|            return assign_value_over_unexpected(std::forward<Other>(other));
  959|      0|        }
  960|      0|        return reassign_unexpected(std::forward<Other>(other));
  961|      0|    }
_ZNK3scn2v46detail21expected_storage_baseINS0_11scan_resultINS0_6ranges6detail9subrange_8subrangeINSt3__116__deque_iteratorIcPKcRSA_PKSB_lLl4096EEESF_EEJhEEENS0_10scan_errorELb1EE9has_valueEv:
  489|  1.31M|    {
  490|  1.31M|        return m_has_value;
  491|  1.31M|    }
_ZNR3scn2v46detail21expected_storage_baseINS0_11scan_resultINS0_6ranges6detail9subrange_8subrangeINSt3__116__deque_iteratorIcPKcRSA_PKSB_lLl4096EEESF_EEJhEEENS0_10scan_errorELb1EE9get_valueEv:
  455|   899k|    {
  456|   899k|        return m_value;
  457|   899k|    }
_ZN3scn2v46detail24expected_operations_baseINS0_11scan_resultINS0_6ranges6detail9subrange_8subrangeINSt3__116__deque_iteratorIcPKcRSA_PKSB_lLl4096EEESF_EEJhEEENS0_10scan_errorEvE28assign_unexpected_over_valueISJ_EEvOT_:
 1045|  43.7k|    {
 1046|  43.7k|        this->destroy_value();
 1047|  43.7k|        this->construct_unexpected(std::forward<Other>(other).get_unexpected());
 1048|  43.7k|    }
_ZN3scn2v46detail21expected_storage_baseINS0_11scan_resultINS0_6ranges6detail9subrange_8subrangeINSt3__116__deque_iteratorIcPKcRSA_PKSB_lLl4096EEESF_EEJhEEENS0_10scan_errorELb1EE13destroy_valueEv:
  510|  43.7k|    static constexpr void destroy_value() noexcept {}
_ZN3scn2v46detail21expected_storage_baseINS0_11scan_resultINS0_6ranges6detail9subrange_8subrangeINSt3__116__deque_iteratorIcPKcRSA_PKSB_lLl4096EEESF_EEJhEEENS0_10scan_errorELb1EE20construct_unexpectedIJNS0_10unexpectedISI_EEEEEvDpOT_:
  503|  43.7k|    {
  504|  43.7k|        scn::detail::construct_at(&get_unexpected(),
  505|  43.7k|                                  std::forward<Args>(args)...);
  506|  43.7k|        m_has_value = false;
  507|  43.7k|    }
_ZNR3scn2v46detail21expected_storage_baseINS0_11scan_resultINS0_6ranges6detail9subrange_8subrangeINSt3__116__deque_iteratorIcPKcRSA_PKSB_lLl4096EEESF_EEJhEEENS0_10scan_errorELb1EE14get_unexpectedEv:
  472|  43.7k|    {
  473|  43.7k|        return m_unexpected;
  474|  43.7k|    }
_ZNO3scn2v46detail21expected_storage_baseINS0_11scan_resultINS0_6ranges6detail9subrange_8subrangeINSt3__116__deque_iteratorIcPKcRSA_PKSB_lLl4096EEESF_EEJhEEENS0_10scan_errorELb1EE14get_unexpectedEv:
  480|  43.7k|    {
  481|  43.7k|        return std::move(m_unexpected);
  482|  43.7k|    }
_ZNK3scn2v424basic_scan_format_stringIcNS0_6ranges6detail9subrange_8subrangeINSt3__116__deque_iteratorIcPKcRS8_PKS9_lLl4096EEESD_EEJhEEcvNS6_17basic_string_viewIcNS6_11char_traitsIcEEEEEv:
 8461|   305k|    {
 8462|   305k|        return m_str;
 8463|   305k|    }
_ZN3scn2v424basic_scan_format_stringIcNS0_6ranges6detail9subrange_8subrangeINSt3__116__deque_iteratorIcPKcRS8_PKS9_lLl4096EEESD_EEJhEEC2ENS0_6detail27basic_runtime_format_stringIcEE:
 8456|   305k|        : m_str(r.str)
 8457|   305k|    {
 8458|   305k|    }
_ZNK3scn2v48expectedINS0_11scan_resultINS0_6ranges6detail9subrange_8subrangeINSt3__116__deque_iteratorIcPKcRS9_PKSA_lLl4096EEESE_EEJhEEENS0_10scan_errorEEcvbEv:
 1739|   328k|    {
 1740|   328k|        return has_value();
 1741|   328k|    }
_ZN3scn2v48expectedINS0_11scan_resultINS0_6ranges6detail9subrange_8subrangeINSt3__116__deque_iteratorIcPKcRS9_PKSA_lLl4096EEESE_EEJhEEENS0_10scan_errorEEptEv:
 1814|   899k|    {
 1815|   899k|        return &value();
 1816|   899k|    }
_ZNR3scn2v48expectedINS0_11scan_resultINS0_6ranges6detail9subrange_8subrangeINSt3__116__deque_iteratorIcPKcRS9_PKSA_lLl4096EEESE_EEJhEEENS0_10scan_errorEE5valueISG_TnPNS7_9enable_ifIXntsr3stdE9is_void_vIT_EEvE4typeELPv0EEERSL_v:
 1768|   899k|    {
 1769|   899k|        SCN_EXPECT(has_value());
  ------------------
  |  |  930|   899k|#define SCN_EXPECT(cond) SCN_ASSERT(cond, "Precondition violation")
  |  |  ------------------
  |  |  |  |  927|   899k|#define SCN_ASSERT(cond, msg) assert((cond) && msg)
  |  |  ------------------
  ------------------
 1770|   899k|        return this->get_value();
 1771|   899k|    }
_ZN3scn2v44scanIJhENSt3__16localeENS0_6ranges6detail9subrange_8subrangeINS2_16__deque_iteratorIcPKcRS9_PKSA_lLl4096EEESE_EEvvEENS0_13scan_expectedINS0_11scan_resultINS2_11conditionalIXsr3stdE9is_same_vIu11__remove_cvIu20__remove_reference_tIT1_EEP8_IO_FILEEESN_NS0_6detail22borrowed_tail_subrangeISJ_Xsr6rangesE14borrowed_rangeISJ_EEE4typeEE4typeEJDpT_EEEEERKT0_OSJ_NS0_24basic_scan_format_stringIcNSO_13type_identityISJ_E4typeEJDpNS13_ISU_E4typeEEEE:
 9443|   152k|{
 9444|   152k|    auto result = make_scan_result<Source, Args...>();
 9445|   152k|    fill_scan_result(result, vscan(loc, SCN_FWD(source), format,
  ------------------
  |  |  936|   152k|#define SCN_FWD(x)          static_cast<decltype(x)&&>(x)
  ------------------
 9446|   152k|                                   make_scan_args(result->values())));
 9447|   152k|    return result;
 9448|   152k|}
_ZN3scn2v410scan_valueIhNS0_6ranges6detail9subrange_8subrangeINSt3__116__deque_iteratorIcPKcRS8_PKS9_lLl4096EEESD_EEvEENS0_13scan_expectedINS0_11scan_resultINS6_11conditionalIXsr3stdE9is_same_vIu11__remove_cvIu20__remove_reference_tIT0_EEP8_IO_FILEEESM_NS0_6detail22borrowed_tail_subrangeISI_Xsr6rangesE14borrowed_rangeISI_EEE4typeEE4typeEJT_EEEEEOSI_:
 9484|  23.4k|{
 9485|  23.4k|    auto result = make_scan_result<Source, T>();
 9486|  23.4k|    fill_scan_result(
 9487|  23.4k|        result, vscan_value(SCN_FWD(source),
  ------------------
  |  |  936|  23.4k|#define SCN_FWD(x)          static_cast<decltype(x)&&>(x)
  ------------------
 9488|  23.4k|                            detail::make_arg<scan_context>(result->value())));
 9489|  23.4k|    return result;
 9490|  23.4k|}
_ZN3scn2v44scanIJiENS0_6ranges6detail9subrange_8subrangeINSt3__116__deque_iteratorIcPKcRS8_PKS9_lLl4096EEESD_EEvEENS0_13scan_expectedINS0_11scan_resultINS6_11conditionalIXsr3stdE9is_same_vIu11__remove_cvIu20__remove_reference_tIT0_EEP8_IO_FILEEESM_NS0_6detail22borrowed_tail_subrangeISI_Xsr6rangesE14borrowed_rangeISI_EEE4typeEE4typeEJDpT_EEEEEOSI_NS0_24basic_scan_format_stringIcNSN_13type_identityISI_E4typeEJDpNSZ_IST_E4typeEEEE:
 9374|   199k|{
 9375|   199k|    auto result = make_scan_result<Source, Args...>();
 9376|   199k|    fill_scan_result(result, vscan(SCN_FWD(source), format,
  ------------------
  |  |  936|   199k|#define SCN_FWD(x)          static_cast<decltype(x)&&>(x)
  ------------------
 9377|   199k|                                   make_scan_args(result->values())));
 9378|   199k|    return result;
 9379|   199k|}
_ZN3scn2v416make_scan_resultINS0_6ranges6detail9subrange_8subrangeINSt3__116__deque_iteratorIcPKcRS8_PKS9_lLl4096EEESD_EEJiEEEDav:
 9330|   428k|{
 9331|   428k|    return scan_result_type<Source, Args...>();
 9332|   428k|}
_ZN3scn2v48expectedINS0_11scan_resultINS0_6ranges6detail9subrange_8subrangeINSt3__116__deque_iteratorIcPKcRS9_PKSA_lLl4096EEESE_EEJiEEENS0_10scan_errorEEC2Ev:
 1551|   428k|    constexpr expected() = default;
_ZN3scn2v46detail21expected_storage_baseINS0_11scan_resultINS0_6ranges6detail9subrange_8subrangeINSt3__116__deque_iteratorIcPKcRSA_PKSB_lLl4096EEESF_EEJiEEENS0_10scan_errorELb1EEC2Ev:
  426|   428k|        : m_value(T{}), m_has_value(true)
  427|   428k|    {
  428|   428k|    }
_ZN3scn2v411scan_resultINS0_6ranges6detail9subrange_8subrangeINSt3__116__deque_iteratorIcPKcRS8_PKS9_lLl4096EEESD_EEJiEEC2Ev:
 6264|   428k|    constexpr scan_result() = default;
_ZN3scn2v416fill_scan_resultINS0_11scan_resultINS0_6ranges6detail9subrange_8subrangeINSt3__116__deque_iteratorIcPKcRS9_PKSA_lLl4096EEESE_EEJiEEESF_TnPNS7_9enable_ifIXsr3stdE13conjunction_vINS0_6detail25is_specialization_of_implIu11__remove_cvIu20__remove_reference_tIT_EES2_EENS7_7is_sameINSK_10range_typeET0_EEEEvE4typeELPv0EEEvRNS0_13scan_expectedISK_EEONSW_ISQ_EE:
 9315|   428k|{
 9316|   428k|    if (SCN_UNLIKELY(!in)) {
  ------------------
  |  |  865|   428k|#define SCN_UNLIKELY(x) __builtin_expect(!!(x), 0)
  |  |  ------------------
  |  |  |  Branch (865:25): [True: 43.7k, False: 385k]
  |  |  ------------------
  ------------------
 9317|  43.7k|        out = unexpected(in.error());
 9318|  43.7k|    }
 9319|   385k|    else {
 9320|   385k|        out->set_range(SCN_MOVE(*in));
  ------------------
  |  |  934|   385k|    static_cast<    \
  |  |  935|   385k|        typename ::scn::detail::remove_reference<decltype(x)>::type&&>(x)
  ------------------
 9321|   385k|    }
 9322|   428k|}
_ZN3scn2v48expectedINS0_11scan_resultINS0_6ranges6detail9subrange_8subrangeINSt3__116__deque_iteratorIcPKcRS9_PKSA_lLl4096EEESE_EEJiEEENS0_10scan_errorEEC2ISH_TnPNS7_9enable_ifIXsr3stdE18is_constructible_vISH_OT_EEvE4typeELPv0ETnPNSK_IXsr3stdE16is_convertible_vISM_SH_EEvE4typeELSQ_0EEEONS0_10unexpectedISL_EE:
 1615|  43.7k|        : base(unexpect, std::move(e.error())),
 1616|  43.7k|          ctor_base(detail::non_default_ctor_tag_t{})
 1617|  43.7k|    {
 1618|  43.7k|    }
_ZN3scn2v46detail21expected_storage_baseINS0_11scan_resultINS0_6ranges6detail9subrange_8subrangeINSt3__116__deque_iteratorIcPKcRSA_PKSB_lLl4096EEESF_EEJiEEENS0_10scan_errorELb1EEC2IJSI_EvEENS0_10unexpect_tEDpOT_:
  449|  43.7k|        : m_unexpected(std::in_place, std::forward<Args>(args)...),
  450|  43.7k|          m_has_value(false)
  451|  43.7k|    {
  452|  43.7k|    }
_ZN3scn2v46detail26expected_default_ctor_baseINS0_11scan_resultINS0_6ranges6detail9subrange_8subrangeINSt3__116__deque_iteratorIcPKcRSA_PKSB_lLl4096EEESF_EEJiEEENS0_10scan_errorELb1EEC2ENS1_22non_default_ctor_tag_tE:
 1315|  43.7k|    {
 1316|  43.7k|    }
_ZN3scn2v48expectedINS0_11scan_resultINS0_6ranges6detail9subrange_8subrangeINSt3__116__deque_iteratorIcPKcRS9_PKSA_lLl4096EEESE_EEJiEEENS0_10scan_errorEEaSEOSI_:
 1556|  43.7k|    constexpr expected& operator=(expected&&) = default;
_ZN3scn2v46detail24expected_operations_baseINS0_11scan_resultINS0_6ranges6detail9subrange_8subrangeINSt3__116__deque_iteratorIcPKcRSA_PKSB_lLl4096EEESF_EEJiEEENS0_10scan_errorEvEaSEOSJ_:
  902|  43.7k|    {
  903|  43.7k|        assign_common(std::move(other));
  904|  43.7k|        return *this;
  905|  43.7k|    }
_ZN3scn2v46detail24expected_operations_baseINS0_11scan_resultINS0_6ranges6detail9subrange_8subrangeINSt3__116__deque_iteratorIcPKcRSA_PKSB_lLl4096EEESF_EEJiEEENS0_10scan_errorEvE13assign_commonISJ_EEvOT_:
  949|  43.7k|    {
  950|  43.7k|        if (this->has_value()) {
  ------------------
  |  Branch (950:13): [True: 43.7k, False: 0]
  ------------------
  951|  43.7k|            if (other.has_value()) {
  ------------------
  |  Branch (951:17): [True: 0, False: 43.7k]
  ------------------
  952|      0|                return reassign_value(std::forward<Other>(other));
  953|      0|            }
  954|  43.7k|            return assign_unexpected_over_value(std::forward<Other>(other));
  955|  43.7k|        }
  956|       |
  957|      0|        if (other.has_value()) {
  ------------------
  |  Branch (957:13): [True: 0, False: 0]
  ------------------
  958|      0|            return assign_value_over_unexpected(std::forward<Other>(other));
  959|      0|        }
  960|      0|        return reassign_unexpected(std::forward<Other>(other));
  961|      0|    }
_ZNK3scn2v46detail21expected_storage_baseINS0_11scan_resultINS0_6ranges6detail9subrange_8subrangeINSt3__116__deque_iteratorIcPKcRSA_PKSB_lLl4096EEESF_EEJiEEENS0_10scan_errorELb1EE9has_valueEv:
  489|  1.71M|    {
  490|  1.71M|        return m_has_value;
  491|  1.71M|    }
_ZNR3scn2v46detail21expected_storage_baseINS0_11scan_resultINS0_6ranges6detail9subrange_8subrangeINSt3__116__deque_iteratorIcPKcRSA_PKSB_lLl4096EEESF_EEJiEEENS0_10scan_errorELb1EE9get_valueEv:
  455|  1.19M|    {
  456|  1.19M|        return m_value;
  457|  1.19M|    }
_ZN3scn2v46detail24expected_operations_baseINS0_11scan_resultINS0_6ranges6detail9subrange_8subrangeINSt3__116__deque_iteratorIcPKcRSA_PKSB_lLl4096EEESF_EEJiEEENS0_10scan_errorEvE28assign_unexpected_over_valueISJ_EEvOT_:
 1045|  43.7k|    {
 1046|  43.7k|        this->destroy_value();
 1047|  43.7k|        this->construct_unexpected(std::forward<Other>(other).get_unexpected());
 1048|  43.7k|    }
_ZN3scn2v46detail21expected_storage_baseINS0_11scan_resultINS0_6ranges6detail9subrange_8subrangeINSt3__116__deque_iteratorIcPKcRSA_PKSB_lLl4096EEESF_EEJiEEENS0_10scan_errorELb1EE13destroy_valueEv:
  510|  43.7k|    static constexpr void destroy_value() noexcept {}
_ZN3scn2v46detail21expected_storage_baseINS0_11scan_resultINS0_6ranges6detail9subrange_8subrangeINSt3__116__deque_iteratorIcPKcRSA_PKSB_lLl4096EEESF_EEJiEEENS0_10scan_errorELb1EE20construct_unexpectedIJNS0_10unexpectedISI_EEEEEvDpOT_:
  503|  43.7k|    {
  504|  43.7k|        scn::detail::construct_at(&get_unexpected(),
  505|  43.7k|                                  std::forward<Args>(args)...);
  506|  43.7k|        m_has_value = false;
  507|  43.7k|    }
_ZNR3scn2v46detail21expected_storage_baseINS0_11scan_resultINS0_6ranges6detail9subrange_8subrangeINSt3__116__deque_iteratorIcPKcRSA_PKSB_lLl4096EEESF_EEJiEEENS0_10scan_errorELb1EE14get_unexpectedEv:
  472|  43.7k|    {
  473|  43.7k|        return m_unexpected;
  474|  43.7k|    }
_ZNO3scn2v46detail21expected_storage_baseINS0_11scan_resultINS0_6ranges6detail9subrange_8subrangeINSt3__116__deque_iteratorIcPKcRSA_PKSB_lLl4096EEESF_EEJiEEENS0_10scan_errorELb1EE14get_unexpectedEv:
  480|  43.7k|    {
  481|  43.7k|        return std::move(m_unexpected);
  482|  43.7k|    }
_ZNK3scn2v424basic_scan_format_stringIcNS0_6ranges6detail9subrange_8subrangeINSt3__116__deque_iteratorIcPKcRS8_PKS9_lLl4096EEESD_EEJiEEcvNS6_17basic_string_viewIcNS6_11char_traitsIcEEEEEv:
 8461|   398k|    {
 8462|   398k|        return m_str;
 8463|   398k|    }
_ZN3scn2v424basic_scan_format_stringIcNS0_6ranges6detail9subrange_8subrangeINSt3__116__deque_iteratorIcPKcRS8_PKS9_lLl4096EEESD_EEJiEEC2ENS0_6detail27basic_runtime_format_stringIcEE:
 8456|   398k|        : m_str(r.str)
 8457|   398k|    {
 8458|   398k|    }
_ZNK3scn2v48expectedINS0_11scan_resultINS0_6ranges6detail9subrange_8subrangeINSt3__116__deque_iteratorIcPKcRS9_PKSA_lLl4096EEESE_EEJiEEENS0_10scan_errorEEcvbEv:
 1739|   428k|    {
 1740|   428k|        return has_value();
 1741|   428k|    }
_ZN3scn2v48expectedINS0_11scan_resultINS0_6ranges6detail9subrange_8subrangeINSt3__116__deque_iteratorIcPKcRS9_PKSA_lLl4096EEESE_EEJiEEENS0_10scan_errorEEptEv:
 1814|  1.19M|    {
 1815|  1.19M|        return &value();
 1816|  1.19M|    }
_ZNR3scn2v48expectedINS0_11scan_resultINS0_6ranges6detail9subrange_8subrangeINSt3__116__deque_iteratorIcPKcRS9_PKSA_lLl4096EEESE_EEJiEEENS0_10scan_errorEE5valueISG_TnPNS7_9enable_ifIXntsr3stdE9is_void_vIT_EEvE4typeELPv0EEERSL_v:
 1768|  1.19M|    {
 1769|  1.19M|        SCN_EXPECT(has_value());
  ------------------
  |  |  930|  1.19M|#define SCN_EXPECT(cond) SCN_ASSERT(cond, "Precondition violation")
  |  |  ------------------
  |  |  |  |  927|  1.19M|#define SCN_ASSERT(cond, msg) assert((cond) && msg)
  |  |  ------------------
  ------------------
 1770|  1.19M|        return this->get_value();
 1771|  1.19M|    }
_ZN3scn2v44scanIJiENSt3__16localeENS0_6ranges6detail9subrange_8subrangeINS2_16__deque_iteratorIcPKcRS9_PKSA_lLl4096EEESE_EEvvEENS0_13scan_expectedINS0_11scan_resultINS2_11conditionalIXsr3stdE9is_same_vIu11__remove_cvIu20__remove_reference_tIT1_EEP8_IO_FILEEESN_NS0_6detail22borrowed_tail_subrangeISJ_Xsr6rangesE14borrowed_rangeISJ_EEE4typeEE4typeEJDpT_EEEEERKT0_OSJ_NS0_24basic_scan_format_stringIcNSO_13type_identityISJ_E4typeEJDpNS13_ISU_E4typeEEEE:
 9443|   199k|{
 9444|   199k|    auto result = make_scan_result<Source, Args...>();
 9445|   199k|    fill_scan_result(result, vscan(loc, SCN_FWD(source), format,
  ------------------
  |  |  936|   199k|#define SCN_FWD(x)          static_cast<decltype(x)&&>(x)
  ------------------
 9446|   199k|                                   make_scan_args(result->values())));
 9447|   199k|    return result;
 9448|   199k|}
_ZN3scn2v410scan_valueIiNS0_6ranges6detail9subrange_8subrangeINSt3__116__deque_iteratorIcPKcRS8_PKS9_lLl4096EEESD_EEvEENS0_13scan_expectedINS0_11scan_resultINS6_11conditionalIXsr3stdE9is_same_vIu11__remove_cvIu20__remove_reference_tIT0_EEP8_IO_FILEEESM_NS0_6detail22borrowed_tail_subrangeISI_Xsr6rangesE14borrowed_rangeISI_EEE4typeEE4typeEJT_EEEEEOSI_:
 9484|  30.0k|{
 9485|  30.0k|    auto result = make_scan_result<Source, T>();
 9486|  30.0k|    fill_scan_result(
 9487|  30.0k|        result, vscan_value(SCN_FWD(source),
  ------------------
  |  |  936|  30.0k|#define SCN_FWD(x)          static_cast<decltype(x)&&>(x)
  ------------------
 9488|  30.0k|                            detail::make_arg<scan_context>(result->value())));
 9489|  30.0k|    return result;
 9490|  30.0k|}
_ZN3scn2v44scanIJjENS0_6ranges6detail9subrange_8subrangeINSt3__116__deque_iteratorIcPKcRS8_PKS9_lLl4096EEESD_EEvEENS0_13scan_expectedINS0_11scan_resultINS6_11conditionalIXsr3stdE9is_same_vIu11__remove_cvIu20__remove_reference_tIT0_EEP8_IO_FILEEESM_NS0_6detail22borrowed_tail_subrangeISI_Xsr6rangesE14borrowed_rangeISI_EEE4typeEE4typeEJDpT_EEEEEOSI_NS0_24basic_scan_format_stringIcNSN_13type_identityISI_E4typeEJDpNSZ_IST_E4typeEEEE:
 9374|   172k|{
 9375|   172k|    auto result = make_scan_result<Source, Args...>();
 9376|   172k|    fill_scan_result(result, vscan(SCN_FWD(source), format,
  ------------------
  |  |  936|   172k|#define SCN_FWD(x)          static_cast<decltype(x)&&>(x)
  ------------------
 9377|   172k|                                   make_scan_args(result->values())));
 9378|   172k|    return result;
 9379|   172k|}
_ZN3scn2v416make_scan_resultINS0_6ranges6detail9subrange_8subrangeINSt3__116__deque_iteratorIcPKcRS8_PKS9_lLl4096EEESD_EEJjEEEDav:
 9330|   371k|{
 9331|   371k|    return scan_result_type<Source, Args...>();
 9332|   371k|}
_ZN3scn2v48expectedINS0_11scan_resultINS0_6ranges6detail9subrange_8subrangeINSt3__116__deque_iteratorIcPKcRS9_PKSA_lLl4096EEESE_EEJjEEENS0_10scan_errorEEC2Ev:
 1551|   371k|    constexpr expected() = default;
_ZN3scn2v46detail21expected_storage_baseINS0_11scan_resultINS0_6ranges6detail9subrange_8subrangeINSt3__116__deque_iteratorIcPKcRSA_PKSB_lLl4096EEESF_EEJjEEENS0_10scan_errorELb1EEC2Ev:
  426|   371k|        : m_value(T{}), m_has_value(true)
  427|   371k|    {
  428|   371k|    }
_ZN3scn2v411scan_resultINS0_6ranges6detail9subrange_8subrangeINSt3__116__deque_iteratorIcPKcRS8_PKS9_lLl4096EEESD_EEJjEEC2Ev:
 6264|   371k|    constexpr scan_result() = default;
_ZN3scn2v416fill_scan_resultINS0_11scan_resultINS0_6ranges6detail9subrange_8subrangeINSt3__116__deque_iteratorIcPKcRS9_PKSA_lLl4096EEESE_EEJjEEESF_TnPNS7_9enable_ifIXsr3stdE13conjunction_vINS0_6detail25is_specialization_of_implIu11__remove_cvIu20__remove_reference_tIT_EES2_EENS7_7is_sameINSK_10range_typeET0_EEEEvE4typeELPv0EEEvRNS0_13scan_expectedISK_EEONSW_ISQ_EE:
 9315|   371k|{
 9316|   371k|    if (SCN_UNLIKELY(!in)) {
  ------------------
  |  |  865|   371k|#define SCN_UNLIKELY(x) __builtin_expect(!!(x), 0)
  |  |  ------------------
  |  |  |  Branch (865:25): [True: 43.7k, False: 327k]
  |  |  ------------------
  ------------------
 9317|  43.7k|        out = unexpected(in.error());
 9318|  43.7k|    }
 9319|   327k|    else {
 9320|   327k|        out->set_range(SCN_MOVE(*in));
  ------------------
  |  |  934|   327k|    static_cast<    \
  |  |  935|   327k|        typename ::scn::detail::remove_reference<decltype(x)>::type&&>(x)
  ------------------
 9321|   327k|    }
 9322|   371k|}
_ZN3scn2v48expectedINS0_11scan_resultINS0_6ranges6detail9subrange_8subrangeINSt3__116__deque_iteratorIcPKcRS9_PKSA_lLl4096EEESE_EEJjEEENS0_10scan_errorEEC2ISH_TnPNS7_9enable_ifIXsr3stdE18is_constructible_vISH_OT_EEvE4typeELPv0ETnPNSK_IXsr3stdE16is_convertible_vISM_SH_EEvE4typeELSQ_0EEEONS0_10unexpectedISL_EE:
 1615|  43.7k|        : base(unexpect, std::move(e.error())),
 1616|  43.7k|          ctor_base(detail::non_default_ctor_tag_t{})
 1617|  43.7k|    {
 1618|  43.7k|    }
_ZN3scn2v46detail21expected_storage_baseINS0_11scan_resultINS0_6ranges6detail9subrange_8subrangeINSt3__116__deque_iteratorIcPKcRSA_PKSB_lLl4096EEESF_EEJjEEENS0_10scan_errorELb1EEC2IJSI_EvEENS0_10unexpect_tEDpOT_:
  449|  43.7k|        : m_unexpected(std::in_place, std::forward<Args>(args)...),
  450|  43.7k|          m_has_value(false)
  451|  43.7k|    {
  452|  43.7k|    }
_ZN3scn2v46detail26expected_default_ctor_baseINS0_11scan_resultINS0_6ranges6detail9subrange_8subrangeINSt3__116__deque_iteratorIcPKcRSA_PKSB_lLl4096EEESF_EEJjEEENS0_10scan_errorELb1EEC2ENS1_22non_default_ctor_tag_tE:
 1315|  43.7k|    {
 1316|  43.7k|    }
_ZN3scn2v48expectedINS0_11scan_resultINS0_6ranges6detail9subrange_8subrangeINSt3__116__deque_iteratorIcPKcRS9_PKSA_lLl4096EEESE_EEJjEEENS0_10scan_errorEEaSEOSI_:
 1556|  43.7k|    constexpr expected& operator=(expected&&) = default;
_ZN3scn2v46detail24expected_operations_baseINS0_11scan_resultINS0_6ranges6detail9subrange_8subrangeINSt3__116__deque_iteratorIcPKcRSA_PKSB_lLl4096EEESF_EEJjEEENS0_10scan_errorEvEaSEOSJ_:
  902|  43.7k|    {
  903|  43.7k|        assign_common(std::move(other));
  904|  43.7k|        return *this;
  905|  43.7k|    }
_ZN3scn2v46detail24expected_operations_baseINS0_11scan_resultINS0_6ranges6detail9subrange_8subrangeINSt3__116__deque_iteratorIcPKcRSA_PKSB_lLl4096EEESF_EEJjEEENS0_10scan_errorEvE13assign_commonISJ_EEvOT_:
  949|  43.7k|    {
  950|  43.7k|        if (this->has_value()) {
  ------------------
  |  Branch (950:13): [True: 43.7k, False: 0]
  ------------------
  951|  43.7k|            if (other.has_value()) {
  ------------------
  |  Branch (951:17): [True: 0, False: 43.7k]
  ------------------
  952|      0|                return reassign_value(std::forward<Other>(other));
  953|      0|            }
  954|  43.7k|            return assign_unexpected_over_value(std::forward<Other>(other));
  955|  43.7k|        }
  956|       |
  957|      0|        if (other.has_value()) {
  ------------------
  |  Branch (957:13): [True: 0, False: 0]
  ------------------
  958|      0|            return assign_value_over_unexpected(std::forward<Other>(other));
  959|      0|        }
  960|      0|        return reassign_unexpected(std::forward<Other>(other));
  961|      0|    }
_ZNK3scn2v46detail21expected_storage_baseINS0_11scan_resultINS0_6ranges6detail9subrange_8subrangeINSt3__116__deque_iteratorIcPKcRSA_PKSB_lLl4096EEESF_EEJjEEENS0_10scan_errorELb1EE9has_valueEv:
  489|  1.48M|    {
  490|  1.48M|        return m_has_value;
  491|  1.48M|    }
_ZNR3scn2v46detail21expected_storage_baseINS0_11scan_resultINS0_6ranges6detail9subrange_8subrangeINSt3__116__deque_iteratorIcPKcRSA_PKSB_lLl4096EEESF_EEJjEEENS0_10scan_errorELb1EE9get_valueEv:
  455|  1.02M|    {
  456|  1.02M|        return m_value;
  457|  1.02M|    }
_ZN3scn2v46detail24expected_operations_baseINS0_11scan_resultINS0_6ranges6detail9subrange_8subrangeINSt3__116__deque_iteratorIcPKcRSA_PKSB_lLl4096EEESF_EEJjEEENS0_10scan_errorEvE28assign_unexpected_over_valueISJ_EEvOT_:
 1045|  43.7k|    {
 1046|  43.7k|        this->destroy_value();
 1047|  43.7k|        this->construct_unexpected(std::forward<Other>(other).get_unexpected());
 1048|  43.7k|    }
_ZN3scn2v46detail21expected_storage_baseINS0_11scan_resultINS0_6ranges6detail9subrange_8subrangeINSt3__116__deque_iteratorIcPKcRSA_PKSB_lLl4096EEESF_EEJjEEENS0_10scan_errorELb1EE13destroy_valueEv:
  510|  43.7k|    static constexpr void destroy_value() noexcept {}
_ZN3scn2v46detail21expected_storage_baseINS0_11scan_resultINS0_6ranges6detail9subrange_8subrangeINSt3__116__deque_iteratorIcPKcRSA_PKSB_lLl4096EEESF_EEJjEEENS0_10scan_errorELb1EE20construct_unexpectedIJNS0_10unexpectedISI_EEEEEvDpOT_:
  503|  43.7k|    {
  504|  43.7k|        scn::detail::construct_at(&get_unexpected(),
  505|  43.7k|                                  std::forward<Args>(args)...);
  506|  43.7k|        m_has_value = false;
  507|  43.7k|    }
_ZNR3scn2v46detail21expected_storage_baseINS0_11scan_resultINS0_6ranges6detail9subrange_8subrangeINSt3__116__deque_iteratorIcPKcRSA_PKSB_lLl4096EEESF_EEJjEEENS0_10scan_errorELb1EE14get_unexpectedEv:
  472|  43.7k|    {
  473|  43.7k|        return m_unexpected;
  474|  43.7k|    }
_ZNO3scn2v46detail21expected_storage_baseINS0_11scan_resultINS0_6ranges6detail9subrange_8subrangeINSt3__116__deque_iteratorIcPKcRSA_PKSB_lLl4096EEESF_EEJjEEENS0_10scan_errorELb1EE14get_unexpectedEv:
  480|  43.7k|    {
  481|  43.7k|        return std::move(m_unexpected);
  482|  43.7k|    }
_ZNK3scn2v424basic_scan_format_stringIcNS0_6ranges6detail9subrange_8subrangeINSt3__116__deque_iteratorIcPKcRS8_PKS9_lLl4096EEESD_EEJjEEcvNS6_17basic_string_viewIcNS6_11char_traitsIcEEEEEv:
 8461|   345k|    {
 8462|   345k|        return m_str;
 8463|   345k|    }
_ZN3scn2v424basic_scan_format_stringIcNS0_6ranges6detail9subrange_8subrangeINSt3__116__deque_iteratorIcPKcRS8_PKS9_lLl4096EEESD_EEJjEEC2ENS0_6detail27basic_runtime_format_stringIcEE:
 8456|   345k|        : m_str(r.str)
 8457|   345k|    {
 8458|   345k|    }
_ZNK3scn2v48expectedINS0_11scan_resultINS0_6ranges6detail9subrange_8subrangeINSt3__116__deque_iteratorIcPKcRS9_PKSA_lLl4096EEESE_EEJjEEENS0_10scan_errorEEcvbEv:
 1739|   371k|    {
 1740|   371k|        return has_value();
 1741|   371k|    }
_ZN3scn2v48expectedINS0_11scan_resultINS0_6ranges6detail9subrange_8subrangeINSt3__116__deque_iteratorIcPKcRS9_PKSA_lLl4096EEESE_EEJjEEENS0_10scan_errorEEptEv:
 1814|  1.02M|    {
 1815|  1.02M|        return &value();
 1816|  1.02M|    }
_ZNR3scn2v48expectedINS0_11scan_resultINS0_6ranges6detail9subrange_8subrangeINSt3__116__deque_iteratorIcPKcRS9_PKSA_lLl4096EEESE_EEJjEEENS0_10scan_errorEE5valueISG_TnPNS7_9enable_ifIXntsr3stdE9is_void_vIT_EEvE4typeELPv0EEERSL_v:
 1768|  1.02M|    {
 1769|  1.02M|        SCN_EXPECT(has_value());
  ------------------
  |  |  930|  1.02M|#define SCN_EXPECT(cond) SCN_ASSERT(cond, "Precondition violation")
  |  |  ------------------
  |  |  |  |  927|  1.02M|#define SCN_ASSERT(cond, msg) assert((cond) && msg)
  |  |  ------------------
  ------------------
 1770|  1.02M|        return this->get_value();
 1771|  1.02M|    }
_ZN3scn2v44scanIJjENSt3__16localeENS0_6ranges6detail9subrange_8subrangeINS2_16__deque_iteratorIcPKcRS9_PKSA_lLl4096EEESE_EEvvEENS0_13scan_expectedINS0_11scan_resultINS2_11conditionalIXsr3stdE9is_same_vIu11__remove_cvIu20__remove_reference_tIT1_EEP8_IO_FILEEESN_NS0_6detail22borrowed_tail_subrangeISJ_Xsr6rangesE14borrowed_rangeISJ_EEE4typeEE4typeEJDpT_EEEEERKT0_OSJ_NS0_24basic_scan_format_stringIcNSO_13type_identityISJ_E4typeEJDpNS13_ISU_E4typeEEEE:
 9443|   172k|{
 9444|   172k|    auto result = make_scan_result<Source, Args...>();
 9445|   172k|    fill_scan_result(result, vscan(loc, SCN_FWD(source), format,
  ------------------
  |  |  936|   172k|#define SCN_FWD(x)          static_cast<decltype(x)&&>(x)
  ------------------
 9446|   172k|                                   make_scan_args(result->values())));
 9447|   172k|    return result;
 9448|   172k|}
_ZN3scn2v410scan_valueIjNS0_6ranges6detail9subrange_8subrangeINSt3__116__deque_iteratorIcPKcRS8_PKS9_lLl4096EEESD_EEvEENS0_13scan_expectedINS0_11scan_resultINS6_11conditionalIXsr3stdE9is_same_vIu11__remove_cvIu20__remove_reference_tIT0_EEP8_IO_FILEEESM_NS0_6detail22borrowed_tail_subrangeISI_Xsr6rangesE14borrowed_rangeISI_EEE4typeEE4typeEJT_EEEEEOSI_:
 9484|  26.1k|{
 9485|  26.1k|    auto result = make_scan_result<Source, T>();
 9486|  26.1k|    fill_scan_result(
 9487|  26.1k|        result, vscan_value(SCN_FWD(source),
  ------------------
  |  |  936|  26.1k|#define SCN_FWD(x)          static_cast<decltype(x)&&>(x)
  ------------------
 9488|  26.1k|                            detail::make_arg<scan_context>(result->value())));
 9489|  26.1k|    return result;
 9490|  26.1k|}
_ZN3scn2v44scanIJxENS0_6ranges6detail9subrange_8subrangeINSt3__116__deque_iteratorIcPKcRS8_PKS9_lLl4096EEESD_EEvEENS0_13scan_expectedINS0_11scan_resultINS6_11conditionalIXsr3stdE9is_same_vIu11__remove_cvIu20__remove_reference_tIT0_EEP8_IO_FILEEESM_NS0_6detail22borrowed_tail_subrangeISI_Xsr6rangesE14borrowed_rangeISI_EEE4typeEE4typeEJDpT_EEEEEOSI_NS0_24basic_scan_format_stringIcNSN_13type_identityISI_E4typeEJDpNSZ_IST_E4typeEEEE:
 9374|   203k|{
 9375|   203k|    auto result = make_scan_result<Source, Args...>();
 9376|   203k|    fill_scan_result(result, vscan(SCN_FWD(source), format,
  ------------------
  |  |  936|   203k|#define SCN_FWD(x)          static_cast<decltype(x)&&>(x)
  ------------------
 9377|   203k|                                   make_scan_args(result->values())));
 9378|   203k|    return result;
 9379|   203k|}
_ZN3scn2v416make_scan_resultINS0_6ranges6detail9subrange_8subrangeINSt3__116__deque_iteratorIcPKcRS8_PKS9_lLl4096EEESD_EEJxEEEDav:
 9330|   436k|{
 9331|   436k|    return scan_result_type<Source, Args...>();
 9332|   436k|}
_ZN3scn2v48expectedINS0_11scan_resultINS0_6ranges6detail9subrange_8subrangeINSt3__116__deque_iteratorIcPKcRS9_PKSA_lLl4096EEESE_EEJxEEENS0_10scan_errorEEC2Ev:
 1551|   436k|    constexpr expected() = default;
_ZN3scn2v46detail21expected_storage_baseINS0_11scan_resultINS0_6ranges6detail9subrange_8subrangeINSt3__116__deque_iteratorIcPKcRSA_PKSB_lLl4096EEESF_EEJxEEENS0_10scan_errorELb1EEC2Ev:
  426|   436k|        : m_value(T{}), m_has_value(true)
  427|   436k|    {
  428|   436k|    }
_ZN3scn2v411scan_resultINS0_6ranges6detail9subrange_8subrangeINSt3__116__deque_iteratorIcPKcRS8_PKS9_lLl4096EEESD_EEJxEEC2Ev:
 6264|   436k|    constexpr scan_result() = default;
_ZN3scn2v416fill_scan_resultINS0_11scan_resultINS0_6ranges6detail9subrange_8subrangeINSt3__116__deque_iteratorIcPKcRS9_PKSA_lLl4096EEESE_EEJxEEESF_TnPNS7_9enable_ifIXsr3stdE13conjunction_vINS0_6detail25is_specialization_of_implIu11__remove_cvIu20__remove_reference_tIT_EES2_EENS7_7is_sameINSK_10range_typeET0_EEEEvE4typeELPv0EEEvRNS0_13scan_expectedISK_EEONSW_ISQ_EE:
 9315|   436k|{
 9316|   436k|    if (SCN_UNLIKELY(!in)) {
  ------------------
  |  |  865|   436k|#define SCN_UNLIKELY(x) __builtin_expect(!!(x), 0)
  |  |  ------------------
  |  |  |  Branch (865:25): [True: 43.7k, False: 393k]
  |  |  ------------------
  ------------------
 9317|  43.7k|        out = unexpected(in.error());
 9318|  43.7k|    }
 9319|   393k|    else {
 9320|   393k|        out->set_range(SCN_MOVE(*in));
  ------------------
  |  |  934|   393k|    static_cast<    \
  |  |  935|   393k|        typename ::scn::detail::remove_reference<decltype(x)>::type&&>(x)
  ------------------
 9321|   393k|    }
 9322|   436k|}
_ZN3scn2v48expectedINS0_11scan_resultINS0_6ranges6detail9subrange_8subrangeINSt3__116__deque_iteratorIcPKcRS9_PKSA_lLl4096EEESE_EEJxEEENS0_10scan_errorEEC2ISH_TnPNS7_9enable_ifIXsr3stdE18is_constructible_vISH_OT_EEvE4typeELPv0ETnPNSK_IXsr3stdE16is_convertible_vISM_SH_EEvE4typeELSQ_0EEEONS0_10unexpectedISL_EE:
 1615|  43.7k|        : base(unexpect, std::move(e.error())),
 1616|  43.7k|          ctor_base(detail::non_default_ctor_tag_t{})
 1617|  43.7k|    {
 1618|  43.7k|    }
_ZN3scn2v46detail21expected_storage_baseINS0_11scan_resultINS0_6ranges6detail9subrange_8subrangeINSt3__116__deque_iteratorIcPKcRSA_PKSB_lLl4096EEESF_EEJxEEENS0_10scan_errorELb1EEC2IJSI_EvEENS0_10unexpect_tEDpOT_:
  449|  43.7k|        : m_unexpected(std::in_place, std::forward<Args>(args)...),
  450|  43.7k|          m_has_value(false)
  451|  43.7k|    {
  452|  43.7k|    }
_ZN3scn2v46detail26expected_default_ctor_baseINS0_11scan_resultINS0_6ranges6detail9subrange_8subrangeINSt3__116__deque_iteratorIcPKcRSA_PKSB_lLl4096EEESF_EEJxEEENS0_10scan_errorELb1EEC2ENS1_22non_default_ctor_tag_tE:
 1315|  43.7k|    {
 1316|  43.7k|    }
_ZN3scn2v48expectedINS0_11scan_resultINS0_6ranges6detail9subrange_8subrangeINSt3__116__deque_iteratorIcPKcRS9_PKSA_lLl4096EEESE_EEJxEEENS0_10scan_errorEEaSEOSI_:
 1556|  43.7k|    constexpr expected& operator=(expected&&) = default;
_ZN3scn2v46detail24expected_operations_baseINS0_11scan_resultINS0_6ranges6detail9subrange_8subrangeINSt3__116__deque_iteratorIcPKcRSA_PKSB_lLl4096EEESF_EEJxEEENS0_10scan_errorEvEaSEOSJ_:
  902|  43.7k|    {
  903|  43.7k|        assign_common(std::move(other));
  904|  43.7k|        return *this;
  905|  43.7k|    }
_ZN3scn2v46detail24expected_operations_baseINS0_11scan_resultINS0_6ranges6detail9subrange_8subrangeINSt3__116__deque_iteratorIcPKcRSA_PKSB_lLl4096EEESF_EEJxEEENS0_10scan_errorEvE13assign_commonISJ_EEvOT_:
  949|  43.7k|    {
  950|  43.7k|        if (this->has_value()) {
  ------------------
  |  Branch (950:13): [True: 43.7k, False: 0]
  ------------------
  951|  43.7k|            if (other.has_value()) {
  ------------------
  |  Branch (951:17): [True: 0, False: 43.7k]
  ------------------
  952|      0|                return reassign_value(std::forward<Other>(other));
  953|      0|            }
  954|  43.7k|            return assign_unexpected_over_value(std::forward<Other>(other));
  955|  43.7k|        }
  956|       |
  957|      0|        if (other.has_value()) {
  ------------------
  |  Branch (957:13): [True: 0, False: 0]
  ------------------
  958|      0|            return assign_value_over_unexpected(std::forward<Other>(other));
  959|      0|        }
  960|      0|        return reassign_unexpected(std::forward<Other>(other));
  961|      0|    }
_ZNK3scn2v46detail21expected_storage_baseINS0_11scan_resultINS0_6ranges6detail9subrange_8subrangeINSt3__116__deque_iteratorIcPKcRSA_PKSB_lLl4096EEESF_EEJxEEENS0_10scan_errorELb1EE9has_valueEv:
  489|  1.74M|    {
  490|  1.74M|        return m_has_value;
  491|  1.74M|    }
_ZNR3scn2v46detail21expected_storage_baseINS0_11scan_resultINS0_6ranges6detail9subrange_8subrangeINSt3__116__deque_iteratorIcPKcRSA_PKSB_lLl4096EEESF_EEJxEEENS0_10scan_errorELb1EE9get_valueEv:
  455|  1.22M|    {
  456|  1.22M|        return m_value;
  457|  1.22M|    }
_ZN3scn2v46detail24expected_operations_baseINS0_11scan_resultINS0_6ranges6detail9subrange_8subrangeINSt3__116__deque_iteratorIcPKcRSA_PKSB_lLl4096EEESF_EEJxEEENS0_10scan_errorEvE28assign_unexpected_over_valueISJ_EEvOT_:
 1045|  43.7k|    {
 1046|  43.7k|        this->destroy_value();
 1047|  43.7k|        this->construct_unexpected(std::forward<Other>(other).get_unexpected());
 1048|  43.7k|    }
_ZN3scn2v46detail21expected_storage_baseINS0_11scan_resultINS0_6ranges6detail9subrange_8subrangeINSt3__116__deque_iteratorIcPKcRSA_PKSB_lLl4096EEESF_EEJxEEENS0_10scan_errorELb1EE13destroy_valueEv:
  510|  43.7k|    static constexpr void destroy_value() noexcept {}
_ZN3scn2v46detail21expected_storage_baseINS0_11scan_resultINS0_6ranges6detail9subrange_8subrangeINSt3__116__deque_iteratorIcPKcRSA_PKSB_lLl4096EEESF_EEJxEEENS0_10scan_errorELb1EE20construct_unexpectedIJNS0_10unexpectedISI_EEEEEvDpOT_:
  503|  43.7k|    {
  504|  43.7k|        scn::detail::construct_at(&get_unexpected(),
  505|  43.7k|                                  std::forward<Args>(args)...);
  506|  43.7k|        m_has_value = false;
  507|  43.7k|    }
_ZNR3scn2v46detail21expected_storage_baseINS0_11scan_resultINS0_6ranges6detail9subrange_8subrangeINSt3__116__deque_iteratorIcPKcRSA_PKSB_lLl4096EEESF_EEJxEEENS0_10scan_errorELb1EE14get_unexpectedEv:
  472|  43.7k|    {
  473|  43.7k|        return m_unexpected;
  474|  43.7k|    }
_ZNO3scn2v46detail21expected_storage_baseINS0_11scan_resultINS0_6ranges6detail9subrange_8subrangeINSt3__116__deque_iteratorIcPKcRSA_PKSB_lLl4096EEESF_EEJxEEENS0_10scan_errorELb1EE14get_unexpectedEv:
  480|  43.7k|    {
  481|  43.7k|        return std::move(m_unexpected);
  482|  43.7k|    }
_ZNK3scn2v424basic_scan_format_stringIcNS0_6ranges6detail9subrange_8subrangeINSt3__116__deque_iteratorIcPKcRS8_PKS9_lLl4096EEESD_EEJxEEcvNS6_17basic_string_viewIcNS6_11char_traitsIcEEEEEv:
 8461|   406k|    {
 8462|   406k|        return m_str;
 8463|   406k|    }
_ZN3scn2v424basic_scan_format_stringIcNS0_6ranges6detail9subrange_8subrangeINSt3__116__deque_iteratorIcPKcRS8_PKS9_lLl4096EEESD_EEJxEEC2ENS0_6detail27basic_runtime_format_stringIcEE:
 8456|   406k|        : m_str(r.str)
 8457|   406k|    {
 8458|   406k|    }
_ZNK3scn2v48expectedINS0_11scan_resultINS0_6ranges6detail9subrange_8subrangeINSt3__116__deque_iteratorIcPKcRS9_PKSA_lLl4096EEESE_EEJxEEENS0_10scan_errorEEcvbEv:
 1739|   436k|    {
 1740|   436k|        return has_value();
 1741|   436k|    }
_ZN3scn2v48expectedINS0_11scan_resultINS0_6ranges6detail9subrange_8subrangeINSt3__116__deque_iteratorIcPKcRS9_PKSA_lLl4096EEESE_EEJxEEENS0_10scan_errorEEptEv:
 1814|  1.22M|    {
 1815|  1.22M|        return &value();
 1816|  1.22M|    }
_ZNR3scn2v48expectedINS0_11scan_resultINS0_6ranges6detail9subrange_8subrangeINSt3__116__deque_iteratorIcPKcRS9_PKSA_lLl4096EEESE_EEJxEEENS0_10scan_errorEE5valueISG_TnPNS7_9enable_ifIXntsr3stdE9is_void_vIT_EEvE4typeELPv0EEERSL_v:
 1768|  1.22M|    {
 1769|  1.22M|        SCN_EXPECT(has_value());
  ------------------
  |  |  930|  1.22M|#define SCN_EXPECT(cond) SCN_ASSERT(cond, "Precondition violation")
  |  |  ------------------
  |  |  |  |  927|  1.22M|#define SCN_ASSERT(cond, msg) assert((cond) && msg)
  |  |  ------------------
  ------------------
 1770|  1.22M|        return this->get_value();
 1771|  1.22M|    }
_ZN3scn2v44scanIJxENSt3__16localeENS0_6ranges6detail9subrange_8subrangeINS2_16__deque_iteratorIcPKcRS9_PKSA_lLl4096EEESE_EEvvEENS0_13scan_expectedINS0_11scan_resultINS2_11conditionalIXsr3stdE9is_same_vIu11__remove_cvIu20__remove_reference_tIT1_EEP8_IO_FILEEESN_NS0_6detail22borrowed_tail_subrangeISJ_Xsr6rangesE14borrowed_rangeISJ_EEE4typeEE4typeEJDpT_EEEEERKT0_OSJ_NS0_24basic_scan_format_stringIcNSO_13type_identityISJ_E4typeEJDpNS13_ISU_E4typeEEEE:
 9443|   203k|{
 9444|   203k|    auto result = make_scan_result<Source, Args...>();
 9445|   203k|    fill_scan_result(result, vscan(loc, SCN_FWD(source), format,
  ------------------
  |  |  936|   203k|#define SCN_FWD(x)          static_cast<decltype(x)&&>(x)
  ------------------
 9446|   203k|                                   make_scan_args(result->values())));
 9447|   203k|    return result;
 9448|   203k|}
_ZN3scn2v410scan_valueIxNS0_6ranges6detail9subrange_8subrangeINSt3__116__deque_iteratorIcPKcRS8_PKS9_lLl4096EEESD_EEvEENS0_13scan_expectedINS0_11scan_resultINS6_11conditionalIXsr3stdE9is_same_vIu11__remove_cvIu20__remove_reference_tIT0_EEP8_IO_FILEEESM_NS0_6detail22borrowed_tail_subrangeISI_Xsr6rangesE14borrowed_rangeISI_EEE4typeEE4typeEJT_EEEEEOSI_:
 9484|  30.6k|{
 9485|  30.6k|    auto result = make_scan_result<Source, T>();
 9486|  30.6k|    fill_scan_result(
 9487|  30.6k|        result, vscan_value(SCN_FWD(source),
  ------------------
  |  |  936|  30.6k|#define SCN_FWD(x)          static_cast<decltype(x)&&>(x)
  ------------------
 9488|  30.6k|                            detail::make_arg<scan_context>(result->value())));
 9489|  30.6k|    return result;
 9490|  30.6k|}
_ZN3scn2v44scanIJyENS0_6ranges6detail9subrange_8subrangeINSt3__116__deque_iteratorIcPKcRS8_PKS9_lLl4096EEESD_EEvEENS0_13scan_expectedINS0_11scan_resultINS6_11conditionalIXsr3stdE9is_same_vIu11__remove_cvIu20__remove_reference_tIT0_EEP8_IO_FILEEESM_NS0_6detail22borrowed_tail_subrangeISI_Xsr6rangesE14borrowed_rangeISI_EEE4typeEE4typeEJDpT_EEEEEOSI_NS0_24basic_scan_format_stringIcNSN_13type_identityISI_E4typeEJDpNSZ_IST_E4typeEEEE:
 9374|   174k|{
 9375|   174k|    auto result = make_scan_result<Source, Args...>();
 9376|   174k|    fill_scan_result(result, vscan(SCN_FWD(source), format,
  ------------------
  |  |  936|   174k|#define SCN_FWD(x)          static_cast<decltype(x)&&>(x)
  ------------------
 9377|   174k|                                   make_scan_args(result->values())));
 9378|   174k|    return result;
 9379|   174k|}
_ZN3scn2v416make_scan_resultINS0_6ranges6detail9subrange_8subrangeINSt3__116__deque_iteratorIcPKcRS8_PKS9_lLl4096EEESD_EEJyEEEDav:
 9330|   375k|{
 9331|   375k|    return scan_result_type<Source, Args...>();
 9332|   375k|}
_ZN3scn2v48expectedINS0_11scan_resultINS0_6ranges6detail9subrange_8subrangeINSt3__116__deque_iteratorIcPKcRS9_PKSA_lLl4096EEESE_EEJyEEENS0_10scan_errorEEC2Ev:
 1551|   375k|    constexpr expected() = default;
_ZN3scn2v46detail21expected_storage_baseINS0_11scan_resultINS0_6ranges6detail9subrange_8subrangeINSt3__116__deque_iteratorIcPKcRSA_PKSB_lLl4096EEESF_EEJyEEENS0_10scan_errorELb1EEC2Ev:
  426|   375k|        : m_value(T{}), m_has_value(true)
  427|   375k|    {
  428|   375k|    }
_ZN3scn2v411scan_resultINS0_6ranges6detail9subrange_8subrangeINSt3__116__deque_iteratorIcPKcRS8_PKS9_lLl4096EEESD_EEJyEEC2Ev:
 6264|   375k|    constexpr scan_result() = default;
_ZN3scn2v416fill_scan_resultINS0_11scan_resultINS0_6ranges6detail9subrange_8subrangeINSt3__116__deque_iteratorIcPKcRS9_PKSA_lLl4096EEESE_EEJyEEESF_TnPNS7_9enable_ifIXsr3stdE13conjunction_vINS0_6detail25is_specialization_of_implIu11__remove_cvIu20__remove_reference_tIT_EES2_EENS7_7is_sameINSK_10range_typeET0_EEEEvE4typeELPv0EEEvRNS0_13scan_expectedISK_EEONSW_ISQ_EE:
 9315|   375k|{
 9316|   375k|    if (SCN_UNLIKELY(!in)) {
  ------------------
  |  |  865|   375k|#define SCN_UNLIKELY(x) __builtin_expect(!!(x), 0)
  |  |  ------------------
  |  |  |  Branch (865:25): [True: 43.7k, False: 331k]
  |  |  ------------------
  ------------------
 9317|  43.7k|        out = unexpected(in.error());
 9318|  43.7k|    }
 9319|   331k|    else {
 9320|   331k|        out->set_range(SCN_MOVE(*in));
  ------------------
  |  |  934|   331k|    static_cast<    \
  |  |  935|   331k|        typename ::scn::detail::remove_reference<decltype(x)>::type&&>(x)
  ------------------
 9321|   331k|    }
 9322|   375k|}
_ZN3scn2v48expectedINS0_11scan_resultINS0_6ranges6detail9subrange_8subrangeINSt3__116__deque_iteratorIcPKcRS9_PKSA_lLl4096EEESE_EEJyEEENS0_10scan_errorEEC2ISH_TnPNS7_9enable_ifIXsr3stdE18is_constructible_vISH_OT_EEvE4typeELPv0ETnPNSK_IXsr3stdE16is_convertible_vISM_SH_EEvE4typeELSQ_0EEEONS0_10unexpectedISL_EE:
 1615|  43.7k|        : base(unexpect, std::move(e.error())),
 1616|  43.7k|          ctor_base(detail::non_default_ctor_tag_t{})
 1617|  43.7k|    {
 1618|  43.7k|    }
_ZN3scn2v46detail21expected_storage_baseINS0_11scan_resultINS0_6ranges6detail9subrange_8subrangeINSt3__116__deque_iteratorIcPKcRSA_PKSB_lLl4096EEESF_EEJyEEENS0_10scan_errorELb1EEC2IJSI_EvEENS0_10unexpect_tEDpOT_:
  449|  43.7k|        : m_unexpected(std::in_place, std::forward<Args>(args)...),
  450|  43.7k|          m_has_value(false)
  451|  43.7k|    {
  452|  43.7k|    }
_ZN3scn2v46detail26expected_default_ctor_baseINS0_11scan_resultINS0_6ranges6detail9subrange_8subrangeINSt3__116__deque_iteratorIcPKcRSA_PKSB_lLl4096EEESF_EEJyEEENS0_10scan_errorELb1EEC2ENS1_22non_default_ctor_tag_tE:
 1315|  43.7k|    {
 1316|  43.7k|    }
_ZN3scn2v48expectedINS0_11scan_resultINS0_6ranges6detail9subrange_8subrangeINSt3__116__deque_iteratorIcPKcRS9_PKSA_lLl4096EEESE_EEJyEEENS0_10scan_errorEEaSEOSI_:
 1556|  43.7k|    constexpr expected& operator=(expected&&) = default;
_ZN3scn2v46detail24expected_operations_baseINS0_11scan_resultINS0_6ranges6detail9subrange_8subrangeINSt3__116__deque_iteratorIcPKcRSA_PKSB_lLl4096EEESF_EEJyEEENS0_10scan_errorEvEaSEOSJ_:
  902|  43.7k|    {
  903|  43.7k|        assign_common(std::move(other));
  904|  43.7k|        return *this;
  905|  43.7k|    }
_ZN3scn2v46detail24expected_operations_baseINS0_11scan_resultINS0_6ranges6detail9subrange_8subrangeINSt3__116__deque_iteratorIcPKcRSA_PKSB_lLl4096EEESF_EEJyEEENS0_10scan_errorEvE13assign_commonISJ_EEvOT_:
  949|  43.7k|    {
  950|  43.7k|        if (this->has_value()) {
  ------------------
  |  Branch (950:13): [True: 43.7k, False: 0]
  ------------------
  951|  43.7k|            if (other.has_value()) {
  ------------------
  |  Branch (951:17): [True: 0, False: 43.7k]
  ------------------
  952|      0|                return reassign_value(std::forward<Other>(other));
  953|      0|            }
  954|  43.7k|            return assign_unexpected_over_value(std::forward<Other>(other));
  955|  43.7k|        }
  956|       |
  957|      0|        if (other.has_value()) {
  ------------------
  |  Branch (957:13): [True: 0, False: 0]
  ------------------
  958|      0|            return assign_value_over_unexpected(std::forward<Other>(other));
  959|      0|        }
  960|      0|        return reassign_unexpected(std::forward<Other>(other));
  961|      0|    }
_ZNK3scn2v46detail21expected_storage_baseINS0_11scan_resultINS0_6ranges6detail9subrange_8subrangeINSt3__116__deque_iteratorIcPKcRSA_PKSB_lLl4096EEESF_EEJyEEENS0_10scan_errorELb1EE9has_valueEv:
  489|  1.50M|    {
  490|  1.50M|        return m_has_value;
  491|  1.50M|    }
_ZNR3scn2v46detail21expected_storage_baseINS0_11scan_resultINS0_6ranges6detail9subrange_8subrangeINSt3__116__deque_iteratorIcPKcRSA_PKSB_lLl4096EEESF_EEJyEEENS0_10scan_errorELb1EE9get_valueEv:
  455|  1.03M|    {
  456|  1.03M|        return m_value;
  457|  1.03M|    }
_ZN3scn2v46detail24expected_operations_baseINS0_11scan_resultINS0_6ranges6detail9subrange_8subrangeINSt3__116__deque_iteratorIcPKcRSA_PKSB_lLl4096EEESF_EEJyEEENS0_10scan_errorEvE28assign_unexpected_over_valueISJ_EEvOT_:
 1045|  43.7k|    {
 1046|  43.7k|        this->destroy_value();
 1047|  43.7k|        this->construct_unexpected(std::forward<Other>(other).get_unexpected());
 1048|  43.7k|    }
_ZN3scn2v46detail21expected_storage_baseINS0_11scan_resultINS0_6ranges6detail9subrange_8subrangeINSt3__116__deque_iteratorIcPKcRSA_PKSB_lLl4096EEESF_EEJyEEENS0_10scan_errorELb1EE13destroy_valueEv:
  510|  43.7k|    static constexpr void destroy_value() noexcept {}
_ZN3scn2v46detail21expected_storage_baseINS0_11scan_resultINS0_6ranges6detail9subrange_8subrangeINSt3__116__deque_iteratorIcPKcRSA_PKSB_lLl4096EEESF_EEJyEEENS0_10scan_errorELb1EE20construct_unexpectedIJNS0_10unexpectedISI_EEEEEvDpOT_:
  503|  43.7k|    {
  504|  43.7k|        scn::detail::construct_at(&get_unexpected(),
  505|  43.7k|                                  std::forward<Args>(args)...);
  506|  43.7k|        m_has_value = false;
  507|  43.7k|    }
_ZNR3scn2v46detail21expected_storage_baseINS0_11scan_resultINS0_6ranges6detail9subrange_8subrangeINSt3__116__deque_iteratorIcPKcRSA_PKSB_lLl4096EEESF_EEJyEEENS0_10scan_errorELb1EE14get_unexpectedEv:
  472|  43.7k|    {
  473|  43.7k|        return m_unexpected;
  474|  43.7k|    }
_ZNO3scn2v46detail21expected_storage_baseINS0_11scan_resultINS0_6ranges6detail9subrange_8subrangeINSt3__116__deque_iteratorIcPKcRSA_PKSB_lLl4096EEESF_EEJyEEENS0_10scan_errorELb1EE14get_unexpectedEv:
  480|  43.7k|    {
  481|  43.7k|        return std::move(m_unexpected);
  482|  43.7k|    }
_ZNK3scn2v424basic_scan_format_stringIcNS0_6ranges6detail9subrange_8subrangeINSt3__116__deque_iteratorIcPKcRS8_PKS9_lLl4096EEESD_EEJyEEcvNS6_17basic_string_viewIcNS6_11char_traitsIcEEEEEv:
 8461|   349k|    {
 8462|   349k|        return m_str;
 8463|   349k|    }
_ZN3scn2v424basic_scan_format_stringIcNS0_6ranges6detail9subrange_8subrangeINSt3__116__deque_iteratorIcPKcRS8_PKS9_lLl4096EEESD_EEJyEEC2ENS0_6detail27basic_runtime_format_stringIcEE:
 8456|   349k|        : m_str(r.str)
 8457|   349k|    {
 8458|   349k|    }
_ZNK3scn2v48expectedINS0_11scan_resultINS0_6ranges6detail9subrange_8subrangeINSt3__116__deque_iteratorIcPKcRS9_PKSA_lLl4096EEESE_EEJyEEENS0_10scan_errorEEcvbEv:
 1739|   375k|    {
 1740|   375k|        return has_value();
 1741|   375k|    }
_ZN3scn2v48expectedINS0_11scan_resultINS0_6ranges6detail9subrange_8subrangeINSt3__116__deque_iteratorIcPKcRS9_PKSA_lLl4096EEESE_EEJyEEENS0_10scan_errorEEptEv:
 1814|  1.03M|    {
 1815|  1.03M|        return &value();
 1816|  1.03M|    }
_ZNR3scn2v48expectedINS0_11scan_resultINS0_6ranges6detail9subrange_8subrangeINSt3__116__deque_iteratorIcPKcRS9_PKSA_lLl4096EEESE_EEJyEEENS0_10scan_errorEE5valueISG_TnPNS7_9enable_ifIXntsr3stdE9is_void_vIT_EEvE4typeELPv0EEERSL_v:
 1768|  1.03M|    {
 1769|  1.03M|        SCN_EXPECT(has_value());
  ------------------
  |  |  930|  1.03M|#define SCN_EXPECT(cond) SCN_ASSERT(cond, "Precondition violation")
  |  |  ------------------
  |  |  |  |  927|  1.03M|#define SCN_ASSERT(cond, msg) assert((cond) && msg)
  |  |  ------------------
  ------------------
 1770|  1.03M|        return this->get_value();
 1771|  1.03M|    }
_ZN3scn2v44scanIJyENSt3__16localeENS0_6ranges6detail9subrange_8subrangeINS2_16__deque_iteratorIcPKcRS9_PKSA_lLl4096EEESE_EEvvEENS0_13scan_expectedINS0_11scan_resultINS2_11conditionalIXsr3stdE9is_same_vIu11__remove_cvIu20__remove_reference_tIT1_EEP8_IO_FILEEESN_NS0_6detail22borrowed_tail_subrangeISJ_Xsr6rangesE14borrowed_rangeISJ_EEE4typeEE4typeEJDpT_EEEEERKT0_OSJ_NS0_24basic_scan_format_stringIcNSO_13type_identityISJ_E4typeEJDpNS13_ISU_E4typeEEEE:
 9443|   174k|{
 9444|   174k|    auto result = make_scan_result<Source, Args...>();
 9445|   174k|    fill_scan_result(result, vscan(loc, SCN_FWD(source), format,
  ------------------
  |  |  936|   174k|#define SCN_FWD(x)          static_cast<decltype(x)&&>(x)
  ------------------
 9446|   174k|                                   make_scan_args(result->values())));
 9447|   174k|    return result;
 9448|   174k|}
_ZN3scn2v410scan_valueIyNS0_6ranges6detail9subrange_8subrangeINSt3__116__deque_iteratorIcPKcRS8_PKS9_lLl4096EEESD_EEvEENS0_13scan_expectedINS0_11scan_resultINS6_11conditionalIXsr3stdE9is_same_vIu11__remove_cvIu20__remove_reference_tIT0_EEP8_IO_FILEEESM_NS0_6detail22borrowed_tail_subrangeISI_Xsr6rangesE14borrowed_rangeISI_EEE4typeEE4typeEJT_EEEEEOSI_:
 9484|  26.5k|{
 9485|  26.5k|    auto result = make_scan_result<Source, T>();
 9486|  26.5k|    fill_scan_result(
 9487|  26.5k|        result, vscan_value(SCN_FWD(source),
  ------------------
  |  |  936|  26.5k|#define SCN_FWD(x)          static_cast<decltype(x)&&>(x)
  ------------------
 9488|  26.5k|                            detail::make_arg<scan_context>(result->value())));
 9489|  26.5k|    return result;
 9490|  26.5k|}
_ZNK3scn2v46ranges6detail6begin_2fnclIRNSt3__117basic_string_viewIwNS6_11char_traitsIwEEEEEEDTclsr2fnE4implscDtfp_Efp_tlNS0_6detail12priority_tagILm3EEEEEEOT_:
 2868|   529k|    {
 2869|   529k|        return fn::impl(SCN_FWD(t), priority_tag<3>{});
  ------------------
  |  |  936|   529k|#define SCN_FWD(x)          static_cast<decltype(x)&&>(x)
  ------------------
 2870|   529k|    }
_ZN3scn2v46ranges6detail6begin_2fn4implIRNSt3__117basic_string_viewIwNS6_11char_traitsIwEEEEEENS6_9enable_ifIX24input_or_output_iteratorIDTcl10decay_copycldtscDtfp_Efp_5beginEEEEESE_E4typeEOT_NS0_6detail12priority_tagILm1EEE:
 2849|   529k|    {
 2850|   529k|        return decay_copy(t.begin());
 2851|   529k|    }
_ZN3scn2v46ranges6detail10decay_copyIPKwEEu7__decayIT_EOS6_:
 2093|  3.36M|{
 2094|  3.36M|    return SCN_FWD(t);
  ------------------
  |  |  936|  3.36M|#define SCN_FWD(x)          static_cast<decltype(x)&&>(x)
  ------------------
 2095|  3.36M|}
_ZNK3scn2v46ranges6detail4end_2fnclIRNSt3__117basic_string_viewIwNS6_11char_traitsIwEEEEEEDTclsr2fnE4implscDtfp_Efp_tlNS0_6detail12priority_tagILm3EEEEEEOT_:
 2925|  1.06M|    {
 2926|  1.06M|        return fn::impl(SCN_FWD(t), priority_tag<3>{});
  ------------------
  |  |  936|  1.06M|#define SCN_FWD(x)          static_cast<decltype(x)&&>(x)
  ------------------
 2927|  1.06M|    }
_ZN3scn2v46ranges6detail4end_2fn4implIRNSt3__117basic_string_viewIwNS6_11char_traitsIwEEEEPKwSD_EENS6_9enable_ifIX12sentinel_forIT0_T1_EEDTcl10decay_copycldtscDtfp_Efp_3endEEEE4typeEOT_NS0_6detail12priority_tagILm1EEE:
 2907|  1.06M|    {
 2908|  1.06M|        return decay_copy(SCN_FWD(t).end());
  ------------------
  |  |  936|  1.06M|#define SCN_FWD(x)          static_cast<decltype(x)&&>(x)
  ------------------
 2909|  1.06M|    }
_ZN3scn2v416make_scan_resultINS0_6ranges6detail9subrange_8subrangeIPKwS7_EEJaEEEDav:
 9330|  88.2k|{
 9331|  88.2k|    return scan_result_type<Source, Args...>();
 9332|  88.2k|}
_ZN3scn2v48expectedINS0_11scan_resultINS0_6ranges6detail9subrange_8subrangeIPKwS8_EEJaEEENS0_10scan_errorEEC2Ev:
 1551|  88.2k|    constexpr expected() = default;
_ZN3scn2v46detail21expected_storage_baseINS0_11scan_resultINS0_6ranges6detail9subrange_8subrangeIPKwS9_EEJaEEENS0_10scan_errorELb1EEC2Ev:
  426|  88.2k|        : m_value(T{}), m_has_value(true)
  427|  88.2k|    {
  428|  88.2k|    }
_ZN3scn2v411scan_resultINS0_6ranges6detail9subrange_8subrangeIPKwS7_EEJaEEC2Ev:
 6264|  88.2k|    constexpr scan_result() = default;
_ZN3scn2v46detail25scan_result_range_storageINS0_6ranges6detail9subrange_8subrangeIPKwS8_EEEC2Ev:
 6107|   529k|    constexpr scan_result_range_storage() = default;
_ZN3scn2v46ranges6detail9subrange_8subrangeIPKwS6_EC2Ev:
 3459|   529k|    subrange() = default;
_ZN3scn2v416fill_scan_resultINS0_11scan_resultINS0_6ranges6detail9subrange_8subrangeIPKwS8_EEJaEEES9_TnPNSt3__19enable_ifIXsr3stdE13conjunction_vINS0_6detail25is_specialization_of_implIu11__remove_cvIu20__remove_reference_tIT_EES2_EENSB_7is_sameINSF_10range_typeET0_EEEEvE4typeELPv0EEEvRNS0_13scan_expectedISF_EEONSR_ISL_EE:
 9315|  88.2k|{
 9316|  88.2k|    if (SCN_UNLIKELY(!in)) {
  ------------------
  |  |  865|  88.2k|#define SCN_UNLIKELY(x) __builtin_expect(!!(x), 0)
  |  |  ------------------
  |  |  |  Branch (865:25): [True: 87.5k, False: 660]
  |  |  ------------------
  ------------------
 9317|  87.5k|        out = unexpected(in.error());
 9318|  87.5k|    }
 9319|    660|    else {
 9320|    660|        out->set_range(SCN_MOVE(*in));
  ------------------
  |  |  934|    660|    static_cast<    \
  |  |  935|    660|        typename ::scn::detail::remove_reference<decltype(x)>::type&&>(x)
  ------------------
 9321|    660|    }
 9322|  88.2k|}
_ZNK3scn2v48expectedINS0_6ranges6detail9subrange_8subrangeIPKwS7_EENS0_10scan_errorEEcvbEv:
 1739|   529k|    {
 1740|   529k|        return has_value();
 1741|   529k|    }
_ZNK3scn2v46detail21expected_storage_baseINS0_6ranges6detail9subrange_8subrangeIPKwS8_EENS0_10scan_errorELb1EE9has_valueEv:
  489|  1.05M|    {
  490|  1.05M|        return m_has_value;
  491|  1.05M|    }
_ZNR3scn2v48expectedINS0_6ranges6detail9subrange_8subrangeIPKwS7_EENS0_10scan_errorEE5errorEv:
 1745|   525k|    {
 1746|   525k|        SCN_EXPECT(!has_value());
  ------------------
  |  |  930|   525k|#define SCN_EXPECT(cond) SCN_ASSERT(cond, "Precondition violation")
  |  |  ------------------
  |  |  |  |  927|   525k|#define SCN_ASSERT(cond, msg) assert((cond) && msg)
  |  |  ------------------
  ------------------
 1747|   525k|        return this->get_unexpected().error();
 1748|   525k|    }
_ZNR3scn2v46detail21expected_storage_baseINS0_6ranges6detail9subrange_8subrangeIPKwS8_EENS0_10scan_errorELb1EE14get_unexpectedEv:
  472|   525k|    {
  473|   525k|        return m_unexpected;
  474|   525k|    }
_ZN3scn2v48expectedINS0_11scan_resultINS0_6ranges6detail9subrange_8subrangeIPKwS8_EEJaEEENS0_10scan_errorEEC2ISB_TnPNSt3__19enable_ifIXsr3stdE18is_constructible_vISB_OT_EEvE4typeELPv0ETnPNSF_IXsr3stdE16is_convertible_vISH_SB_EEvE4typeELSL_0EEEONS0_10unexpectedISG_EE:
 1615|  87.5k|        : base(unexpect, std::move(e.error())),
 1616|  87.5k|          ctor_base(detail::non_default_ctor_tag_t{})
 1617|  87.5k|    {
 1618|  87.5k|    }
_ZN3scn2v46detail21expected_storage_baseINS0_11scan_resultINS0_6ranges6detail9subrange_8subrangeIPKwS9_EEJaEEENS0_10scan_errorELb1EEC2IJSC_EvEENS0_10unexpect_tEDpOT_:
  449|  87.5k|        : m_unexpected(std::in_place, std::forward<Args>(args)...),
  450|  87.5k|          m_has_value(false)
  451|  87.5k|    {
  452|  87.5k|    }
_ZN3scn2v46detail26expected_default_ctor_baseINS0_11scan_resultINS0_6ranges6detail9subrange_8subrangeIPKwS9_EEJaEEENS0_10scan_errorELb1EEC2ENS1_22non_default_ctor_tag_tE:
 1315|  87.5k|    {
 1316|  87.5k|    }
_ZN3scn2v48expectedINS0_11scan_resultINS0_6ranges6detail9subrange_8subrangeIPKwS8_EEJaEEENS0_10scan_errorEEaSEOSC_:
 1556|  87.5k|    constexpr expected& operator=(expected&&) = default;
_ZN3scn2v46detail24expected_operations_baseINS0_11scan_resultINS0_6ranges6detail9subrange_8subrangeIPKwS9_EEJaEEENS0_10scan_errorEvEaSEOSD_:
  902|  87.5k|    {
  903|  87.5k|        assign_common(std::move(other));
  904|  87.5k|        return *this;
  905|  87.5k|    }
_ZN3scn2v46detail24expected_operations_baseINS0_11scan_resultINS0_6ranges6detail9subrange_8subrangeIPKwS9_EEJaEEENS0_10scan_errorEvE13assign_commonISD_EEvOT_:
  949|  87.5k|    {
  950|  87.5k|        if (this->has_value()) {
  ------------------
  |  Branch (950:13): [True: 87.5k, False: 0]
  ------------------
  951|  87.5k|            if (other.has_value()) {
  ------------------
  |  Branch (951:17): [True: 0, False: 87.5k]
  ------------------
  952|      0|                return reassign_value(std::forward<Other>(other));
  953|      0|            }
  954|  87.5k|            return assign_unexpected_over_value(std::forward<Other>(other));
  955|  87.5k|        }
  956|       |
  957|      0|        if (other.has_value()) {
  ------------------
  |  Branch (957:13): [True: 0, False: 0]
  ------------------
  958|      0|            return assign_value_over_unexpected(std::forward<Other>(other));
  959|      0|        }
  960|      0|        return reassign_unexpected(std::forward<Other>(other));
  961|      0|    }
_ZNK3scn2v46detail21expected_storage_baseINS0_11scan_resultINS0_6ranges6detail9subrange_8subrangeIPKwS9_EEJaEEENS0_10scan_errorELb1EE9has_valueEv:
  489|   352k|    {
  490|   352k|        return m_has_value;
  491|   352k|    }
_ZNR3scn2v46detail21expected_storage_baseINS0_11scan_resultINS0_6ranges6detail9subrange_8subrangeIPKwS9_EEJaEEENS0_10scan_errorELb1EE9get_valueEv:
  455|  89.5k|    {
  456|  89.5k|        return m_value;
  457|  89.5k|    }
_ZN3scn2v46detail24expected_operations_baseINS0_11scan_resultINS0_6ranges6detail9subrange_8subrangeIPKwS9_EEJaEEENS0_10scan_errorEvE28assign_unexpected_over_valueISD_EEvOT_:
 1045|  87.5k|    {
 1046|  87.5k|        this->destroy_value();
 1047|  87.5k|        this->construct_unexpected(std::forward<Other>(other).get_unexpected());
 1048|  87.5k|    }
_ZN3scn2v46detail21expected_storage_baseINS0_11scan_resultINS0_6ranges6detail9subrange_8subrangeIPKwS9_EEJaEEENS0_10scan_errorELb1EE13destroy_valueEv:
  510|  87.5k|    static constexpr void destroy_value() noexcept {}
_ZN3scn2v46detail21expected_storage_baseINS0_11scan_resultINS0_6ranges6detail9subrange_8subrangeIPKwS9_EEJaEEENS0_10scan_errorELb1EE20construct_unexpectedIJNS0_10unexpectedISC_EEEEEvDpOT_:
  503|  87.5k|    {
  504|  87.5k|        scn::detail::construct_at(&get_unexpected(),
  505|  87.5k|                                  std::forward<Args>(args)...);
  506|  87.5k|        m_has_value = false;
  507|  87.5k|    }
_ZNR3scn2v46detail21expected_storage_baseINS0_11scan_resultINS0_6ranges6detail9subrange_8subrangeIPKwS9_EEJaEEENS0_10scan_errorELb1EE14get_unexpectedEv:
  472|  87.5k|    {
  473|  87.5k|        return m_unexpected;
  474|  87.5k|    }
_ZNO3scn2v46detail21expected_storage_baseINS0_11scan_resultINS0_6ranges6detail9subrange_8subrangeIPKwS9_EEJaEEENS0_10scan_errorELb1EE14get_unexpectedEv:
  480|  87.5k|    {
  481|  87.5k|        return std::move(m_unexpected);
  482|  87.5k|    }
_ZN3scn2v46detail25scan_result_range_storageINS0_6ranges6detail9subrange_8subrangeIPKwS8_EEE9set_rangeIS9_EEvOT_:
 6138|  4.31k|    {
 6139|  4.31k|        m_range = std::forward<Other>(r);
 6140|  4.31k|    }
_ZNR3scn2v48expectedINS0_6ranges6detail9subrange_8subrangeIPKwS7_EENS0_10scan_errorEEdeIS8_TnPNSt3__19enable_ifIXntsr3stdE9is_void_vIT_EEvE4typeELPv0EEERSE_v:
 1794|  4.31k|    {
 1795|  4.31k|        return value();
 1796|  4.31k|    }
_ZNR3scn2v48expectedINS0_6ranges6detail9subrange_8subrangeIPKwS7_EENS0_10scan_errorEE5valueIS8_TnPNSt3__19enable_ifIXntsr3stdE9is_void_vIT_EEvE4typeELPv0EEERSE_v:
 1768|  4.31k|    {
 1769|  4.31k|        SCN_EXPECT(has_value());
  ------------------
  |  |  930|  4.31k|#define SCN_EXPECT(cond) SCN_ASSERT(cond, "Precondition violation")
  |  |  ------------------
  |  |  |  |  927|  4.31k|#define SCN_ASSERT(cond, msg) assert((cond) && msg)
  |  |  ------------------
  ------------------
 1770|  4.31k|        return this->get_value();
 1771|  4.31k|    }
_ZNR3scn2v46detail21expected_storage_baseINS0_6ranges6detail9subrange_8subrangeIPKwS8_EENS0_10scan_errorELb1EE9get_valueEv:
  455|  4.31k|    {
  456|  4.31k|        return m_value;
  457|  4.31k|    }
_ZN3scn2v46detail13vscan_genericINS0_6ranges6detail9subrange_8subrangeIPKwS8_EEwEENS0_13scan_expectedINSt3__111conditionalIXsr3stdE9is_same_vIu11__remove_cvIu20__remove_reference_tIT_EEP8_IO_FILEEESH_NS1_22borrowed_tail_subrangeISD_Xsr6rangesE14borrowed_rangeISD_EEE4typeEE4typeEEEOSD_NSB_17basic_string_viewIT0_NSB_11char_traitsISQ_EEEENS0_15basic_scan_argsINS0_18basic_scan_contextINS1_16buffer_range_tagESQ_EEEE:
 9091|   252k|{
 9092|   252k|    auto buffer = make_scan_buffer(range);
 9093|       |
 9094|   252k|    auto result = vscan_impl(buffer, format, args);
 9095|   252k|    if (SCN_UNLIKELY(!result)) {
  ------------------
  |  |  865|   252k|#define SCN_UNLIKELY(x) __builtin_expect(!!(x), 0)
  |  |  ------------------
  |  |  |  Branch (865:25): [True: 250k, False: 1.99k]
  |  |  ------------------
  ------------------
 9096|   250k|        return unexpected(result.error());
 9097|   250k|    }
 9098|  1.99k|    return make_vscan_result_range(SCN_FWD(range), *result);
  ------------------
  |  |  936|  1.99k|#define SCN_FWD(x)          static_cast<decltype(x)&&>(x)
  ------------------
 9099|   252k|}
_ZN3scn2v46detail16make_scan_bufferINS0_6ranges6detail9subrange_8subrangeIPKwS8_EEEEDaRKT_:
 5074|   529k|{
 5075|   529k|    using T = decltype(_make_scan_buffer::impl(range, priority_tag<4>{}));
 5076|       |
 5077|   529k|    static_assert(!std::is_same_v<T, invalid_char_type>,
 5078|   529k|                  "\n"
 5079|   529k|                  "Unsupported range type given as input to a scanning "
 5080|   529k|                  "function.\n"
 5081|   529k|                  "A range needs to have a character type (value type) "
 5082|   529k|                  "of either `char` or `wchar_t` to be scannable.\n"
 5083|   529k|                  "For proper `wchar_t` support, <scn/xchar.h> needs "
 5084|   529k|                  "to be included.\n"
 5085|   529k|                  "See the scnlib documentation for more details.");
 5086|   529k|    static_assert(
 5087|   529k|        !std::is_same_v<T, custom_char_traits>,
 5088|   529k|        "\n"
 5089|   529k|        "Unsupported range type given as input to a scanning "
 5090|   529k|        "function.\n"
 5091|   529k|        "String types (std::basic_string, and std::basic_string_view) "
 5092|   529k|        "need to use std::char_traits. Strings with custom Traits are "
 5093|   529k|        "not supported.");
 5094|   529k|    static_assert(!std::is_same_v<T, file_marker_found>,
 5095|   529k|                  "\n"
 5096|   529k|                  "Unsupported range type given as input to a scanning "
 5097|   529k|                  "function.\n"
 5098|   529k|                  "file_marker_found cannot be used as an "
 5099|   529k|                  "source range type to scn::scan.\n"
 5100|   529k|                  "To read from stdin, use scn::input or scn::prompt, "
 5101|   529k|                  "and do not provide an explicit source range, "
 5102|   529k|                  "or use scn::scan with a FILE* directly.");
 5103|   529k|    static_assert(!std::is_same_v<T, insufficient_range>,
 5104|   529k|                  "\n"
 5105|   529k|                  "Unsupported range type given as input to a scanning "
 5106|   529k|                  "function.\n"
 5107|   529k|                  "In order to be scannable, a range needs to satisfy "
 5108|   529k|                  "`forward_range`. `input_range` is not sufficient.");
 5109|   529k|    static_assert(!std::is_same_v<T, invalid_input_range>,
 5110|   529k|                  "\n"
 5111|   529k|                  "Unsupported range type given as input to a scanning "
 5112|   529k|                  "function.\n"
 5113|   529k|                  "A range needs to model forward_range and have a valid "
 5114|   529k|                  "character type (char or wchar_t) to be scannable.\n"
 5115|   529k|                  "Examples of scannable ranges are std::string, "
 5116|   529k|                  "std::string_view, "
 5117|   529k|                  "std::vector<char>, and scn::istreambuf_view.\n"
 5118|   529k|                  "See the scnlib documentation for more details.");
 5119|       |
 5120|   529k|    return _make_scan_buffer::impl(range, priority_tag<4>{});
 5121|   529k|}
_ZN3scn2v46detail17_make_scan_buffer4implINS0_6ranges6detail9subrange_8subrangeIPKwS9_EETnPNSt3__19enable_ifIXaasr6rangesE16contiguous_rangeIT_Esr6rangesE11sized_rangeISD_EEvE4typeELPv0EEEDaRKSD_NS1_12priority_tagILm2EEE:
 5013|   529k|{
 5014|   529k|    if constexpr (is_valid_char_type<detail::char_t<Range>>) {
 5015|   529k|        return std::basic_string_view{ranges::data(r), ranges::size(r)};
 5016|       |    }
 5017|       |    else {
 5018|       |        return invalid_char_type{};
 5019|       |    }
 5020|   529k|}
_ZNK3scn2v46ranges6detail5data_2fnclIRKNS2_9subrange_8subrangeIPKwS9_EEEEDTclsr2fnE4implscDtfp_Efp_tlNS0_6detail12priority_tagILm1EEEEEEOT_:
 2999|   529k|    {
 3000|   529k|        return fn::impl(SCN_FWD(t), priority_tag<1>{});
  ------------------
  |  |  936|   529k|#define SCN_FWD(x)          static_cast<decltype(x)&&>(x)
  ------------------
 3001|   529k|    }
_ZN3scn2v46ranges6detail5data_2fn4implIKNS2_9subrange_8subrangeIPKwS9_EES9_EENSt3__19enable_ifIX19is_object_pointer_vIT0_EESE_E4typeERT_NS0_6detail12priority_tagILm1EEE:
 2980|   529k|    {
 2981|   529k|        return t.data();
 2982|   529k|    }
_ZNK3scn2v46ranges14view_interfaceINS1_6detail9subrange_8subrangeIPKwS7_EEE4dataIS8_vEEDav:
 3382|   529k|    {
 3383|   529k|        return detail::to_address(ranges::begin(derived()));
 3384|   529k|    }
_ZN3scn2v46detail10to_addressIPKwEEDTclgssr3scn6detailE15to_address_implscDtfp_Efp_tlNS1_12priority_tagILm2EEEEEEOT_:
  315|  1.77M|{
  316|  1.77M|    return ::scn::detail::to_address_impl(SCN_FWD(p), priority_tag<2>{});
  ------------------
  |  |  936|  1.77M|#define SCN_FWD(x)          static_cast<decltype(x)&&>(x)
  ------------------
  317|  1.77M|}
_ZN3scn2v46detail15to_address_implIKwEEPT_S5_NS1_12priority_tagILm2EEE:
  293|  1.77M|{
  294|  1.77M|    return p;
  295|  1.77M|}
_ZNK3scn2v46ranges6detail6begin_2fnclIRKNS2_9subrange_8subrangeIPKwS9_EEEEDTclsr2fnE4implscDtfp_Efp_tlNS0_6detail12priority_tagILm3EEEEEEOT_:
 2868|   534k|    {
 2869|   534k|        return fn::impl(SCN_FWD(t), priority_tag<3>{});
  ------------------
  |  |  936|   534k|#define SCN_FWD(x)          static_cast<decltype(x)&&>(x)
  ------------------
 2870|   534k|    }
_ZN3scn2v46ranges6detail6begin_2fn4implIRKNS2_9subrange_8subrangeIPKwS9_EEEENSt3__19enable_ifIX24input_or_output_iteratorIDTcl10decay_copycldtscDtfp_Efp_5beginEEEEESG_E4typeEOT_NS0_6detail12priority_tagILm1EEE:
 2849|   534k|    {
 2850|   534k|        return decay_copy(t.begin());
 2851|   534k|    }
_ZNK3scn2v46ranges6detail9subrange_8subrangeIPKwS6_E5beginEv:
 3479|   110M|    {
 3480|   110M|        return m_iterator;
 3481|   110M|    }
_ZNK3scn2v46ranges14view_interfaceINS1_6detail9subrange_8subrangeIPKwS7_EEE7derivedEv:
 3338|   529k|    {
 3339|   529k|        return static_cast<const D&>(*this);
 3340|   529k|    }
_ZNK3scn2v46ranges6detail5size_2fnclIRKNS2_9subrange_8subrangeIPKwS9_EEEEDTclsr2fnE4implclsr3stdE7forwardIT_Efp_EtlNS0_6detail12priority_tagILm3EEEEEEOSD_:
 3074|   529k|    {
 3075|   529k|        return fn::impl(std::forward<T>(t), priority_tag<3>{});
 3076|   529k|    }
_ZN3scn2v46ranges6detail5size_2fn4implIRKNS2_9subrange_8subrangeIPKwS9_EEmEENSt3__19enable_ifIXaasr3stdE13is_integral_vIT0_Ent19disable_sized_rangeIu11__remove_cvIu20__remove_reference_tIT_EEEESF_E4typeEOSG_NS0_6detail12priority_tagILm2EEE:
 3040|   529k|    {
 3041|   529k|        return decay_copy(SCN_FWD(t).size());
  ------------------
  |  |  936|   529k|#define SCN_FWD(x)          static_cast<decltype(x)&&>(x)
  ------------------
 3042|   529k|    }
_ZNK3scn2v46ranges6detail9subrange_8subrangeIPKwS6_E4sizeIS6_TnPNSt3__19enable_ifIX18sized_sentinel_forIS6_T_EEvE4typeELPv0EEEmv:
 3495|  1.61M|    {
 3496|  1.61M|        return static_cast<size_t>(m_sentinel - m_iterator);
 3497|  1.61M|    }
_ZN3scn2v48expectedINS0_6ranges6detail9subrange_8subrangeIPKwS7_EENS0_10scan_errorEEC2IS9_TnPNSt3__19enable_ifIXsr3stdE18is_constructible_vIS9_OT_EEvE4typeELPv0ETnPNSD_IXsr3stdE16is_convertible_vISF_S9_EEvE4typeELSJ_0EEEONS0_10unexpectedISE_EE:
 1615|   525k|        : base(unexpect, std::move(e.error())),
 1616|   525k|          ctor_base(detail::non_default_ctor_tag_t{})
 1617|   525k|    {
 1618|   525k|    }
_ZN3scn2v46detail21expected_storage_baseINS0_6ranges6detail9subrange_8subrangeIPKwS8_EENS0_10scan_errorELb1EEC2IJSA_EvEENS0_10unexpect_tEDpOT_:
  449|   525k|        : m_unexpected(std::in_place, std::forward<Args>(args)...),
  450|   525k|          m_has_value(false)
  451|   525k|    {
  452|   525k|    }
_ZN3scn2v46detail26expected_default_ctor_baseINS0_6ranges6detail9subrange_8subrangeIPKwS8_EENS0_10scan_errorELb1EEC2ENS1_22non_default_ctor_tag_tE:
 1315|   529k|    {
 1316|   529k|    }
_ZN3scn2v46detail23make_vscan_result_rangeINS0_6ranges6detail9subrange_8subrangeIPKwS8_EEEENS1_22borrowed_tail_subrangeIT_Xsr6rangesE14borrowed_rangeISB_EEE4typeEOSB_l:
 6368|  4.31k|{
 6369|       |    if constexpr (ranges::random_access_iterator<
 6370|  4.31k|                      ranges::iterator_t<SourceRange>>) {
 6371|  4.31k|        return {ranges::begin(source) + n, make_vscan_result_range_end(source)};
 6372|       |    }
 6373|       |    else {
 6374|       |        auto it = ranges::begin(source);
 6375|       |        while (n > 0) {
 6376|       |            --n;
 6377|       |            ++it;
 6378|       |        }
 6379|       |        return {SCN_MOVE(it), make_vscan_result_range_end(source)};
 6380|       |    }
 6381|  4.31k|}
_ZNK3scn2v46ranges6detail6begin_2fnclIRNS2_9subrange_8subrangeIPKwS9_EEEEDTclsr2fnE4implscDtfp_Efp_tlNS0_6detail12priority_tagILm3EEEEEEOT_:
 2868|  1.23M|    {
 2869|  1.23M|        return fn::impl(SCN_FWD(t), priority_tag<3>{});
  ------------------
  |  |  936|  1.23M|#define SCN_FWD(x)          static_cast<decltype(x)&&>(x)
  ------------------
 2870|  1.23M|    }
_ZN3scn2v46ranges6detail6begin_2fn4implIRNS2_9subrange_8subrangeIPKwS9_EEEENSt3__19enable_ifIX24input_or_output_iteratorIDTcl10decay_copycldtscDtfp_Efp_5beginEEEEESF_E4typeEOT_NS0_6detail12priority_tagILm1EEE:
 2849|  1.23M|    {
 2850|  1.23M|        return decay_copy(t.begin());
 2851|  1.23M|    }
_ZN3scn2v46detail27make_vscan_result_range_endINS0_6ranges6detail9subrange_8subrangeIPKwS8_EEEEDaRT_:
 6355|  4.31k|{
 6356|  4.31k|    return ranges::end(source);
 6357|  4.31k|}
_ZNK3scn2v46ranges6detail4end_2fnclIRNS2_9subrange_8subrangeIPKwS9_EEEEDTclsr2fnE4implscDtfp_Efp_tlNS0_6detail12priority_tagILm3EEEEEEOT_:
 2925|  4.31k|    {
 2926|  4.31k|        return fn::impl(SCN_FWD(t), priority_tag<3>{});
  ------------------
  |  |  936|  4.31k|#define SCN_FWD(x)          static_cast<decltype(x)&&>(x)
  ------------------
 2927|  4.31k|    }
_ZN3scn2v46ranges6detail4end_2fn4implIRNS2_9subrange_8subrangeIPKwS9_EES9_S9_EENSt3__19enable_ifIX12sentinel_forIT0_T1_EEDTcl10decay_copycldtscDtfp_Efp_3endEEEE4typeEOT_NS0_6detail12priority_tagILm1EEE:
 2907|  4.31k|    {
 2908|  4.31k|        return decay_copy(SCN_FWD(t).end());
  ------------------
  |  |  936|  4.31k|#define SCN_FWD(x)          static_cast<decltype(x)&&>(x)
  ------------------
 2909|  4.31k|    }
_ZNK3scn2v46ranges6detail9subrange_8subrangeIPKwS6_E3endEv:
 3483|   107M|    {
 3484|   107M|        return m_sentinel;
 3485|   107M|    }
_ZN3scn2v48expectedINS0_6ranges6detail9subrange_8subrangeIPKwS7_EENS0_10scan_errorEEC2IS8_vEEOT_:
 1569|  4.31k|        : base(std::in_place, std::forward<U>(val)),
 1570|  4.31k|          ctor_base(detail::non_default_ctor_tag_t{})
 1571|  4.31k|    {
 1572|  4.31k|    }
_ZN3scn2v46detail21expected_storage_baseINS0_6ranges6detail9subrange_8subrangeIPKwS8_EENS0_10scan_errorELb1EEC2IJS9_EvEENSt3__110in_place_tEDpOT_:
  440|  4.31k|        : m_value(std::forward<Args>(args)...), m_has_value(true)
  441|  4.31k|    {
  442|  4.31k|    }
_ZNK3scn2v424basic_scan_format_stringIwNS0_6ranges6detail9subrange_8subrangeIPKwS7_EEJaEEcvNSt3__117basic_string_viewIwNSA_11char_traitsIwEEEEEv:
 8461|  84.0k|    {
 8462|  84.0k|        return m_str;
 8463|  84.0k|    }
_ZN3scn2v414make_scan_argsINS0_18basic_scan_contextINS0_6detail16buffer_range_tagEwEEJaEEEDaRNSt3__15tupleIJDpT0_EEE:
 5803|   168k|{
 5804|   168k|    detail::check_scan_arg_types<Args...>();
 5805|   168k|    return detail::scan_arg_store<Context, Args...>(values);
 5806|   168k|}
_ZN3scn2v46detail14scan_arg_storeINS0_18basic_scan_contextINS1_16buffer_range_tagEwEEJaEEC2ERNSt3__15tupleIJaEEE:
 5779|   168k|        : args(std::apply(make_argptrs<Args...>, args))
 5780|   168k|    {
 5781|   168k|    }
_ZN3scn2v46detail14scan_arg_storeINS0_18basic_scan_contextINS1_16buffer_range_tagEwEEJaEE12make_argptrsIJaEEENSt3__15arrayIPvLm1EEEDpRT_:
 5788|   168k|    {
 5789|   168k|        return {detail::make_arg<
 5790|   168k|            kind, Context,
 5791|   168k|            mapped_type_constant<remove_cvref_t<A>,
 5792|   168k|                                 typename Context::char_type>::value>(args)...};
 5793|   168k|    }
_ZN3scn2v46detail8make_argILNS1_19scan_arg_store_kindE0ENS0_18basic_scan_contextINS1_16buffer_range_tagEwEELNS1_8arg_typeE1EavEEPvRT2_:
 5568|   168k|{
 5569|   168k|    return make_value<Context>(value).ref_value;
 5570|   168k|}
_ZN3scn2v46detail10make_valueINS0_18basic_scan_contextINS1_16buffer_range_tagEwEEaEEDaRT0_:
 5503|   176k|{
 5504|   176k|    auto&& arg = arg_mapper<typename Context::char_type>().map(value);
 5505|       |
 5506|       |    if constexpr (!std::is_same_v<remove_cvref_t<decltype(arg)>,
 5507|   176k|                                  needs_context_tag>) {
 5508|   176k|        return make_value_impl<T>(SCN_FWD(arg));
  ------------------
  |  |  936|   176k|#define SCN_FWD(x)          static_cast<decltype(x)&&>(x)
  ------------------
 5509|       |    }
 5510|       |    else {
 5511|       |        return make_value_impl<T>(arg_mapper<typename Context::char_type>().map(
 5512|       |            value, context_tag<Context>{}));
 5513|       |    }
 5514|   176k|}
_ZN3scn2v46detail10arg_mapperIwE3mapERa:
 5342|   176k|    {                                                                        \
 5343|   176k|        return val;                                                          \
 5344|   176k|    }
_ZN3scn2v415basic_scan_argsINS0_18basic_scan_contextINS0_6detail16buffer_range_tagEwEEEC2IJaEEERKNS3_14scan_arg_storeIS5_JDpT_EEE:
 5829|   168k|        : basic_scan_args(store.desc, store.args.data())
 5830|   168k|    {
 5831|   168k|    }
_ZN3scn2v415basic_scan_argsINS0_18basic_scan_contextINS0_6detail16buffer_range_tagEwEEEC2EmPKPv:
 5881|  1.00M|        : m_desc(desc), m_builtin_values(data)
 5882|  1.00M|    {
 5883|  1.00M|    }
_ZN3scn2v46ranges6detail9subrange_8subrangeIPKwS6_EC2IS6_TnPNSt3__19enable_ifIXsr3stdE16is_convertible_vIT_S6_EEvE4typeELPv0EEESB_S6_:
 3464|  4.03M|        : m_iterator(SCN_MOVE(i)), m_sentinel(SCN_MOVE(s))
  ------------------
  |  |  934|  4.03M|    static_cast<    \
  |  |  935|  4.03M|        typename ::scn::detail::remove_reference<decltype(x)>::type&&>(x)
  ------------------
                      : m_iterator(SCN_MOVE(i)), m_sentinel(SCN_MOVE(s))
  ------------------
  |  |  934|  4.03M|    static_cast<    \
  |  |  935|  4.03M|        typename ::scn::detail::remove_reference<decltype(x)>::type&&>(x)
  ------------------
 3465|  4.03M|    {
 3466|  4.03M|    }
_ZN3scn2v414runtime_formatENSt3__117basic_string_viewIwNS1_11char_traitsIwEEEE:
 8139|  1.00M|{
 8140|  1.00M|    return s;
 8141|  1.00M|}
_ZN3scn2v46detail27basic_runtime_format_stringIwEC2ENSt3__117basic_string_viewIwNS4_11char_traitsIwEEEE:
 8111|  1.00M|    basic_runtime_format_string(std::basic_string_view<CharT> s) : str(s) {}
_ZN3scn2v424basic_scan_format_stringIwNS0_6ranges6detail9subrange_8subrangeIPKwS7_EEJaEEC2ENS0_6detail27basic_runtime_format_stringIwEE:
 8456|  84.0k|        : m_str(r.str)
 8457|  84.0k|    {
 8458|  84.0k|    }
_ZNK3scn2v48expectedINS0_11scan_resultINS0_6ranges6detail9subrange_8subrangeIPKwS8_EEJaEEENS0_10scan_errorEEcvbEv:
 1739|  88.2k|    {
 1740|  88.2k|        return has_value();
 1741|  88.2k|    }
_ZN3scn2v48expectedINS0_11scan_resultINS0_6ranges6detail9subrange_8subrangeIPKwS8_EEJaEEENS0_10scan_errorEEptEv:
 1814|  89.5k|    {
 1815|  89.5k|        return &value();
 1816|  89.5k|    }
_ZNR3scn2v48expectedINS0_11scan_resultINS0_6ranges6detail9subrange_8subrangeIPKwS8_EEJaEEENS0_10scan_errorEE5valueISA_TnPNSt3__19enable_ifIXntsr3stdE9is_void_vIT_EEvE4typeELPv0EEERSG_v:
 1768|  89.5k|    {
 1769|  89.5k|        SCN_EXPECT(has_value());
  ------------------
  |  |  930|  89.5k|#define SCN_EXPECT(cond) SCN_ASSERT(cond, "Precondition violation")
  |  |  ------------------
  |  |  |  |  927|  89.5k|#define SCN_ASSERT(cond, msg) assert((cond) && msg)
  |  |  ------------------
  ------------------
 1770|  89.5k|        return this->get_value();
 1771|  89.5k|    }
_ZNK3scn2v46detail25scan_result_range_storageINS0_6ranges6detail9subrange_8subrangeIPKwS8_EEE5beginEv:
 6127|  4.31k|    {
 6128|  4.31k|        return ranges::begin(m_range);
 6129|  4.31k|    }
_ZN3scn2v46detail23vscan_localized_genericINSt3__16localeENS0_6ranges6detail9subrange_8subrangeIPKwSA_EEwEENS0_13scan_expectedINS3_11conditionalIXsr3stdE9is_same_vIu11__remove_cvIu20__remove_reference_tIT0_EEP8_IO_FILEEESI_NS1_22borrowed_tail_subrangeISE_Xsr6rangesE14borrowed_rangeISE_EEE4typeEE4typeEEERKT_OSE_NS3_17basic_string_viewIT1_NS3_11char_traitsISU_EEEENS0_15basic_scan_argsINS0_18basic_scan_contextINS1_16buffer_range_tagESU_EEEE:
 9107|   252k|{
 9108|   252k|#if !SCN_DISABLE_LOCALE
 9109|   252k|    auto buffer = detail::make_scan_buffer(range);
 9110|       |
 9111|   252k|    SCN_CLANG_PUSH_IGNORE_UNDEFINED_TEMPLATE
 9112|   252k|    auto result = detail::vscan_localized_impl(loc, buffer, format, args);
 9113|   252k|    SCN_CLANG_POP_IGNORE_UNDEFINED_TEMPLATE
 9114|       |
 9115|   252k|    if (SCN_UNLIKELY(!result)) {
  ------------------
  |  |  865|   252k|#define SCN_UNLIKELY(x) __builtin_expect(!!(x), 0)
  |  |  ------------------
  |  |  |  Branch (865:25): [True: 250k, False: 1.99k]
  |  |  ------------------
  ------------------
 9116|   250k|        return unexpected(result.error());
 9117|   250k|    }
 9118|  1.99k|    return detail::make_vscan_result_range(SCN_FWD(range), *result);
  ------------------
  |  |  936|  1.99k|#define SCN_FWD(x)          static_cast<decltype(x)&&>(x)
  ------------------
 9119|       |#else
 9120|       |    static_assert(dependent_false<Locale>::value,
 9121|       |                  "Can't use scan(locale, ...) with SCN_DISABLE_LOCALE on");
 9122|       |
 9123|       |    return {};
 9124|       |#endif
 9125|   252k|}
_ZN3scn2v46detail19vscan_value_genericINS0_6ranges6detail9subrange_8subrangeIPKwS8_EEwEENS0_13scan_expectedINSt3__111conditionalIXsr3stdE9is_same_vIu11__remove_cvIu20__remove_reference_tIT_EEP8_IO_FILEEESH_NS1_22borrowed_tail_subrangeISD_Xsr6rangesE14borrowed_rangeISD_EEE4typeEE4typeEEEOSD_NS0_14basic_scan_argINS0_18basic_scan_contextINS1_16buffer_range_tagET0_EEEE:
 9131|  25.3k|{
 9132|  25.3k|    auto buffer = detail::make_scan_buffer(range);
 9133|       |
 9134|  25.3k|    auto result = detail::vscan_value_impl(buffer, arg);
 9135|  25.3k|    if (SCN_UNLIKELY(!result)) {
  ------------------
  |  |  865|  25.3k|#define SCN_UNLIKELY(x) __builtin_expect(!!(x), 0)
  |  |  ------------------
  |  |  |  Branch (865:25): [True: 25.0k, False: 320]
  |  |  ------------------
  ------------------
 9136|  25.0k|        return unexpected(result.error());
 9137|  25.0k|    }
 9138|    320|    return detail::make_vscan_result_range(SCN_FWD(range), *result);
  ------------------
  |  |  936|    320|#define SCN_FWD(x)          static_cast<decltype(x)&&>(x)
  ------------------
 9139|  25.3k|}
_ZN3scn2v46detail8make_argINS0_18basic_scan_contextINS1_16buffer_range_tagEwEEaEENS0_14basic_scan_argIT_EERT0_:
 5553|  8.43k|{
 5554|  8.43k|    check_scan_arg_types<T>();
 5555|       |
 5556|  8.43k|    basic_scan_arg<Context> arg;
 5557|  8.43k|    arg.m_type = mapped_type_constant<T, typename Context::char_type>::value;
 5558|  8.43k|    arg.m_value = make_value<Context>(value);
 5559|  8.43k|    return arg;
 5560|  8.43k|}
_ZN3scn2v414basic_scan_argINS0_18basic_scan_contextINS0_6detail16buffer_range_tagEwEEEC2Ev:
 5648|  1.05M|    constexpr basic_scan_arg() = default;
_ZN3scn2v416make_scan_resultINS0_6ranges6detail9subrange_8subrangeIPKwS7_EEJhEEEDav:
 9330|  88.1k|{
 9331|  88.1k|    return scan_result_type<Source, Args...>();
 9332|  88.1k|}
_ZN3scn2v48expectedINS0_11scan_resultINS0_6ranges6detail9subrange_8subrangeIPKwS8_EEJhEEENS0_10scan_errorEEC2Ev:
 1551|  88.1k|    constexpr expected() = default;
_ZN3scn2v46detail21expected_storage_baseINS0_11scan_resultINS0_6ranges6detail9subrange_8subrangeIPKwS9_EEJhEEENS0_10scan_errorELb1EEC2Ev:
  426|  88.1k|        : m_value(T{}), m_has_value(true)
  427|  88.1k|    {
  428|  88.1k|    }
_ZN3scn2v411scan_resultINS0_6ranges6detail9subrange_8subrangeIPKwS7_EEJhEEC2Ev:
 6264|  88.1k|    constexpr scan_result() = default;
_ZN3scn2v416fill_scan_resultINS0_11scan_resultINS0_6ranges6detail9subrange_8subrangeIPKwS8_EEJhEEES9_TnPNSt3__19enable_ifIXsr3stdE13conjunction_vINS0_6detail25is_specialization_of_implIu11__remove_cvIu20__remove_reference_tIT_EES2_EENSB_7is_sameINSF_10range_typeET0_EEEEvE4typeELPv0EEEvRNS0_13scan_expectedISF_EEONSR_ISL_EE:
 9315|  88.1k|{
 9316|  88.1k|    if (SCN_UNLIKELY(!in)) {
  ------------------
  |  |  865|  88.1k|#define SCN_UNLIKELY(x) __builtin_expect(!!(x), 0)
  |  |  ------------------
  |  |  |  Branch (865:25): [True: 87.5k, False: 563]
  |  |  ------------------
  ------------------
 9317|  87.5k|        out = unexpected(in.error());
 9318|  87.5k|    }
 9319|    563|    else {
 9320|    563|        out->set_range(SCN_MOVE(*in));
  ------------------
  |  |  934|    563|    static_cast<    \
  |  |  935|    563|        typename ::scn::detail::remove_reference<decltype(x)>::type&&>(x)
  ------------------
 9321|    563|    }
 9322|  88.1k|}
_ZN3scn2v48expectedINS0_11scan_resultINS0_6ranges6detail9subrange_8subrangeIPKwS8_EEJhEEENS0_10scan_errorEEC2ISB_TnPNSt3__19enable_ifIXsr3stdE18is_constructible_vISB_OT_EEvE4typeELPv0ETnPNSF_IXsr3stdE16is_convertible_vISH_SB_EEvE4typeELSL_0EEEONS0_10unexpectedISG_EE:
 1615|  87.5k|        : base(unexpect, std::move(e.error())),
 1616|  87.5k|          ctor_base(detail::non_default_ctor_tag_t{})
 1617|  87.5k|    {
 1618|  87.5k|    }
_ZN3scn2v46detail21expected_storage_baseINS0_11scan_resultINS0_6ranges6detail9subrange_8subrangeIPKwS9_EEJhEEENS0_10scan_errorELb1EEC2IJSC_EvEENS0_10unexpect_tEDpOT_:
  449|  87.5k|        : m_unexpected(std::in_place, std::forward<Args>(args)...),
  450|  87.5k|          m_has_value(false)
  451|  87.5k|    {
  452|  87.5k|    }
_ZN3scn2v46detail26expected_default_ctor_baseINS0_11scan_resultINS0_6ranges6detail9subrange_8subrangeIPKwS9_EEJhEEENS0_10scan_errorELb1EEC2ENS1_22non_default_ctor_tag_tE:
 1315|  87.5k|    {
 1316|  87.5k|    }
_ZN3scn2v48expectedINS0_11scan_resultINS0_6ranges6detail9subrange_8subrangeIPKwS8_EEJhEEENS0_10scan_errorEEaSEOSC_:
 1556|  87.5k|    constexpr expected& operator=(expected&&) = default;
_ZN3scn2v46detail24expected_operations_baseINS0_11scan_resultINS0_6ranges6detail9subrange_8subrangeIPKwS9_EEJhEEENS0_10scan_errorEvEaSEOSD_:
  902|  87.5k|    {
  903|  87.5k|        assign_common(std::move(other));
  904|  87.5k|        return *this;
  905|  87.5k|    }
_ZN3scn2v46detail24expected_operations_baseINS0_11scan_resultINS0_6ranges6detail9subrange_8subrangeIPKwS9_EEJhEEENS0_10scan_errorEvE13assign_commonISD_EEvOT_:
  949|  87.5k|    {
  950|  87.5k|        if (this->has_value()) {
  ------------------
  |  Branch (950:13): [True: 87.5k, False: 0]
  ------------------
  951|  87.5k|            if (other.has_value()) {
  ------------------
  |  Branch (951:17): [True: 0, False: 87.5k]
  ------------------
  952|      0|                return reassign_value(std::forward<Other>(other));
  953|      0|            }
  954|  87.5k|            return assign_unexpected_over_value(std::forward<Other>(other));
  955|  87.5k|        }
  956|       |
  957|      0|        if (other.has_value()) {
  ------------------
  |  Branch (957:13): [True: 0, False: 0]
  ------------------
  958|      0|            return assign_value_over_unexpected(std::forward<Other>(other));
  959|      0|        }
  960|      0|        return reassign_unexpected(std::forward<Other>(other));
  961|      0|    }
_ZNK3scn2v46detail21expected_storage_baseINS0_11scan_resultINS0_6ranges6detail9subrange_8subrangeIPKwS9_EEJhEEENS0_10scan_errorELb1EE9has_valueEv:
  489|   352k|    {
  490|   352k|        return m_has_value;
  491|   352k|    }
_ZNR3scn2v46detail21expected_storage_baseINS0_11scan_resultINS0_6ranges6detail9subrange_8subrangeIPKwS9_EEJhEEENS0_10scan_errorELb1EE9get_valueEv:
  455|  89.2k|    {
  456|  89.2k|        return m_value;
  457|  89.2k|    }
_ZN3scn2v46detail24expected_operations_baseINS0_11scan_resultINS0_6ranges6detail9subrange_8subrangeIPKwS9_EEJhEEENS0_10scan_errorEvE28assign_unexpected_over_valueISD_EEvOT_:
 1045|  87.5k|    {
 1046|  87.5k|        this->destroy_value();
 1047|  87.5k|        this->construct_unexpected(std::forward<Other>(other).get_unexpected());
 1048|  87.5k|    }
_ZN3scn2v46detail21expected_storage_baseINS0_11scan_resultINS0_6ranges6detail9subrange_8subrangeIPKwS9_EEJhEEENS0_10scan_errorELb1EE13destroy_valueEv:
  510|  87.5k|    static constexpr void destroy_value() noexcept {}
_ZN3scn2v46detail21expected_storage_baseINS0_11scan_resultINS0_6ranges6detail9subrange_8subrangeIPKwS9_EEJhEEENS0_10scan_errorELb1EE20construct_unexpectedIJNS0_10unexpectedISC_EEEEEvDpOT_:
  503|  87.5k|    {
  504|  87.5k|        scn::detail::construct_at(&get_unexpected(),
  505|  87.5k|                                  std::forward<Args>(args)...);
  506|  87.5k|        m_has_value = false;
  507|  87.5k|    }
_ZNR3scn2v46detail21expected_storage_baseINS0_11scan_resultINS0_6ranges6detail9subrange_8subrangeIPKwS9_EEJhEEENS0_10scan_errorELb1EE14get_unexpectedEv:
  472|  87.5k|    {
  473|  87.5k|        return m_unexpected;
  474|  87.5k|    }
_ZNO3scn2v46detail21expected_storage_baseINS0_11scan_resultINS0_6ranges6detail9subrange_8subrangeIPKwS9_EEJhEEENS0_10scan_errorELb1EE14get_unexpectedEv:
  480|  87.5k|    {
  481|  87.5k|        return std::move(m_unexpected);
  482|  87.5k|    }
_ZNK3scn2v424basic_scan_format_stringIwNS0_6ranges6detail9subrange_8subrangeIPKwS7_EEJhEEcvNSt3__117basic_string_viewIwNSA_11char_traitsIwEEEEEv:
 8461|  83.9k|    {
 8462|  83.9k|        return m_str;
 8463|  83.9k|    }
_ZN3scn2v414make_scan_argsINS0_18basic_scan_contextINS0_6detail16buffer_range_tagEwEEJhEEEDaRNSt3__15tupleIJDpT0_EEE:
 5803|   167k|{
 5804|   167k|    detail::check_scan_arg_types<Args...>();
 5805|   167k|    return detail::scan_arg_store<Context, Args...>(values);
 5806|   167k|}
_ZN3scn2v46detail14scan_arg_storeINS0_18basic_scan_contextINS1_16buffer_range_tagEwEEJhEEC2ERNSt3__15tupleIJhEEE:
 5779|   167k|        : args(std::apply(make_argptrs<Args...>, args))
 5780|   167k|    {
 5781|   167k|    }
_ZN3scn2v46detail14scan_arg_storeINS0_18basic_scan_contextINS1_16buffer_range_tagEwEEJhEE12make_argptrsIJhEEENSt3__15arrayIPvLm1EEEDpRT_:
 5788|   167k|    {
 5789|   167k|        return {detail::make_arg<
 5790|   167k|            kind, Context,
 5791|   167k|            mapped_type_constant<remove_cvref_t<A>,
 5792|   167k|                                 typename Context::char_type>::value>(args)...};
 5793|   167k|    }
_ZN3scn2v46detail8make_argILNS1_19scan_arg_store_kindE0ENS0_18basic_scan_contextINS1_16buffer_range_tagEwEELNS1_8arg_typeE6EhvEEPvRT2_:
 5568|   167k|{
 5569|   167k|    return make_value<Context>(value).ref_value;
 5570|   167k|}
_ZN3scn2v46detail10make_valueINS0_18basic_scan_contextINS1_16buffer_range_tagEwEEhEEDaRT0_:
 5503|   176k|{
 5504|   176k|    auto&& arg = arg_mapper<typename Context::char_type>().map(value);
 5505|       |
 5506|       |    if constexpr (!std::is_same_v<remove_cvref_t<decltype(arg)>,
 5507|   176k|                                  needs_context_tag>) {
 5508|   176k|        return make_value_impl<T>(SCN_FWD(arg));
  ------------------
  |  |  936|   176k|#define SCN_FWD(x)          static_cast<decltype(x)&&>(x)
  ------------------
 5509|       |    }
 5510|       |    else {
 5511|       |        return make_value_impl<T>(arg_mapper<typename Context::char_type>().map(
 5512|       |            value, context_tag<Context>{}));
 5513|       |    }
 5514|   176k|}
_ZN3scn2v46detail10arg_mapperIwE3mapERh:
 5342|   176k|    {                                                                        \
 5343|   176k|        return val;                                                          \
 5344|   176k|    }
_ZN3scn2v415basic_scan_argsINS0_18basic_scan_contextINS0_6detail16buffer_range_tagEwEEEC2IJhEEERKNS3_14scan_arg_storeIS5_JDpT_EEE:
 5829|   167k|        : basic_scan_args(store.desc, store.args.data())
 5830|   167k|    {
 5831|   167k|    }
_ZN3scn2v424basic_scan_format_stringIwNS0_6ranges6detail9subrange_8subrangeIPKwS7_EEJhEEC2ENS0_6detail27basic_runtime_format_stringIwEE:
 8456|  83.9k|        : m_str(r.str)
 8457|  83.9k|    {
 8458|  83.9k|    }
_ZNK3scn2v48expectedINS0_11scan_resultINS0_6ranges6detail9subrange_8subrangeIPKwS8_EEJhEEENS0_10scan_errorEEcvbEv:
 1739|  88.1k|    {
 1740|  88.1k|        return has_value();
 1741|  88.1k|    }
_ZN3scn2v48expectedINS0_11scan_resultINS0_6ranges6detail9subrange_8subrangeIPKwS8_EEJhEEENS0_10scan_errorEEptEv:
 1814|  89.2k|    {
 1815|  89.2k|        return &value();
 1816|  89.2k|    }
_ZNR3scn2v48expectedINS0_11scan_resultINS0_6ranges6detail9subrange_8subrangeIPKwS8_EEJhEEENS0_10scan_errorEE5valueISA_TnPNSt3__19enable_ifIXntsr3stdE9is_void_vIT_EEvE4typeELPv0EEERSG_v:
 1768|  89.2k|    {
 1769|  89.2k|        SCN_EXPECT(has_value());
  ------------------
  |  |  930|  89.2k|#define SCN_EXPECT(cond) SCN_ASSERT(cond, "Precondition violation")
  |  |  ------------------
  |  |  |  |  927|  89.2k|#define SCN_ASSERT(cond, msg) assert((cond) && msg)
  |  |  ------------------
  ------------------
 1770|  89.2k|        return this->get_value();
 1771|  89.2k|    }
_ZN3scn2v46detail8make_argINS0_18basic_scan_contextINS1_16buffer_range_tagEwEEhEENS0_14basic_scan_argIT_EERT0_:
 5553|  8.41k|{
 5554|  8.41k|    check_scan_arg_types<T>();
 5555|       |
 5556|  8.41k|    basic_scan_arg<Context> arg;
 5557|  8.41k|    arg.m_type = mapped_type_constant<T, typename Context::char_type>::value;
 5558|  8.41k|    arg.m_value = make_value<Context>(value);
 5559|  8.41k|    return arg;
 5560|  8.41k|}
_ZN3scn2v416make_scan_resultINS0_6ranges6detail9subrange_8subrangeIPKwS7_EEJiEEEDav:
 9330|  88.3k|{
 9331|  88.3k|    return scan_result_type<Source, Args...>();
 9332|  88.3k|}
_ZN3scn2v48expectedINS0_11scan_resultINS0_6ranges6detail9subrange_8subrangeIPKwS8_EEJiEEENS0_10scan_errorEEC2Ev:
 1551|  88.3k|    constexpr expected() = default;
_ZN3scn2v46detail21expected_storage_baseINS0_11scan_resultINS0_6ranges6detail9subrange_8subrangeIPKwS9_EEJiEEENS0_10scan_errorELb1EEC2Ev:
  426|  88.3k|        : m_value(T{}), m_has_value(true)
  427|  88.3k|    {
  428|  88.3k|    }
_ZN3scn2v411scan_resultINS0_6ranges6detail9subrange_8subrangeIPKwS7_EEJiEEC2Ev:
 6264|  88.3k|    constexpr scan_result() = default;
_ZN3scn2v416fill_scan_resultINS0_11scan_resultINS0_6ranges6detail9subrange_8subrangeIPKwS8_EEJiEEES9_TnPNSt3__19enable_ifIXsr3stdE13conjunction_vINS0_6detail25is_specialization_of_implIu11__remove_cvIu20__remove_reference_tIT_EES2_EENSB_7is_sameINSF_10range_typeET0_EEEEvE4typeELPv0EEEvRNS0_13scan_expectedISF_EEONSR_ISL_EE:
 9315|  88.3k|{
 9316|  88.3k|    if (SCN_UNLIKELY(!in)) {
  ------------------
  |  |  865|  88.3k|#define SCN_UNLIKELY(x) __builtin_expect(!!(x), 0)
  |  |  ------------------
  |  |  |  Branch (865:25): [True: 87.5k, False: 776]
  |  |  ------------------
  ------------------
 9317|  87.5k|        out = unexpected(in.error());
 9318|  87.5k|    }
 9319|    776|    else {
 9320|    776|        out->set_range(SCN_MOVE(*in));
  ------------------
  |  |  934|    776|    static_cast<    \
  |  |  935|    776|        typename ::scn::detail::remove_reference<decltype(x)>::type&&>(x)
  ------------------
 9321|    776|    }
 9322|  88.3k|}
_ZN3scn2v48expectedINS0_11scan_resultINS0_6ranges6detail9subrange_8subrangeIPKwS8_EEJiEEENS0_10scan_errorEEC2ISB_TnPNSt3__19enable_ifIXsr3stdE18is_constructible_vISB_OT_EEvE4typeELPv0ETnPNSF_IXsr3stdE16is_convertible_vISH_SB_EEvE4typeELSL_0EEEONS0_10unexpectedISG_EE:
 1615|  87.5k|        : base(unexpect, std::move(e.error())),
 1616|  87.5k|          ctor_base(detail::non_default_ctor_tag_t{})
 1617|  87.5k|    {
 1618|  87.5k|    }
_ZN3scn2v46detail21expected_storage_baseINS0_11scan_resultINS0_6ranges6detail9subrange_8subrangeIPKwS9_EEJiEEENS0_10scan_errorELb1EEC2IJSC_EvEENS0_10unexpect_tEDpOT_:
  449|  87.5k|        : m_unexpected(std::in_place, std::forward<Args>(args)...),
  450|  87.5k|          m_has_value(false)
  451|  87.5k|    {
  452|  87.5k|    }
_ZN3scn2v46detail26expected_default_ctor_baseINS0_11scan_resultINS0_6ranges6detail9subrange_8subrangeIPKwS9_EEJiEEENS0_10scan_errorELb1EEC2ENS1_22non_default_ctor_tag_tE:
 1315|  87.5k|    {
 1316|  87.5k|    }
_ZN3scn2v48expectedINS0_11scan_resultINS0_6ranges6detail9subrange_8subrangeIPKwS8_EEJiEEENS0_10scan_errorEEaSEOSC_:
 1556|  87.5k|    constexpr expected& operator=(expected&&) = default;
_ZN3scn2v46detail24expected_operations_baseINS0_11scan_resultINS0_6ranges6detail9subrange_8subrangeIPKwS9_EEJiEEENS0_10scan_errorEvEaSEOSD_:
  902|  87.5k|    {
  903|  87.5k|        assign_common(std::move(other));
  904|  87.5k|        return *this;
  905|  87.5k|    }
_ZN3scn2v46detail24expected_operations_baseINS0_11scan_resultINS0_6ranges6detail9subrange_8subrangeIPKwS9_EEJiEEENS0_10scan_errorEvE13assign_commonISD_EEvOT_:
  949|  87.5k|    {
  950|  87.5k|        if (this->has_value()) {
  ------------------
  |  Branch (950:13): [True: 87.5k, False: 0]
  ------------------
  951|  87.5k|            if (other.has_value()) {
  ------------------
  |  Branch (951:17): [True: 0, False: 87.5k]
  ------------------
  952|      0|                return reassign_value(std::forward<Other>(other));
  953|      0|            }
  954|  87.5k|            return assign_unexpected_over_value(std::forward<Other>(other));
  955|  87.5k|        }
  956|       |
  957|      0|        if (other.has_value()) {
  ------------------
  |  Branch (957:13): [True: 0, False: 0]
  ------------------
  958|      0|            return assign_value_over_unexpected(std::forward<Other>(other));
  959|      0|        }
  960|      0|        return reassign_unexpected(std::forward<Other>(other));
  961|      0|    }
_ZNK3scn2v46detail21expected_storage_baseINS0_11scan_resultINS0_6ranges6detail9subrange_8subrangeIPKwS9_EEJiEEENS0_10scan_errorELb1EE9has_valueEv:
  489|   353k|    {
  490|   353k|        return m_has_value;
  491|   353k|    }
_ZNR3scn2v46detail21expected_storage_baseINS0_11scan_resultINS0_6ranges6detail9subrange_8subrangeIPKwS9_EEJiEEENS0_10scan_errorELb1EE9get_valueEv:
  455|  89.8k|    {
  456|  89.8k|        return m_value;
  457|  89.8k|    }
_ZN3scn2v46detail24expected_operations_baseINS0_11scan_resultINS0_6ranges6detail9subrange_8subrangeIPKwS9_EEJiEEENS0_10scan_errorEvE28assign_unexpected_over_valueISD_EEvOT_:
 1045|  87.5k|    {
 1046|  87.5k|        this->destroy_value();
 1047|  87.5k|        this->construct_unexpected(std::forward<Other>(other).get_unexpected());
 1048|  87.5k|    }
_ZN3scn2v46detail21expected_storage_baseINS0_11scan_resultINS0_6ranges6detail9subrange_8subrangeIPKwS9_EEJiEEENS0_10scan_errorELb1EE13destroy_valueEv:
  510|  87.5k|    static constexpr void destroy_value() noexcept {}
_ZN3scn2v46detail21expected_storage_baseINS0_11scan_resultINS0_6ranges6detail9subrange_8subrangeIPKwS9_EEJiEEENS0_10scan_errorELb1EE20construct_unexpectedIJNS0_10unexpectedISC_EEEEEvDpOT_:
  503|  87.5k|    {
  504|  87.5k|        scn::detail::construct_at(&get_unexpected(),
  505|  87.5k|                                  std::forward<Args>(args)...);
  506|  87.5k|        m_has_value = false;
  507|  87.5k|    }
_ZNR3scn2v46detail21expected_storage_baseINS0_11scan_resultINS0_6ranges6detail9subrange_8subrangeIPKwS9_EEJiEEENS0_10scan_errorELb1EE14get_unexpectedEv:
  472|  87.5k|    {
  473|  87.5k|        return m_unexpected;
  474|  87.5k|    }
_ZNO3scn2v46detail21expected_storage_baseINS0_11scan_resultINS0_6ranges6detail9subrange_8subrangeIPKwS9_EEJiEEENS0_10scan_errorELb1EE14get_unexpectedEv:
  480|  87.5k|    {
  481|  87.5k|        return std::move(m_unexpected);
  482|  87.5k|    }
_ZNK3scn2v424basic_scan_format_stringIwNS0_6ranges6detail9subrange_8subrangeIPKwS7_EEJiEEcvNSt3__117basic_string_viewIwNSA_11char_traitsIwEEEEEv:
 8461|  84.1k|    {
 8462|  84.1k|        return m_str;
 8463|  84.1k|    }
_ZN3scn2v414make_scan_argsINS0_18basic_scan_contextINS0_6detail16buffer_range_tagEwEEJiEEEDaRNSt3__15tupleIJDpT0_EEE:
 5803|   168k|{
 5804|   168k|    detail::check_scan_arg_types<Args...>();
 5805|   168k|    return detail::scan_arg_store<Context, Args...>(values);
 5806|   168k|}
_ZN3scn2v46detail14scan_arg_storeINS0_18basic_scan_contextINS1_16buffer_range_tagEwEEJiEEC2ERNSt3__15tupleIJiEEE:
 5779|   168k|        : args(std::apply(make_argptrs<Args...>, args))
 5780|   168k|    {
 5781|   168k|    }
_ZN3scn2v46detail14scan_arg_storeINS0_18basic_scan_contextINS1_16buffer_range_tagEwEEJiEE12make_argptrsIJiEEENSt3__15arrayIPvLm1EEEDpRT_:
 5788|   168k|    {
 5789|   168k|        return {detail::make_arg<
 5790|   168k|            kind, Context,
 5791|   168k|            mapped_type_constant<remove_cvref_t<A>,
 5792|   168k|                                 typename Context::char_type>::value>(args)...};
 5793|   168k|    }
_ZN3scn2v46detail8make_argILNS1_19scan_arg_store_kindE0ENS0_18basic_scan_contextINS1_16buffer_range_tagEwEELNS1_8arg_typeE3EivEEPvRT2_:
 5568|   168k|{
 5569|   168k|    return make_value<Context>(value).ref_value;
 5570|   168k|}
_ZN3scn2v46detail10make_valueINS0_18basic_scan_contextINS1_16buffer_range_tagEwEEiEEDaRT0_:
 5503|   176k|{
 5504|   176k|    auto&& arg = arg_mapper<typename Context::char_type>().map(value);
 5505|       |
 5506|       |    if constexpr (!std::is_same_v<remove_cvref_t<decltype(arg)>,
 5507|   176k|                                  needs_context_tag>) {
 5508|   176k|        return make_value_impl<T>(SCN_FWD(arg));
  ------------------
  |  |  936|   176k|#define SCN_FWD(x)          static_cast<decltype(x)&&>(x)
  ------------------
 5509|       |    }
 5510|       |    else {
 5511|       |        return make_value_impl<T>(arg_mapper<typename Context::char_type>().map(
 5512|       |            value, context_tag<Context>{}));
 5513|       |    }
 5514|   176k|}
_ZN3scn2v46detail10arg_mapperIwE3mapERi:
 5342|   176k|    {                                                                        \
 5343|   176k|        return val;                                                          \
 5344|   176k|    }
_ZN3scn2v415basic_scan_argsINS0_18basic_scan_contextINS0_6detail16buffer_range_tagEwEEEC2IJiEEERKNS3_14scan_arg_storeIS5_JDpT_EEE:
 5829|   168k|        : basic_scan_args(store.desc, store.args.data())
 5830|   168k|    {
 5831|   168k|    }
_ZN3scn2v424basic_scan_format_stringIwNS0_6ranges6detail9subrange_8subrangeIPKwS7_EEJiEEC2ENS0_6detail27basic_runtime_format_stringIwEE:
 8456|  84.1k|        : m_str(r.str)
 8457|  84.1k|    {
 8458|  84.1k|    }
_ZNK3scn2v48expectedINS0_11scan_resultINS0_6ranges6detail9subrange_8subrangeIPKwS8_EEJiEEENS0_10scan_errorEEcvbEv:
 1739|  88.3k|    {
 1740|  88.3k|        return has_value();
 1741|  88.3k|    }
_ZN3scn2v48expectedINS0_11scan_resultINS0_6ranges6detail9subrange_8subrangeIPKwS8_EEJiEEENS0_10scan_errorEEptEv:
 1814|  89.8k|    {
 1815|  89.8k|        return &value();
 1816|  89.8k|    }
_ZNR3scn2v48expectedINS0_11scan_resultINS0_6ranges6detail9subrange_8subrangeIPKwS8_EEJiEEENS0_10scan_errorEE5valueISA_TnPNSt3__19enable_ifIXntsr3stdE9is_void_vIT_EEvE4typeELPv0EEERSG_v:
 1768|  89.8k|    {
 1769|  89.8k|        SCN_EXPECT(has_value());
  ------------------
  |  |  930|  89.8k|#define SCN_EXPECT(cond) SCN_ASSERT(cond, "Precondition violation")
  |  |  ------------------
  |  |  |  |  927|  89.8k|#define SCN_ASSERT(cond, msg) assert((cond) && msg)
  |  |  ------------------
  ------------------
 1770|  89.8k|        return this->get_value();
 1771|  89.8k|    }
_ZN3scn2v46detail8make_argINS0_18basic_scan_contextINS1_16buffer_range_tagEwEEiEENS0_14basic_scan_argIT_EERT0_:
 5553|  8.45k|{
 5554|  8.45k|    check_scan_arg_types<T>();
 5555|       |
 5556|  8.45k|    basic_scan_arg<Context> arg;
 5557|  8.45k|    arg.m_type = mapped_type_constant<T, typename Context::char_type>::value;
 5558|  8.45k|    arg.m_value = make_value<Context>(value);
 5559|  8.45k|    return arg;
 5560|  8.45k|}
_ZN3scn2v416make_scan_resultINS0_6ranges6detail9subrange_8subrangeIPKwS7_EEJjEEEDav:
 9330|  88.1k|{
 9331|  88.1k|    return scan_result_type<Source, Args...>();
 9332|  88.1k|}
_ZN3scn2v48expectedINS0_11scan_resultINS0_6ranges6detail9subrange_8subrangeIPKwS8_EEJjEEENS0_10scan_errorEEC2Ev:
 1551|  88.1k|    constexpr expected() = default;
_ZN3scn2v46detail21expected_storage_baseINS0_11scan_resultINS0_6ranges6detail9subrange_8subrangeIPKwS9_EEJjEEENS0_10scan_errorELb1EEC2Ev:
  426|  88.1k|        : m_value(T{}), m_has_value(true)
  427|  88.1k|    {
  428|  88.1k|    }
_ZN3scn2v411scan_resultINS0_6ranges6detail9subrange_8subrangeIPKwS7_EEJjEEC2Ev:
 6264|  88.1k|    constexpr scan_result() = default;
_ZN3scn2v416fill_scan_resultINS0_11scan_resultINS0_6ranges6detail9subrange_8subrangeIPKwS8_EEJjEEES9_TnPNSt3__19enable_ifIXsr3stdE13conjunction_vINS0_6detail25is_specialization_of_implIu11__remove_cvIu20__remove_reference_tIT_EES2_EENSB_7is_sameINSF_10range_typeET0_EEEEvE4typeELPv0EEEvRNS0_13scan_expectedISF_EEONSR_ISL_EE:
 9315|  88.1k|{
 9316|  88.1k|    if (SCN_UNLIKELY(!in)) {
  ------------------
  |  |  865|  88.1k|#define SCN_UNLIKELY(x) __builtin_expect(!!(x), 0)
  |  |  ------------------
  |  |  |  Branch (865:25): [True: 87.5k, False: 627]
  |  |  ------------------
  ------------------
 9317|  87.5k|        out = unexpected(in.error());
 9318|  87.5k|    }
 9319|    627|    else {
 9320|    627|        out->set_range(SCN_MOVE(*in));
  ------------------
  |  |  934|    627|    static_cast<    \
  |  |  935|    627|        typename ::scn::detail::remove_reference<decltype(x)>::type&&>(x)
  ------------------
 9321|    627|    }
 9322|  88.1k|}
_ZN3scn2v48expectedINS0_11scan_resultINS0_6ranges6detail9subrange_8subrangeIPKwS8_EEJjEEENS0_10scan_errorEEC2ISB_TnPNSt3__19enable_ifIXsr3stdE18is_constructible_vISB_OT_EEvE4typeELPv0ETnPNSF_IXsr3stdE16is_convertible_vISH_SB_EEvE4typeELSL_0EEEONS0_10unexpectedISG_EE:
 1615|  87.5k|        : base(unexpect, std::move(e.error())),
 1616|  87.5k|          ctor_base(detail::non_default_ctor_tag_t{})
 1617|  87.5k|    {
 1618|  87.5k|    }
_ZN3scn2v46detail21expected_storage_baseINS0_11scan_resultINS0_6ranges6detail9subrange_8subrangeIPKwS9_EEJjEEENS0_10scan_errorELb1EEC2IJSC_EvEENS0_10unexpect_tEDpOT_:
  449|  87.5k|        : m_unexpected(std::in_place, std::forward<Args>(args)...),
  450|  87.5k|          m_has_value(false)
  451|  87.5k|    {
  452|  87.5k|    }
_ZN3scn2v46detail26expected_default_ctor_baseINS0_11scan_resultINS0_6ranges6detail9subrange_8subrangeIPKwS9_EEJjEEENS0_10scan_errorELb1EEC2ENS1_22non_default_ctor_tag_tE:
 1315|  87.5k|    {
 1316|  87.5k|    }
_ZN3scn2v48expectedINS0_11scan_resultINS0_6ranges6detail9subrange_8subrangeIPKwS8_EEJjEEENS0_10scan_errorEEaSEOSC_:
 1556|  87.5k|    constexpr expected& operator=(expected&&) = default;
_ZN3scn2v46detail24expected_operations_baseINS0_11scan_resultINS0_6ranges6detail9subrange_8subrangeIPKwS9_EEJjEEENS0_10scan_errorEvEaSEOSD_:
  902|  87.5k|    {
  903|  87.5k|        assign_common(std::move(other));
  904|  87.5k|        return *this;
  905|  87.5k|    }
_ZN3scn2v46detail24expected_operations_baseINS0_11scan_resultINS0_6ranges6detail9subrange_8subrangeIPKwS9_EEJjEEENS0_10scan_errorEvE13assign_commonISD_EEvOT_:
  949|  87.5k|    {
  950|  87.5k|        if (this->has_value()) {
  ------------------
  |  Branch (950:13): [True: 87.5k, False: 0]
  ------------------
  951|  87.5k|            if (other.has_value()) {
  ------------------
  |  Branch (951:17): [True: 0, False: 87.5k]
  ------------------
  952|      0|                return reassign_value(std::forward<Other>(other));
  953|      0|            }
  954|  87.5k|            return assign_unexpected_over_value(std::forward<Other>(other));
  955|  87.5k|        }
  956|       |
  957|      0|        if (other.has_value()) {
  ------------------
  |  Branch (957:13): [True: 0, False: 0]
  ------------------
  958|      0|            return assign_value_over_unexpected(std::forward<Other>(other));
  959|      0|        }
  960|      0|        return reassign_unexpected(std::forward<Other>(other));
  961|      0|    }
_ZNK3scn2v46detail21expected_storage_baseINS0_11scan_resultINS0_6ranges6detail9subrange_8subrangeIPKwS9_EEJjEEENS0_10scan_errorELb1EE9has_valueEv:
  489|   352k|    {
  490|   352k|        return m_has_value;
  491|   352k|    }
_ZNR3scn2v46detail21expected_storage_baseINS0_11scan_resultINS0_6ranges6detail9subrange_8subrangeIPKwS9_EEJjEEENS0_10scan_errorELb1EE9get_valueEv:
  455|  89.4k|    {
  456|  89.4k|        return m_value;
  457|  89.4k|    }
_ZN3scn2v46detail24expected_operations_baseINS0_11scan_resultINS0_6ranges6detail9subrange_8subrangeIPKwS9_EEJjEEENS0_10scan_errorEvE28assign_unexpected_over_valueISD_EEvOT_:
 1045|  87.5k|    {
 1046|  87.5k|        this->destroy_value();
 1047|  87.5k|        this->construct_unexpected(std::forward<Other>(other).get_unexpected());
 1048|  87.5k|    }
_ZN3scn2v46detail21expected_storage_baseINS0_11scan_resultINS0_6ranges6detail9subrange_8subrangeIPKwS9_EEJjEEENS0_10scan_errorELb1EE13destroy_valueEv:
  510|  87.5k|    static constexpr void destroy_value() noexcept {}
_ZN3scn2v46detail21expected_storage_baseINS0_11scan_resultINS0_6ranges6detail9subrange_8subrangeIPKwS9_EEJjEEENS0_10scan_errorELb1EE20construct_unexpectedIJNS0_10unexpectedISC_EEEEEvDpOT_:
  503|  87.5k|    {
  504|  87.5k|        scn::detail::construct_at(&get_unexpected(),
  505|  87.5k|                                  std::forward<Args>(args)...);
  506|  87.5k|        m_has_value = false;
  507|  87.5k|    }
_ZNR3scn2v46detail21expected_storage_baseINS0_11scan_resultINS0_6ranges6detail9subrange_8subrangeIPKwS9_EEJjEEENS0_10scan_errorELb1EE14get_unexpectedEv:
  472|  87.5k|    {
  473|  87.5k|        return m_unexpected;
  474|  87.5k|    }
_ZNO3scn2v46detail21expected_storage_baseINS0_11scan_resultINS0_6ranges6detail9subrange_8subrangeIPKwS9_EEJjEEENS0_10scan_errorELb1EE14get_unexpectedEv:
  480|  87.5k|    {
  481|  87.5k|        return std::move(m_unexpected);
  482|  87.5k|    }
_ZNK3scn2v424basic_scan_format_stringIwNS0_6ranges6detail9subrange_8subrangeIPKwS7_EEJjEEcvNSt3__117basic_string_viewIwNSA_11char_traitsIwEEEEEv:
 8461|  83.9k|    {
 8462|  83.9k|        return m_str;
 8463|  83.9k|    }
_ZN3scn2v414make_scan_argsINS0_18basic_scan_contextINS0_6detail16buffer_range_tagEwEEJjEEEDaRNSt3__15tupleIJDpT0_EEE:
 5803|   167k|{
 5804|   167k|    detail::check_scan_arg_types<Args...>();
 5805|   167k|    return detail::scan_arg_store<Context, Args...>(values);
 5806|   167k|}
_ZN3scn2v46detail14scan_arg_storeINS0_18basic_scan_contextINS1_16buffer_range_tagEwEEJjEEC2ERNSt3__15tupleIJjEEE:
 5779|   167k|        : args(std::apply(make_argptrs<Args...>, args))
 5780|   167k|    {
 5781|   167k|    }
_ZN3scn2v46detail14scan_arg_storeINS0_18basic_scan_contextINS1_16buffer_range_tagEwEEJjEE12make_argptrsIJjEEENSt3__15arrayIPvLm1EEEDpRT_:
 5788|   167k|    {
 5789|   167k|        return {detail::make_arg<
 5790|   167k|            kind, Context,
 5791|   167k|            mapped_type_constant<remove_cvref_t<A>,
 5792|   167k|                                 typename Context::char_type>::value>(args)...};
 5793|   167k|    }
_ZN3scn2v46detail8make_argILNS1_19scan_arg_store_kindE0ENS0_18basic_scan_contextINS1_16buffer_range_tagEwEELNS1_8arg_typeE8EjvEEPvRT2_:
 5568|   167k|{
 5569|   167k|    return make_value<Context>(value).ref_value;
 5570|   167k|}
_ZN3scn2v46detail10make_valueINS0_18basic_scan_contextINS1_16buffer_range_tagEwEEjEEDaRT0_:
 5503|   176k|{
 5504|   176k|    auto&& arg = arg_mapper<typename Context::char_type>().map(value);
 5505|       |
 5506|       |    if constexpr (!std::is_same_v<remove_cvref_t<decltype(arg)>,
 5507|   176k|                                  needs_context_tag>) {
 5508|   176k|        return make_value_impl<T>(SCN_FWD(arg));
  ------------------
  |  |  936|   176k|#define SCN_FWD(x)          static_cast<decltype(x)&&>(x)
  ------------------
 5509|       |    }
 5510|       |    else {
 5511|       |        return make_value_impl<T>(arg_mapper<typename Context::char_type>().map(
 5512|       |            value, context_tag<Context>{}));
 5513|       |    }
 5514|   176k|}
_ZN3scn2v46detail10arg_mapperIwE3mapERj:
 5342|   176k|    {                                                                        \
 5343|   176k|        return val;                                                          \
 5344|   176k|    }
_ZN3scn2v415basic_scan_argsINS0_18basic_scan_contextINS0_6detail16buffer_range_tagEwEEEC2IJjEEERKNS3_14scan_arg_storeIS5_JDpT_EEE:
 5829|   167k|        : basic_scan_args(store.desc, store.args.data())
 5830|   167k|    {
 5831|   167k|    }
_ZN3scn2v424basic_scan_format_stringIwNS0_6ranges6detail9subrange_8subrangeIPKwS7_EEJjEEC2ENS0_6detail27basic_runtime_format_stringIwEE:
 8456|  83.9k|        : m_str(r.str)
 8457|  83.9k|    {
 8458|  83.9k|    }
_ZNK3scn2v48expectedINS0_11scan_resultINS0_6ranges6detail9subrange_8subrangeIPKwS8_EEJjEEENS0_10scan_errorEEcvbEv:
 1739|  88.1k|    {
 1740|  88.1k|        return has_value();
 1741|  88.1k|    }
_ZN3scn2v48expectedINS0_11scan_resultINS0_6ranges6detail9subrange_8subrangeIPKwS8_EEJjEEENS0_10scan_errorEEptEv:
 1814|  89.4k|    {
 1815|  89.4k|        return &value();
 1816|  89.4k|    }
_ZNR3scn2v48expectedINS0_11scan_resultINS0_6ranges6detail9subrange_8subrangeIPKwS8_EEJjEEENS0_10scan_errorEE5valueISA_TnPNSt3__19enable_ifIXntsr3stdE9is_void_vIT_EEvE4typeELPv0EEERSG_v:
 1768|  89.4k|    {
 1769|  89.4k|        SCN_EXPECT(has_value());
  ------------------
  |  |  930|  89.4k|#define SCN_EXPECT(cond) SCN_ASSERT(cond, "Precondition violation")
  |  |  ------------------
  |  |  |  |  927|  89.4k|#define SCN_ASSERT(cond, msg) assert((cond) && msg)
  |  |  ------------------
  ------------------
 1770|  89.4k|        return this->get_value();
 1771|  89.4k|    }
_ZN3scn2v46detail8make_argINS0_18basic_scan_contextINS1_16buffer_range_tagEwEEjEENS0_14basic_scan_argIT_EERT0_:
 5553|  8.43k|{
 5554|  8.43k|    check_scan_arg_types<T>();
 5555|       |
 5556|  8.43k|    basic_scan_arg<Context> arg;
 5557|  8.43k|    arg.m_type = mapped_type_constant<T, typename Context::char_type>::value;
 5558|  8.43k|    arg.m_value = make_value<Context>(value);
 5559|  8.43k|    return arg;
 5560|  8.43k|}
_ZN3scn2v416make_scan_resultINS0_6ranges6detail9subrange_8subrangeIPKwS7_EEJxEEEDav:
 9330|  88.4k|{
 9331|  88.4k|    return scan_result_type<Source, Args...>();
 9332|  88.4k|}
_ZN3scn2v48expectedINS0_11scan_resultINS0_6ranges6detail9subrange_8subrangeIPKwS8_EEJxEEENS0_10scan_errorEEC2Ev:
 1551|  88.4k|    constexpr expected() = default;
_ZN3scn2v46detail21expected_storage_baseINS0_11scan_resultINS0_6ranges6detail9subrange_8subrangeIPKwS9_EEJxEEENS0_10scan_errorELb1EEC2Ev:
  426|  88.4k|        : m_value(T{}), m_has_value(true)
  427|  88.4k|    {
  428|  88.4k|    }
_ZN3scn2v411scan_resultINS0_6ranges6detail9subrange_8subrangeIPKwS7_EEJxEEC2Ev:
 6264|  88.4k|    constexpr scan_result() = default;
_ZN3scn2v416fill_scan_resultINS0_11scan_resultINS0_6ranges6detail9subrange_8subrangeIPKwS8_EEJxEEES9_TnPNSt3__19enable_ifIXsr3stdE13conjunction_vINS0_6detail25is_specialization_of_implIu11__remove_cvIu20__remove_reference_tIT_EES2_EENSB_7is_sameINSF_10range_typeET0_EEEEvE4typeELPv0EEEvRNS0_13scan_expectedISF_EEONSR_ISL_EE:
 9315|  88.4k|{
 9316|  88.4k|    if (SCN_UNLIKELY(!in)) {
  ------------------
  |  |  865|  88.4k|#define SCN_UNLIKELY(x) __builtin_expect(!!(x), 0)
  |  |  ------------------
  |  |  |  Branch (865:25): [True: 87.5k, False: 929]
  |  |  ------------------
  ------------------
 9317|  87.5k|        out = unexpected(in.error());
 9318|  87.5k|    }
 9319|    929|    else {
 9320|    929|        out->set_range(SCN_MOVE(*in));
  ------------------
  |  |  934|    929|    static_cast<    \
  |  |  935|    929|        typename ::scn::detail::remove_reference<decltype(x)>::type&&>(x)
  ------------------
 9321|    929|    }
 9322|  88.4k|}
_ZN3scn2v48expectedINS0_11scan_resultINS0_6ranges6detail9subrange_8subrangeIPKwS8_EEJxEEENS0_10scan_errorEEC2ISB_TnPNSt3__19enable_ifIXsr3stdE18is_constructible_vISB_OT_EEvE4typeELPv0ETnPNSF_IXsr3stdE16is_convertible_vISH_SB_EEvE4typeELSL_0EEEONS0_10unexpectedISG_EE:
 1615|  87.5k|        : base(unexpect, std::move(e.error())),
 1616|  87.5k|          ctor_base(detail::non_default_ctor_tag_t{})
 1617|  87.5k|    {
 1618|  87.5k|    }
_ZN3scn2v46detail21expected_storage_baseINS0_11scan_resultINS0_6ranges6detail9subrange_8subrangeIPKwS9_EEJxEEENS0_10scan_errorELb1EEC2IJSC_EvEENS0_10unexpect_tEDpOT_:
  449|  87.5k|        : m_unexpected(std::in_place, std::forward<Args>(args)...),
  450|  87.5k|          m_has_value(false)
  451|  87.5k|    {
  452|  87.5k|    }
_ZN3scn2v46detail26expected_default_ctor_baseINS0_11scan_resultINS0_6ranges6detail9subrange_8subrangeIPKwS9_EEJxEEENS0_10scan_errorELb1EEC2ENS1_22non_default_ctor_tag_tE:
 1315|  87.5k|    {
 1316|  87.5k|    }
_ZN3scn2v48expectedINS0_11scan_resultINS0_6ranges6detail9subrange_8subrangeIPKwS8_EEJxEEENS0_10scan_errorEEaSEOSC_:
 1556|  87.5k|    constexpr expected& operator=(expected&&) = default;
_ZN3scn2v46detail24expected_operations_baseINS0_11scan_resultINS0_6ranges6detail9subrange_8subrangeIPKwS9_EEJxEEENS0_10scan_errorEvEaSEOSD_:
  902|  87.5k|    {
  903|  87.5k|        assign_common(std::move(other));
  904|  87.5k|        return *this;
  905|  87.5k|    }
_ZN3scn2v46detail24expected_operations_baseINS0_11scan_resultINS0_6ranges6detail9subrange_8subrangeIPKwS9_EEJxEEENS0_10scan_errorEvE13assign_commonISD_EEvOT_:
  949|  87.5k|    {
  950|  87.5k|        if (this->has_value()) {
  ------------------
  |  Branch (950:13): [True: 87.5k, False: 0]
  ------------------
  951|  87.5k|            if (other.has_value()) {
  ------------------
  |  Branch (951:17): [True: 0, False: 87.5k]
  ------------------
  952|      0|                return reassign_value(std::forward<Other>(other));
  953|      0|            }
  954|  87.5k|            return assign_unexpected_over_value(std::forward<Other>(other));
  955|  87.5k|        }
  956|       |
  957|      0|        if (other.has_value()) {
  ------------------
  |  Branch (957:13): [True: 0, False: 0]
  ------------------
  958|      0|            return assign_value_over_unexpected(std::forward<Other>(other));
  959|      0|        }
  960|      0|        return reassign_unexpected(std::forward<Other>(other));
  961|      0|    }
_ZNK3scn2v46detail21expected_storage_baseINS0_11scan_resultINS0_6ranges6detail9subrange_8subrangeIPKwS9_EEJxEEENS0_10scan_errorELb1EE9has_valueEv:
  489|   353k|    {
  490|   353k|        return m_has_value;
  491|   353k|    }
_ZNR3scn2v46detail21expected_storage_baseINS0_11scan_resultINS0_6ranges6detail9subrange_8subrangeIPKwS9_EEJxEEENS0_10scan_errorELb1EE9get_valueEv:
  455|  90.3k|    {
  456|  90.3k|        return m_value;
  457|  90.3k|    }
_ZN3scn2v46detail24expected_operations_baseINS0_11scan_resultINS0_6ranges6detail9subrange_8subrangeIPKwS9_EEJxEEENS0_10scan_errorEvE28assign_unexpected_over_valueISD_EEvOT_:
 1045|  87.5k|    {
 1046|  87.5k|        this->destroy_value();
 1047|  87.5k|        this->construct_unexpected(std::forward<Other>(other).get_unexpected());
 1048|  87.5k|    }
_ZN3scn2v46detail21expected_storage_baseINS0_11scan_resultINS0_6ranges6detail9subrange_8subrangeIPKwS9_EEJxEEENS0_10scan_errorELb1EE13destroy_valueEv:
  510|  87.5k|    static constexpr void destroy_value() noexcept {}
_ZN3scn2v46detail21expected_storage_baseINS0_11scan_resultINS0_6ranges6detail9subrange_8subrangeIPKwS9_EEJxEEENS0_10scan_errorELb1EE20construct_unexpectedIJNS0_10unexpectedISC_EEEEEvDpOT_:
  503|  87.5k|    {
  504|  87.5k|        scn::detail::construct_at(&get_unexpected(),
  505|  87.5k|                                  std::forward<Args>(args)...);
  506|  87.5k|        m_has_value = false;
  507|  87.5k|    }
_ZNR3scn2v46detail21expected_storage_baseINS0_11scan_resultINS0_6ranges6detail9subrange_8subrangeIPKwS9_EEJxEEENS0_10scan_errorELb1EE14get_unexpectedEv:
  472|  87.5k|    {
  473|  87.5k|        return m_unexpected;
  474|  87.5k|    }
_ZNO3scn2v46detail21expected_storage_baseINS0_11scan_resultINS0_6ranges6detail9subrange_8subrangeIPKwS9_EEJxEEENS0_10scan_errorELb1EE14get_unexpectedEv:
  480|  87.5k|    {
  481|  87.5k|        return std::move(m_unexpected);
  482|  87.5k|    }
_ZNK3scn2v424basic_scan_format_stringIwNS0_6ranges6detail9subrange_8subrangeIPKwS7_EEJxEEcvNSt3__117basic_string_viewIwNSA_11char_traitsIwEEEEEv:
 8461|  84.2k|    {
 8462|  84.2k|        return m_str;
 8463|  84.2k|    }
_ZN3scn2v414make_scan_argsINS0_18basic_scan_contextINS0_6detail16buffer_range_tagEwEEJxEEEDaRNSt3__15tupleIJDpT0_EEE:
 5803|   168k|{
 5804|   168k|    detail::check_scan_arg_types<Args...>();
 5805|   168k|    return detail::scan_arg_store<Context, Args...>(values);
 5806|   168k|}
_ZN3scn2v46detail14scan_arg_storeINS0_18basic_scan_contextINS1_16buffer_range_tagEwEEJxEEC2ERNSt3__15tupleIJxEEE:
 5779|   168k|        : args(std::apply(make_argptrs<Args...>, args))
 5780|   168k|    {
 5781|   168k|    }
_ZN3scn2v46detail14scan_arg_storeINS0_18basic_scan_contextINS1_16buffer_range_tagEwEEJxEE12make_argptrsIJxEEENSt3__15arrayIPvLm1EEEDpRT_:
 5788|   168k|    {
 5789|   168k|        return {detail::make_arg<
 5790|   168k|            kind, Context,
 5791|   168k|            mapped_type_constant<remove_cvref_t<A>,
 5792|   168k|                                 typename Context::char_type>::value>(args)...};
 5793|   168k|    }
_ZN3scn2v46detail8make_argILNS1_19scan_arg_store_kindE0ENS0_18basic_scan_contextINS1_16buffer_range_tagEwEELNS1_8arg_typeE5ExvEEPvRT2_:
 5568|   168k|{
 5569|   168k|    return make_value<Context>(value).ref_value;
 5570|   168k|}
_ZN3scn2v46detail10make_valueINS0_18basic_scan_contextINS1_16buffer_range_tagEwEExEEDaRT0_:
 5503|   176k|{
 5504|   176k|    auto&& arg = arg_mapper<typename Context::char_type>().map(value);
 5505|       |
 5506|       |    if constexpr (!std::is_same_v<remove_cvref_t<decltype(arg)>,
 5507|   176k|                                  needs_context_tag>) {
 5508|   176k|        return make_value_impl<T>(SCN_FWD(arg));
  ------------------
  |  |  936|   176k|#define SCN_FWD(x)          static_cast<decltype(x)&&>(x)
  ------------------
 5509|       |    }
 5510|       |    else {
 5511|       |        return make_value_impl<T>(arg_mapper<typename Context::char_type>().map(
 5512|       |            value, context_tag<Context>{}));
 5513|       |    }
 5514|   176k|}
_ZN3scn2v46detail10arg_mapperIwE3mapERx:
 5342|   176k|    {                                                                        \
 5343|   176k|        return val;                                                          \
 5344|   176k|    }
_ZN3scn2v415basic_scan_argsINS0_18basic_scan_contextINS0_6detail16buffer_range_tagEwEEEC2IJxEEERKNS3_14scan_arg_storeIS5_JDpT_EEE:
 5829|   168k|        : basic_scan_args(store.desc, store.args.data())
 5830|   168k|    {
 5831|   168k|    }
_ZN3scn2v424basic_scan_format_stringIwNS0_6ranges6detail9subrange_8subrangeIPKwS7_EEJxEEC2ENS0_6detail27basic_runtime_format_stringIwEE:
 8456|  84.2k|        : m_str(r.str)
 8457|  84.2k|    {
 8458|  84.2k|    }
_ZNK3scn2v48expectedINS0_11scan_resultINS0_6ranges6detail9subrange_8subrangeIPKwS8_EEJxEEENS0_10scan_errorEEcvbEv:
 1739|  88.4k|    {
 1740|  88.4k|        return has_value();
 1741|  88.4k|    }
_ZN3scn2v48expectedINS0_11scan_resultINS0_6ranges6detail9subrange_8subrangeIPKwS8_EEJxEEENS0_10scan_errorEEptEv:
 1814|  90.3k|    {
 1815|  90.3k|        return &value();
 1816|  90.3k|    }
_ZNR3scn2v48expectedINS0_11scan_resultINS0_6ranges6detail9subrange_8subrangeIPKwS8_EEJxEEENS0_10scan_errorEE5valueISA_TnPNSt3__19enable_ifIXntsr3stdE9is_void_vIT_EEvE4typeELPv0EEERSG_v:
 1768|  90.3k|    {
 1769|  90.3k|        SCN_EXPECT(has_value());
  ------------------
  |  |  930|  90.3k|#define SCN_EXPECT(cond) SCN_ASSERT(cond, "Precondition violation")
  |  |  ------------------
  |  |  |  |  927|  90.3k|#define SCN_ASSERT(cond, msg) assert((cond) && msg)
  |  |  ------------------
  ------------------
 1770|  90.3k|        return this->get_value();
 1771|  90.3k|    }
_ZN3scn2v46detail8make_argINS0_18basic_scan_contextINS1_16buffer_range_tagEwEExEENS0_14basic_scan_argIT_EERT0_:
 5553|  8.48k|{
 5554|  8.48k|    check_scan_arg_types<T>();
 5555|       |
 5556|  8.48k|    basic_scan_arg<Context> arg;
 5557|  8.48k|    arg.m_type = mapped_type_constant<T, typename Context::char_type>::value;
 5558|  8.48k|    arg.m_value = make_value<Context>(value);
 5559|  8.48k|    return arg;
 5560|  8.48k|}
_ZN3scn2v416make_scan_resultINS0_6ranges6detail9subrange_8subrangeIPKwS7_EEJyEEEDav:
 9330|  88.3k|{
 9331|  88.3k|    return scan_result_type<Source, Args...>();
 9332|  88.3k|}
_ZN3scn2v48expectedINS0_11scan_resultINS0_6ranges6detail9subrange_8subrangeIPKwS8_EEJyEEENS0_10scan_errorEEC2Ev:
 1551|  88.3k|    constexpr expected() = default;
_ZN3scn2v46detail21expected_storage_baseINS0_11scan_resultINS0_6ranges6detail9subrange_8subrangeIPKwS9_EEJyEEENS0_10scan_errorELb1EEC2Ev:
  426|  88.3k|        : m_value(T{}), m_has_value(true)
  427|  88.3k|    {
  428|  88.3k|    }
_ZN3scn2v411scan_resultINS0_6ranges6detail9subrange_8subrangeIPKwS7_EEJyEEC2Ev:
 6264|  88.3k|    constexpr scan_result() = default;
_ZN3scn2v416fill_scan_resultINS0_11scan_resultINS0_6ranges6detail9subrange_8subrangeIPKwS8_EEJyEEES9_TnPNSt3__19enable_ifIXsr3stdE13conjunction_vINS0_6detail25is_specialization_of_implIu11__remove_cvIu20__remove_reference_tIT_EES2_EENSB_7is_sameINSF_10range_typeET0_EEEEvE4typeELPv0EEEvRNS0_13scan_expectedISF_EEONSR_ISL_EE:
 9315|  88.3k|{
 9316|  88.3k|    if (SCN_UNLIKELY(!in)) {
  ------------------
  |  |  865|  88.3k|#define SCN_UNLIKELY(x) __builtin_expect(!!(x), 0)
  |  |  ------------------
  |  |  |  Branch (865:25): [True: 87.5k, False: 757]
  |  |  ------------------
  ------------------
 9317|  87.5k|        out = unexpected(in.error());
 9318|  87.5k|    }
 9319|    757|    else {
 9320|    757|        out->set_range(SCN_MOVE(*in));
  ------------------
  |  |  934|    757|    static_cast<    \
  |  |  935|    757|        typename ::scn::detail::remove_reference<decltype(x)>::type&&>(x)
  ------------------
 9321|    757|    }
 9322|  88.3k|}
_ZN3scn2v48expectedINS0_11scan_resultINS0_6ranges6detail9subrange_8subrangeIPKwS8_EEJyEEENS0_10scan_errorEEC2ISB_TnPNSt3__19enable_ifIXsr3stdE18is_constructible_vISB_OT_EEvE4typeELPv0ETnPNSF_IXsr3stdE16is_convertible_vISH_SB_EEvE4typeELSL_0EEEONS0_10unexpectedISG_EE:
 1615|  87.5k|        : base(unexpect, std::move(e.error())),
 1616|  87.5k|          ctor_base(detail::non_default_ctor_tag_t{})
 1617|  87.5k|    {
 1618|  87.5k|    }
_ZN3scn2v46detail21expected_storage_baseINS0_11scan_resultINS0_6ranges6detail9subrange_8subrangeIPKwS9_EEJyEEENS0_10scan_errorELb1EEC2IJSC_EvEENS0_10unexpect_tEDpOT_:
  449|  87.5k|        : m_unexpected(std::in_place, std::forward<Args>(args)...),
  450|  87.5k|          m_has_value(false)
  451|  87.5k|    {
  452|  87.5k|    }
_ZN3scn2v46detail26expected_default_ctor_baseINS0_11scan_resultINS0_6ranges6detail9subrange_8subrangeIPKwS9_EEJyEEENS0_10scan_errorELb1EEC2ENS1_22non_default_ctor_tag_tE:
 1315|  87.5k|    {
 1316|  87.5k|    }
_ZN3scn2v48expectedINS0_11scan_resultINS0_6ranges6detail9subrange_8subrangeIPKwS8_EEJyEEENS0_10scan_errorEEaSEOSC_:
 1556|  87.5k|    constexpr expected& operator=(expected&&) = default;
_ZN3scn2v46detail24expected_operations_baseINS0_11scan_resultINS0_6ranges6detail9subrange_8subrangeIPKwS9_EEJyEEENS0_10scan_errorEvEaSEOSD_:
  902|  87.5k|    {
  903|  87.5k|        assign_common(std::move(other));
  904|  87.5k|        return *this;
  905|  87.5k|    }
_ZN3scn2v46detail24expected_operations_baseINS0_11scan_resultINS0_6ranges6detail9subrange_8subrangeIPKwS9_EEJyEEENS0_10scan_errorEvE13assign_commonISD_EEvOT_:
  949|  87.5k|    {
  950|  87.5k|        if (this->has_value()) {
  ------------------
  |  Branch (950:13): [True: 87.5k, False: 0]
  ------------------
  951|  87.5k|            if (other.has_value()) {
  ------------------
  |  Branch (951:17): [True: 0, False: 87.5k]
  ------------------
  952|      0|                return reassign_value(std::forward<Other>(other));
  953|      0|            }
  954|  87.5k|            return assign_unexpected_over_value(std::forward<Other>(other));
  955|  87.5k|        }
  956|       |
  957|      0|        if (other.has_value()) {
  ------------------
  |  Branch (957:13): [True: 0, False: 0]
  ------------------
  958|      0|            return assign_value_over_unexpected(std::forward<Other>(other));
  959|      0|        }
  960|      0|        return reassign_unexpected(std::forward<Other>(other));
  961|      0|    }
_ZNK3scn2v46detail21expected_storage_baseINS0_11scan_resultINS0_6ranges6detail9subrange_8subrangeIPKwS9_EEJyEEENS0_10scan_errorELb1EE9has_valueEv:
  489|   353k|    {
  490|   353k|        return m_has_value;
  491|   353k|    }
_ZNR3scn2v46detail21expected_storage_baseINS0_11scan_resultINS0_6ranges6detail9subrange_8subrangeIPKwS9_EEJyEEENS0_10scan_errorELb1EE9get_valueEv:
  455|  89.8k|    {
  456|  89.8k|        return m_value;
  457|  89.8k|    }
_ZN3scn2v46detail24expected_operations_baseINS0_11scan_resultINS0_6ranges6detail9subrange_8subrangeIPKwS9_EEJyEEENS0_10scan_errorEvE28assign_unexpected_over_valueISD_EEvOT_:
 1045|  87.5k|    {
 1046|  87.5k|        this->destroy_value();
 1047|  87.5k|        this->construct_unexpected(std::forward<Other>(other).get_unexpected());
 1048|  87.5k|    }
_ZN3scn2v46detail21expected_storage_baseINS0_11scan_resultINS0_6ranges6detail9subrange_8subrangeIPKwS9_EEJyEEENS0_10scan_errorELb1EE13destroy_valueEv:
  510|  87.5k|    static constexpr void destroy_value() noexcept {}
_ZN3scn2v46detail21expected_storage_baseINS0_11scan_resultINS0_6ranges6detail9subrange_8subrangeIPKwS9_EEJyEEENS0_10scan_errorELb1EE20construct_unexpectedIJNS0_10unexpectedISC_EEEEEvDpOT_:
  503|  87.5k|    {
  504|  87.5k|        scn::detail::construct_at(&get_unexpected(),
  505|  87.5k|                                  std::forward<Args>(args)...);
  506|  87.5k|        m_has_value = false;
  507|  87.5k|    }
_ZNR3scn2v46detail21expected_storage_baseINS0_11scan_resultINS0_6ranges6detail9subrange_8subrangeIPKwS9_EEJyEEENS0_10scan_errorELb1EE14get_unexpectedEv:
  472|  87.5k|    {
  473|  87.5k|        return m_unexpected;
  474|  87.5k|    }
_ZNO3scn2v46detail21expected_storage_baseINS0_11scan_resultINS0_6ranges6detail9subrange_8subrangeIPKwS9_EEJyEEENS0_10scan_errorELb1EE14get_unexpectedEv:
  480|  87.5k|    {
  481|  87.5k|        return std::move(m_unexpected);
  482|  87.5k|    }
_ZNK3scn2v424basic_scan_format_stringIwNS0_6ranges6detail9subrange_8subrangeIPKwS7_EEJyEEcvNSt3__117basic_string_viewIwNSA_11char_traitsIwEEEEEv:
 8461|  84.1k|    {
 8462|  84.1k|        return m_str;
 8463|  84.1k|    }
_ZN3scn2v414make_scan_argsINS0_18basic_scan_contextINS0_6detail16buffer_range_tagEwEEJyEEEDaRNSt3__15tupleIJDpT0_EEE:
 5803|   168k|{
 5804|   168k|    detail::check_scan_arg_types<Args...>();
 5805|   168k|    return detail::scan_arg_store<Context, Args...>(values);
 5806|   168k|}
_ZN3scn2v46detail14scan_arg_storeINS0_18basic_scan_contextINS1_16buffer_range_tagEwEEJyEEC2ERNSt3__15tupleIJyEEE:
 5779|   168k|        : args(std::apply(make_argptrs<Args...>, args))
 5780|   168k|    {
 5781|   168k|    }
_ZN3scn2v46detail14scan_arg_storeINS0_18basic_scan_contextINS1_16buffer_range_tagEwEEJyEE12make_argptrsIJyEEENSt3__15arrayIPvLm1EEEDpRT_:
 5788|   168k|    {
 5789|   168k|        return {detail::make_arg<
 5790|   168k|            kind, Context,
 5791|   168k|            mapped_type_constant<remove_cvref_t<A>,
 5792|   168k|                                 typename Context::char_type>::value>(args)...};
 5793|   168k|    }
_ZN3scn2v46detail8make_argILNS1_19scan_arg_store_kindE0ENS0_18basic_scan_contextINS1_16buffer_range_tagEwEELNS1_8arg_typeE10EyvEEPvRT2_:
 5568|   168k|{
 5569|   168k|    return make_value<Context>(value).ref_value;
 5570|   168k|}
_ZN3scn2v46detail10make_valueINS0_18basic_scan_contextINS1_16buffer_range_tagEwEEyEEDaRT0_:
 5503|   176k|{
 5504|   176k|    auto&& arg = arg_mapper<typename Context::char_type>().map(value);
 5505|       |
 5506|       |    if constexpr (!std::is_same_v<remove_cvref_t<decltype(arg)>,
 5507|   176k|                                  needs_context_tag>) {
 5508|   176k|        return make_value_impl<T>(SCN_FWD(arg));
  ------------------
  |  |  936|   176k|#define SCN_FWD(x)          static_cast<decltype(x)&&>(x)
  ------------------
 5509|       |    }
 5510|       |    else {
 5511|       |        return make_value_impl<T>(arg_mapper<typename Context::char_type>().map(
 5512|       |            value, context_tag<Context>{}));
 5513|       |    }
 5514|   176k|}
_ZN3scn2v46detail10arg_mapperIwE3mapERy:
 5342|   176k|    {                                                                        \
 5343|   176k|        return val;                                                          \
 5344|   176k|    }
_ZN3scn2v415basic_scan_argsINS0_18basic_scan_contextINS0_6detail16buffer_range_tagEwEEEC2IJyEEERKNS3_14scan_arg_storeIS5_JDpT_EEE:
 5829|   168k|        : basic_scan_args(store.desc, store.args.data())
 5830|   168k|    {
 5831|   168k|    }
_ZN3scn2v424basic_scan_format_stringIwNS0_6ranges6detail9subrange_8subrangeIPKwS7_EEJyEEC2ENS0_6detail27basic_runtime_format_stringIwEE:
 8456|  84.1k|        : m_str(r.str)
 8457|  84.1k|    {
 8458|  84.1k|    }
_ZNK3scn2v48expectedINS0_11scan_resultINS0_6ranges6detail9subrange_8subrangeIPKwS8_EEJyEEENS0_10scan_errorEEcvbEv:
 1739|  88.3k|    {
 1740|  88.3k|        return has_value();
 1741|  88.3k|    }
_ZN3scn2v48expectedINS0_11scan_resultINS0_6ranges6detail9subrange_8subrangeIPKwS8_EEJyEEENS0_10scan_errorEEptEv:
 1814|  89.8k|    {
 1815|  89.8k|        return &value();
 1816|  89.8k|    }
_ZNR3scn2v48expectedINS0_11scan_resultINS0_6ranges6detail9subrange_8subrangeIPKwS8_EEJyEEENS0_10scan_errorEE5valueISA_TnPNSt3__19enable_ifIXntsr3stdE9is_void_vIT_EEvE4typeELPv0EEERSG_v:
 1768|  89.8k|    {
 1769|  89.8k|        SCN_EXPECT(has_value());
  ------------------
  |  |  930|  89.8k|#define SCN_EXPECT(cond) SCN_ASSERT(cond, "Precondition violation")
  |  |  ------------------
  |  |  |  |  927|  89.8k|#define SCN_ASSERT(cond, msg) assert((cond) && msg)
  |  |  ------------------
  ------------------
 1770|  89.8k|        return this->get_value();
 1771|  89.8k|    }
_ZN3scn2v46detail8make_argINS0_18basic_scan_contextINS1_16buffer_range_tagEwEEyEENS0_14basic_scan_argIT_EERT0_:
 5553|  8.45k|{
 5554|  8.45k|    check_scan_arg_types<T>();
 5555|       |
 5556|  8.45k|    basic_scan_arg<Context> arg;
 5557|  8.45k|    arg.m_type = mapped_type_constant<T, typename Context::char_type>::value;
 5558|  8.45k|    arg.m_value = make_value<Context>(value);
 5559|  8.45k|    return arg;
 5560|  8.45k|}
_ZNK3scn2v46ranges6detail6begin_2fnclIRKNSt3__15dequeIwNS6_9allocatorIwEEEEEEDTclsr2fnE4implscDtfp_Efp_tlNS0_6detail12priority_tagILm3EEEEEEOT_:
 2868|   525k|    {
 2869|   525k|        return fn::impl(SCN_FWD(t), priority_tag<3>{});
  ------------------
  |  |  936|   525k|#define SCN_FWD(x)          static_cast<decltype(x)&&>(x)
  ------------------
 2870|   525k|    }
_ZN3scn2v46ranges6detail6begin_2fn4implIRKNSt3__15dequeIwNS6_9allocatorIwEEEEEENS6_9enable_ifIX24input_or_output_iteratorIDTcl10decay_copycldtscDtfp_Efp_5beginEEEEESF_E4typeEOT_NS0_6detail12priority_tagILm1EEE:
 2849|   525k|    {
 2850|   525k|        return decay_copy(t.begin());
 2851|   525k|    }
_ZN3scn2v46ranges6detail10decay_copyINSt3__116__deque_iteratorIwPKwRS6_PKS7_lLl1024EEEEEu7__decayIT_EOSC_:
 2093|   312M|{
 2094|   312M|    return SCN_FWD(t);
  ------------------
  |  |  936|   312M|#define SCN_FWD(x)          static_cast<decltype(x)&&>(x)
  ------------------
 2095|   312M|}
_ZNK3scn2v46ranges6detail4end_2fnclIRKNSt3__15dequeIwNS6_9allocatorIwEEEEEEDTclsr2fnE4implscDtfp_Efp_tlNS0_6detail12priority_tagILm3EEEEEEOT_:
 2925|  1.05M|    {
 2926|  1.05M|        return fn::impl(SCN_FWD(t), priority_tag<3>{});
  ------------------
  |  |  936|  1.05M|#define SCN_FWD(x)          static_cast<decltype(x)&&>(x)
  ------------------
 2927|  1.05M|    }
_ZN3scn2v46ranges6detail4end_2fn4implIRKNSt3__15dequeIwNS6_9allocatorIwEEEENS6_16__deque_iteratorIwPKwRSE_PKSF_lLl1024EEESJ_EENS6_9enable_ifIX12sentinel_forIT0_T1_EEDTcl10decay_copycldtscDtfp_Efp_3endEEEE4typeEOT_NS0_6detail12priority_tagILm1EEE:
 2907|  1.05M|    {
 2908|  1.05M|        return decay_copy(SCN_FWD(t).end());
  ------------------
  |  |  936|  1.05M|#define SCN_FWD(x)          static_cast<decltype(x)&&>(x)
  ------------------
 2909|  1.05M|    }
_ZN3scn2v416make_scan_resultINS0_6ranges6detail9subrange_8subrangeINSt3__116__deque_iteratorIwPKwRS8_PKS9_lLl1024EEESD_EEJaEEEDav:
 9330|  88.2k|{
 9331|  88.2k|    return scan_result_type<Source, Args...>();
 9332|  88.2k|}
_ZN3scn2v48expectedINS0_11scan_resultINS0_6ranges6detail9subrange_8subrangeINSt3__116__deque_iteratorIwPKwRS9_PKSA_lLl1024EEESE_EEJaEEENS0_10scan_errorEEC2Ev:
 1551|  88.2k|    constexpr expected() = default;
_ZN3scn2v46detail21expected_storage_baseINS0_11scan_resultINS0_6ranges6detail9subrange_8subrangeINSt3__116__deque_iteratorIwPKwRSA_PKSB_lLl1024EEESF_EEJaEEENS0_10scan_errorELb1EEC2Ev:
  426|  88.2k|        : m_value(T{}), m_has_value(true)
  427|  88.2k|    {
  428|  88.2k|    }
_ZN3scn2v411scan_resultINS0_6ranges6detail9subrange_8subrangeINSt3__116__deque_iteratorIwPKwRS8_PKS9_lLl1024EEESD_EEJaEEC2Ev:
 6264|  88.2k|    constexpr scan_result() = default;
_ZN3scn2v46detail25scan_result_range_storageINS0_6ranges6detail9subrange_8subrangeINSt3__116__deque_iteratorIwPKwRS9_PKSA_lLl1024EEESE_EEEC2Ev:
 6107|   529k|    constexpr scan_result_range_storage() = default;
_ZN3scn2v46ranges6detail9subrange_8subrangeINSt3__116__deque_iteratorIwPKwRS7_PKS8_lLl1024EEESC_EC2Ev:
 3459|   529k|    subrange() = default;
_ZN3scn2v416fill_scan_resultINS0_11scan_resultINS0_6ranges6detail9subrange_8subrangeINSt3__116__deque_iteratorIwPKwRS9_PKSA_lLl1024EEESE_EEJaEEESF_TnPNS7_9enable_ifIXsr3stdE13conjunction_vINS0_6detail25is_specialization_of_implIu11__remove_cvIu20__remove_reference_tIT_EES2_EENS7_7is_sameINSK_10range_typeET0_EEEEvE4typeELPv0EEEvRNS0_13scan_expectedISK_EEONSW_ISQ_EE:
 9315|  88.2k|{
 9316|  88.2k|    if (SCN_UNLIKELY(!in)) {
  ------------------
  |  |  865|  88.2k|#define SCN_UNLIKELY(x) __builtin_expect(!!(x), 0)
  |  |  ------------------
  |  |  |  Branch (865:25): [True: 87.5k, False: 660]
  |  |  ------------------
  ------------------
 9317|  87.5k|        out = unexpected(in.error());
 9318|  87.5k|    }
 9319|    660|    else {
 9320|    660|        out->set_range(SCN_MOVE(*in));
  ------------------
  |  |  934|    660|    static_cast<    \
  |  |  935|    660|        typename ::scn::detail::remove_reference<decltype(x)>::type&&>(x)
  ------------------
 9321|    660|    }
 9322|  88.2k|}
_ZNK3scn2v48expectedINS0_6ranges6detail9subrange_8subrangeINSt3__116__deque_iteratorIwPKwRS8_PKS9_lLl1024EEESD_EENS0_10scan_errorEEcvbEv:
 1739|   529k|    {
 1740|   529k|        return has_value();
 1741|   529k|    }
_ZNK3scn2v46detail21expected_storage_baseINS0_6ranges6detail9subrange_8subrangeINSt3__116__deque_iteratorIwPKwRS9_PKSA_lLl1024EEESE_EENS0_10scan_errorELb1EE9has_valueEv:
  489|  1.05M|    {
  490|  1.05M|        return m_has_value;
  491|  1.05M|    }
_ZNR3scn2v48expectedINS0_6ranges6detail9subrange_8subrangeINSt3__116__deque_iteratorIwPKwRS8_PKS9_lLl1024EEESD_EENS0_10scan_errorEE5errorEv:
 1745|   525k|    {
 1746|   525k|        SCN_EXPECT(!has_value());
  ------------------
  |  |  930|   525k|#define SCN_EXPECT(cond) SCN_ASSERT(cond, "Precondition violation")
  |  |  ------------------
  |  |  |  |  927|   525k|#define SCN_ASSERT(cond, msg) assert((cond) && msg)
  |  |  ------------------
  ------------------
 1747|   525k|        return this->get_unexpected().error();
 1748|   525k|    }
_ZNR3scn2v46detail21expected_storage_baseINS0_6ranges6detail9subrange_8subrangeINSt3__116__deque_iteratorIwPKwRS9_PKSA_lLl1024EEESE_EENS0_10scan_errorELb1EE14get_unexpectedEv:
  472|   525k|    {
  473|   525k|        return m_unexpected;
  474|   525k|    }
_ZN3scn2v48expectedINS0_11scan_resultINS0_6ranges6detail9subrange_8subrangeINSt3__116__deque_iteratorIwPKwRS9_PKSA_lLl1024EEESE_EEJaEEENS0_10scan_errorEEC2ISH_TnPNS7_9enable_ifIXsr3stdE18is_constructible_vISH_OT_EEvE4typeELPv0ETnPNSK_IXsr3stdE16is_convertible_vISM_SH_EEvE4typeELSQ_0EEEONS0_10unexpectedISL_EE:
 1615|  87.5k|        : base(unexpect, std::move(e.error())),
 1616|  87.5k|          ctor_base(detail::non_default_ctor_tag_t{})
 1617|  87.5k|    {
 1618|  87.5k|    }
_ZN3scn2v46detail21expected_storage_baseINS0_11scan_resultINS0_6ranges6detail9subrange_8subrangeINSt3__116__deque_iteratorIwPKwRSA_PKSB_lLl1024EEESF_EEJaEEENS0_10scan_errorELb1EEC2IJSI_EvEENS0_10unexpect_tEDpOT_:
  449|  87.5k|        : m_unexpected(std::in_place, std::forward<Args>(args)...),
  450|  87.5k|          m_has_value(false)
  451|  87.5k|    {
  452|  87.5k|    }
_ZN3scn2v46detail26expected_default_ctor_baseINS0_11scan_resultINS0_6ranges6detail9subrange_8subrangeINSt3__116__deque_iteratorIwPKwRSA_PKSB_lLl1024EEESF_EEJaEEENS0_10scan_errorELb1EEC2ENS1_22non_default_ctor_tag_tE:
 1315|  87.5k|    {
 1316|  87.5k|    }
_ZN3scn2v48expectedINS0_11scan_resultINS0_6ranges6detail9subrange_8subrangeINSt3__116__deque_iteratorIwPKwRS9_PKSA_lLl1024EEESE_EEJaEEENS0_10scan_errorEEaSEOSI_:
 1556|  87.5k|    constexpr expected& operator=(expected&&) = default;
_ZN3scn2v46detail24expected_operations_baseINS0_11scan_resultINS0_6ranges6detail9subrange_8subrangeINSt3__116__deque_iteratorIwPKwRSA_PKSB_lLl1024EEESF_EEJaEEENS0_10scan_errorEvEaSEOSJ_:
  902|  87.5k|    {
  903|  87.5k|        assign_common(std::move(other));
  904|  87.5k|        return *this;
  905|  87.5k|    }
_ZN3scn2v46detail24expected_operations_baseINS0_11scan_resultINS0_6ranges6detail9subrange_8subrangeINSt3__116__deque_iteratorIwPKwRSA_PKSB_lLl1024EEESF_EEJaEEENS0_10scan_errorEvE13assign_commonISJ_EEvOT_:
  949|  87.5k|    {
  950|  87.5k|        if (this->has_value()) {
  ------------------
  |  Branch (950:13): [True: 87.5k, False: 0]
  ------------------
  951|  87.5k|            if (other.has_value()) {
  ------------------
  |  Branch (951:17): [True: 0, False: 87.5k]
  ------------------
  952|      0|                return reassign_value(std::forward<Other>(other));
  953|      0|            }
  954|  87.5k|            return assign_unexpected_over_value(std::forward<Other>(other));
  955|  87.5k|        }
  956|       |
  957|      0|        if (other.has_value()) {
  ------------------
  |  Branch (957:13): [True: 0, False: 0]
  ------------------
  958|      0|            return assign_value_over_unexpected(std::forward<Other>(other));
  959|      0|        }
  960|      0|        return reassign_unexpected(std::forward<Other>(other));
  961|      0|    }
_ZNK3scn2v46detail21expected_storage_baseINS0_11scan_resultINS0_6ranges6detail9subrange_8subrangeINSt3__116__deque_iteratorIwPKwRSA_PKSB_lLl1024EEESF_EEJaEEENS0_10scan_errorELb1EE9has_valueEv:
  489|   352k|    {
  490|   352k|        return m_has_value;
  491|   352k|    }
_ZNR3scn2v46detail21expected_storage_baseINS0_11scan_resultINS0_6ranges6detail9subrange_8subrangeINSt3__116__deque_iteratorIwPKwRSA_PKSB_lLl1024EEESF_EEJaEEENS0_10scan_errorELb1EE9get_valueEv:
  455|  89.5k|    {
  456|  89.5k|        return m_value;
  457|  89.5k|    }
_ZN3scn2v46detail24expected_operations_baseINS0_11scan_resultINS0_6ranges6detail9subrange_8subrangeINSt3__116__deque_iteratorIwPKwRSA_PKSB_lLl1024EEESF_EEJaEEENS0_10scan_errorEvE28assign_unexpected_over_valueISJ_EEvOT_:
 1045|  87.5k|    {
 1046|  87.5k|        this->destroy_value();
 1047|  87.5k|        this->construct_unexpected(std::forward<Other>(other).get_unexpected());
 1048|  87.5k|    }
_ZN3scn2v46detail21expected_storage_baseINS0_11scan_resultINS0_6ranges6detail9subrange_8subrangeINSt3__116__deque_iteratorIwPKwRSA_PKSB_lLl1024EEESF_EEJaEEENS0_10scan_errorELb1EE13destroy_valueEv:
  510|  87.5k|    static constexpr void destroy_value() noexcept {}
_ZN3scn2v46detail21expected_storage_baseINS0_11scan_resultINS0_6ranges6detail9subrange_8subrangeINSt3__116__deque_iteratorIwPKwRSA_PKSB_lLl1024EEESF_EEJaEEENS0_10scan_errorELb1EE20construct_unexpectedIJNS0_10unexpectedISI_EEEEEvDpOT_:
  503|  87.5k|    {
  504|  87.5k|        scn::detail::construct_at(&get_unexpected(),
  505|  87.5k|                                  std::forward<Args>(args)...);
  506|  87.5k|        m_has_value = false;
  507|  87.5k|    }
_ZNR3scn2v46detail21expected_storage_baseINS0_11scan_resultINS0_6ranges6detail9subrange_8subrangeINSt3__116__deque_iteratorIwPKwRSA_PKSB_lLl1024EEESF_EEJaEEENS0_10scan_errorELb1EE14get_unexpectedEv:
  472|  87.5k|    {
  473|  87.5k|        return m_unexpected;
  474|  87.5k|    }
_ZNO3scn2v46detail21expected_storage_baseINS0_11scan_resultINS0_6ranges6detail9subrange_8subrangeINSt3__116__deque_iteratorIwPKwRSA_PKSB_lLl1024EEESF_EEJaEEENS0_10scan_errorELb1EE14get_unexpectedEv:
  480|  87.5k|    {
  481|  87.5k|        return std::move(m_unexpected);
  482|  87.5k|    }
_ZN3scn2v46detail25scan_result_range_storageINS0_6ranges6detail9subrange_8subrangeINSt3__116__deque_iteratorIwPKwRS9_PKSA_lLl1024EEESE_EEE9set_rangeISF_EEvOT_:
 6138|  4.31k|    {
 6139|  4.31k|        m_range = std::forward<Other>(r);
 6140|  4.31k|    }
_ZNR3scn2v48expectedINS0_6ranges6detail9subrange_8subrangeINSt3__116__deque_iteratorIwPKwRS8_PKS9_lLl1024EEESD_EENS0_10scan_errorEEdeISE_TnPNS6_9enable_ifIXntsr3stdE9is_void_vIT_EEvE4typeELPv0EEERSJ_v:
 1794|  4.31k|    {
 1795|  4.31k|        return value();
 1796|  4.31k|    }
_ZNR3scn2v48expectedINS0_6ranges6detail9subrange_8subrangeINSt3__116__deque_iteratorIwPKwRS8_PKS9_lLl1024EEESD_EENS0_10scan_errorEE5valueISE_TnPNS6_9enable_ifIXntsr3stdE9is_void_vIT_EEvE4typeELPv0EEERSJ_v:
 1768|  4.31k|    {
 1769|  4.31k|        SCN_EXPECT(has_value());
  ------------------
  |  |  930|  4.31k|#define SCN_EXPECT(cond) SCN_ASSERT(cond, "Precondition violation")
  |  |  ------------------
  |  |  |  |  927|  4.31k|#define SCN_ASSERT(cond, msg) assert((cond) && msg)
  |  |  ------------------
  ------------------
 1770|  4.31k|        return this->get_value();
 1771|  4.31k|    }
_ZNR3scn2v46detail21expected_storage_baseINS0_6ranges6detail9subrange_8subrangeINSt3__116__deque_iteratorIwPKwRS9_PKSA_lLl1024EEESE_EENS0_10scan_errorELb1EE9get_valueEv:
  455|  4.31k|    {
  456|  4.31k|        return m_value;
  457|  4.31k|    }
_ZN3scn2v46detail13vscan_genericINS0_6ranges6detail9subrange_8subrangeINSt3__116__deque_iteratorIwPKwRS9_PKSA_lLl1024EEESE_EEwEENS0_13scan_expectedINS7_11conditionalIXsr3stdE9is_same_vIu11__remove_cvIu20__remove_reference_tIT_EEP8_IO_FILEEESM_NS1_22borrowed_tail_subrangeISI_Xsr6rangesE14borrowed_rangeISI_EEE4typeEE4typeEEEOSI_NS7_17basic_string_viewIT0_NS7_11char_traitsISV_EEEENS0_15basic_scan_argsINS0_18basic_scan_contextINS1_16buffer_range_tagESV_EEEE:
 9091|   252k|{
 9092|   252k|    auto buffer = make_scan_buffer(range);
 9093|       |
 9094|   252k|    auto result = vscan_impl(buffer, format, args);
 9095|   252k|    if (SCN_UNLIKELY(!result)) {
  ------------------
  |  |  865|   252k|#define SCN_UNLIKELY(x) __builtin_expect(!!(x), 0)
  |  |  ------------------
  |  |  |  Branch (865:25): [True: 250k, False: 1.99k]
  |  |  ------------------
  ------------------
 9096|   250k|        return unexpected(result.error());
 9097|   250k|    }
 9098|  1.99k|    return make_vscan_result_range(SCN_FWD(range), *result);
  ------------------
  |  |  936|  1.99k|#define SCN_FWD(x)          static_cast<decltype(x)&&>(x)
  ------------------
 9099|   252k|}
_ZN3scn2v46detail16make_scan_bufferINS0_6ranges6detail9subrange_8subrangeINSt3__116__deque_iteratorIwPKwRS9_PKSA_lLl1024EEESE_EEEEDaRKT_:
 5074|   529k|{
 5075|   529k|    using T = decltype(_make_scan_buffer::impl(range, priority_tag<4>{}));
 5076|       |
 5077|   529k|    static_assert(!std::is_same_v<T, invalid_char_type>,
 5078|   529k|                  "\n"
 5079|   529k|                  "Unsupported range type given as input to a scanning "
 5080|   529k|                  "function.\n"
 5081|   529k|                  "A range needs to have a character type (value type) "
 5082|   529k|                  "of either `char` or `wchar_t` to be scannable.\n"
 5083|   529k|                  "For proper `wchar_t` support, <scn/xchar.h> needs "
 5084|   529k|                  "to be included.\n"
 5085|   529k|                  "See the scnlib documentation for more details.");
 5086|   529k|    static_assert(
 5087|   529k|        !std::is_same_v<T, custom_char_traits>,
 5088|   529k|        "\n"
 5089|   529k|        "Unsupported range type given as input to a scanning "
 5090|   529k|        "function.\n"
 5091|   529k|        "String types (std::basic_string, and std::basic_string_view) "
 5092|   529k|        "need to use std::char_traits. Strings with custom Traits are "
 5093|   529k|        "not supported.");
 5094|   529k|    static_assert(!std::is_same_v<T, file_marker_found>,
 5095|   529k|                  "\n"
 5096|   529k|                  "Unsupported range type given as input to a scanning "
 5097|   529k|                  "function.\n"
 5098|   529k|                  "file_marker_found cannot be used as an "
 5099|   529k|                  "source range type to scn::scan.\n"
 5100|   529k|                  "To read from stdin, use scn::input or scn::prompt, "
 5101|   529k|                  "and do not provide an explicit source range, "
 5102|   529k|                  "or use scn::scan with a FILE* directly.");
 5103|   529k|    static_assert(!std::is_same_v<T, insufficient_range>,
 5104|   529k|                  "\n"
 5105|   529k|                  "Unsupported range type given as input to a scanning "
 5106|   529k|                  "function.\n"
 5107|   529k|                  "In order to be scannable, a range needs to satisfy "
 5108|   529k|                  "`forward_range`. `input_range` is not sufficient.");
 5109|   529k|    static_assert(!std::is_same_v<T, invalid_input_range>,
 5110|   529k|                  "\n"
 5111|   529k|                  "Unsupported range type given as input to a scanning "
 5112|   529k|                  "function.\n"
 5113|   529k|                  "A range needs to model forward_range and have a valid "
 5114|   529k|                  "character type (char or wchar_t) to be scannable.\n"
 5115|   529k|                  "Examples of scannable ranges are std::string, "
 5116|   529k|                  "std::string_view, "
 5117|   529k|                  "std::vector<char>, and scn::istreambuf_view.\n"
 5118|   529k|                  "See the scnlib documentation for more details.");
 5119|       |
 5120|   529k|    return _make_scan_buffer::impl(range, priority_tag<4>{});
 5121|   529k|}
_ZN3scn2v46detail17_make_scan_buffer4implINS0_6ranges6detail9subrange_8subrangeINSt3__116__deque_iteratorIwPKwRSA_PKSB_lLl1024EEESF_EEEEDaRKT_NS1_12priority_tagILm0EEE:
 5044|   529k|{
 5045|       |    if constexpr (std::is_same_v<Range, file_marker>) {
 5046|       |        return file_marker_found{};
 5047|       |    }
 5048|       |    else if constexpr (!ranges::forward_range<Range>) {
 5049|       |        if constexpr (ranges::range<Range>) {
 5050|       |            return insufficient_range{};
 5051|       |        }
 5052|       |        else {
 5053|       |            return invalid_input_range{};
 5054|       |        }
 5055|       |    }
 5056|       |    else if constexpr (!is_valid_char_type<detail::char_t<Range>>) {
 5057|       |        return invalid_char_type{};
 5058|       |    }
 5059|   529k|    else {
 5060|   529k|        return make_forward_scan_buffer(r);
 5061|   529k|    }
 5062|   529k|}
_ZN3scn2v46detail24make_forward_scan_bufferINS0_6ranges6detail9subrange_8subrangeINSt3__116__deque_iteratorIwPKwRS9_PKSA_lLl1024EEESE_EEEEDaRKT_:
 4878|   529k|{
 4879|   529k|    return basic_scan_forward_buffer_impl(range);
 4880|   529k|}
_ZN3scn2v46detail30basic_scan_forward_buffer_implINS0_6ranges6detail9subrange_8subrangeINSt3__116__deque_iteratorIwPKwRS9_PKSA_lLl1024EEESE_EEEC2IRKSF_TnPNS7_9enable_ifIXaa11is_not_selfIT_SG_Esr3stdE16is_convertible_vISL_SJ_EEvE4typeELPv0EEEOSL_:
 4763|   529k|        : m_range(std::addressof(static_cast<const Range&>(SCN_FWD(r)))),
  ------------------
  |  |  936|   529k|#define SCN_FWD(x)          static_cast<decltype(x)&&>(x)
  ------------------
 4764|   529k|          m_cursor(ranges::begin(*m_range))
 4765|   529k|    {
 4766|   529k|    }
_ZN3scn2v46detail30basic_scan_forward_buffer_baseIwEC2Ev:
 4735|   529k|    basic_scan_forward_buffer_base() : base(typename base::non_contiguous_tag{})
 4736|   529k|    {
 4737|   529k|    }
_ZN3scn2v46detail17basic_scan_bufferIwEC2ENS3_18non_contiguous_tagENSt3__117basic_string_viewIwNS5_11char_traitsIwEEEE:
 4426|   529k|        : m_current_view(sv), m_is_contiguous(false)
 4427|   529k|    {
 4428|   529k|    }
_ZN3scn2v46detail17basic_scan_bufferIwED2Ev:
 4340|   529k|    virtual ~basic_scan_buffer() = default;
_ZNK3scn2v46ranges6detail6begin_2fnclIRKNS2_9subrange_8subrangeINSt3__116__deque_iteratorIwPKwRSA_PKSB_lLl1024EEESF_EEEEDTclsr2fnE4implscDtfp_Efp_tlNS0_6detail12priority_tagILm3EEEEEEOT_:
 2868|   534k|    {
 2869|   534k|        return fn::impl(SCN_FWD(t), priority_tag<3>{});
  ------------------
  |  |  936|   534k|#define SCN_FWD(x)          static_cast<decltype(x)&&>(x)
  ------------------
 2870|   534k|    }
_ZN3scn2v46ranges6detail6begin_2fn4implIRKNS2_9subrange_8subrangeINSt3__116__deque_iteratorIwPKwRSA_PKSB_lLl1024EEESF_EEEENS8_9enable_ifIX24input_or_output_iteratorIDTcl10decay_copycldtscDtfp_Efp_5beginEEEEESL_E4typeEOT_NS0_6detail12priority_tagILm1EEE:
 2849|   534k|    {
 2850|   534k|        return decay_copy(t.begin());
 2851|   534k|    }
_ZNK3scn2v46ranges6detail9subrange_8subrangeINSt3__116__deque_iteratorIwPKwRS7_PKS8_lLl1024EEESC_E5beginEv:
 3479|   538k|    {
 3480|   538k|        return m_iterator;
 3481|   538k|    }
_ZN3scn2v46detail30basic_scan_forward_buffer_implINS0_6ranges6detail9subrange_8subrangeINSt3__116__deque_iteratorIwPKwRS9_PKSA_lLl1024EEESE_EEE4fillEv:
 4769|   103M|    {
 4770|   103M|        if (m_cursor == ranges::end(*m_range)) {
  ------------------
  |  Branch (4770:13): [True: 175k, False: 103M]
  ------------------
 4771|   175k|            return false;
 4772|   175k|        }
 4773|   103M|        if constexpr (mp_valid_v<less_than_compare, iterator, sentinel>) {
 4774|   103M|            SCN_EXPECT(m_cursor < ranges::end(*m_range));
  ------------------
  |  |  930|   103M|#define SCN_EXPECT(cond) SCN_ASSERT(cond, "Precondition violation")
  |  |  ------------------
  |  |  |  |  927|   103M|#define SCN_ASSERT(cond, msg) assert((cond) && msg)
  |  |  ------------------
  ------------------
 4775|   103M|        }
 4776|   103M|        if (!this->m_current_view.empty()) {
  ------------------
  |  Branch (4776:13): [True: 103M, False: 378k]
  ------------------
 4777|   103M|            this->m_putback_buffer.insert(this->m_putback_buffer.end(),
 4778|   103M|                                          this->m_current_view.begin(),
 4779|   103M|                                          this->m_current_view.end());
 4780|   103M|        }
 4781|   103M|        m_latest = *m_cursor;
 4782|   103M|        ++m_cursor;
 4783|   103M|        this->m_current_view = std::basic_string_view<char_type>{&m_latest, 1};
 4784|   103M|        if constexpr (mp_valid_v<less_than_compare, iterator, sentinel>) {
 4785|   103M|            SCN_EXPECT(m_cursor <= ranges::end(*m_range));
  ------------------
  |  |  930|   103M|#define SCN_EXPECT(cond) SCN_ASSERT(cond, "Precondition violation")
  |  |  ------------------
  |  |  |  |  927|   103M|#define SCN_ASSERT(cond, msg) assert((cond) && msg)
  |  |  ------------------
  ------------------
 4786|   103M|        }
 4787|   103M|        return true;
 4788|   103M|    }
_ZNK3scn2v46ranges6detail4end_2fnclIRKNS2_9subrange_8subrangeINSt3__116__deque_iteratorIwPKwRSA_PKSB_lLl1024EEESF_EEEEDTclsr2fnE4implscDtfp_Efp_tlNS0_6detail12priority_tagILm3EEEEEEOT_:
 2925|   310M|    {
 2926|   310M|        return fn::impl(SCN_FWD(t), priority_tag<3>{});
  ------------------
  |  |  936|   310M|#define SCN_FWD(x)          static_cast<decltype(x)&&>(x)
  ------------------
 2927|   310M|    }
_ZN3scn2v46ranges6detail4end_2fn4implIRKNS2_9subrange_8subrangeINSt3__116__deque_iteratorIwPKwRSA_PKSB_lLl1024EEESF_EESF_SF_EENS8_9enable_ifIX12sentinel_forIT0_T1_EEDTcl10decay_copycldtscDtfp_Efp_3endEEEE4typeEOT_NS0_6detail12priority_tagILm1EEE:
 2907|   310M|    {
 2908|   310M|        return decay_copy(SCN_FWD(t).end());
  ------------------
  |  |  936|   310M|#define SCN_FWD(x)          static_cast<decltype(x)&&>(x)
  ------------------
 2909|   310M|    }
_ZNK3scn2v46ranges6detail9subrange_8subrangeINSt3__116__deque_iteratorIwPKwRS7_PKS8_lLl1024EEESC_E3endEv:
 3483|   310M|    {
 3484|   310M|        return m_sentinel;
 3485|   310M|    }
_ZN3scn2v46detail17basic_scan_bufferIwE4syncEl:
 4345|   529k|    {
 4346|   529k|        SCN_UNUSED(position);
  ------------------
  |  |  915|   529k|#define SCN_UNUSED(x) static_cast<void>(sizeof(x))
  ------------------
 4347|   529k|    }
_ZN3scn2v48expectedINS0_6ranges6detail9subrange_8subrangeINSt3__116__deque_iteratorIwPKwRS8_PKS9_lLl1024EEESD_EENS0_10scan_errorEEC2ISF_TnPNS6_9enable_ifIXsr3stdE18is_constructible_vISF_OT_EEvE4typeELPv0ETnPNSI_IXsr3stdE16is_convertible_vISK_SF_EEvE4typeELSO_0EEEONS0_10unexpectedISJ_EE:
 1615|   525k|        : base(unexpect, std::move(e.error())),
 1616|   525k|          ctor_base(detail::non_default_ctor_tag_t{})
 1617|   525k|    {
 1618|   525k|    }
_ZN3scn2v46detail21expected_storage_baseINS0_6ranges6detail9subrange_8subrangeINSt3__116__deque_iteratorIwPKwRS9_PKSA_lLl1024EEESE_EENS0_10scan_errorELb1EEC2IJSG_EvEENS0_10unexpect_tEDpOT_:
  449|   525k|        : m_unexpected(std::in_place, std::forward<Args>(args)...),
  450|   525k|          m_has_value(false)
  451|   525k|    {
  452|   525k|    }
_ZN3scn2v46detail26expected_default_ctor_baseINS0_6ranges6detail9subrange_8subrangeINSt3__116__deque_iteratorIwPKwRS9_PKSA_lLl1024EEESE_EENS0_10scan_errorELb1EEC2ENS1_22non_default_ctor_tag_tE:
 1315|   529k|    {
 1316|   529k|    }
_ZN3scn2v46detail23make_vscan_result_rangeINS0_6ranges6detail9subrange_8subrangeINSt3__116__deque_iteratorIwPKwRS9_PKSA_lLl1024EEESE_EEEENS1_22borrowed_tail_subrangeIT_Xsr6rangesE14borrowed_rangeISH_EEE4typeEOSH_l:
 6368|  4.31k|{
 6369|       |    if constexpr (ranges::random_access_iterator<
 6370|  4.31k|                      ranges::iterator_t<SourceRange>>) {
 6371|  4.31k|        return {ranges::begin(source) + n, make_vscan_result_range_end(source)};
 6372|       |    }
 6373|       |    else {
 6374|       |        auto it = ranges::begin(source);
 6375|       |        while (n > 0) {
 6376|       |            --n;
 6377|       |            ++it;
 6378|       |        }
 6379|       |        return {SCN_MOVE(it), make_vscan_result_range_end(source)};
 6380|       |    }
 6381|  4.31k|}
_ZNK3scn2v46ranges6detail6begin_2fnclIRNS2_9subrange_8subrangeINSt3__116__deque_iteratorIwPKwRSA_PKSB_lLl1024EEESF_EEEEDTclsr2fnE4implscDtfp_Efp_tlNS0_6detail12priority_tagILm3EEEEEEOT_:
 2868|  4.31k|    {
 2869|  4.31k|        return fn::impl(SCN_FWD(t), priority_tag<3>{});
  ------------------
  |  |  936|  4.31k|#define SCN_FWD(x)          static_cast<decltype(x)&&>(x)
  ------------------
 2870|  4.31k|    }
_ZN3scn2v46ranges6detail6begin_2fn4implIRNS2_9subrange_8subrangeINSt3__116__deque_iteratorIwPKwRSA_PKSB_lLl1024EEESF_EEEENS8_9enable_ifIX24input_or_output_iteratorIDTcl10decay_copycldtscDtfp_Efp_5beginEEEEESK_E4typeEOT_NS0_6detail12priority_tagILm1EEE:
 2849|  4.31k|    {
 2850|  4.31k|        return decay_copy(t.begin());
 2851|  4.31k|    }
_ZN3scn2v46detail27make_vscan_result_range_endINS0_6ranges6detail9subrange_8subrangeINSt3__116__deque_iteratorIwPKwRS9_PKSA_lLl1024EEESE_EEEEDaRT_:
 6355|  4.31k|{
 6356|  4.31k|    return ranges::end(source);
 6357|  4.31k|}
_ZNK3scn2v46ranges6detail4end_2fnclIRNS2_9subrange_8subrangeINSt3__116__deque_iteratorIwPKwRSA_PKSB_lLl1024EEESF_EEEEDTclsr2fnE4implscDtfp_Efp_tlNS0_6detail12priority_tagILm3EEEEEEOT_:
 2925|  4.31k|    {
 2926|  4.31k|        return fn::impl(SCN_FWD(t), priority_tag<3>{});
  ------------------
  |  |  936|  4.31k|#define SCN_FWD(x)          static_cast<decltype(x)&&>(x)
  ------------------
 2927|  4.31k|    }
_ZN3scn2v46ranges6detail4end_2fn4implIRNS2_9subrange_8subrangeINSt3__116__deque_iteratorIwPKwRSA_PKSB_lLl1024EEESF_EESF_SF_EENS8_9enable_ifIX12sentinel_forIT0_T1_EEDTcl10decay_copycldtscDtfp_Efp_3endEEEE4typeEOT_NS0_6detail12priority_tagILm1EEE:
 2907|  4.31k|    {
 2908|  4.31k|        return decay_copy(SCN_FWD(t).end());
  ------------------
  |  |  936|  4.31k|#define SCN_FWD(x)          static_cast<decltype(x)&&>(x)
  ------------------
 2909|  4.31k|    }
_ZN3scn2v48expectedINS0_6ranges6detail9subrange_8subrangeINSt3__116__deque_iteratorIwPKwRS8_PKS9_lLl1024EEESD_EENS0_10scan_errorEEC2ISE_vEEOT_:
 1569|  4.31k|        : base(std::in_place, std::forward<U>(val)),
 1570|  4.31k|          ctor_base(detail::non_default_ctor_tag_t{})
 1571|  4.31k|    {
 1572|  4.31k|    }
_ZN3scn2v46detail21expected_storage_baseINS0_6ranges6detail9subrange_8subrangeINSt3__116__deque_iteratorIwPKwRS9_PKSA_lLl1024EEESE_EENS0_10scan_errorELb1EEC2IJSF_EvEENS7_10in_place_tEDpOT_:
  440|  4.31k|        : m_value(std::forward<Args>(args)...), m_has_value(true)
  441|  4.31k|    {
  442|  4.31k|    }
_ZNK3scn2v424basic_scan_format_stringIwNS0_6ranges6detail9subrange_8subrangeINSt3__116__deque_iteratorIwPKwRS8_PKS9_lLl1024EEESD_EEJaEEcvNS6_17basic_string_viewIwNS6_11char_traitsIwEEEEEv:
 8461|  84.0k|    {
 8462|  84.0k|        return m_str;
 8463|  84.0k|    }
_ZN3scn2v46ranges6detail9subrange_8subrangeINSt3__116__deque_iteratorIwPKwRS7_PKS8_lLl1024EEESC_EC2ISC_TnPNS5_9enable_ifIXsr3stdE16is_convertible_vIT_SC_EEvE4typeELPv0EEESG_SC_:
 3464|   534k|        : m_iterator(SCN_MOVE(i)), m_sentinel(SCN_MOVE(s))
  ------------------
  |  |  934|   534k|    static_cast<    \
  |  |  935|   534k|        typename ::scn::detail::remove_reference<decltype(x)>::type&&>(x)
  ------------------
                      : m_iterator(SCN_MOVE(i)), m_sentinel(SCN_MOVE(s))
  ------------------
  |  |  934|   534k|    static_cast<    \
  |  |  935|   534k|        typename ::scn::detail::remove_reference<decltype(x)>::type&&>(x)
  ------------------
 3465|   534k|    {
 3466|   534k|    }
_ZN3scn2v424basic_scan_format_stringIwNS0_6ranges6detail9subrange_8subrangeINSt3__116__deque_iteratorIwPKwRS8_PKS9_lLl1024EEESD_EEJaEEC2ENS0_6detail27basic_runtime_format_stringIwEE:
 8456|  84.0k|        : m_str(r.str)
 8457|  84.0k|    {
 8458|  84.0k|    }
_ZNK3scn2v48expectedINS0_11scan_resultINS0_6ranges6detail9subrange_8subrangeINSt3__116__deque_iteratorIwPKwRS9_PKSA_lLl1024EEESE_EEJaEEENS0_10scan_errorEEcvbEv:
 1739|  88.2k|    {
 1740|  88.2k|        return has_value();
 1741|  88.2k|    }
_ZN3scn2v48expectedINS0_11scan_resultINS0_6ranges6detail9subrange_8subrangeINSt3__116__deque_iteratorIwPKwRS9_PKSA_lLl1024EEESE_EEJaEEENS0_10scan_errorEEptEv:
 1814|  89.5k|    {
 1815|  89.5k|        return &value();
 1816|  89.5k|    }
_ZNR3scn2v48expectedINS0_11scan_resultINS0_6ranges6detail9subrange_8subrangeINSt3__116__deque_iteratorIwPKwRS9_PKSA_lLl1024EEESE_EEJaEEENS0_10scan_errorEE5valueISG_TnPNS7_9enable_ifIXntsr3stdE9is_void_vIT_EEvE4typeELPv0EEERSL_v:
 1768|  89.5k|    {
 1769|  89.5k|        SCN_EXPECT(has_value());
  ------------------
  |  |  930|  89.5k|#define SCN_EXPECT(cond) SCN_ASSERT(cond, "Precondition violation")
  |  |  ------------------
  |  |  |  |  927|  89.5k|#define SCN_ASSERT(cond, msg) assert((cond) && msg)
  |  |  ------------------
  ------------------
 1770|  89.5k|        return this->get_value();
 1771|  89.5k|    }
_ZNK3scn2v46detail25scan_result_range_storageINS0_6ranges6detail9subrange_8subrangeINSt3__116__deque_iteratorIwPKwRS9_PKSA_lLl1024EEESE_EEE5beginEv:
 6127|  4.31k|    {
 6128|  4.31k|        return ranges::begin(m_range);
 6129|  4.31k|    }
_ZN3scn2v46detail23vscan_localized_genericINSt3__16localeENS0_6ranges6detail9subrange_8subrangeINS3_16__deque_iteratorIwPKwRSA_PKSB_lLl1024EEESF_EEwEENS0_13scan_expectedINS3_11conditionalIXsr3stdE9is_same_vIu11__remove_cvIu20__remove_reference_tIT0_EEP8_IO_FILEEESN_NS1_22borrowed_tail_subrangeISJ_Xsr6rangesE14borrowed_rangeISJ_EEE4typeEE4typeEEERKT_OSJ_NS3_17basic_string_viewIT1_NS3_11char_traitsISZ_EEEENS0_15basic_scan_argsINS0_18basic_scan_contextINS1_16buffer_range_tagESZ_EEEE:
 9107|   252k|{
 9108|   252k|#if !SCN_DISABLE_LOCALE
 9109|   252k|    auto buffer = detail::make_scan_buffer(range);
 9110|       |
 9111|   252k|    SCN_CLANG_PUSH_IGNORE_UNDEFINED_TEMPLATE
 9112|   252k|    auto result = detail::vscan_localized_impl(loc, buffer, format, args);
 9113|   252k|    SCN_CLANG_POP_IGNORE_UNDEFINED_TEMPLATE
 9114|       |
 9115|   252k|    if (SCN_UNLIKELY(!result)) {
  ------------------
  |  |  865|   252k|#define SCN_UNLIKELY(x) __builtin_expect(!!(x), 0)
  |  |  ------------------
  |  |  |  Branch (865:25): [True: 250k, False: 1.99k]
  |  |  ------------------
  ------------------
 9116|   250k|        return unexpected(result.error());
 9117|   250k|    }
 9118|  1.99k|    return detail::make_vscan_result_range(SCN_FWD(range), *result);
  ------------------
  |  |  936|  1.99k|#define SCN_FWD(x)          static_cast<decltype(x)&&>(x)
  ------------------
 9119|       |#else
 9120|       |    static_assert(dependent_false<Locale>::value,
 9121|       |                  "Can't use scan(locale, ...) with SCN_DISABLE_LOCALE on");
 9122|       |
 9123|       |    return {};
 9124|       |#endif
 9125|   252k|}
_ZN3scn2v46detail19vscan_value_genericINS0_6ranges6detail9subrange_8subrangeINSt3__116__deque_iteratorIwPKwRS9_PKSA_lLl1024EEESE_EEwEENS0_13scan_expectedINS7_11conditionalIXsr3stdE9is_same_vIu11__remove_cvIu20__remove_reference_tIT_EEP8_IO_FILEEESM_NS1_22borrowed_tail_subrangeISI_Xsr6rangesE14borrowed_rangeISI_EEE4typeEE4typeEEEOSI_NS0_14basic_scan_argINS0_18basic_scan_contextINS1_16buffer_range_tagET0_EEEE:
 9131|  25.3k|{
 9132|  25.3k|    auto buffer = detail::make_scan_buffer(range);
 9133|       |
 9134|  25.3k|    auto result = detail::vscan_value_impl(buffer, arg);
 9135|  25.3k|    if (SCN_UNLIKELY(!result)) {
  ------------------
  |  |  865|  25.3k|#define SCN_UNLIKELY(x) __builtin_expect(!!(x), 0)
  |  |  ------------------
  |  |  |  Branch (865:25): [True: 25.0k, False: 320]
  |  |  ------------------
  ------------------
 9136|  25.0k|        return unexpected(result.error());
 9137|  25.0k|    }
 9138|    320|    return detail::make_vscan_result_range(SCN_FWD(range), *result);
  ------------------
  |  |  936|    320|#define SCN_FWD(x)          static_cast<decltype(x)&&>(x)
  ------------------
 9139|  25.3k|}
_ZN3scn2v416make_scan_resultINS0_6ranges6detail9subrange_8subrangeINSt3__116__deque_iteratorIwPKwRS8_PKS9_lLl1024EEESD_EEJhEEEDav:
 9330|  88.1k|{
 9331|  88.1k|    return scan_result_type<Source, Args...>();
 9332|  88.1k|}
_ZN3scn2v48expectedINS0_11scan_resultINS0_6ranges6detail9subrange_8subrangeINSt3__116__deque_iteratorIwPKwRS9_PKSA_lLl1024EEESE_EEJhEEENS0_10scan_errorEEC2Ev:
 1551|  88.1k|    constexpr expected() = default;
_ZN3scn2v46detail21expected_storage_baseINS0_11scan_resultINS0_6ranges6detail9subrange_8subrangeINSt3__116__deque_iteratorIwPKwRSA_PKSB_lLl1024EEESF_EEJhEEENS0_10scan_errorELb1EEC2Ev:
  426|  88.1k|        : m_value(T{}), m_has_value(true)
  427|  88.1k|    {
  428|  88.1k|    }
_ZN3scn2v411scan_resultINS0_6ranges6detail9subrange_8subrangeINSt3__116__deque_iteratorIwPKwRS8_PKS9_lLl1024EEESD_EEJhEEC2Ev:
 6264|  88.1k|    constexpr scan_result() = default;
_ZN3scn2v416fill_scan_resultINS0_11scan_resultINS0_6ranges6detail9subrange_8subrangeINSt3__116__deque_iteratorIwPKwRS9_PKSA_lLl1024EEESE_EEJhEEESF_TnPNS7_9enable_ifIXsr3stdE13conjunction_vINS0_6detail25is_specialization_of_implIu11__remove_cvIu20__remove_reference_tIT_EES2_EENS7_7is_sameINSK_10range_typeET0_EEEEvE4typeELPv0EEEvRNS0_13scan_expectedISK_EEONSW_ISQ_EE:
 9315|  88.1k|{
 9316|  88.1k|    if (SCN_UNLIKELY(!in)) {
  ------------------
  |  |  865|  88.1k|#define SCN_UNLIKELY(x) __builtin_expect(!!(x), 0)
  |  |  ------------------
  |  |  |  Branch (865:25): [True: 87.5k, False: 563]
  |  |  ------------------
  ------------------
 9317|  87.5k|        out = unexpected(in.error());
 9318|  87.5k|    }
 9319|    563|    else {
 9320|    563|        out->set_range(SCN_MOVE(*in));
  ------------------
  |  |  934|    563|    static_cast<    \
  |  |  935|    563|        typename ::scn::detail::remove_reference<decltype(x)>::type&&>(x)
  ------------------
 9321|    563|    }
 9322|  88.1k|}
_ZN3scn2v48expectedINS0_11scan_resultINS0_6ranges6detail9subrange_8subrangeINSt3__116__deque_iteratorIwPKwRS9_PKSA_lLl1024EEESE_EEJhEEENS0_10scan_errorEEC2ISH_TnPNS7_9enable_ifIXsr3stdE18is_constructible_vISH_OT_EEvE4typeELPv0ETnPNSK_IXsr3stdE16is_convertible_vISM_SH_EEvE4typeELSQ_0EEEONS0_10unexpectedISL_EE:
 1615|  87.5k|        : base(unexpect, std::move(e.error())),
 1616|  87.5k|          ctor_base(detail::non_default_ctor_tag_t{})
 1617|  87.5k|    {
 1618|  87.5k|    }
_ZN3scn2v46detail21expected_storage_baseINS0_11scan_resultINS0_6ranges6detail9subrange_8subrangeINSt3__116__deque_iteratorIwPKwRSA_PKSB_lLl1024EEESF_EEJhEEENS0_10scan_errorELb1EEC2IJSI_EvEENS0_10unexpect_tEDpOT_:
  449|  87.5k|        : m_unexpected(std::in_place, std::forward<Args>(args)...),
  450|  87.5k|          m_has_value(false)
  451|  87.5k|    {
  452|  87.5k|    }
_ZN3scn2v46detail26expected_default_ctor_baseINS0_11scan_resultINS0_6ranges6detail9subrange_8subrangeINSt3__116__deque_iteratorIwPKwRSA_PKSB_lLl1024EEESF_EEJhEEENS0_10scan_errorELb1EEC2ENS1_22non_default_ctor_tag_tE:
 1315|  87.5k|    {
 1316|  87.5k|    }
_ZN3scn2v48expectedINS0_11scan_resultINS0_6ranges6detail9subrange_8subrangeINSt3__116__deque_iteratorIwPKwRS9_PKSA_lLl1024EEESE_EEJhEEENS0_10scan_errorEEaSEOSI_:
 1556|  87.5k|    constexpr expected& operator=(expected&&) = default;
_ZN3scn2v46detail24expected_operations_baseINS0_11scan_resultINS0_6ranges6detail9subrange_8subrangeINSt3__116__deque_iteratorIwPKwRSA_PKSB_lLl1024EEESF_EEJhEEENS0_10scan_errorEvEaSEOSJ_:
  902|  87.5k|    {
  903|  87.5k|        assign_common(std::move(other));
  904|  87.5k|        return *this;
  905|  87.5k|    }
_ZN3scn2v46detail24expected_operations_baseINS0_11scan_resultINS0_6ranges6detail9subrange_8subrangeINSt3__116__deque_iteratorIwPKwRSA_PKSB_lLl1024EEESF_EEJhEEENS0_10scan_errorEvE13assign_commonISJ_EEvOT_:
  949|  87.5k|    {
  950|  87.5k|        if (this->has_value()) {
  ------------------
  |  Branch (950:13): [True: 87.5k, False: 0]
  ------------------
  951|  87.5k|            if (other.has_value()) {
  ------------------
  |  Branch (951:17): [True: 0, False: 87.5k]
  ------------------
  952|      0|                return reassign_value(std::forward<Other>(other));
  953|      0|            }
  954|  87.5k|            return assign_unexpected_over_value(std::forward<Other>(other));
  955|  87.5k|        }
  956|       |
  957|      0|        if (other.has_value()) {
  ------------------
  |  Branch (957:13): [True: 0, False: 0]
  ------------------
  958|      0|            return assign_value_over_unexpected(std::forward<Other>(other));
  959|      0|        }
  960|      0|        return reassign_unexpected(std::forward<Other>(other));
  961|      0|    }
_ZNK3scn2v46detail21expected_storage_baseINS0_11scan_resultINS0_6ranges6detail9subrange_8subrangeINSt3__116__deque_iteratorIwPKwRSA_PKSB_lLl1024EEESF_EEJhEEENS0_10scan_errorELb1EE9has_valueEv:
  489|   352k|    {
  490|   352k|        return m_has_value;
  491|   352k|    }
_ZNR3scn2v46detail21expected_storage_baseINS0_11scan_resultINS0_6ranges6detail9subrange_8subrangeINSt3__116__deque_iteratorIwPKwRSA_PKSB_lLl1024EEESF_EEJhEEENS0_10scan_errorELb1EE9get_valueEv:
  455|  89.2k|    {
  456|  89.2k|        return m_value;
  457|  89.2k|    }
_ZN3scn2v46detail24expected_operations_baseINS0_11scan_resultINS0_6ranges6detail9subrange_8subrangeINSt3__116__deque_iteratorIwPKwRSA_PKSB_lLl1024EEESF_EEJhEEENS0_10scan_errorEvE28assign_unexpected_over_valueISJ_EEvOT_:
 1045|  87.5k|    {
 1046|  87.5k|        this->destroy_value();
 1047|  87.5k|        this->construct_unexpected(std::forward<Other>(other).get_unexpected());
 1048|  87.5k|    }
_ZN3scn2v46detail21expected_storage_baseINS0_11scan_resultINS0_6ranges6detail9subrange_8subrangeINSt3__116__deque_iteratorIwPKwRSA_PKSB_lLl1024EEESF_EEJhEEENS0_10scan_errorELb1EE13destroy_valueEv:
  510|  87.5k|    static constexpr void destroy_value() noexcept {}
_ZN3scn2v46detail21expected_storage_baseINS0_11scan_resultINS0_6ranges6detail9subrange_8subrangeINSt3__116__deque_iteratorIwPKwRSA_PKSB_lLl1024EEESF_EEJhEEENS0_10scan_errorELb1EE20construct_unexpectedIJNS0_10unexpectedISI_EEEEEvDpOT_:
  503|  87.5k|    {
  504|  87.5k|        scn::detail::construct_at(&get_unexpected(),
  505|  87.5k|                                  std::forward<Args>(args)...);
  506|  87.5k|        m_has_value = false;
  507|  87.5k|    }
_ZNR3scn2v46detail21expected_storage_baseINS0_11scan_resultINS0_6ranges6detail9subrange_8subrangeINSt3__116__deque_iteratorIwPKwRSA_PKSB_lLl1024EEESF_EEJhEEENS0_10scan_errorELb1EE14get_unexpectedEv:
  472|  87.5k|    {
  473|  87.5k|        return m_unexpected;
  474|  87.5k|    }
_ZNO3scn2v46detail21expected_storage_baseINS0_11scan_resultINS0_6ranges6detail9subrange_8subrangeINSt3__116__deque_iteratorIwPKwRSA_PKSB_lLl1024EEESF_EEJhEEENS0_10scan_errorELb1EE14get_unexpectedEv:
  480|  87.5k|    {
  481|  87.5k|        return std::move(m_unexpected);
  482|  87.5k|    }
_ZNK3scn2v424basic_scan_format_stringIwNS0_6ranges6detail9subrange_8subrangeINSt3__116__deque_iteratorIwPKwRS8_PKS9_lLl1024EEESD_EEJhEEcvNS6_17basic_string_viewIwNS6_11char_traitsIwEEEEEv:
 8461|  83.9k|    {
 8462|  83.9k|        return m_str;
 8463|  83.9k|    }
_ZN3scn2v424basic_scan_format_stringIwNS0_6ranges6detail9subrange_8subrangeINSt3__116__deque_iteratorIwPKwRS8_PKS9_lLl1024EEESD_EEJhEEC2ENS0_6detail27basic_runtime_format_stringIwEE:
 8456|  83.9k|        : m_str(r.str)
 8457|  83.9k|    {
 8458|  83.9k|    }
_ZNK3scn2v48expectedINS0_11scan_resultINS0_6ranges6detail9subrange_8subrangeINSt3__116__deque_iteratorIwPKwRS9_PKSA_lLl1024EEESE_EEJhEEENS0_10scan_errorEEcvbEv:
 1739|  88.1k|    {
 1740|  88.1k|        return has_value();
 1741|  88.1k|    }
_ZN3scn2v48expectedINS0_11scan_resultINS0_6ranges6detail9subrange_8subrangeINSt3__116__deque_iteratorIwPKwRS9_PKSA_lLl1024EEESE_EEJhEEENS0_10scan_errorEEptEv:
 1814|  89.2k|    {
 1815|  89.2k|        return &value();
 1816|  89.2k|    }
_ZNR3scn2v48expectedINS0_11scan_resultINS0_6ranges6detail9subrange_8subrangeINSt3__116__deque_iteratorIwPKwRS9_PKSA_lLl1024EEESE_EEJhEEENS0_10scan_errorEE5valueISG_TnPNS7_9enable_ifIXntsr3stdE9is_void_vIT_EEvE4typeELPv0EEERSL_v:
 1768|  89.2k|    {
 1769|  89.2k|        SCN_EXPECT(has_value());
  ------------------
  |  |  930|  89.2k|#define SCN_EXPECT(cond) SCN_ASSERT(cond, "Precondition violation")
  |  |  ------------------
  |  |  |  |  927|  89.2k|#define SCN_ASSERT(cond, msg) assert((cond) && msg)
  |  |  ------------------
  ------------------
 1770|  89.2k|        return this->get_value();
 1771|  89.2k|    }
_ZN3scn2v416make_scan_resultINS0_6ranges6detail9subrange_8subrangeINSt3__116__deque_iteratorIwPKwRS8_PKS9_lLl1024EEESD_EEJiEEEDav:
 9330|  88.3k|{
 9331|  88.3k|    return scan_result_type<Source, Args...>();
 9332|  88.3k|}
_ZN3scn2v48expectedINS0_11scan_resultINS0_6ranges6detail9subrange_8subrangeINSt3__116__deque_iteratorIwPKwRS9_PKSA_lLl1024EEESE_EEJiEEENS0_10scan_errorEEC2Ev:
 1551|  88.3k|    constexpr expected() = default;
_ZN3scn2v46detail21expected_storage_baseINS0_11scan_resultINS0_6ranges6detail9subrange_8subrangeINSt3__116__deque_iteratorIwPKwRSA_PKSB_lLl1024EEESF_EEJiEEENS0_10scan_errorELb1EEC2Ev:
  426|  88.3k|        : m_value(T{}), m_has_value(true)
  427|  88.3k|    {
  428|  88.3k|    }
_ZN3scn2v411scan_resultINS0_6ranges6detail9subrange_8subrangeINSt3__116__deque_iteratorIwPKwRS8_PKS9_lLl1024EEESD_EEJiEEC2Ev:
 6264|  88.3k|    constexpr scan_result() = default;
_ZN3scn2v416fill_scan_resultINS0_11scan_resultINS0_6ranges6detail9subrange_8subrangeINSt3__116__deque_iteratorIwPKwRS9_PKSA_lLl1024EEESE_EEJiEEESF_TnPNS7_9enable_ifIXsr3stdE13conjunction_vINS0_6detail25is_specialization_of_implIu11__remove_cvIu20__remove_reference_tIT_EES2_EENS7_7is_sameINSK_10range_typeET0_EEEEvE4typeELPv0EEEvRNS0_13scan_expectedISK_EEONSW_ISQ_EE:
 9315|  88.3k|{
 9316|  88.3k|    if (SCN_UNLIKELY(!in)) {
  ------------------
  |  |  865|  88.3k|#define SCN_UNLIKELY(x) __builtin_expect(!!(x), 0)
  |  |  ------------------
  |  |  |  Branch (865:25): [True: 87.5k, False: 776]
  |  |  ------------------
  ------------------
 9317|  87.5k|        out = unexpected(in.error());
 9318|  87.5k|    }
 9319|    776|    else {
 9320|    776|        out->set_range(SCN_MOVE(*in));
  ------------------
  |  |  934|    776|    static_cast<    \
  |  |  935|    776|        typename ::scn::detail::remove_reference<decltype(x)>::type&&>(x)
  ------------------
 9321|    776|    }
 9322|  88.3k|}
_ZN3scn2v48expectedINS0_11scan_resultINS0_6ranges6detail9subrange_8subrangeINSt3__116__deque_iteratorIwPKwRS9_PKSA_lLl1024EEESE_EEJiEEENS0_10scan_errorEEC2ISH_TnPNS7_9enable_ifIXsr3stdE18is_constructible_vISH_OT_EEvE4typeELPv0ETnPNSK_IXsr3stdE16is_convertible_vISM_SH_EEvE4typeELSQ_0EEEONS0_10unexpectedISL_EE:
 1615|  87.5k|        : base(unexpect, std::move(e.error())),
 1616|  87.5k|          ctor_base(detail::non_default_ctor_tag_t{})
 1617|  87.5k|    {
 1618|  87.5k|    }
_ZN3scn2v46detail21expected_storage_baseINS0_11scan_resultINS0_6ranges6detail9subrange_8subrangeINSt3__116__deque_iteratorIwPKwRSA_PKSB_lLl1024EEESF_EEJiEEENS0_10scan_errorELb1EEC2IJSI_EvEENS0_10unexpect_tEDpOT_:
  449|  87.5k|        : m_unexpected(std::in_place, std::forward<Args>(args)...),
  450|  87.5k|          m_has_value(false)
  451|  87.5k|    {
  452|  87.5k|    }
_ZN3scn2v46detail26expected_default_ctor_baseINS0_11scan_resultINS0_6ranges6detail9subrange_8subrangeINSt3__116__deque_iteratorIwPKwRSA_PKSB_lLl1024EEESF_EEJiEEENS0_10scan_errorELb1EEC2ENS1_22non_default_ctor_tag_tE:
 1315|  87.5k|    {
 1316|  87.5k|    }
_ZN3scn2v48expectedINS0_11scan_resultINS0_6ranges6detail9subrange_8subrangeINSt3__116__deque_iteratorIwPKwRS9_PKSA_lLl1024EEESE_EEJiEEENS0_10scan_errorEEaSEOSI_:
 1556|  87.5k|    constexpr expected& operator=(expected&&) = default;
_ZN3scn2v46detail24expected_operations_baseINS0_11scan_resultINS0_6ranges6detail9subrange_8subrangeINSt3__116__deque_iteratorIwPKwRSA_PKSB_lLl1024EEESF_EEJiEEENS0_10scan_errorEvEaSEOSJ_:
  902|  87.5k|    {
  903|  87.5k|        assign_common(std::move(other));
  904|  87.5k|        return *this;
  905|  87.5k|    }
_ZN3scn2v46detail24expected_operations_baseINS0_11scan_resultINS0_6ranges6detail9subrange_8subrangeINSt3__116__deque_iteratorIwPKwRSA_PKSB_lLl1024EEESF_EEJiEEENS0_10scan_errorEvE13assign_commonISJ_EEvOT_:
  949|  87.5k|    {
  950|  87.5k|        if (this->has_value()) {
  ------------------
  |  Branch (950:13): [True: 87.5k, False: 0]
  ------------------
  951|  87.5k|            if (other.has_value()) {
  ------------------
  |  Branch (951:17): [True: 0, False: 87.5k]
  ------------------
  952|      0|                return reassign_value(std::forward<Other>(other));
  953|      0|            }
  954|  87.5k|            return assign_unexpected_over_value(std::forward<Other>(other));
  955|  87.5k|        }
  956|       |
  957|      0|        if (other.has_value()) {
  ------------------
  |  Branch (957:13): [True: 0, False: 0]
  ------------------
  958|      0|            return assign_value_over_unexpected(std::forward<Other>(other));
  959|      0|        }
  960|      0|        return reassign_unexpected(std::forward<Other>(other));
  961|      0|    }
_ZNK3scn2v46detail21expected_storage_baseINS0_11scan_resultINS0_6ranges6detail9subrange_8subrangeINSt3__116__deque_iteratorIwPKwRSA_PKSB_lLl1024EEESF_EEJiEEENS0_10scan_errorELb1EE9has_valueEv:
  489|   353k|    {
  490|   353k|        return m_has_value;
  491|   353k|    }
_ZNR3scn2v46detail21expected_storage_baseINS0_11scan_resultINS0_6ranges6detail9subrange_8subrangeINSt3__116__deque_iteratorIwPKwRSA_PKSB_lLl1024EEESF_EEJiEEENS0_10scan_errorELb1EE9get_valueEv:
  455|  89.8k|    {
  456|  89.8k|        return m_value;
  457|  89.8k|    }
_ZN3scn2v46detail24expected_operations_baseINS0_11scan_resultINS0_6ranges6detail9subrange_8subrangeINSt3__116__deque_iteratorIwPKwRSA_PKSB_lLl1024EEESF_EEJiEEENS0_10scan_errorEvE28assign_unexpected_over_valueISJ_EEvOT_:
 1045|  87.5k|    {
 1046|  87.5k|        this->destroy_value();
 1047|  87.5k|        this->construct_unexpected(std::forward<Other>(other).get_unexpected());
 1048|  87.5k|    }
_ZN3scn2v46detail21expected_storage_baseINS0_11scan_resultINS0_6ranges6detail9subrange_8subrangeINSt3__116__deque_iteratorIwPKwRSA_PKSB_lLl1024EEESF_EEJiEEENS0_10scan_errorELb1EE13destroy_valueEv:
  510|  87.5k|    static constexpr void destroy_value() noexcept {}
_ZN3scn2v46detail21expected_storage_baseINS0_11scan_resultINS0_6ranges6detail9subrange_8subrangeINSt3__116__deque_iteratorIwPKwRSA_PKSB_lLl1024EEESF_EEJiEEENS0_10scan_errorELb1EE20construct_unexpectedIJNS0_10unexpectedISI_EEEEEvDpOT_:
  503|  87.5k|    {
  504|  87.5k|        scn::detail::construct_at(&get_unexpected(),
  505|  87.5k|                                  std::forward<Args>(args)...);
  506|  87.5k|        m_has_value = false;
  507|  87.5k|    }
_ZNR3scn2v46detail21expected_storage_baseINS0_11scan_resultINS0_6ranges6detail9subrange_8subrangeINSt3__116__deque_iteratorIwPKwRSA_PKSB_lLl1024EEESF_EEJiEEENS0_10scan_errorELb1EE14get_unexpectedEv:
  472|  87.5k|    {
  473|  87.5k|        return m_unexpected;
  474|  87.5k|    }
_ZNO3scn2v46detail21expected_storage_baseINS0_11scan_resultINS0_6ranges6detail9subrange_8subrangeINSt3__116__deque_iteratorIwPKwRSA_PKSB_lLl1024EEESF_EEJiEEENS0_10scan_errorELb1EE14get_unexpectedEv:
  480|  87.5k|    {
  481|  87.5k|        return std::move(m_unexpected);
  482|  87.5k|    }
_ZNK3scn2v424basic_scan_format_stringIwNS0_6ranges6detail9subrange_8subrangeINSt3__116__deque_iteratorIwPKwRS8_PKS9_lLl1024EEESD_EEJiEEcvNS6_17basic_string_viewIwNS6_11char_traitsIwEEEEEv:
 8461|  84.1k|    {
 8462|  84.1k|        return m_str;
 8463|  84.1k|    }
_ZN3scn2v424basic_scan_format_stringIwNS0_6ranges6detail9subrange_8subrangeINSt3__116__deque_iteratorIwPKwRS8_PKS9_lLl1024EEESD_EEJiEEC2ENS0_6detail27basic_runtime_format_stringIwEE:
 8456|  84.1k|        : m_str(r.str)
 8457|  84.1k|    {
 8458|  84.1k|    }
_ZNK3scn2v48expectedINS0_11scan_resultINS0_6ranges6detail9subrange_8subrangeINSt3__116__deque_iteratorIwPKwRS9_PKSA_lLl1024EEESE_EEJiEEENS0_10scan_errorEEcvbEv:
 1739|  88.3k|    {
 1740|  88.3k|        return has_value();
 1741|  88.3k|    }
_ZN3scn2v48expectedINS0_11scan_resultINS0_6ranges6detail9subrange_8subrangeINSt3__116__deque_iteratorIwPKwRS9_PKSA_lLl1024EEESE_EEJiEEENS0_10scan_errorEEptEv:
 1814|  89.8k|    {
 1815|  89.8k|        return &value();
 1816|  89.8k|    }
_ZNR3scn2v48expectedINS0_11scan_resultINS0_6ranges6detail9subrange_8subrangeINSt3__116__deque_iteratorIwPKwRS9_PKSA_lLl1024EEESE_EEJiEEENS0_10scan_errorEE5valueISG_TnPNS7_9enable_ifIXntsr3stdE9is_void_vIT_EEvE4typeELPv0EEERSL_v:
 1768|  89.8k|    {
 1769|  89.8k|        SCN_EXPECT(has_value());
  ------------------
  |  |  930|  89.8k|#define SCN_EXPECT(cond) SCN_ASSERT(cond, "Precondition violation")
  |  |  ------------------
  |  |  |  |  927|  89.8k|#define SCN_ASSERT(cond, msg) assert((cond) && msg)
  |  |  ------------------
  ------------------
 1770|  89.8k|        return this->get_value();
 1771|  89.8k|    }
_ZN3scn2v416make_scan_resultINS0_6ranges6detail9subrange_8subrangeINSt3__116__deque_iteratorIwPKwRS8_PKS9_lLl1024EEESD_EEJjEEEDav:
 9330|  88.1k|{
 9331|  88.1k|    return scan_result_type<Source, Args...>();
 9332|  88.1k|}
_ZN3scn2v48expectedINS0_11scan_resultINS0_6ranges6detail9subrange_8subrangeINSt3__116__deque_iteratorIwPKwRS9_PKSA_lLl1024EEESE_EEJjEEENS0_10scan_errorEEC2Ev:
 1551|  88.1k|    constexpr expected() = default;
_ZN3scn2v46detail21expected_storage_baseINS0_11scan_resultINS0_6ranges6detail9subrange_8subrangeINSt3__116__deque_iteratorIwPKwRSA_PKSB_lLl1024EEESF_EEJjEEENS0_10scan_errorELb1EEC2Ev:
  426|  88.1k|        : m_value(T{}), m_has_value(true)
  427|  88.1k|    {
  428|  88.1k|    }
_ZN3scn2v411scan_resultINS0_6ranges6detail9subrange_8subrangeINSt3__116__deque_iteratorIwPKwRS8_PKS9_lLl1024EEESD_EEJjEEC2Ev:
 6264|  88.1k|    constexpr scan_result() = default;
_ZN3scn2v416fill_scan_resultINS0_11scan_resultINS0_6ranges6detail9subrange_8subrangeINSt3__116__deque_iteratorIwPKwRS9_PKSA_lLl1024EEESE_EEJjEEESF_TnPNS7_9enable_ifIXsr3stdE13conjunction_vINS0_6detail25is_specialization_of_implIu11__remove_cvIu20__remove_reference_tIT_EES2_EENS7_7is_sameINSK_10range_typeET0_EEEEvE4typeELPv0EEEvRNS0_13scan_expectedISK_EEONSW_ISQ_EE:
 9315|  88.1k|{
 9316|  88.1k|    if (SCN_UNLIKELY(!in)) {
  ------------------
  |  |  865|  88.1k|#define SCN_UNLIKELY(x) __builtin_expect(!!(x), 0)
  |  |  ------------------
  |  |  |  Branch (865:25): [True: 87.5k, False: 627]
  |  |  ------------------
  ------------------
 9317|  87.5k|        out = unexpected(in.error());
 9318|  87.5k|    }
 9319|    627|    else {
 9320|    627|        out->set_range(SCN_MOVE(*in));
  ------------------
  |  |  934|    627|    static_cast<    \
  |  |  935|    627|        typename ::scn::detail::remove_reference<decltype(x)>::type&&>(x)
  ------------------
 9321|    627|    }
 9322|  88.1k|}
_ZN3scn2v48expectedINS0_11scan_resultINS0_6ranges6detail9subrange_8subrangeINSt3__116__deque_iteratorIwPKwRS9_PKSA_lLl1024EEESE_EEJjEEENS0_10scan_errorEEC2ISH_TnPNS7_9enable_ifIXsr3stdE18is_constructible_vISH_OT_EEvE4typeELPv0ETnPNSK_IXsr3stdE16is_convertible_vISM_SH_EEvE4typeELSQ_0EEEONS0_10unexpectedISL_EE:
 1615|  87.5k|        : base(unexpect, std::move(e.error())),
 1616|  87.5k|          ctor_base(detail::non_default_ctor_tag_t{})
 1617|  87.5k|    {
 1618|  87.5k|    }
_ZN3scn2v46detail21expected_storage_baseINS0_11scan_resultINS0_6ranges6detail9subrange_8subrangeINSt3__116__deque_iteratorIwPKwRSA_PKSB_lLl1024EEESF_EEJjEEENS0_10scan_errorELb1EEC2IJSI_EvEENS0_10unexpect_tEDpOT_:
  449|  87.5k|        : m_unexpected(std::in_place, std::forward<Args>(args)...),
  450|  87.5k|          m_has_value(false)
  451|  87.5k|    {
  452|  87.5k|    }
_ZN3scn2v46detail26expected_default_ctor_baseINS0_11scan_resultINS0_6ranges6detail9subrange_8subrangeINSt3__116__deque_iteratorIwPKwRSA_PKSB_lLl1024EEESF_EEJjEEENS0_10scan_errorELb1EEC2ENS1_22non_default_ctor_tag_tE:
 1315|  87.5k|    {
 1316|  87.5k|    }
_ZN3scn2v48expectedINS0_11scan_resultINS0_6ranges6detail9subrange_8subrangeINSt3__116__deque_iteratorIwPKwRS9_PKSA_lLl1024EEESE_EEJjEEENS0_10scan_errorEEaSEOSI_:
 1556|  87.5k|    constexpr expected& operator=(expected&&) = default;
_ZN3scn2v46detail24expected_operations_baseINS0_11scan_resultINS0_6ranges6detail9subrange_8subrangeINSt3__116__deque_iteratorIwPKwRSA_PKSB_lLl1024EEESF_EEJjEEENS0_10scan_errorEvEaSEOSJ_:
  902|  87.5k|    {
  903|  87.5k|        assign_common(std::move(other));
  904|  87.5k|        return *this;
  905|  87.5k|    }
_ZN3scn2v46detail24expected_operations_baseINS0_11scan_resultINS0_6ranges6detail9subrange_8subrangeINSt3__116__deque_iteratorIwPKwRSA_PKSB_lLl1024EEESF_EEJjEEENS0_10scan_errorEvE13assign_commonISJ_EEvOT_:
  949|  87.5k|    {
  950|  87.5k|        if (this->has_value()) {
  ------------------
  |  Branch (950:13): [True: 87.5k, False: 0]
  ------------------
  951|  87.5k|            if (other.has_value()) {
  ------------------
  |  Branch (951:17): [True: 0, False: 87.5k]
  ------------------
  952|      0|                return reassign_value(std::forward<Other>(other));
  953|      0|            }
  954|  87.5k|            return assign_unexpected_over_value(std::forward<Other>(other));
  955|  87.5k|        }
  956|       |
  957|      0|        if (other.has_value()) {
  ------------------
  |  Branch (957:13): [True: 0, False: 0]
  ------------------
  958|      0|            return assign_value_over_unexpected(std::forward<Other>(other));
  959|      0|        }
  960|      0|        return reassign_unexpected(std::forward<Other>(other));
  961|      0|    }
_ZNK3scn2v46detail21expected_storage_baseINS0_11scan_resultINS0_6ranges6detail9subrange_8subrangeINSt3__116__deque_iteratorIwPKwRSA_PKSB_lLl1024EEESF_EEJjEEENS0_10scan_errorELb1EE9has_valueEv:
  489|   352k|    {
  490|   352k|        return m_has_value;
  491|   352k|    }
_ZNR3scn2v46detail21expected_storage_baseINS0_11scan_resultINS0_6ranges6detail9subrange_8subrangeINSt3__116__deque_iteratorIwPKwRSA_PKSB_lLl1024EEESF_EEJjEEENS0_10scan_errorELb1EE9get_valueEv:
  455|  89.4k|    {
  456|  89.4k|        return m_value;
  457|  89.4k|    }
_ZN3scn2v46detail24expected_operations_baseINS0_11scan_resultINS0_6ranges6detail9subrange_8subrangeINSt3__116__deque_iteratorIwPKwRSA_PKSB_lLl1024EEESF_EEJjEEENS0_10scan_errorEvE28assign_unexpected_over_valueISJ_EEvOT_:
 1045|  87.5k|    {
 1046|  87.5k|        this->destroy_value();
 1047|  87.5k|        this->construct_unexpected(std::forward<Other>(other).get_unexpected());
 1048|  87.5k|    }
_ZN3scn2v46detail21expected_storage_baseINS0_11scan_resultINS0_6ranges6detail9subrange_8subrangeINSt3__116__deque_iteratorIwPKwRSA_PKSB_lLl1024EEESF_EEJjEEENS0_10scan_errorELb1EE13destroy_valueEv:
  510|  87.5k|    static constexpr void destroy_value() noexcept {}
_ZN3scn2v46detail21expected_storage_baseINS0_11scan_resultINS0_6ranges6detail9subrange_8subrangeINSt3__116__deque_iteratorIwPKwRSA_PKSB_lLl1024EEESF_EEJjEEENS0_10scan_errorELb1EE20construct_unexpectedIJNS0_10unexpectedISI_EEEEEvDpOT_:
  503|  87.5k|    {
  504|  87.5k|        scn::detail::construct_at(&get_unexpected(),
  505|  87.5k|                                  std::forward<Args>(args)...);
  506|  87.5k|        m_has_value = false;
  507|  87.5k|    }
_ZNR3scn2v46detail21expected_storage_baseINS0_11scan_resultINS0_6ranges6detail9subrange_8subrangeINSt3__116__deque_iteratorIwPKwRSA_PKSB_lLl1024EEESF_EEJjEEENS0_10scan_errorELb1EE14get_unexpectedEv:
  472|  87.5k|    {
  473|  87.5k|        return m_unexpected;
  474|  87.5k|    }
_ZNO3scn2v46detail21expected_storage_baseINS0_11scan_resultINS0_6ranges6detail9subrange_8subrangeINSt3__116__deque_iteratorIwPKwRSA_PKSB_lLl1024EEESF_EEJjEEENS0_10scan_errorELb1EE14get_unexpectedEv:
  480|  87.5k|    {
  481|  87.5k|        return std::move(m_unexpected);
  482|  87.5k|    }
_ZNK3scn2v424basic_scan_format_stringIwNS0_6ranges6detail9subrange_8subrangeINSt3__116__deque_iteratorIwPKwRS8_PKS9_lLl1024EEESD_EEJjEEcvNS6_17basic_string_viewIwNS6_11char_traitsIwEEEEEv:
 8461|  83.9k|    {
 8462|  83.9k|        return m_str;
 8463|  83.9k|    }
_ZN3scn2v424basic_scan_format_stringIwNS0_6ranges6detail9subrange_8subrangeINSt3__116__deque_iteratorIwPKwRS8_PKS9_lLl1024EEESD_EEJjEEC2ENS0_6detail27basic_runtime_format_stringIwEE:
 8456|  83.9k|        : m_str(r.str)
 8457|  83.9k|    {
 8458|  83.9k|    }
_ZNK3scn2v48expectedINS0_11scan_resultINS0_6ranges6detail9subrange_8subrangeINSt3__116__deque_iteratorIwPKwRS9_PKSA_lLl1024EEESE_EEJjEEENS0_10scan_errorEEcvbEv:
 1739|  88.1k|    {
 1740|  88.1k|        return has_value();
 1741|  88.1k|    }
_ZN3scn2v48expectedINS0_11scan_resultINS0_6ranges6detail9subrange_8subrangeINSt3__116__deque_iteratorIwPKwRS9_PKSA_lLl1024EEESE_EEJjEEENS0_10scan_errorEEptEv:
 1814|  89.4k|    {
 1815|  89.4k|        return &value();
 1816|  89.4k|    }
_ZNR3scn2v48expectedINS0_11scan_resultINS0_6ranges6detail9subrange_8subrangeINSt3__116__deque_iteratorIwPKwRS9_PKSA_lLl1024EEESE_EEJjEEENS0_10scan_errorEE5valueISG_TnPNS7_9enable_ifIXntsr3stdE9is_void_vIT_EEvE4typeELPv0EEERSL_v:
 1768|  89.4k|    {
 1769|  89.4k|        SCN_EXPECT(has_value());
  ------------------
  |  |  930|  89.4k|#define SCN_EXPECT(cond) SCN_ASSERT(cond, "Precondition violation")
  |  |  ------------------
  |  |  |  |  927|  89.4k|#define SCN_ASSERT(cond, msg) assert((cond) && msg)
  |  |  ------------------
  ------------------
 1770|  89.4k|        return this->get_value();
 1771|  89.4k|    }
_ZN3scn2v416make_scan_resultINS0_6ranges6detail9subrange_8subrangeINSt3__116__deque_iteratorIwPKwRS8_PKS9_lLl1024EEESD_EEJxEEEDav:
 9330|  88.4k|{
 9331|  88.4k|    return scan_result_type<Source, Args...>();
 9332|  88.4k|}
_ZN3scn2v48expectedINS0_11scan_resultINS0_6ranges6detail9subrange_8subrangeINSt3__116__deque_iteratorIwPKwRS9_PKSA_lLl1024EEESE_EEJxEEENS0_10scan_errorEEC2Ev:
 1551|  88.4k|    constexpr expected() = default;
_ZN3scn2v46detail21expected_storage_baseINS0_11scan_resultINS0_6ranges6detail9subrange_8subrangeINSt3__116__deque_iteratorIwPKwRSA_PKSB_lLl1024EEESF_EEJxEEENS0_10scan_errorELb1EEC2Ev:
  426|  88.4k|        : m_value(T{}), m_has_value(true)
  427|  88.4k|    {
  428|  88.4k|    }
_ZN3scn2v411scan_resultINS0_6ranges6detail9subrange_8subrangeINSt3__116__deque_iteratorIwPKwRS8_PKS9_lLl1024EEESD_EEJxEEC2Ev:
 6264|  88.4k|    constexpr scan_result() = default;
_ZN3scn2v416fill_scan_resultINS0_11scan_resultINS0_6ranges6detail9subrange_8subrangeINSt3__116__deque_iteratorIwPKwRS9_PKSA_lLl1024EEESE_EEJxEEESF_TnPNS7_9enable_ifIXsr3stdE13conjunction_vINS0_6detail25is_specialization_of_implIu11__remove_cvIu20__remove_reference_tIT_EES2_EENS7_7is_sameINSK_10range_typeET0_EEEEvE4typeELPv0EEEvRNS0_13scan_expectedISK_EEONSW_ISQ_EE:
 9315|  88.4k|{
 9316|  88.4k|    if (SCN_UNLIKELY(!in)) {
  ------------------
  |  |  865|  88.4k|#define SCN_UNLIKELY(x) __builtin_expect(!!(x), 0)
  |  |  ------------------
  |  |  |  Branch (865:25): [True: 87.5k, False: 929]
  |  |  ------------------
  ------------------
 9317|  87.5k|        out = unexpected(in.error());
 9318|  87.5k|    }
 9319|    929|    else {
 9320|    929|        out->set_range(SCN_MOVE(*in));
  ------------------
  |  |  934|    929|    static_cast<    \
  |  |  935|    929|        typename ::scn::detail::remove_reference<decltype(x)>::type&&>(x)
  ------------------
 9321|    929|    }
 9322|  88.4k|}
_ZN3scn2v48expectedINS0_11scan_resultINS0_6ranges6detail9subrange_8subrangeINSt3__116__deque_iteratorIwPKwRS9_PKSA_lLl1024EEESE_EEJxEEENS0_10scan_errorEEC2ISH_TnPNS7_9enable_ifIXsr3stdE18is_constructible_vISH_OT_EEvE4typeELPv0ETnPNSK_IXsr3stdE16is_convertible_vISM_SH_EEvE4typeELSQ_0EEEONS0_10unexpectedISL_EE:
 1615|  87.5k|        : base(unexpect, std::move(e.error())),
 1616|  87.5k|          ctor_base(detail::non_default_ctor_tag_t{})
 1617|  87.5k|    {
 1618|  87.5k|    }
_ZN3scn2v46detail21expected_storage_baseINS0_11scan_resultINS0_6ranges6detail9subrange_8subrangeINSt3__116__deque_iteratorIwPKwRSA_PKSB_lLl1024EEESF_EEJxEEENS0_10scan_errorELb1EEC2IJSI_EvEENS0_10unexpect_tEDpOT_:
  449|  87.5k|        : m_unexpected(std::in_place, std::forward<Args>(args)...),
  450|  87.5k|          m_has_value(false)
  451|  87.5k|    {
  452|  87.5k|    }
_ZN3scn2v46detail26expected_default_ctor_baseINS0_11scan_resultINS0_6ranges6detail9subrange_8subrangeINSt3__116__deque_iteratorIwPKwRSA_PKSB_lLl1024EEESF_EEJxEEENS0_10scan_errorELb1EEC2ENS1_22non_default_ctor_tag_tE:
 1315|  87.5k|    {
 1316|  87.5k|    }
_ZN3scn2v48expectedINS0_11scan_resultINS0_6ranges6detail9subrange_8subrangeINSt3__116__deque_iteratorIwPKwRS9_PKSA_lLl1024EEESE_EEJxEEENS0_10scan_errorEEaSEOSI_:
 1556|  87.5k|    constexpr expected& operator=(expected&&) = default;
_ZN3scn2v46detail24expected_operations_baseINS0_11scan_resultINS0_6ranges6detail9subrange_8subrangeINSt3__116__deque_iteratorIwPKwRSA_PKSB_lLl1024EEESF_EEJxEEENS0_10scan_errorEvEaSEOSJ_:
  902|  87.5k|    {
  903|  87.5k|        assign_common(std::move(other));
  904|  87.5k|        return *this;
  905|  87.5k|    }
_ZN3scn2v46detail24expected_operations_baseINS0_11scan_resultINS0_6ranges6detail9subrange_8subrangeINSt3__116__deque_iteratorIwPKwRSA_PKSB_lLl1024EEESF_EEJxEEENS0_10scan_errorEvE13assign_commonISJ_EEvOT_:
  949|  87.5k|    {
  950|  87.5k|        if (this->has_value()) {
  ------------------
  |  Branch (950:13): [True: 87.5k, False: 0]
  ------------------
  951|  87.5k|            if (other.has_value()) {
  ------------------
  |  Branch (951:17): [True: 0, False: 87.5k]
  ------------------
  952|      0|                return reassign_value(std::forward<Other>(other));
  953|      0|            }
  954|  87.5k|            return assign_unexpected_over_value(std::forward<Other>(other));
  955|  87.5k|        }
  956|       |
  957|      0|        if (other.has_value()) {
  ------------------
  |  Branch (957:13): [True: 0, False: 0]
  ------------------
  958|      0|            return assign_value_over_unexpected(std::forward<Other>(other));
  959|      0|        }
  960|      0|        return reassign_unexpected(std::forward<Other>(other));
  961|      0|    }
_ZNK3scn2v46detail21expected_storage_baseINS0_11scan_resultINS0_6ranges6detail9subrange_8subrangeINSt3__116__deque_iteratorIwPKwRSA_PKSB_lLl1024EEESF_EEJxEEENS0_10scan_errorELb1EE9has_valueEv:
  489|   353k|    {
  490|   353k|        return m_has_value;
  491|   353k|    }
_ZNR3scn2v46detail21expected_storage_baseINS0_11scan_resultINS0_6ranges6detail9subrange_8subrangeINSt3__116__deque_iteratorIwPKwRSA_PKSB_lLl1024EEESF_EEJxEEENS0_10scan_errorELb1EE9get_valueEv:
  455|  90.3k|    {
  456|  90.3k|        return m_value;
  457|  90.3k|    }
_ZN3scn2v46detail24expected_operations_baseINS0_11scan_resultINS0_6ranges6detail9subrange_8subrangeINSt3__116__deque_iteratorIwPKwRSA_PKSB_lLl1024EEESF_EEJxEEENS0_10scan_errorEvE28assign_unexpected_over_valueISJ_EEvOT_:
 1045|  87.5k|    {
 1046|  87.5k|        this->destroy_value();
 1047|  87.5k|        this->construct_unexpected(std::forward<Other>(other).get_unexpected());
 1048|  87.5k|    }
_ZN3scn2v46detail21expected_storage_baseINS0_11scan_resultINS0_6ranges6detail9subrange_8subrangeINSt3__116__deque_iteratorIwPKwRSA_PKSB_lLl1024EEESF_EEJxEEENS0_10scan_errorELb1EE13destroy_valueEv:
  510|  87.5k|    static constexpr void destroy_value() noexcept {}
_ZN3scn2v46detail21expected_storage_baseINS0_11scan_resultINS0_6ranges6detail9subrange_8subrangeINSt3__116__deque_iteratorIwPKwRSA_PKSB_lLl1024EEESF_EEJxEEENS0_10scan_errorELb1EE20construct_unexpectedIJNS0_10unexpectedISI_EEEEEvDpOT_:
  503|  87.5k|    {
  504|  87.5k|        scn::detail::construct_at(&get_unexpected(),
  505|  87.5k|                                  std::forward<Args>(args)...);
  506|  87.5k|        m_has_value = false;
  507|  87.5k|    }
_ZNR3scn2v46detail21expected_storage_baseINS0_11scan_resultINS0_6ranges6detail9subrange_8subrangeINSt3__116__deque_iteratorIwPKwRSA_PKSB_lLl1024EEESF_EEJxEEENS0_10scan_errorELb1EE14get_unexpectedEv:
  472|  87.5k|    {
  473|  87.5k|        return m_unexpected;
  474|  87.5k|    }
_ZNO3scn2v46detail21expected_storage_baseINS0_11scan_resultINS0_6ranges6detail9subrange_8subrangeINSt3__116__deque_iteratorIwPKwRSA_PKSB_lLl1024EEESF_EEJxEEENS0_10scan_errorELb1EE14get_unexpectedEv:
  480|  87.5k|    {
  481|  87.5k|        return std::move(m_unexpected);
  482|  87.5k|    }
_ZNK3scn2v424basic_scan_format_stringIwNS0_6ranges6detail9subrange_8subrangeINSt3__116__deque_iteratorIwPKwRS8_PKS9_lLl1024EEESD_EEJxEEcvNS6_17basic_string_viewIwNS6_11char_traitsIwEEEEEv:
 8461|  84.2k|    {
 8462|  84.2k|        return m_str;
 8463|  84.2k|    }
_ZN3scn2v424basic_scan_format_stringIwNS0_6ranges6detail9subrange_8subrangeINSt3__116__deque_iteratorIwPKwRS8_PKS9_lLl1024EEESD_EEJxEEC2ENS0_6detail27basic_runtime_format_stringIwEE:
 8456|  84.2k|        : m_str(r.str)
 8457|  84.2k|    {
 8458|  84.2k|    }
_ZNK3scn2v48expectedINS0_11scan_resultINS0_6ranges6detail9subrange_8subrangeINSt3__116__deque_iteratorIwPKwRS9_PKSA_lLl1024EEESE_EEJxEEENS0_10scan_errorEEcvbEv:
 1739|  88.4k|    {
 1740|  88.4k|        return has_value();
 1741|  88.4k|    }
_ZN3scn2v48expectedINS0_11scan_resultINS0_6ranges6detail9subrange_8subrangeINSt3__116__deque_iteratorIwPKwRS9_PKSA_lLl1024EEESE_EEJxEEENS0_10scan_errorEEptEv:
 1814|  90.3k|    {
 1815|  90.3k|        return &value();
 1816|  90.3k|    }
_ZNR3scn2v48expectedINS0_11scan_resultINS0_6ranges6detail9subrange_8subrangeINSt3__116__deque_iteratorIwPKwRS9_PKSA_lLl1024EEESE_EEJxEEENS0_10scan_errorEE5valueISG_TnPNS7_9enable_ifIXntsr3stdE9is_void_vIT_EEvE4typeELPv0EEERSL_v:
 1768|  90.3k|    {
 1769|  90.3k|        SCN_EXPECT(has_value());
  ------------------
  |  |  930|  90.3k|#define SCN_EXPECT(cond) SCN_ASSERT(cond, "Precondition violation")
  |  |  ------------------
  |  |  |  |  927|  90.3k|#define SCN_ASSERT(cond, msg) assert((cond) && msg)
  |  |  ------------------
  ------------------
 1770|  90.3k|        return this->get_value();
 1771|  90.3k|    }
_ZN3scn2v416make_scan_resultINS0_6ranges6detail9subrange_8subrangeINSt3__116__deque_iteratorIwPKwRS8_PKS9_lLl1024EEESD_EEJyEEEDav:
 9330|  88.3k|{
 9331|  88.3k|    return scan_result_type<Source, Args...>();
 9332|  88.3k|}
_ZN3scn2v48expectedINS0_11scan_resultINS0_6ranges6detail9subrange_8subrangeINSt3__116__deque_iteratorIwPKwRS9_PKSA_lLl1024EEESE_EEJyEEENS0_10scan_errorEEC2Ev:
 1551|  88.3k|    constexpr expected() = default;
_ZN3scn2v46detail21expected_storage_baseINS0_11scan_resultINS0_6ranges6detail9subrange_8subrangeINSt3__116__deque_iteratorIwPKwRSA_PKSB_lLl1024EEESF_EEJyEEENS0_10scan_errorELb1EEC2Ev:
  426|  88.3k|        : m_value(T{}), m_has_value(true)
  427|  88.3k|    {
  428|  88.3k|    }
_ZN3scn2v411scan_resultINS0_6ranges6detail9subrange_8subrangeINSt3__116__deque_iteratorIwPKwRS8_PKS9_lLl1024EEESD_EEJyEEC2Ev:
 6264|  88.3k|    constexpr scan_result() = default;
_ZN3scn2v416fill_scan_resultINS0_11scan_resultINS0_6ranges6detail9subrange_8subrangeINSt3__116__deque_iteratorIwPKwRS9_PKSA_lLl1024EEESE_EEJyEEESF_TnPNS7_9enable_ifIXsr3stdE13conjunction_vINS0_6detail25is_specialization_of_implIu11__remove_cvIu20__remove_reference_tIT_EES2_EENS7_7is_sameINSK_10range_typeET0_EEEEvE4typeELPv0EEEvRNS0_13scan_expectedISK_EEONSW_ISQ_EE:
 9315|  88.3k|{
 9316|  88.3k|    if (SCN_UNLIKELY(!in)) {
  ------------------
  |  |  865|  88.3k|#define SCN_UNLIKELY(x) __builtin_expect(!!(x), 0)
  |  |  ------------------
  |  |  |  Branch (865:25): [True: 87.5k, False: 757]
  |  |  ------------------
  ------------------
 9317|  87.5k|        out = unexpected(in.error());
 9318|  87.5k|    }
 9319|    757|    else {
 9320|    757|        out->set_range(SCN_MOVE(*in));
  ------------------
  |  |  934|    757|    static_cast<    \
  |  |  935|    757|        typename ::scn::detail::remove_reference<decltype(x)>::type&&>(x)
  ------------------
 9321|    757|    }
 9322|  88.3k|}
_ZN3scn2v48expectedINS0_11scan_resultINS0_6ranges6detail9subrange_8subrangeINSt3__116__deque_iteratorIwPKwRS9_PKSA_lLl1024EEESE_EEJyEEENS0_10scan_errorEEC2ISH_TnPNS7_9enable_ifIXsr3stdE18is_constructible_vISH_OT_EEvE4typeELPv0ETnPNSK_IXsr3stdE16is_convertible_vISM_SH_EEvE4typeELSQ_0EEEONS0_10unexpectedISL_EE:
 1615|  87.5k|        : base(unexpect, std::move(e.error())),
 1616|  87.5k|          ctor_base(detail::non_default_ctor_tag_t{})
 1617|  87.5k|    {
 1618|  87.5k|    }
_ZN3scn2v46detail21expected_storage_baseINS0_11scan_resultINS0_6ranges6detail9subrange_8subrangeINSt3__116__deque_iteratorIwPKwRSA_PKSB_lLl1024EEESF_EEJyEEENS0_10scan_errorELb1EEC2IJSI_EvEENS0_10unexpect_tEDpOT_:
  449|  87.5k|        : m_unexpected(std::in_place, std::forward<Args>(args)...),
  450|  87.5k|          m_has_value(false)
  451|  87.5k|    {
  452|  87.5k|    }
_ZN3scn2v46detail26expected_default_ctor_baseINS0_11scan_resultINS0_6ranges6detail9subrange_8subrangeINSt3__116__deque_iteratorIwPKwRSA_PKSB_lLl1024EEESF_EEJyEEENS0_10scan_errorELb1EEC2ENS1_22non_default_ctor_tag_tE:
 1315|  87.5k|    {
 1316|  87.5k|    }
_ZN3scn2v48expectedINS0_11scan_resultINS0_6ranges6detail9subrange_8subrangeINSt3__116__deque_iteratorIwPKwRS9_PKSA_lLl1024EEESE_EEJyEEENS0_10scan_errorEEaSEOSI_:
 1556|  87.5k|    constexpr expected& operator=(expected&&) = default;
_ZN3scn2v46detail24expected_operations_baseINS0_11scan_resultINS0_6ranges6detail9subrange_8subrangeINSt3__116__deque_iteratorIwPKwRSA_PKSB_lLl1024EEESF_EEJyEEENS0_10scan_errorEvEaSEOSJ_:
  902|  87.5k|    {
  903|  87.5k|        assign_common(std::move(other));
  904|  87.5k|        return *this;
  905|  87.5k|    }
_ZN3scn2v46detail24expected_operations_baseINS0_11scan_resultINS0_6ranges6detail9subrange_8subrangeINSt3__116__deque_iteratorIwPKwRSA_PKSB_lLl1024EEESF_EEJyEEENS0_10scan_errorEvE13assign_commonISJ_EEvOT_:
  949|  87.5k|    {
  950|  87.5k|        if (this->has_value()) {
  ------------------
  |  Branch (950:13): [True: 87.5k, False: 0]
  ------------------
  951|  87.5k|            if (other.has_value()) {
  ------------------
  |  Branch (951:17): [True: 0, False: 87.5k]
  ------------------
  952|      0|                return reassign_value(std::forward<Other>(other));
  953|      0|            }
  954|  87.5k|            return assign_unexpected_over_value(std::forward<Other>(other));
  955|  87.5k|        }
  956|       |
  957|      0|        if (other.has_value()) {
  ------------------
  |  Branch (957:13): [True: 0, False: 0]
  ------------------
  958|      0|            return assign_value_over_unexpected(std::forward<Other>(other));
  959|      0|        }
  960|      0|        return reassign_unexpected(std::forward<Other>(other));
  961|      0|    }
_ZNK3scn2v46detail21expected_storage_baseINS0_11scan_resultINS0_6ranges6detail9subrange_8subrangeINSt3__116__deque_iteratorIwPKwRSA_PKSB_lLl1024EEESF_EEJyEEENS0_10scan_errorELb1EE9has_valueEv:
  489|   353k|    {
  490|   353k|        return m_has_value;
  491|   353k|    }
_ZNR3scn2v46detail21expected_storage_baseINS0_11scan_resultINS0_6ranges6detail9subrange_8subrangeINSt3__116__deque_iteratorIwPKwRSA_PKSB_lLl1024EEESF_EEJyEEENS0_10scan_errorELb1EE9get_valueEv:
  455|  89.8k|    {
  456|  89.8k|        return m_value;
  457|  89.8k|    }
_ZN3scn2v46detail24expected_operations_baseINS0_11scan_resultINS0_6ranges6detail9subrange_8subrangeINSt3__116__deque_iteratorIwPKwRSA_PKSB_lLl1024EEESF_EEJyEEENS0_10scan_errorEvE28assign_unexpected_over_valueISJ_EEvOT_:
 1045|  87.5k|    {
 1046|  87.5k|        this->destroy_value();
 1047|  87.5k|        this->construct_unexpected(std::forward<Other>(other).get_unexpected());
 1048|  87.5k|    }
_ZN3scn2v46detail21expected_storage_baseINS0_11scan_resultINS0_6ranges6detail9subrange_8subrangeINSt3__116__deque_iteratorIwPKwRSA_PKSB_lLl1024EEESF_EEJyEEENS0_10scan_errorELb1EE13destroy_valueEv:
  510|  87.5k|    static constexpr void destroy_value() noexcept {}
_ZN3scn2v46detail21expected_storage_baseINS0_11scan_resultINS0_6ranges6detail9subrange_8subrangeINSt3__116__deque_iteratorIwPKwRSA_PKSB_lLl1024EEESF_EEJyEEENS0_10scan_errorELb1EE20construct_unexpectedIJNS0_10unexpectedISI_EEEEEvDpOT_:
  503|  87.5k|    {
  504|  87.5k|        scn::detail::construct_at(&get_unexpected(),
  505|  87.5k|                                  std::forward<Args>(args)...);
  506|  87.5k|        m_has_value = false;
  507|  87.5k|    }
_ZNR3scn2v46detail21expected_storage_baseINS0_11scan_resultINS0_6ranges6detail9subrange_8subrangeINSt3__116__deque_iteratorIwPKwRSA_PKSB_lLl1024EEESF_EEJyEEENS0_10scan_errorELb1EE14get_unexpectedEv:
  472|  87.5k|    {
  473|  87.5k|        return m_unexpected;
  474|  87.5k|    }
_ZNO3scn2v46detail21expected_storage_baseINS0_11scan_resultINS0_6ranges6detail9subrange_8subrangeINSt3__116__deque_iteratorIwPKwRSA_PKSB_lLl1024EEESF_EEJyEEENS0_10scan_errorELb1EE14get_unexpectedEv:
  480|  87.5k|    {
  481|  87.5k|        return std::move(m_unexpected);
  482|  87.5k|    }
_ZNK3scn2v424basic_scan_format_stringIwNS0_6ranges6detail9subrange_8subrangeINSt3__116__deque_iteratorIwPKwRS8_PKS9_lLl1024EEESD_EEJyEEcvNS6_17basic_string_viewIwNS6_11char_traitsIwEEEEEv:
 8461|  84.1k|    {
 8462|  84.1k|        return m_str;
 8463|  84.1k|    }
_ZN3scn2v424basic_scan_format_stringIwNS0_6ranges6detail9subrange_8subrangeINSt3__116__deque_iteratorIwPKwRS8_PKS9_lLl1024EEESD_EEJyEEC2ENS0_6detail27basic_runtime_format_stringIwEE:
 8456|  84.1k|        : m_str(r.str)
 8457|  84.1k|    {
 8458|  84.1k|    }
_ZNK3scn2v48expectedINS0_11scan_resultINS0_6ranges6detail9subrange_8subrangeINSt3__116__deque_iteratorIwPKwRS9_PKSA_lLl1024EEESE_EEJyEEENS0_10scan_errorEEcvbEv:
 1739|  88.3k|    {
 1740|  88.3k|        return has_value();
 1741|  88.3k|    }
_ZN3scn2v48expectedINS0_11scan_resultINS0_6ranges6detail9subrange_8subrangeINSt3__116__deque_iteratorIwPKwRS9_PKSA_lLl1024EEESE_EEJyEEENS0_10scan_errorEEptEv:
 1814|  89.8k|    {
 1815|  89.8k|        return &value();
 1816|  89.8k|    }
_ZNR3scn2v48expectedINS0_11scan_resultINS0_6ranges6detail9subrange_8subrangeINSt3__116__deque_iteratorIwPKwRS9_PKSA_lLl1024EEESE_EEJyEEENS0_10scan_errorEE5valueISG_TnPNS7_9enable_ifIXntsr3stdE9is_void_vIT_EEvE4typeELPv0EEERSL_v:
 1768|  89.8k|    {
 1769|  89.8k|        SCN_EXPECT(has_value());
  ------------------
  |  |  930|  89.8k|#define SCN_EXPECT(cond) SCN_ASSERT(cond, "Precondition violation")
  |  |  ------------------
  |  |  |  |  927|  89.8k|#define SCN_ASSERT(cond, msg) assert((cond) && msg)
  |  |  ------------------
  ------------------
 1770|  89.8k|        return this->get_value();
 1771|  89.8k|    }
_ZN3scn2v410scan_errorC2ENS1_4codeEPKc:
 3740|  2.17M|    constexpr scan_error(code_t c, const char* m) noexcept : m_msg(m), m_code(c)
 3741|  2.17M|    {
 3742|  2.17M|        SCN_UNLIKELY_ATTR SCN_UNUSED(m_code);
  ------------------
  |  |  915|  2.17M|#define SCN_UNUSED(x) static_cast<void>(sizeof(x))
  ------------------
 3743|  2.17M|    }
_ZNK3scn2v46ranges6detail9subrange_8subrangeINS0_6detail17basic_scan_bufferIcE16forward_iteratorENS1_18default_sentinel_tEE5beginEv:
 3479|  57.7M|    {
 3480|  57.7M|        return m_iterator;
 3481|  57.7M|    }
_ZNK3scn2v46ranges6detail9subrange_8subrangeINS0_6detail17basic_scan_bufferIwE16forward_iteratorENS1_18default_sentinel_tEE5beginEv:
 3479|   110M|    {
 3480|   110M|        return m_iterator;
 3481|   110M|    }
_ZNK3scn2v46detail21expected_storage_baseIvNS0_10scan_errorELb1EE9has_valueEv:
  571|  26.1M|    {
  572|  26.1M|        return m_has_value;
  573|  26.1M|    }
_ZNR3scn2v46detail21expected_storage_baseIvNS0_10scan_errorELb1EE14get_unexpectedEv:
  554|  1.75M|    {
  555|  1.75M|        return m_unexpected;
  556|  1.75M|    }
_ZNR3scn2v48expectedIvNS0_10scan_errorEE5errorEv:
 1745|  1.35M|    {
 1746|  1.35M|        SCN_EXPECT(!has_value());
  ------------------
  |  |  930|  1.35M|#define SCN_EXPECT(cond) SCN_ASSERT(cond, "Precondition violation")
  |  |  ------------------
  |  |  |  |  927|  1.35M|#define SCN_ASSERT(cond, msg) assert((cond) && msg)
  |  |  ------------------
  ------------------
 1747|  1.35M|        return this->get_unexpected().error();
 1748|  1.35M|    }
_ZNK3scn2v46detail12format_specs8get_baseEv:
 6667|  3.99M|    {
 6668|  3.99M|        SCN_GCC_COMPAT_PUSH
 6669|  3.99M|        SCN_GCC_COMPAT_IGNORE("-Wswitch-enum")
 6670|  3.99M|        switch (type) {
 6671|   757k|            case presentation_type::none:
  ------------------
  |  Branch (6671:13): [True: 757k, False: 3.23M]
  ------------------
 6672|   757k|                return 10;
 6673|  1.04M|            case presentation_type::int_generic:
  ------------------
  |  Branch (6673:13): [True: 1.04M, False: 2.95M]
  ------------------
 6674|  1.04M|                return 0;
 6675|      0|            case presentation_type::int_arbitrary_base:
  ------------------
  |  Branch (6675:13): [True: 0, False: 3.99M]
  ------------------
 6676|      0|                return arbitrary_base;
 6677|       |
 6678|   233k|            case presentation_type::int_binary:
  ------------------
  |  Branch (6678:13): [True: 233k, False: 3.75M]
  ------------------
 6679|   233k|                return 2;
 6680|   360k|            case presentation_type::int_octal:
  ------------------
  |  Branch (6680:13): [True: 360k, False: 3.63M]
  ------------------
 6681|   360k|                return 8;
 6682|   752k|            case presentation_type::int_decimal:
  ------------------
  |  Branch (6682:13): [True: 752k, False: 3.23M]
  ------------------
 6683|   752k|            case presentation_type::int_unsigned_decimal:
  ------------------
  |  Branch (6683:13): [True: 0, False: 3.99M]
  ------------------
 6684|   752k|                return 10;
 6685|   846k|            case presentation_type::int_hex:
  ------------------
  |  Branch (6685:13): [True: 846k, False: 3.14M]
  ------------------
 6686|   846k|                return 16;
 6687|       |
 6688|      0|            default:
  ------------------
  |  Branch (6688:13): [True: 0, False: 3.99M]
  ------------------
 6689|      0|                SCN_EXPECT(false);
  ------------------
  |  |  930|      0|#define SCN_EXPECT(cond) SCN_ASSERT(cond, "Precondition violation")
  |  |  ------------------
  |  |  |  |  927|      0|#define SCN_ASSERT(cond, msg) assert((cond) && msg)
  |  |  ------------------
  ------------------
 6690|      0|                SCN_UNREACHABLE;
  ------------------
  |  |  893|      0|#define SCN_UNREACHABLE __builtin_unreachable()
  ------------------
 6691|  3.99M|        }
 6692|  3.99M|        SCN_GCC_COMPAT_POP
 6693|  3.99M|    }
_ZN3scn2v46detail12specs_setterC2ERNS1_12format_specsE:
 6705|  4.48M|    explicit constexpr specs_setter(format_specs& specs) : m_specs(specs) {}
_ZN3scn2v46detail12specs_setter7on_typeENS1_17presentation_typeE:
 6749|  3.41M|    {
 6750|  3.41M|        m_specs.type = type;
 6751|  3.41M|    }
_ZN3scn2v46detail12specs_setter8on_errorEPKc:
 6811|   300k|    {
 6812|   300k|        SCN_UNLIKELY_ATTR
 6813|   300k|        m_error = unexpected_scan_error(scan_error::invalid_format_string, msg);
 6814|   300k|    }
_ZNK3scn2v46detail12specs_setter9get_errorEv:
 6822|  4.18M|    {
 6823|  4.18M|        return m_error;
 6824|  4.18M|    }
_ZN3scn2v46detail21unexpected_scan_errorENS0_10scan_error4codeEPKc:
 3917|  1.81M|{
 3918|  1.81M|    return unexpected(scan_error{c, m});
 3919|  1.81M|}
_ZN3scn2v46detail11is_cp_spaceEDi:
 4307|  5.25M|{
 4308|       |    // Pattern_White_Space property
 4309|  5.25M|    return (cp >= 0x09 && cp <= 0x0d) ||
  ------------------
  |  Branch (4309:13): [True: 4.86M, False: 389k]
  |  Branch (4309:27): [True: 2.25M, False: 2.61M]
  ------------------
 4310|  5.25M|           cp == 0x20 ||    // ASCII space characters
  ------------------
  |  Branch (4310:12): [True: 50.8k, False: 2.95M]
  ------------------
 4311|  5.25M|           cp == 0x85 ||    // NEXT LINE (NEL)
  ------------------
  |  Branch (4311:12): [True: 10.3k, False: 2.94M]
  ------------------
 4312|  5.25M|           cp == 0x200e ||  // LEFT-TO-RIGHT MARK
  ------------------
  |  Branch (4312:12): [True: 3.04k, False: 2.94M]
  ------------------
 4313|  5.25M|           cp == 0x200f ||  // RIGHT-TO-LEFT MARK
  ------------------
  |  Branch (4313:12): [True: 4.61k, False: 2.93M]
  ------------------
 4314|  5.25M|           cp == 0x2028 ||  // LINE SEPARATOR
  ------------------
  |  Branch (4314:12): [True: 3.23k, False: 2.93M]
  ------------------
 4315|  5.25M|           cp == 0x2029;    // PARAGRAPH SEPARATOR
  ------------------
  |  Branch (4315:12): [True: 0, False: 2.93M]
  ------------------
 4316|  5.25M|}
_ZN3scn2v46detail25get_category_for_arg_typeENS1_8arg_typeE:
 7505|   767k|{
 7506|   767k|    switch (type) {
 7507|      0|        case arg_type::none_type:
  ------------------
  |  Branch (7507:9): [True: 0, False: 767k]
  ------------------
 7508|      0|            return arg_type_category::none;
 7509|       |
 7510|   123k|        case arg_type::schar_type:
  ------------------
  |  Branch (7510:9): [True: 123k, False: 643k]
  ------------------
 7511|   123k|        case arg_type::short_type:
  ------------------
  |  Branch (7511:9): [True: 0, False: 767k]
  ------------------
 7512|   264k|        case arg_type::int_type:
  ------------------
  |  Branch (7512:9): [True: 140k, False: 626k]
  ------------------
 7513|   264k|        case arg_type::long_type:
  ------------------
  |  Branch (7513:9): [True: 0, False: 767k]
  ------------------
 7514|   408k|        case arg_type::llong_type:
  ------------------
  |  Branch (7514:9): [True: 143k, False: 624k]
  ------------------
 7515|   408k|            return arg_type_category::integer;
 7516|       |
 7517|   111k|        case arg_type::uchar_type:
  ------------------
  |  Branch (7517:9): [True: 111k, False: 655k]
  ------------------
 7518|   111k|        case arg_type::ushort_type:
  ------------------
  |  Branch (7518:9): [True: 0, False: 767k]
  ------------------
 7519|   234k|        case arg_type::uint_type:
  ------------------
  |  Branch (7519:9): [True: 122k, False: 644k]
  ------------------
 7520|   234k|        case arg_type::ulong_type:
  ------------------
  |  Branch (7520:9): [True: 0, False: 767k]
  ------------------
 7521|   359k|        case arg_type::ullong_type:
  ------------------
  |  Branch (7521:9): [True: 124k, False: 643k]
  ------------------
 7522|   359k|            return arg_type_category::unsigned_integer;
 7523|       |
 7524|      0|        case arg_type::pointer_type:
  ------------------
  |  Branch (7524:9): [True: 0, False: 767k]
  ------------------
 7525|      0|            return arg_type_category::pointer;
 7526|      0|        case arg_type::bool_type:
  ------------------
  |  Branch (7526:9): [True: 0, False: 767k]
  ------------------
 7527|      0|            return arg_type_category::boolean;
 7528|      0|        case arg_type::narrow_character_type:
  ------------------
  |  Branch (7528:9): [True: 0, False: 767k]
  ------------------
 7529|      0|        case arg_type::wide_character_type:
  ------------------
  |  Branch (7529:9): [True: 0, False: 767k]
  ------------------
 7530|      0|        case arg_type::code_point_type:
  ------------------
  |  Branch (7530:9): [True: 0, False: 767k]
  ------------------
 7531|      0|            return arg_type_category::character;
 7532|       |
 7533|      0|        case arg_type::float_type:
  ------------------
  |  Branch (7533:9): [True: 0, False: 767k]
  ------------------
 7534|      0|        case arg_type::double_type:
  ------------------
  |  Branch (7534:9): [True: 0, False: 767k]
  ------------------
 7535|      0|        case arg_type::ldouble_type:
  ------------------
  |  Branch (7535:9): [True: 0, False: 767k]
  ------------------
 7536|      0|            return arg_type_category::floating;
 7537|       |
 7538|      0|        case arg_type::narrow_string_view_type:
  ------------------
  |  Branch (7538:9): [True: 0, False: 767k]
  ------------------
 7539|      0|        case arg_type::narrow_string_type:
  ------------------
  |  Branch (7539:9): [True: 0, False: 767k]
  ------------------
 7540|      0|        case arg_type::wide_string_view_type:
  ------------------
  |  Branch (7540:9): [True: 0, False: 767k]
  ------------------
 7541|      0|        case arg_type::wide_string_type:
  ------------------
  |  Branch (7541:9): [True: 0, False: 767k]
  ------------------
 7542|      0|            return arg_type_category::string;
 7543|       |
 7544|      0|        case arg_type::custom_type:
  ------------------
  |  Branch (7544:9): [True: 0, False: 767k]
  ------------------
 7545|      0|            return arg_type_category::custom;
 7546|       |
 7547|      0|            SCN_CLANG_PUSH
 7548|      0|            SCN_CLANG_IGNORE("-Wcovered-switch-default")
 7549|      0|        default:
  ------------------
  |  Branch (7549:9): [True: 0, False: 767k]
  ------------------
 7550|      0|            SCN_ENSURE(false);
  ------------------
  |  |  931|      0|#define SCN_ENSURE(cond) SCN_ASSERT(cond, "Postcondition violation")
  |  |  ------------------
  |  |  |  |  927|      0|#define SCN_ASSERT(cond, msg) assert((cond) && msg)
  |  |  ------------------
  ------------------
 7551|   767k|            SCN_UNREACHABLE;
  ------------------
  |  |  893|      0|#define SCN_UNREACHABLE __builtin_unreachable()
  ------------------
 7552|   767k|            SCN_CLANG_POP
 7553|   767k|    }
 7554|       |
 7555|      0|    SCN_UNREACHABLE;
  ------------------
  |  |  893|      0|#define SCN_UNREACHABLE __builtin_unreachable()
  ------------------
 7556|   767k|}
_ZNO3scn2v48expectedIvNS0_10scan_errorEE5errorEv:
 1755|   408k|    {
 1756|   408k|        SCN_EXPECT(!has_value());
  ------------------
  |  |  930|   408k|#define SCN_EXPECT(cond) SCN_ASSERT(cond, "Precondition violation")
  |  |  ------------------
  |  |  |  |  927|   408k|#define SCN_ASSERT(cond, msg) assert((cond) && msg)
  |  |  ------------------
  ------------------
 1757|   408k|        return std::move(this->get_unexpected().error());
 1758|   408k|    }
_ZN3scn2v46detail20check_int_type_specsIRNS0_4impl20reader_error_handlerEEEvRKNS1_12format_specsEOT_:
 7591|  4.03M|{
 7592|  4.03M|    if (SCN_UNLIKELY(specs.type > presentation_type::int_hex)) {
  ------------------
  |  |  865|  4.03M|#define SCN_UNLIKELY(x) __builtin_expect(!!(x), 0)
  |  |  ------------------
  |  |  |  Branch (865:25): [True: 0, False: 4.03M]
  |  |  ------------------
  ------------------
 7593|      0|        return handler.on_error("Invalid type specifier for integer type");
 7594|      0|    }
 7595|  4.03M|    if (specs.localized) {
  ------------------
  |  Branch (7595:9): [True: 767k, False: 3.26M]
  ------------------
 7596|   767k|        if (SCN_UNLIKELY(specs.type == presentation_type::int_binary)) {
  ------------------
  |  |  865|   767k|#define SCN_UNLIKELY(x) __builtin_expect(!!(x), 0)
  |  |  ------------------
  |  |  |  Branch (865:25): [True: 0, False: 767k]
  |  |  ------------------
  ------------------
 7597|       |            // clang-format off
 7598|      0|            handler.on_error("'b'/'B' specifier not supported for localized integers");
 7599|       |            // clang-format on
 7600|      0|            return;
 7601|      0|        }
 7602|   767k|        if (SCN_UNLIKELY(specs.type == presentation_type::int_arbitrary_base)) {
  ------------------
  |  |  865|   767k|#define SCN_UNLIKELY(x) __builtin_expect(!!(x), 0)
  |  |  ------------------
  |  |  |  Branch (865:25): [True: 0, False: 767k]
  |  |  ------------------
  ------------------
 7603|       |            // clang-format off
 7604|      0|            return handler.on_error("Arbitrary bases not supported for localized integers");
 7605|       |            // clang-format on
 7606|      0|        }
 7607|   767k|    }
 7608|  4.03M|}
_ZNK3scn2v48expectedIvNS0_10scan_errorEEcvbEv:
 1739|  24.3M|    {
 1740|  24.3M|        return has_value();
 1741|  24.3M|    }
_ZNK3scn2v46detail17basic_scan_bufferIcE16forward_iterator13stores_parentEv:
 4471|   326M|    {
 4472|   326M|        assert(m_begin);
 4473|   326M|        return m_end == nullptr;
 4474|   326M|    }
_ZN3scn2v46detail30make_string_view_from_pointersIcEENSt3__117basic_string_viewIT_NS3_11char_traitsIS5_EEEEPKS5_SA_:
 3975|  3.27M|{
 3976|       |    if constexpr (std::is_constructible_v<std::basic_string_view<CharT>,
 3977|       |                                          const CharT*, const CharT*>) {
 3978|       |        return {first, last};
 3979|       |    }
 3980|  3.27M|    else {
 3981|  3.27M|        return {first, static_cast<size_t>(std::distance(first, last))};
 3982|  3.27M|    }
 3983|  3.27M|}
_ZNK3scn2v46detail17basic_scan_bufferIcE16forward_iterator18contiguous_segmentEv:
 4488|  7.57M|    {
 4489|  7.57M|        if (!stores_parent()) {
  ------------------
  |  Branch (4489:13): [True: 0, False: 7.57M]
  ------------------
 4490|      0|            return make_string_view_from_pointers(
 4491|      0|                static_cast<const CharT*>(m_begin) + position(),
 4492|      0|                static_cast<const CharT*>(m_end));
 4493|      0|        }
 4494|  7.57M|        return parent()->get_segment_starting_at(position());
 4495|  7.57M|    }
_ZNK3scn2v46detail17basic_scan_bufferIcE16forward_iterator6parentEv:
 4482|   179M|    {
 4483|   179M|        SCN_EXPECT(stores_parent());
  ------------------
  |  |  930|   179M|#define SCN_EXPECT(cond) SCN_ASSERT(cond, "Precondition violation")
  |  |  ------------------
  |  |  |  |  927|   179M|#define SCN_ASSERT(cond, msg) assert((cond) && msg)
  |  |  ------------------
  ------------------
 4484|   179M|        return static_cast<const basic_scan_buffer<CharT>*>(m_begin);
 4485|   179M|    }
_ZNK3scn2v46detail17basic_scan_bufferIcE23get_segment_starting_atEl:
 4375|  7.57M|    {
 4376|  7.57M|        if (SCN_UNLIKELY(
  ------------------
  |  |  865|  7.57M|#define SCN_UNLIKELY(x) __builtin_expect(!!(x), 0)
  |  |  ------------------
  |  |  |  Branch (865:25): [True: 2.02M, False: 5.54M]
  |  |  ------------------
  ------------------
 4377|  7.57M|                pos < static_cast<std::ptrdiff_t>(m_putback_buffer.size()))) {
 4378|  2.02M|            return std::basic_string_view<CharT>(m_putback_buffer).substr(pos);
 4379|  2.02M|        }
 4380|  5.54M|        const auto start = pos - m_putback_buffer.size();
 4381|  5.54M|        SCN_EXPECT(start <= m_current_view.size());
  ------------------
  |  |  930|  5.54M|#define SCN_EXPECT(cond) SCN_ASSERT(cond, "Precondition violation")
  |  |  ------------------
  |  |  |  |  927|  5.54M|#define SCN_ASSERT(cond, msg) assert((cond) && msg)
  |  |  ------------------
  ------------------
 4382|  5.54M|        return m_current_view.substr(start);
 4383|  5.54M|    }
_ZN3scn2v46detail17basic_scan_bufferIcE16forward_iterator6parentEv:
 4477|  1.97M|    {
 4478|  1.97M|        SCN_EXPECT(stores_parent());
  ------------------
  |  |  930|  1.97M|#define SCN_EXPECT(cond) SCN_ASSERT(cond, "Precondition violation")
  |  |  ------------------
  |  |  |  |  927|  1.97M|#define SCN_ASSERT(cond, msg) assert((cond) && msg)
  |  |  ------------------
  ------------------
 4479|  1.97M|        return static_cast<basic_scan_buffer<CharT>*>(m_begin);
 4480|  1.97M|    }
_ZNK3scn2v46detail17basic_scan_bufferIcE16forward_iterator8positionEv:
 4466|  12.2M|    {
 4467|  12.2M|        return m_position;
 4468|  12.2M|    }
_ZNK3scn2v46detail17basic_scan_bufferIcE13is_contiguousEv:
 4397|  6.85M|    {
 4398|  6.85M|        return m_is_contiguous;
 4399|  6.85M|    }
_ZNK3scn2v46detail17basic_scan_bufferIwE16forward_iterator13stores_parentEv:
 4471|   421G|    {
 4472|   421G|        assert(m_begin);
 4473|   421G|        return m_end == nullptr;
 4474|   421G|    }
_ZN3scn2v46detail30make_string_view_from_pointersIwEENSt3__117basic_string_viewIT_NS3_11char_traitsIS5_EEEEPKS5_SA_:
 3975|  8.21k|{
 3976|       |    if constexpr (std::is_constructible_v<std::basic_string_view<CharT>,
 3977|       |                                          const CharT*, const CharT*>) {
 3978|       |        return {first, last};
 3979|       |    }
 3980|  8.21k|    else {
 3981|  8.21k|        return {first, static_cast<size_t>(std::distance(first, last))};
 3982|  8.21k|    }
 3983|  8.21k|}
_ZNK3scn2v46detail17basic_scan_bufferIwE16forward_iterator18contiguous_segmentEv:
 4488|   387k|    {
 4489|   387k|        if (!stores_parent()) {
  ------------------
  |  Branch (4489:13): [True: 0, False: 387k]
  ------------------
 4490|      0|            return make_string_view_from_pointers(
 4491|      0|                static_cast<const CharT*>(m_begin) + position(),
 4492|      0|                static_cast<const CharT*>(m_end));
 4493|      0|        }
 4494|   387k|        return parent()->get_segment_starting_at(position());
 4495|   387k|    }
_ZNK3scn2v46detail17basic_scan_bufferIwE16forward_iterator6parentEv:
 4482|   210G|    {
 4483|   210G|        SCN_EXPECT(stores_parent());
  ------------------
  |  |  930|   210G|#define SCN_EXPECT(cond) SCN_ASSERT(cond, "Precondition violation")
  |  |  ------------------
  |  |  |  |  927|   210G|#define SCN_ASSERT(cond, msg) assert((cond) && msg)
  |  |  ------------------
  ------------------
 4484|   210G|        return static_cast<const basic_scan_buffer<CharT>*>(m_begin);
 4485|   210G|    }
_ZNK3scn2v46detail17basic_scan_bufferIwE23get_segment_starting_atEl:
 4375|   387k|    {
 4376|   387k|        if (SCN_UNLIKELY(
  ------------------
  |  |  865|   387k|#define SCN_UNLIKELY(x) __builtin_expect(!!(x), 0)
  |  |  ------------------
  |  |  |  Branch (865:25): [True: 3.55k, False: 383k]
  |  |  ------------------
  ------------------
 4377|   387k|                pos < static_cast<std::ptrdiff_t>(m_putback_buffer.size()))) {
 4378|  3.55k|            return std::basic_string_view<CharT>(m_putback_buffer).substr(pos);
 4379|  3.55k|        }
 4380|   383k|        const auto start = pos - m_putback_buffer.size();
 4381|   383k|        SCN_EXPECT(start <= m_current_view.size());
  ------------------
  |  |  930|   383k|#define SCN_EXPECT(cond) SCN_ASSERT(cond, "Precondition violation")
  |  |  ------------------
  |  |  |  |  927|   383k|#define SCN_ASSERT(cond, msg) assert((cond) && msg)
  |  |  ------------------
  ------------------
 4382|   383k|        return m_current_view.substr(start);
 4383|   383k|    }
_ZN3scn2v46detail17basic_scan_bufferIwE16forward_iterator6parentEv:
 4477|   301k|    {
 4478|   301k|        SCN_EXPECT(stores_parent());
  ------------------
  |  |  930|   301k|#define SCN_EXPECT(cond) SCN_ASSERT(cond, "Precondition violation")
  |  |  ------------------
  |  |  |  |  927|   301k|#define SCN_ASSERT(cond, msg) assert((cond) && msg)
  |  |  ------------------
  ------------------
 4479|   301k|        return static_cast<basic_scan_buffer<CharT>*>(m_begin);
 4480|   301k|    }
_ZNK3scn2v46detail17basic_scan_bufferIwE16forward_iterator8positionEv:
 4466|   694k|    {
 4467|   694k|        return m_position;
 4468|   694k|    }
_ZNK3scn2v46detail17basic_scan_bufferIwE13is_contiguousEv:
 4397|  1.58M|    {
 4398|  1.58M|        return m_is_contiguous;
 4399|  1.58M|    }
_ZN3scn2v46ranges14view_interfaceINS1_6detail9subrange_8subrangeIPKcS7_EEE7derivedEv:
 3333|  9.37M|    {
 3334|  9.37M|        return static_cast<D&>(*this);
 3335|  9.37M|    }
_ZN3scn2v46ranges14view_interfaceINS1_6detail9subrange_8subrangeIPKcS7_EEE4dataIS8_vEEDav:
 3374|  9.37M|    {
 3375|  9.37M|        return detail::to_address(ranges::begin(derived()));
 3376|  9.37M|    }
_ZN3scn2v46ranges14view_interfaceINS1_6detail9subrange_8subrangeIPKwS7_EEE7derivedEv:
 3333|  1.23M|    {
 3334|  1.23M|        return static_cast<D&>(*this);
 3335|  1.23M|    }
_ZN3scn2v46ranges14view_interfaceINS1_6detail9subrange_8subrangeIPKwS7_EEE4dataIS8_vEEDav:
 3374|  1.23M|    {
 3375|  1.23M|        return detail::to_address(ranges::begin(derived()));
 3376|  1.23M|    }
_ZNK3scn2v418basic_scan_contextINS0_6detail16buffer_range_tagEcE5rangeEv:
 8658|  1.71M|    {
 8659|  1.71M|        return ranges::subrange{begin(), end()};
 8660|  1.71M|    }
_ZNK3scn2v418basic_scan_contextINS0_6detail16buffer_range_tagEcE3endEv:
 8650|  1.71M|    {
 8651|  1.71M|        return ranges::default_sentinel;
 8652|  1.71M|    }
_ZN3scn2v46ranges6detail9subrange_8subrangeINS0_6detail17basic_scan_bufferIcE16forward_iteratorENS1_18default_sentinel_tEEC2IS8_TnPNSt3__19enable_ifIXsr3stdE16is_convertible_vIT_S8_EEvE4typeELPv0EEESE_S9_:
 3464|  18.5M|        : m_iterator(SCN_MOVE(i)), m_sentinel(SCN_MOVE(s))
  ------------------
  |  |  934|  18.5M|    static_cast<    \
  |  |  935|  18.5M|        typename ::scn::detail::remove_reference<decltype(x)>::type&&>(x)
  ------------------
                      : m_iterator(SCN_MOVE(i)), m_sentinel(SCN_MOVE(s))
  ------------------
  |  |  934|  18.5M|    static_cast<    \
  |  |  935|  18.5M|        typename ::scn::detail::remove_reference<decltype(x)>::type&&>(x)
  ------------------
 3465|  18.5M|    {
 3466|  18.5M|    }
_ZN3scn2v46detail10locale_refC2Ev:
 8477|  3.75M|    constexpr locale_ref() = default;
_ZNO3scn2v48expectedINS0_6detail17basic_scan_bufferIcE16forward_iteratorENS0_4impl9eof_errorEE15transform_errorIRFNS0_10scan_errorES7_EEEDTclsr6detailE20transform_error_impldefpTclsr3stdE7forwardIT_Efp_EEEOSD_:
 1978|  2.20M|    {
 1979|  2.20M|        return detail::transform_error_impl(std::move(*this),
 1980|  2.20M|                                            std::forward<F>(f));
 1981|  2.20M|    }
_ZN3scn2v46detail20transform_error_implINS0_8expectedINS1_17basic_scan_bufferIcE16forward_iteratorENS0_4impl9eof_errorEEERFNS0_10scan_errorES8_ETnPNSt3__19enable_ifIXntsr11is_exp_voidIT_EE5valueEvE4typeELPv0ESA_EEDaOSF_OT0_:
 1461|  2.20M|{
 1462|       |    if constexpr (std::is_void_v<Ret>) {
 1463|       |        using result = expected<expected_value_type<Exp>, monostate>;
 1464|       |        if (SCN_LIKELY(exp.has_value())) {
 1465|       |            return result(*std::forward<Exp>(exp));
 1466|       |        }
 1467|       |
 1468|       |        trivial_invoke(std::forward<F>(f), std::forward<Exp>(exp).error());
 1469|       |        return result(unexpect, monostate{});
 1470|       |    }
 1471|  2.20M|    else {
 1472|  2.20M|        using result = expected<expected_value_type<Exp>, remove_cvref_t<Ret>>;
 1473|  2.20M|        return SCN_LIKELY(exp.has_value())
  ------------------
  |  |  864|  2.20M|#define SCN_LIKELY(x)   __builtin_expect(!!(x), 1)
  |  |  ------------------
  |  |  |  Branch (864:25): [True: 2.18M, False: 27.1k]
  |  |  ------------------
  ------------------
 1474|  2.20M|                   ? result(*std::forward<Exp>(exp))
 1475|  2.20M|                   : result(unexpect,
 1476|  27.1k|                            trivial_invoke(std::forward<F>(f),
 1477|  27.1k|                                           std::forward<Exp>(exp).error()));
 1478|  2.20M|    }
 1479|  2.20M|}
_ZNK3scn2v46detail21expected_storage_baseINS1_17basic_scan_bufferIcE16forward_iteratorENS0_4impl9eof_errorELb1EE9has_valueEv:
  489|  11.5M|    {
  490|  11.5M|        return m_has_value;
  491|  11.5M|    }
_ZNO3scn2v48expectedINS0_6detail17basic_scan_bufferIcE16forward_iteratorENS0_4impl9eof_errorEEdeIS5_TnPNSt3__19enable_ifIXntsr3stdE9is_void_vIT_EEvE4typeELPv0EEEOSC_v:
 1804|  4.13M|    {
 1805|  4.13M|        return std::move(value());
 1806|  4.13M|    }
_ZNR3scn2v48expectedINS0_6detail17basic_scan_bufferIcE16forward_iteratorENS0_4impl9eof_errorEE5valueIS5_TnPNSt3__19enable_ifIXntsr3stdE9is_void_vIT_EEvE4typeELPv0EEERSC_v:
 1768|  4.59M|    {
 1769|  4.59M|        SCN_EXPECT(has_value());
  ------------------
  |  |  930|  4.59M|#define SCN_EXPECT(cond) SCN_ASSERT(cond, "Precondition violation")
  |  |  ------------------
  |  |  |  |  927|  4.59M|#define SCN_ASSERT(cond, msg) assert((cond) && msg)
  |  |  ------------------
  ------------------
 1770|  4.59M|        return this->get_value();
 1771|  4.59M|    }
_ZNR3scn2v46detail21expected_storage_baseINS1_17basic_scan_bufferIcE16forward_iteratorENS0_4impl9eof_errorELb1EE9get_valueEv:
  455|  4.59M|    {
  456|  4.59M|        return m_value;
  457|  4.59M|    }
_ZN3scn2v48expectedINS0_6detail17basic_scan_bufferIcE16forward_iteratorENS0_10scan_errorEEC2IS5_vEEOT_:
 1569|  7.35M|        : base(std::in_place, std::forward<U>(val)),
 1570|  7.35M|          ctor_base(detail::non_default_ctor_tag_t{})
 1571|  7.35M|    {
 1572|  7.35M|    }
_ZN3scn2v46detail21expected_storage_baseINS1_17basic_scan_bufferIcE16forward_iteratorENS0_10scan_errorELb1EEC2IJS5_EvEENSt3__110in_place_tEDpOT_:
  440|  7.35M|        : m_value(std::forward<Args>(args)...), m_has_value(true)
  441|  7.35M|    {
  442|  7.35M|    }
_ZN3scn2v46detail26expected_default_ctor_baseINS1_17basic_scan_bufferIcE16forward_iteratorENS0_10scan_errorELb1EEC2ENS1_22non_default_ctor_tag_tE:
 1315|  7.78M|    {
 1316|  7.78M|    }
_ZN3scn2v46detail14trivial_invokeIRFNS0_10scan_errorENS0_4impl9eof_errorEEJS5_EvEEDcOT_DpOT0_:
 1349|  57.4k|{
 1350|  57.4k|    return std::forward<F>(f)(std::forward<Args>(args)...);
 1351|  57.4k|}
_ZNO3scn2v48expectedINS0_6detail17basic_scan_bufferIcE16forward_iteratorENS0_4impl9eof_errorEE5errorEv:
 1755|  48.5k|    {
 1756|  48.5k|        SCN_EXPECT(!has_value());
  ------------------
  |  |  930|  48.5k|#define SCN_EXPECT(cond) SCN_ASSERT(cond, "Precondition violation")
  |  |  ------------------
  |  |  |  |  927|  48.5k|#define SCN_ASSERT(cond, msg) assert((cond) && msg)
  |  |  ------------------
  ------------------
 1757|  48.5k|        return std::move(this->get_unexpected().error());
 1758|  48.5k|    }
_ZNR3scn2v46detail21expected_storage_baseINS1_17basic_scan_bufferIcE16forward_iteratorENS0_4impl9eof_errorELb1EE14get_unexpectedEv:
  472|  49.1k|    {
  473|  49.1k|        return m_unexpected;
  474|  49.1k|    }
_ZNR3scn2v410unexpectedINS0_4impl9eof_errorEE5errorEv:
  364|   284k|    {
  365|   284k|        return m_unexpected;
  366|   284k|    }
_ZN3scn2v48expectedINS0_6detail17basic_scan_bufferIcE16forward_iteratorENS0_10scan_errorEEC2IJS6_EvEENS0_10unexpect_tEDpOT_:
 1625|   114k|        : base(unexpect, std::forward<Args>(args)...),
 1626|   114k|          ctor_base(detail::non_default_ctor_tag_t{})
 1627|   114k|    {
 1628|   114k|    }
_ZN3scn2v46detail21expected_storage_baseINS1_17basic_scan_bufferIcE16forward_iteratorENS0_10scan_errorELb1EEC2IJS6_EvEENS0_10unexpect_tEDpOT_:
  449|   429k|        : m_unexpected(std::in_place, std::forward<Args>(args)...),
  450|   429k|          m_has_value(false)
  451|   429k|    {
  452|   429k|    }
_ZNK3scn2v418basic_scan_contextINS0_6detail16buffer_range_tagEwE5rangeEv:
 8658|   303k|    {
 8659|   303k|        return ranges::subrange{begin(), end()};
 8660|   303k|    }
_ZNK3scn2v418basic_scan_contextINS0_6detail16buffer_range_tagEwE3endEv:
 8650|   303k|    {
 8651|   303k|        return ranges::default_sentinel;
 8652|   303k|    }
_ZN3scn2v46ranges6detail9subrange_8subrangeINS0_6detail17basic_scan_bufferIwE16forward_iteratorENS1_18default_sentinel_tEEC2IS8_TnPNSt3__19enable_ifIXsr3stdE16is_convertible_vIT_S8_EEvE4typeELPv0EEESE_S9_:
 3464|  2.72M|        : m_iterator(SCN_MOVE(i)), m_sentinel(SCN_MOVE(s))
  ------------------
  |  |  934|  2.72M|    static_cast<    \
  |  |  935|  2.72M|        typename ::scn::detail::remove_reference<decltype(x)>::type&&>(x)
  ------------------
                      : m_iterator(SCN_MOVE(i)), m_sentinel(SCN_MOVE(s))
  ------------------
  |  |  934|  2.72M|    static_cast<    \
  |  |  935|  2.72M|        typename ::scn::detail::remove_reference<decltype(x)>::type&&>(x)
  ------------------
 3465|  2.72M|    {
 3466|  2.72M|    }
_ZNO3scn2v48expectedINS0_6detail17basic_scan_bufferIwE16forward_iteratorENS0_4impl9eof_errorEE15transform_errorIRFNS0_10scan_errorES7_EEEDTclsr6detailE20transform_error_impldefpTclsr3stdE7forwardIT_Efp_EEEOSD_:
 1978|   379k|    {
 1979|   379k|        return detail::transform_error_impl(std::move(*this),
 1980|   379k|                                            std::forward<F>(f));
 1981|   379k|    }
_ZN3scn2v46detail20transform_error_implINS0_8expectedINS1_17basic_scan_bufferIwE16forward_iteratorENS0_4impl9eof_errorEEERFNS0_10scan_errorES8_ETnPNSt3__19enable_ifIXntsr11is_exp_voidIT_EE5valueEvE4typeELPv0ESA_EEDaOSF_OT0_:
 1461|   379k|{
 1462|       |    if constexpr (std::is_void_v<Ret>) {
 1463|       |        using result = expected<expected_value_type<Exp>, monostate>;
 1464|       |        if (SCN_LIKELY(exp.has_value())) {
 1465|       |            return result(*std::forward<Exp>(exp));
 1466|       |        }
 1467|       |
 1468|       |        trivial_invoke(std::forward<F>(f), std::forward<Exp>(exp).error());
 1469|       |        return result(unexpect, monostate{});
 1470|       |    }
 1471|   379k|    else {
 1472|   379k|        using result = expected<expected_value_type<Exp>, remove_cvref_t<Ret>>;
 1473|   379k|        return SCN_LIKELY(exp.has_value())
  ------------------
  |  |  864|   379k|#define SCN_LIKELY(x)   __builtin_expect(!!(x), 1)
  |  |  ------------------
  |  |  |  Branch (864:25): [True: 377k, False: 2.48k]
  |  |  ------------------
  ------------------
 1474|   379k|                   ? result(*std::forward<Exp>(exp))
 1475|   379k|                   : result(unexpect,
 1476|  2.48k|                            trivial_invoke(std::forward<F>(f),
 1477|  2.48k|                                           std::forward<Exp>(exp).error()));
 1478|   379k|    }
 1479|   379k|}
_ZNK3scn2v46detail21expected_storage_baseINS1_17basic_scan_bufferIwE16forward_iteratorENS0_4impl9eof_errorELb1EE9has_valueEv:
  489|  1.84M|    {
  490|  1.84M|        return m_has_value;
  491|  1.84M|    }
_ZNO3scn2v48expectedINS0_6detail17basic_scan_bufferIwE16forward_iteratorENS0_4impl9eof_errorEEdeIS5_TnPNSt3__19enable_ifIXntsr3stdE9is_void_vIT_EEvE4typeELPv0EEEOSC_v:
 1804|   647k|    {
 1805|   647k|        return std::move(value());
 1806|   647k|    }
_ZNR3scn2v48expectedINS0_6detail17basic_scan_bufferIwE16forward_iteratorENS0_4impl9eof_errorEE5valueIS5_TnPNSt3__19enable_ifIXntsr3stdE9is_void_vIT_EEvE4typeELPv0EEERSC_v:
 1768|   650k|    {
 1769|   650k|        SCN_EXPECT(has_value());
  ------------------
  |  |  930|   650k|#define SCN_EXPECT(cond) SCN_ASSERT(cond, "Precondition violation")
  |  |  ------------------
  |  |  |  |  927|   650k|#define SCN_ASSERT(cond, msg) assert((cond) && msg)
  |  |  ------------------
  ------------------
 1770|   650k|        return this->get_value();
 1771|   650k|    }
_ZNR3scn2v46detail21expected_storage_baseINS1_17basic_scan_bufferIwE16forward_iteratorENS0_4impl9eof_errorELb1EE9get_valueEv:
  455|   650k|    {
  456|   650k|        return m_value;
  457|   650k|    }
_ZN3scn2v48expectedINS0_6detail17basic_scan_bufferIwE16forward_iteratorENS0_10scan_errorEEC2IS5_vEEOT_:
 1569|   388k|        : base(std::in_place, std::forward<U>(val)),
 1570|   388k|          ctor_base(detail::non_default_ctor_tag_t{})
 1571|   388k|    {
 1572|   388k|    }
_ZN3scn2v46detail21expected_storage_baseINS1_17basic_scan_bufferIwE16forward_iteratorENS0_10scan_errorELb1EEC2IJS5_EvEENSt3__110in_place_tEDpOT_:
  440|   388k|        : m_value(std::forward<Args>(args)...), m_has_value(true)
  441|   388k|    {
  442|   388k|    }
_ZN3scn2v46detail26expected_default_ctor_baseINS1_17basic_scan_bufferIwE16forward_iteratorENS0_10scan_errorELb1EEC2ENS1_22non_default_ctor_tag_tE:
 1315|  1.38M|    {
 1316|  1.38M|    }
_ZNO3scn2v48expectedINS0_6detail17basic_scan_bufferIwE16forward_iteratorENS0_4impl9eof_errorEE5errorEv:
 1755|  33.6k|    {
 1756|  33.6k|        SCN_EXPECT(!has_value());
  ------------------
  |  |  930|  33.6k|#define SCN_EXPECT(cond) SCN_ASSERT(cond, "Precondition violation")
  |  |  ------------------
  |  |  |  |  927|  33.6k|#define SCN_ASSERT(cond, msg) assert((cond) && msg)
  |  |  ------------------
  ------------------
 1757|  33.6k|        return std::move(this->get_unexpected().error());
 1758|  33.6k|    }
_ZNR3scn2v46detail21expected_storage_baseINS1_17basic_scan_bufferIwE16forward_iteratorENS0_4impl9eof_errorELb1EE14get_unexpectedEv:
  472|  33.7k|    {
  473|  33.7k|        return m_unexpected;
  474|  33.7k|    }
_ZN3scn2v48expectedINS0_6detail17basic_scan_bufferIwE16forward_iteratorENS0_10scan_errorEEC2IJS6_EvEENS0_10unexpect_tEDpOT_:
 1625|   324k|        : base(unexpect, std::forward<Args>(args)...),
 1626|   324k|          ctor_base(detail::non_default_ctor_tag_t{})
 1627|   324k|    {
 1628|   324k|    }
_ZN3scn2v46detail21expected_storage_baseINS1_17basic_scan_bufferIwE16forward_iteratorENS0_10scan_errorELb1EEC2IJS6_EvEENS0_10unexpect_tEDpOT_:
  449|   997k|        : m_unexpected(std::in_place, std::forward<Args>(args)...),
  450|   997k|          m_has_value(false)
  451|   997k|    {
  452|   997k|    }
_ZN3scn2v410unexpectedINS0_10scan_errorEEC2IS2_vEEOT_:
  349|  1.81M|        : m_unexpected(std::forward<Err>(e))
  350|  1.81M|    {
  351|  1.81M|        SCN_UNLIKELY_ATTR SCN_UNUSED(m_unexpected);
  ------------------
  |  |  915|  1.81M|#define SCN_UNUSED(x) static_cast<void>(sizeof(x))
  ------------------
  352|  1.81M|    }
_ZN3scn2v48expectedIlNS0_10scan_errorEEC2IS2_TnPNSt3__19enable_ifIXsr3stdE18is_constructible_vIS2_OT_EEvE4typeELPv0ETnPNS6_IXsr3stdE16is_convertible_vIS8_S2_EEvE4typeELSC_0EEEONS0_10unexpectedIS7_EE:
 1615|  1.57M|        : base(unexpect, std::move(e.error())),
 1616|  1.57M|          ctor_base(detail::non_default_ctor_tag_t{})
 1617|  1.57M|    {
 1618|  1.57M|    }
_ZN3scn2v46detail21expected_storage_baseIlNS0_10scan_errorELb1EEC2IJS3_EvEENS0_10unexpect_tEDpOT_:
  449|  1.57M|        : m_unexpected(std::in_place, std::forward<Args>(args)...),
  450|  1.57M|          m_has_value(false)
  451|  1.57M|    {
  452|  1.57M|    }
_ZN3scn2v46detail26expected_default_ctor_baseIlNS0_10scan_errorELb1EEC2ENS1_22non_default_ctor_tag_tE:
 1315|  5.62M|    {
 1316|  5.62M|    }
_ZN3scn2v48expectedIPKcNS0_10scan_errorEEC2IS4_TnPNSt3__19enable_ifIXsr3stdE18is_constructible_vIS4_OT_EEvE4typeELPv0ETnPNS8_IXsr3stdE16is_convertible_vISA_S4_EEvE4typeELSE_0EEEONS0_10unexpectedIS9_EE:
 1615|   527k|        : base(unexpect, std::move(e.error())),
 1616|   527k|          ctor_base(detail::non_default_ctor_tag_t{})
 1617|   527k|    {
 1618|   527k|    }
_ZN3scn2v46detail21expected_storage_baseIPKcNS0_10scan_errorELb1EEC2IJS5_EvEENS0_10unexpect_tEDpOT_:
  449|   552k|        : m_unexpected(std::in_place, std::forward<Args>(args)...),
  450|   552k|          m_has_value(false)
  451|   552k|    {
  452|   552k|    }
_ZN3scn2v46detail26expected_default_ctor_baseIPKcNS0_10scan_errorELb1EEC2ENS1_22non_default_ctor_tag_tE:
 1315|  14.4M|    {
 1316|  14.4M|    }
_ZN3scn2v48expectedIPKcNS0_10scan_errorEEC2IS3_vEEOT_:
 1569|  13.8M|        : base(std::in_place, std::forward<U>(val)),
 1570|  13.8M|          ctor_base(detail::non_default_ctor_tag_t{})
 1571|  13.8M|    {
 1572|  13.8M|    }
_ZN3scn2v46detail21expected_storage_baseIPKcNS0_10scan_errorELb1EEC2IJS4_EvEENSt3__110in_place_tEDpOT_:
  440|  13.8M|        : m_value(std::forward<Args>(args)...), m_has_value(true)
  441|  13.8M|    {
  442|  13.8M|    }
_ZNK3scn2v48expectedIPKcNS0_10scan_errorEEcvbEv:
 1739|  14.4M|    {
 1740|  14.4M|        return has_value();
 1741|  14.4M|    }
_ZNK3scn2v46detail21expected_storage_baseIPKcNS0_10scan_errorELb1EE9has_valueEv:
  489|  28.8M|    {
  490|  28.8M|        return m_has_value;
  491|  28.8M|    }
_ZNR3scn2v48expectedIPKcNS0_10scan_errorEE5errorEv:
 1745|   552k|    {
 1746|   552k|        SCN_EXPECT(!has_value());
  ------------------
  |  |  930|   552k|#define SCN_EXPECT(cond) SCN_ASSERT(cond, "Precondition violation")
  |  |  ------------------
  |  |  |  |  927|   552k|#define SCN_ASSERT(cond, msg) assert((cond) && msg)
  |  |  ------------------
  ------------------
 1747|   552k|        return this->get_unexpected().error();
 1748|   552k|    }
_ZNR3scn2v46detail21expected_storage_baseIPKcNS0_10scan_errorELb1EE14get_unexpectedEv:
  472|   552k|    {
  473|   552k|        return m_unexpected;
  474|   552k|    }
_ZNO3scn2v48expectedIPKcNS0_10scan_errorEEdeIS3_TnPNSt3__19enable_ifIXntsr3stdE9is_void_vIT_EEvE4typeELPv0EEEOS9_v:
 1804|  12.3M|    {
 1805|  12.3M|        return std::move(value());
 1806|  12.3M|    }
_ZNR3scn2v48expectedIPKcNS0_10scan_errorEE5valueIS3_TnPNSt3__19enable_ifIXntsr3stdE9is_void_vIT_EEvE4typeELPv0EEERS9_v:
 1768|  13.8M|    {
 1769|  13.8M|        SCN_EXPECT(has_value());
  ------------------
  |  |  930|  13.8M|#define SCN_EXPECT(cond) SCN_ASSERT(cond, "Precondition violation")
  |  |  ------------------
  |  |  |  |  927|  13.8M|#define SCN_ASSERT(cond, msg) assert((cond) && msg)
  |  |  ------------------
  ------------------
 1770|  13.8M|        return this->get_value();
 1771|  13.8M|    }
_ZNR3scn2v46detail21expected_storage_baseIPKcNS0_10scan_errorELb1EE9get_valueEv:
  455|  13.8M|    {
  456|  13.8M|        return m_value;
  457|  13.8M|    }
_ZN3scn2v48expectedIPKwNS0_10scan_errorEEC2IS4_TnPNSt3__19enable_ifIXsr3stdE18is_constructible_vIS4_OT_EEvE4typeELPv0ETnPNS8_IXsr3stdE16is_convertible_vISA_S4_EEvE4typeELSE_0EEEONS0_10unexpectedIS9_EE:
 1615|   997k|        : base(unexpect, std::move(e.error())),
 1616|   997k|          ctor_base(detail::non_default_ctor_tag_t{})
 1617|   997k|    {
 1618|   997k|    }
_ZN3scn2v46detail21expected_storage_baseIPKwNS0_10scan_errorELb1EEC2IJS5_EvEENS0_10unexpect_tEDpOT_:
  449|  1.00M|        : m_unexpected(std::in_place, std::forward<Args>(args)...),
  450|  1.00M|          m_has_value(false)
  451|  1.00M|    {
  452|  1.00M|    }
_ZN3scn2v46detail26expected_default_ctor_baseIPKwNS0_10scan_errorELb1EEC2ENS1_22non_default_ctor_tag_tE:
 1315|  1.72M|    {
 1316|  1.72M|    }
_ZN3scn2v48expectedIPKwNS0_10scan_errorEEC2IS3_vEEOT_:
 1569|   723k|        : base(std::in_place, std::forward<U>(val)),
 1570|   723k|          ctor_base(detail::non_default_ctor_tag_t{})
 1571|   723k|    {
 1572|   723k|    }
_ZN3scn2v46detail21expected_storage_baseIPKwNS0_10scan_errorELb1EEC2IJS4_EvEENSt3__110in_place_tEDpOT_:
  440|   723k|        : m_value(std::forward<Args>(args)...), m_has_value(true)
  441|   723k|    {
  442|   723k|    }
_ZNK3scn2v48expectedIPKwNS0_10scan_errorEEcvbEv:
 1739|  1.72M|    {
 1740|  1.72M|        return has_value();
 1741|  1.72M|    }
_ZNK3scn2v46detail21expected_storage_baseIPKwNS0_10scan_errorELb1EE9has_valueEv:
  489|  3.44M|    {
  490|  3.44M|        return m_has_value;
  491|  3.44M|    }
_ZNR3scn2v48expectedIPKwNS0_10scan_errorEE5errorEv:
 1745|  1.00M|    {
 1746|  1.00M|        SCN_EXPECT(!has_value());
  ------------------
  |  |  930|  1.00M|#define SCN_EXPECT(cond) SCN_ASSERT(cond, "Precondition violation")
  |  |  ------------------
  |  |  |  |  927|  1.00M|#define SCN_ASSERT(cond, msg) assert((cond) && msg)
  |  |  ------------------
  ------------------
 1747|  1.00M|        return this->get_unexpected().error();
 1748|  1.00M|    }
_ZNR3scn2v46detail21expected_storage_baseIPKwNS0_10scan_errorELb1EE14get_unexpectedEv:
  472|  1.00M|    {
  473|  1.00M|        return m_unexpected;
  474|  1.00M|    }
_ZNO3scn2v48expectedIPKwNS0_10scan_errorEEdeIS3_TnPNSt3__19enable_ifIXntsr3stdE9is_void_vIT_EEvE4typeELPv0EEEOS9_v:
 1804|   720k|    {
 1805|   720k|        return std::move(value());
 1806|   720k|    }
_ZNR3scn2v48expectedIPKwNS0_10scan_errorEE5valueIS3_TnPNSt3__19enable_ifIXntsr3stdE9is_void_vIT_EEvE4typeELPv0EEERS9_v:
 1768|   723k|    {
 1769|   723k|        SCN_EXPECT(has_value());
  ------------------
  |  |  930|   723k|#define SCN_EXPECT(cond) SCN_ASSERT(cond, "Precondition violation")
  |  |  ------------------
  |  |  |  |  927|   723k|#define SCN_ASSERT(cond, msg) assert((cond) && msg)
  |  |  ------------------
  ------------------
 1770|   723k|        return this->get_value();
 1771|   723k|    }
_ZNR3scn2v46detail21expected_storage_baseIPKwNS0_10scan_errorELb1EE9get_valueEv:
  455|   723k|    {
  456|   723k|        return m_value;
  457|   723k|    }
_ZNO3scn2v48expectedIPKcNS0_4impl9eof_errorEE15transform_errorIRFNS0_10scan_errorES5_EEEDTclsr6detailE20transform_error_impldefpTclsr3stdE7forwardIT_Efp_EEEOSB_:
 1978|  2.20M|    {
 1979|  2.20M|        return detail::transform_error_impl(std::move(*this),
 1980|  2.20M|                                            std::forward<F>(f));
 1981|  2.20M|    }
_ZN3scn2v46detail20transform_error_implINS0_8expectedIPKcNS0_4impl9eof_errorEEERFNS0_10scan_errorES7_ETnPNSt3__19enable_ifIXntsr11is_exp_voidIT_EE5valueEvE4typeELPv0ES9_EEDaOSE_OT0_:
 1461|  2.20M|{
 1462|       |    if constexpr (std::is_void_v<Ret>) {
 1463|       |        using result = expected<expected_value_type<Exp>, monostate>;
 1464|       |        if (SCN_LIKELY(exp.has_value())) {
 1465|       |            return result(*std::forward<Exp>(exp));
 1466|       |        }
 1467|       |
 1468|       |        trivial_invoke(std::forward<F>(f), std::forward<Exp>(exp).error());
 1469|       |        return result(unexpect, monostate{});
 1470|       |    }
 1471|  2.20M|    else {
 1472|  2.20M|        using result = expected<expected_value_type<Exp>, remove_cvref_t<Ret>>;
 1473|  2.20M|        return SCN_LIKELY(exp.has_value())
  ------------------
  |  |  864|  2.20M|#define SCN_LIKELY(x)   __builtin_expect(!!(x), 1)
  |  |  ------------------
  |  |  |  Branch (864:25): [True: 2.17M, False: 25.2k]
  |  |  ------------------
  ------------------
 1474|  2.20M|                   ? result(*std::forward<Exp>(exp))
 1475|  2.20M|                   : result(unexpect,
 1476|  25.2k|                            trivial_invoke(std::forward<F>(f),
 1477|  25.2k|                                           std::forward<Exp>(exp).error()));
 1478|  2.20M|    }
 1479|  2.20M|}
_ZNK3scn2v46detail21expected_storage_baseIPKcNS0_4impl9eof_errorELb1EE9has_valueEv:
  489|  7.62M|    {
  490|  7.62M|        return m_has_value;
  491|  7.62M|    }
_ZNO3scn2v48expectedIPKcNS0_4impl9eof_errorEEdeIS3_TnPNSt3__19enable_ifIXntsr3stdE9is_void_vIT_EEvE4typeELPv0EEEOSA_v:
 1804|  2.17M|    {
 1805|  2.17M|        return std::move(value());
 1806|  2.17M|    }
_ZNR3scn2v48expectedIPKcNS0_4impl9eof_errorEE5valueIS3_TnPNSt3__19enable_ifIXntsr3stdE9is_void_vIT_EEvE4typeELPv0EEERSA_v:
 1768|  2.63M|    {
 1769|  2.63M|        SCN_EXPECT(has_value());
  ------------------
  |  |  930|  2.63M|#define SCN_EXPECT(cond) SCN_ASSERT(cond, "Precondition violation")
  |  |  ------------------
  |  |  |  |  927|  2.63M|#define SCN_ASSERT(cond, msg) assert((cond) && msg)
  |  |  ------------------
  ------------------
 1770|  2.63M|        return this->get_value();
 1771|  2.63M|    }
_ZNR3scn2v46detail21expected_storage_baseIPKcNS0_4impl9eof_errorELb1EE9get_valueEv:
  455|  2.63M|    {
  456|  2.63M|        return m_value;
  457|  2.63M|    }
_ZNO3scn2v48expectedIPKcNS0_4impl9eof_errorEE5errorEv:
 1755|  25.2k|    {
 1756|  25.2k|        SCN_EXPECT(!has_value());
  ------------------
  |  |  930|  25.2k|#define SCN_EXPECT(cond) SCN_ASSERT(cond, "Precondition violation")
  |  |  ------------------
  |  |  |  |  927|  25.2k|#define SCN_ASSERT(cond, msg) assert((cond) && msg)
  |  |  ------------------
  ------------------
 1757|  25.2k|        return std::move(this->get_unexpected().error());
 1758|  25.2k|    }
_ZNR3scn2v46detail21expected_storage_baseIPKcNS0_4impl9eof_errorELb1EE14get_unexpectedEv:
  472|  25.8k|    {
  473|  25.8k|        return m_unexpected;
  474|  25.8k|    }
_ZN3scn2v48expectedIPKcNS0_10scan_errorEEC2IJS4_EvEENS0_10unexpect_tEDpOT_:
 1625|  25.2k|        : base(unexpect, std::forward<Args>(args)...),
 1626|  25.2k|          ctor_base(detail::non_default_ctor_tag_t{})
 1627|  25.2k|    {
 1628|  25.2k|    }
_ZNK3scn2v418basic_scan_contextINS0_6detail16buffer_range_tagEcE5beginEv:
 8642|  5.08M|    {
 8643|  5.08M|        return m_current;
 8644|  5.08M|    }
_ZNK3scn2v46detail17scan_context_baseINS0_15basic_scan_argsINS0_18basic_scan_contextINS1_16buffer_range_tagEcEEEEE6localeEv:
 8535|  3.42M|    {
 8536|  3.42M|        return m_locale;
 8537|  3.42M|    }
_ZN3scn2v46detail17scan_context_baseINS0_15basic_scan_argsINS0_18basic_scan_contextINS1_16buffer_range_tagEcEEEEEC2ES7_NS1_10locale_refE:
 8541|  3.57M|        : m_args(SCN_MOVE(args)), m_locale(SCN_MOVE(loc))
  ------------------
  |  |  934|  3.57M|    static_cast<    \
  |  |  935|  3.57M|        typename ::scn::detail::remove_reference<decltype(x)>::type&&>(x)
  ------------------
                      : m_args(SCN_MOVE(args)), m_locale(SCN_MOVE(loc))
  ------------------
  |  |  934|  3.57M|    static_cast<    \
  |  |  935|  3.57M|        typename ::scn::detail::remove_reference<decltype(x)>::type&&>(x)
  ------------------
 8542|  3.57M|    {
 8543|  3.57M|    }
_ZN3scn2v48expectedINS0_6detail17basic_scan_bufferIcE16forward_iteratorENS0_10scan_errorEEC2IS6_TnPNSt3__19enable_ifIXsr3stdE18is_constructible_vIS6_OT_EEvE4typeELPv0ETnPNSA_IXsr3stdE16is_convertible_vISC_S6_EEvE4typeELSG_0EEEONS0_10unexpectedISB_EE:
 1615|   315k|        : base(unexpect, std::move(e.error())),
 1616|   315k|          ctor_base(detail::non_default_ctor_tag_t{})
 1617|   315k|    {
 1618|   315k|    }
_ZNK3scn2v418basic_scan_contextINS0_6detail16buffer_range_tagEwE5beginEv:
 8642|   760k|    {
 8643|   760k|        return m_current;
 8644|   760k|    }
_ZNK3scn2v46detail17scan_context_baseINS0_15basic_scan_argsINS0_18basic_scan_contextINS1_16buffer_range_tagEwEEEEE6localeEv:
 8535|   607k|    {
 8536|   607k|        return m_locale;
 8537|   607k|    }
_ZN3scn2v46detail17scan_context_baseINS0_15basic_scan_argsINS0_18basic_scan_contextINS1_16buffer_range_tagEwEEEEEC2ES7_NS1_10locale_refE:
 8541|   907k|        : m_args(SCN_MOVE(args)), m_locale(SCN_MOVE(loc))
  ------------------
  |  |  934|   907k|    static_cast<    \
  |  |  935|   907k|        typename ::scn::detail::remove_reference<decltype(x)>::type&&>(x)
  ------------------
                      : m_args(SCN_MOVE(args)), m_locale(SCN_MOVE(loc))
  ------------------
  |  |  934|   907k|    static_cast<    \
  |  |  935|   907k|        typename ::scn::detail::remove_reference<decltype(x)>::type&&>(x)
  ------------------
 8542|   907k|    {
 8543|   907k|    }
_ZN3scn2v48expectedINS0_6detail17basic_scan_bufferIwE16forward_iteratorENS0_10scan_errorEEC2IS6_TnPNSt3__19enable_ifIXsr3stdE18is_constructible_vIS6_OT_EEvE4typeELPv0ETnPNSA_IXsr3stdE16is_convertible_vISC_S6_EEvE4typeELSG_0EEEONS0_10unexpectedISB_EE:
 1615|   673k|        : base(unexpect, std::move(e.error())),
 1616|   673k|          ctor_base(detail::non_default_ctor_tag_t{})
 1617|   673k|    {
 1618|   673k|    }
_ZN3scn2v48expectedIvNS0_10scan_errorEEC2Ev:
 1551|  20.6M|    constexpr expected() = default;
_ZN3scn2v46detail21expected_storage_baseIvNS0_10scan_errorELb1EEC2Ev:
  528|  20.6M|        : m_deferred_init(), m_has_value(true)
  529|  20.6M|    {
  530|  20.6M|    }
_ZN3scn2v48expectedIvNS0_10scan_errorEEC2IS2_TnPNSt3__19enable_ifIXsr3stdE18is_constructible_vIS2_OT_EEvE4typeELPv0ETnPNS6_IXsr3stdE16is_convertible_vIS8_S2_EEvE4typeELSC_0EEEONS0_10unexpectedIS7_EE:
 1615|  2.36M|        : base(unexpect, std::move(e.error())),
 1616|  2.36M|          ctor_base(detail::non_default_ctor_tag_t{})
 1617|  2.36M|    {
 1618|  2.36M|    }
_ZN3scn2v46detail21expected_storage_baseIvNS0_10scan_errorELb1EEC2IJS3_EvEENS0_10unexpect_tEDpOT_:
  548|  2.36M|        : m_unexpected(std::in_place, std::forward<Args>(args)...),
  549|  2.36M|          m_has_value(false)
  550|  2.36M|    {
  551|  2.36M|    }
_ZN3scn2v46detail26expected_default_ctor_baseIvNS0_10scan_errorELb1EEC2ENS1_22non_default_ctor_tag_tE:
 1315|  2.36M|    {
 1316|  2.36M|    }
_ZN3scn2v46detaileqERKNS1_17basic_scan_bufferIcE16forward_iteratorENS0_6ranges18default_sentinel_tE:
 4557|  12.2M|    {
 4558|  12.2M|        return x.is_at_end();
 4559|  12.2M|    }
_ZNK3scn2v46detail17basic_scan_bufferIcE16forward_iterator9is_at_endEv:
 4601|  26.4M|    {
 4602|  26.4M|        if (m_end) {
  ------------------
  |  Branch (4602:13): [True: 0, False: 26.4M]
  ------------------
 4603|      0|            return (static_cast<const CharT*>(m_begin) + position()) == m_end;
 4604|      0|        }
 4605|  26.4M|        if (!m_begin) {
  ------------------
  |  Branch (4605:13): [True: 0, False: 26.4M]
  ------------------
 4606|      0|            return true;
 4607|      0|        }
 4608|  26.4M|        return !read_at_position();
 4609|  26.4M|    }
_ZNK3scn2v46detail17basic_scan_bufferIcE16forward_iterator16read_at_positionEv:
 4581|   101M|    {
 4582|   101M|        SCN_EXPECT(m_begin);
  ------------------
  |  |  930|   101M|#define SCN_EXPECT(cond) SCN_ASSERT(cond, "Precondition violation")
  |  |  ------------------
  |  |  |  |  927|   101M|#define SCN_ASSERT(cond, msg) assert((cond) && msg)
  |  |  ------------------
  ------------------
 4583|       |
 4584|   101M|        if (!stores_parent()) {
  ------------------
  |  Branch (4584:13): [True: 0, False: 101M]
  ------------------
 4585|      0|            return true;
 4586|      0|        }
 4587|       |
 4588|   101M|        if (SCN_LIKELY(m_position < parent()->chars_available())) {
  ------------------
  |  |  864|   101M|#define SCN_LIKELY(x)   __builtin_expect(!!(x), 1)
  |  |  ------------------
  |  |  |  Branch (864:25): [True: 89.1M, False: 12.2M]
  |  |  ------------------
  ------------------
 4589|  89.1M|            return true;
 4590|  89.1M|        }
 4591|       |
 4592|  24.1M|        while (m_position >= parent()->chars_available()) {
  ------------------
  |  Branch (4592:16): [True: 12.2M, False: 11.9M]
  ------------------
 4593|  12.2M|            if (!const_cast<basic_scan_buffer<CharT>*>(parent())->fill()) {
  ------------------
  |  Branch (4593:17): [True: 300k, False: 11.9M]
  ------------------
 4594|   300k|                return false;
 4595|   300k|            }
 4596|  12.2M|        }
 4597|  11.9M|        return true;
 4598|  12.2M|    }
_ZNK3scn2v46detail17basic_scan_bufferIcE15chars_availableEv:
 4355|   127M|    {
 4356|   127M|        return m_putback_buffer.size() + m_current_view.size();
 4357|   127M|    }
_ZNK3scn2v46detail17basic_scan_bufferIcE16forward_iteratordeEv:
 4516|  34.2M|    {
 4517|  34.2M|        SCN_EXPECT(m_begin);
  ------------------
  |  |  930|  34.2M|#define SCN_EXPECT(cond) SCN_ASSERT(cond, "Precondition violation")
  |  |  ------------------
  |  |  |  |  927|  34.2M|#define SCN_ASSERT(cond, msg) assert((cond) && msg)
  |  |  ------------------
  ------------------
 4518|       |
 4519|  34.2M|        if (!stores_parent()) {
  ------------------
  |  Branch (4519:13): [True: 0, False: 34.2M]
  ------------------
 4520|      0|            auto ptr = static_cast<const CharT*>(m_begin) + position();
 4521|      0|            SCN_EXPECT(ptr != m_end);
  ------------------
  |  |  930|      0|#define SCN_EXPECT(cond) SCN_ASSERT(cond, "Precondition violation")
  |  |  ------------------
  |  |  |  |  927|      0|#define SCN_ASSERT(cond, msg) assert((cond) && msg)
  |  |  ------------------
  ------------------
 4522|      0|            return *ptr;
 4523|      0|        }
 4524|       |
 4525|  34.2M|        auto res = read_at_position();
 4526|  34.2M|        SCN_EXPECT(res);
  ------------------
  |  |  930|  34.2M|#define SCN_EXPECT(cond) SCN_ASSERT(cond, "Precondition violation")
  |  |  ------------------
  |  |  |  |  927|  34.2M|#define SCN_ASSERT(cond, msg) assert((cond) && msg)
  |  |  ------------------
  ------------------
 4527|  34.2M|        return parent()->get_character_at(m_position);
 4528|  34.2M|    }
_ZNK3scn2v46detail17basic_scan_bufferIcE16get_character_atEl:
 4386|  34.2M|    {
 4387|  34.2M|        if (SCN_UNLIKELY(
  ------------------
  |  |  865|  34.2M|#define SCN_UNLIKELY(x) __builtin_expect(!!(x), 0)
  |  |  ------------------
  |  |  |  Branch (865:25): [True: 22.3M, False: 11.9M]
  |  |  ------------------
  ------------------
 4388|  34.2M|                pos < static_cast<std::ptrdiff_t>(m_putback_buffer.size()))) {
 4389|  22.3M|            return m_putback_buffer[pos];
 4390|  22.3M|        }
 4391|  11.9M|        const auto start = pos - m_putback_buffer.size();
 4392|  11.9M|        SCN_EXPECT(start < m_current_view.size());
  ------------------
  |  |  930|  11.9M|#define SCN_EXPECT(cond) SCN_ASSERT(cond, "Precondition violation")
  |  |  ------------------
  |  |  |  |  927|  11.9M|#define SCN_ASSERT(cond, msg) assert((cond) && msg)
  |  |  ------------------
  ------------------
 4393|  11.9M|        return m_current_view[start];
 4394|  11.9M|    }
_ZN3scn2v48expectedINS0_6detail17basic_scan_bufferIcE16forward_iteratorENS0_4impl9eof_errorEEC2IS5_vEEOT_:
 1569|  6.90M|        : base(std::in_place, std::forward<U>(val)),
 1570|  6.90M|          ctor_base(detail::non_default_ctor_tag_t{})
 1571|  6.90M|    {
 1572|  6.90M|    }
_ZN3scn2v46detail21expected_storage_baseINS1_17basic_scan_bufferIcE16forward_iteratorENS0_4impl9eof_errorELb1EEC2IJS5_EvEENSt3__110in_place_tEDpOT_:
  440|  6.90M|        : m_value(std::forward<Args>(args)...), m_has_value(true)
  441|  6.90M|    {
  442|  6.90M|    }
_ZN3scn2v46detail26expected_default_ctor_baseINS1_17basic_scan_bufferIcE16forward_iteratorENS0_4impl9eof_errorELb1EEC2ENS1_22non_default_ctor_tag_tE:
 1315|  6.95M|    {
 1316|  6.95M|    }
_ZN3scn2v410unexpectedINS0_4impl9eof_errorEEC2IS3_vEEOT_:
  349|  83.6k|        : m_unexpected(std::forward<Err>(e))
  350|  83.6k|    {
  351|  83.6k|        SCN_UNLIKELY_ATTR SCN_UNUSED(m_unexpected);
  ------------------
  |  |  915|  83.6k|#define SCN_UNUSED(x) static_cast<void>(sizeof(x))
  ------------------
  352|  83.6k|    }
_ZN3scn2v48expectedINS0_6detail17basic_scan_bufferIcE16forward_iteratorENS0_4impl9eof_errorEEC2IS7_TnPNSt3__19enable_ifIXsr3stdE18is_constructible_vIS7_OT_EEvE4typeELPv0ETnPNSB_IXsr3stdE16is_convertible_vISD_S7_EEvE4typeELSH_0EEEONS0_10unexpectedISC_EE:
 1615|  49.1k|        : base(unexpect, std::move(e.error())),
 1616|  49.1k|          ctor_base(detail::non_default_ctor_tag_t{})
 1617|  49.1k|    {
 1618|  49.1k|    }
_ZN3scn2v46detail21expected_storage_baseINS1_17basic_scan_bufferIcE16forward_iteratorENS0_4impl9eof_errorELb1EEC2IJS7_EvEENS0_10unexpect_tEDpOT_:
  449|  49.1k|        : m_unexpected(std::in_place, std::forward<Args>(args)...),
  450|  49.1k|          m_has_value(false)
  451|  49.1k|    {
  452|  49.1k|    }
_ZN3scn2v410unexpectedINS0_4impl9eof_errorEEC2IJS3_EvEENSt3__110in_place_tEDpOT_:
  358|   142k|        : m_unexpected(std::forward<Args>(args)...)
  359|   142k|    {
  360|   142k|        SCN_UNLIKELY_ATTR SCN_UNUSED(m_unexpected);
  ------------------
  |  |  915|   142k|#define SCN_UNUSED(x) static_cast<void>(sizeof(x))
  ------------------
  361|   142k|    }
_ZNK3scn2v48expectedINS0_6detail17basic_scan_bufferIcE16forward_iteratorENS0_4impl9eof_errorEEcvbEv:
 1739|  2.76M|    {
 1740|  2.76M|        return has_value();
 1741|  2.76M|    }
_ZNR3scn2v48expectedINS0_6detail17basic_scan_bufferIcE16forward_iteratorENS0_4impl9eof_errorEEdeIS5_TnPNSt3__19enable_ifIXntsr3stdE9is_void_vIT_EEvE4typeELPv0EEERSC_v:
 1794|   458k|    {
 1795|   458k|        return value();
 1796|   458k|    }
_ZN3scn2v46detailneERKNS1_17basic_scan_bufferIcE16forward_iteratorES6_:
 4551|  23.0M|    {
 4552|  23.0M|        return !(lhs == rhs);
 4553|  23.0M|    }
_ZN3scn2v46detaileqERKNS1_17basic_scan_bufferIcE16forward_iteratorES6_:
 4546|  24.6M|    {
 4547|  24.6M|        return lhs.m_begin == rhs.m_begin && lhs.m_position == rhs.m_position;
  ------------------
  |  Branch (4547:16): [True: 24.6M, False: 0]
  |  Branch (4547:46): [True: 2.89M, False: 21.7M]
  ------------------
 4548|  24.6M|    }
_ZN3scn2v46detail17basic_scan_bufferIcE16forward_iteratorppEv:
 4502|  40.6M|    {
 4503|  40.6M|        ++m_position;
 4504|  40.6M|        (void)read_at_position();
 4505|  40.6M|        return *this;
 4506|  40.6M|    }
_ZN3scn2v410unexpectedINS0_4impl9eof_errorEEC2IRS3_vEEOT_:
  349|  58.8k|        : m_unexpected(std::forward<Err>(e))
  350|  58.8k|    {
  351|  58.8k|        SCN_UNLIKELY_ATTR SCN_UNUSED(m_unexpected);
  ------------------
  |  |  915|  58.8k|#define SCN_UNUSED(x) static_cast<void>(sizeof(x))
  ------------------
  352|  58.8k|    }
_ZN3scn2v48expectedINSt3__14pairINS0_6detail17basic_scan_bufferIcE16forward_iteratorElEENS0_10scan_errorEEC2IS9_TnPNS2_9enable_ifIXsr3stdE18is_constructible_vIS9_OT_EEvE4typeELPv0ETnPNSC_IXsr3stdE16is_convertible_vISE_S9_EEvE4typeELSI_0EEEONS0_10unexpectedISD_EE:
 1615|  21.9k|        : base(unexpect, std::move(e.error())),
 1616|  21.9k|          ctor_base(detail::non_default_ctor_tag_t{})
 1617|  21.9k|    {
 1618|  21.9k|    }
_ZN3scn2v46detail21expected_storage_baseINSt3__14pairINS1_17basic_scan_bufferIcE16forward_iteratorElEENS0_10scan_errorELb1EEC2IJS9_EvEENS0_10unexpect_tEDpOT_:
  449|  21.9k|        : m_unexpected(std::in_place, std::forward<Args>(args)...),
  450|  21.9k|          m_has_value(false)
  451|  21.9k|    {
  452|  21.9k|    }
_ZN3scn2v46detail26expected_default_ctor_baseINSt3__14pairINS1_17basic_scan_bufferIcE16forward_iteratorElEENS0_10scan_errorELb1EEC2ENS1_22non_default_ctor_tag_tE:
 1315|  3.27M|    {
 1316|  3.27M|    }
_ZN3scn2v48expectedINSt3__14pairINS0_6detail17basic_scan_bufferIcE16forward_iteratorElEENS0_10scan_errorEEC2IS8_vEEOT_:
 1569|  3.25M|        : base(std::in_place, std::forward<U>(val)),
 1570|  3.25M|          ctor_base(detail::non_default_ctor_tag_t{})
 1571|  3.25M|    {
 1572|  3.25M|    }
_ZN3scn2v46detail21expected_storage_baseINSt3__14pairINS1_17basic_scan_bufferIcE16forward_iteratorElEENS0_10scan_errorELb1EEC2IJS8_EvEENS3_10in_place_tEDpOT_:
  440|  3.25M|        : m_value(std::forward<Args>(args)...), m_has_value(true)
  441|  3.25M|    {
  442|  3.25M|    }
_ZNK3scn2v48expectedINSt3__14pairINS0_6detail17basic_scan_bufferIcE16forward_iteratorElEENS0_10scan_errorEEcvbEv:
 1739|  3.27M|    {
 1740|  3.27M|        return has_value();
 1741|  3.27M|    }
_ZNK3scn2v46detail21expected_storage_baseINSt3__14pairINS1_17basic_scan_bufferIcE16forward_iteratorElEENS0_10scan_errorELb1EE9has_valueEv:
  489|  6.54M|    {
  490|  6.54M|        return m_has_value;
  491|  6.54M|    }
_ZNR3scn2v48expectedINSt3__14pairINS0_6detail17basic_scan_bufferIcE16forward_iteratorElEENS0_10scan_errorEE5errorEv:
 1745|  21.9k|    {
 1746|  21.9k|        SCN_EXPECT(!has_value());
  ------------------
  |  |  930|  21.9k|#define SCN_EXPECT(cond) SCN_ASSERT(cond, "Precondition violation")
  |  |  ------------------
  |  |  |  |  927|  21.9k|#define SCN_ASSERT(cond, msg) assert((cond) && msg)
  |  |  ------------------
  ------------------
 1747|  21.9k|        return this->get_unexpected().error();
 1748|  21.9k|    }
_ZNR3scn2v46detail21expected_storage_baseINSt3__14pairINS1_17basic_scan_bufferIcE16forward_iteratorElEENS0_10scan_errorELb1EE14get_unexpectedEv:
  472|  21.9k|    {
  473|  21.9k|        return m_unexpected;
  474|  21.9k|    }
_ZNO3scn2v48expectedINSt3__14pairINS0_6detail17basic_scan_bufferIcE16forward_iteratorElEENS0_10scan_errorEEdeIS8_TnPNS2_9enable_ifIXntsr3stdE9is_void_vIT_EEvE4typeELPv0EEEOSD_v:
 1804|  3.25M|    {
 1805|  3.25M|        return std::move(value());
 1806|  3.25M|    }
_ZNR3scn2v48expectedINSt3__14pairINS0_6detail17basic_scan_bufferIcE16forward_iteratorElEENS0_10scan_errorEE5valueIS8_TnPNS2_9enable_ifIXntsr3stdE9is_void_vIT_EEvE4typeELPv0EEERSD_v:
 1768|  3.25M|    {
 1769|  3.25M|        SCN_EXPECT(has_value());
  ------------------
  |  |  930|  3.25M|#define SCN_EXPECT(cond) SCN_ASSERT(cond, "Precondition violation")
  |  |  ------------------
  |  |  |  |  927|  3.25M|#define SCN_ASSERT(cond, msg) assert((cond) && msg)
  |  |  ------------------
  ------------------
 1770|  3.25M|        return this->get_value();
 1771|  3.25M|    }
_ZNR3scn2v46detail21expected_storage_baseINSt3__14pairINS1_17basic_scan_bufferIcE16forward_iteratorElEENS0_10scan_errorELb1EE9get_valueEv:
  455|  3.25M|    {
  456|  3.25M|        return m_value;
  457|  3.25M|    }
_ZNK3scn2v46ranges6detail9subrange_8subrangeINS0_6detail17basic_scan_bufferIcE16forward_iteratorENS1_18default_sentinel_tEE3endEv:
 3483|  40.9M|    {
 3484|  40.9M|        return m_sentinel;
 3485|  40.9M|    }
_ZN3scn2v410unexpectedINS0_4impl11parse_errorEEC2IS3_vEEOT_:
  349|  22.3k|        : m_unexpected(std::forward<Err>(e))
  350|  22.3k|    {
  351|  22.3k|        SCN_UNLIKELY_ATTR SCN_UNUSED(m_unexpected);
  ------------------
  |  |  915|  22.3k|#define SCN_UNUSED(x) static_cast<void>(sizeof(x))
  ------------------
  352|  22.3k|    }
_ZNR3scn2v410unexpectedINS0_4impl11parse_errorEE5errorEv:
  364|  5.33M|    {
  365|  5.33M|        return m_unexpected;
  366|  5.33M|    }
_ZN3scn2v410unexpectedINS0_4impl11parse_errorEEC2IJS3_EvEENSt3__110in_place_tEDpOT_:
  358|   189k|        : m_unexpected(std::forward<Args>(args)...)
  359|   189k|    {
  360|   189k|        SCN_UNLIKELY_ATTR SCN_UNUSED(m_unexpected);
  ------------------
  |  |  915|   189k|#define SCN_UNUSED(x) static_cast<void>(sizeof(x))
  ------------------
  361|   189k|    }
_ZN3scn2v410unexpectedINS0_4impl11parse_error4codeEEC2IS4_vEEOT_:
  349|  11.2M|        : m_unexpected(std::forward<Err>(e))
  350|  11.2M|    {
  351|  11.2M|        SCN_UNLIKELY_ATTR SCN_UNUSED(m_unexpected);
  ------------------
  |  |  915|  11.2M|#define SCN_UNUSED(x) static_cast<void>(sizeof(x))
  ------------------
  352|  11.2M|    }
_ZNR3scn2v410unexpectedINS0_4impl11parse_error4codeEE5errorEv:
  364|  11.2M|    {
  365|  11.2M|        return m_unexpected;
  366|  11.2M|    }
_ZN3scn2v410unexpectedINS0_4impl11parse_errorEEC2IJNS3_4codeEEvEENSt3__110in_place_tEDpOT_:
  358|  11.2M|        : m_unexpected(std::forward<Args>(args)...)
  359|  11.2M|    {
  360|  11.2M|        SCN_UNLIKELY_ATTR SCN_UNUSED(m_unexpected);
  ------------------
  |  |  915|  11.2M|#define SCN_UNUSED(x) static_cast<void>(sizeof(x))
  ------------------
  361|  11.2M|    }
_ZN3scn2v46detail14trivial_invokeIRFNS0_4impl11parse_errorENS3_9eof_errorEEJS5_EvEEDcOT_DpOT0_:
 1349|  83.6k|{
 1350|  83.6k|    return std::forward<F>(f)(std::forward<Args>(args)...);
 1351|  83.6k|}
_ZN3scn2v410unexpectedINS0_4impl11parse_errorEEC2IRS3_vEEOT_:
  349|  83.6k|        : m_unexpected(std::forward<Err>(e))
  350|  83.6k|    {
  351|  83.6k|        SCN_UNLIKELY_ATTR SCN_UNUSED(m_unexpected);
  ------------------
  |  |  915|  83.6k|#define SCN_UNUSED(x) static_cast<void>(sizeof(x))
  ------------------
  352|  83.6k|    }
_ZN3scn2v46detail14trivial_invokeIZNS0_4impl29map_parse_error_to_scan_errorENS0_10scan_error4codeEPKcEUlNS3_11parse_errorEE_JS8_EvEEDcOT_DpOT0_:
 1349|   408k|{
 1350|   408k|    return std::forward<F>(f)(std::forward<Args>(args)...);
 1351|   408k|}
_ZN3scn2v46detail12construct_atINS0_10unexpectedINS0_10scan_errorEEEJRKNSt3__110in_place_tES4_EEEPT_SB_DpOT0_:
  395|   119k|{
  396|   119k|    return ::new (const_cast<void*>(static_cast<const volatile void*>(p)))
  397|   119k|        T(std::forward<Args>(args)...);
  398|   119k|}
_ZNK3scn2v46ranges6detail6ssize_2fnclIRKNSt3__112basic_stringIcNS6_11char_traitsIcEENS6_9allocatorIcEEEEEEDTclsr2fnE4implclsr3stdE7forwardIT_Efp_EEEOSF_:
 3106|   617k|    {
 3107|   617k|        return fn::impl(std::forward<T>(t));
 3108|   617k|    }
_ZN3scn2v46ranges6detail6ssize_2fn4implIRKNSt3__112basic_stringIcNS6_11char_traitsIcEENS6_9allocatorIcEEEEEEDTcmclL_ZNS1_4sizeEEclsr3stdE7forwardIT_Efp_EEcvNS6_11conditionalIXltstNS6_9enable_ifIX5rangeISF_EENS1_20incrementable_traitsIDTclL_ZNS1_5beginEEclsr3stdE7declvalIRSF_EEEEE15difference_typeEE4typeELm8EElSO_E4typeE_EEOSF_:
 3097|   617k|    {
 3098|   617k|        return static_cast<ssize_return_t<T>>(ranges::size(std::forward<T>(t)));
 3099|   617k|    }
_ZNK3scn2v46ranges6detail5size_2fnclIRKNSt3__112basic_stringIcNS6_11char_traitsIcEENS6_9allocatorIcEEEEEEDTclsr2fnE4implclsr3stdE7forwardIT_Efp_EtlNS0_6detail12priority_tagILm3EEEEEEOSF_:
 3074|   617k|    {
 3075|   617k|        return fn::impl(std::forward<T>(t), priority_tag<3>{});
 3076|   617k|    }
_ZN3scn2v46ranges6detail5size_2fn4implIRKNSt3__112basic_stringIcNS6_11char_traitsIcEENS6_9allocatorIcEEEEmEENS6_9enable_ifIXaasr3stdE13is_integral_vIT0_Ent19disable_sized_rangeIu11__remove_cvIu20__remove_reference_tIT_EEEESG_E4typeEOSH_NS0_6detail12priority_tagILm2EEE:
 3040|   617k|    {
 3041|   617k|        return decay_copy(SCN_FWD(t).size());
  ------------------
  |  |  936|   617k|#define SCN_FWD(x)          static_cast<decltype(x)&&>(x)
  ------------------
 3042|   617k|    }
_ZN3scn2v46detail10destroy_atINS0_10unexpectedINS0_10scan_errorEEEEEvPT_:
  401|   119k|{
  402|       |    if constexpr (std::is_array_v<T>) {
  403|       |        for (auto& elem : *p) {
  404|       |            scn::detail::destroy_at(&elem);
  405|       |        }
  406|       |    }
  407|   119k|    else {
  408|   119k|        p->~T();
  409|   119k|    }
  410|   119k|}
_ZNR3scn2v48expectedINS0_6detail17basic_scan_bufferIcE16forward_iteratorENS0_4impl9eof_errorEE5errorEv:
 1745|    588|    {
 1746|    588|        SCN_EXPECT(!has_value());
  ------------------
  |  |  930|    588|#define SCN_EXPECT(cond) SCN_ASSERT(cond, "Precondition violation")
  |  |  ------------------
  |  |  |  |  927|    588|#define SCN_ASSERT(cond, msg) assert((cond) && msg)
  |  |  ------------------
  ------------------
 1747|    588|        return this->get_unexpected().error();
 1748|    588|    }
_ZN3scn2v48expectedINS0_6detail17basic_scan_bufferIcE16forward_iteratorENS0_4impl11parse_errorEEC2IS7_TnPNSt3__19enable_ifIXsr3stdE18is_constructible_vIS7_OT_EEvE4typeELPv0ETnPNSB_IXsr3stdE16is_convertible_vISD_S7_EEvE4typeELSH_0EEEONS0_10unexpectedISC_EE:
 1615|  21.9k|        : base(unexpect, std::move(e.error())),
 1616|  21.9k|          ctor_base(detail::non_default_ctor_tag_t{})
 1617|  21.9k|    {
 1618|  21.9k|    }
_ZN3scn2v46detail21expected_storage_baseINS1_17basic_scan_bufferIcE16forward_iteratorENS0_4impl11parse_errorELb1EEC2IJS7_EvEENS0_10unexpect_tEDpOT_:
  449|  43.2k|        : m_unexpected(std::in_place, std::forward<Args>(args)...),
  450|  43.2k|          m_has_value(false)
  451|  43.2k|    {
  452|  43.2k|    }
_ZN3scn2v46detail26expected_default_ctor_baseINS1_17basic_scan_bufferIcE16forward_iteratorENS0_4impl11parse_errorELb1EEC2ENS1_22non_default_ctor_tag_tE:
 1315|  8.97M|    {
 1316|  8.97M|    }
_ZN3scn2v48expectedINS0_6detail17basic_scan_bufferIcE16forward_iteratorENS0_4impl11parse_errorEEC2IRS5_vEEOT_:
 1569|   737k|        : base(std::in_place, std::forward<U>(val)),
 1570|   737k|          ctor_base(detail::non_default_ctor_tag_t{})
 1571|   737k|    {
 1572|   737k|    }
_ZN3scn2v46detail21expected_storage_baseINS1_17basic_scan_bufferIcE16forward_iteratorENS0_4impl11parse_errorELb1EEC2IJRS5_EvEENSt3__110in_place_tEDpOT_:
  440|   737k|        : m_value(std::forward<Args>(args)...), m_has_value(true)
  441|   737k|    {
  442|   737k|    }
_ZN3scn2v48expectedINS0_6detail17basic_scan_bufferIcE16forward_iteratorENS0_4impl11parse_errorEEC2INS7_4codeETnPNSt3__19enable_ifIXsr3stdE18is_constructible_vIS7_OT_EEvE4typeELPv0ETnPNSC_IXsr3stdE16is_convertible_vISE_S7_EEvE4typeELSI_0EEEONS0_10unexpectedISD_EE:
 1615|  4.64M|        : base(unexpect, std::move(e.error())),
 1616|  4.64M|          ctor_base(detail::non_default_ctor_tag_t{})
 1617|  4.64M|    {
 1618|  4.64M|    }
_ZN3scn2v46detail21expected_storage_baseINS1_17basic_scan_bufferIcE16forward_iteratorENS0_4impl11parse_errorELb1EEC2IJNS7_4codeEEvEENS0_10unexpect_tEDpOT_:
  449|  4.64M|        : m_unexpected(std::in_place, std::forward<Args>(args)...),
  450|  4.64M|          m_has_value(false)
  451|  4.64M|    {
  452|  4.64M|    }
_ZNK3scn2v48expectedINS0_6detail17basic_scan_bufferIcE16forward_iteratorENS0_4impl11parse_errorEEcvbEv:
 1739|  7.30M|    {
 1740|  7.30M|        return has_value();
 1741|  7.30M|    }
_ZNK3scn2v46detail21expected_storage_baseINS1_17basic_scan_bufferIcE16forward_iteratorENS0_4impl11parse_errorELb1EE9has_valueEv:
  489|  15.3M|    {
  490|  15.3M|        return m_has_value;
  491|  15.3M|    }
_ZNR3scn2v48expectedINS0_6detail17basic_scan_bufferIcE16forward_iteratorENS0_4impl11parse_errorEE5errorEv:
 1745|  2.01M|    {
 1746|  2.01M|        SCN_EXPECT(!has_value());
  ------------------
  |  |  930|  2.01M|#define SCN_EXPECT(cond) SCN_ASSERT(cond, "Precondition violation")
  |  |  ------------------
  |  |  |  |  927|  2.01M|#define SCN_ASSERT(cond, msg) assert((cond) && msg)
  |  |  ------------------
  ------------------
 1747|  2.01M|        return this->get_unexpected().error();
 1748|  2.01M|    }
_ZNR3scn2v46detail21expected_storage_baseINS1_17basic_scan_bufferIcE16forward_iteratorENS0_4impl11parse_errorELb1EE14get_unexpectedEv:
  472|  2.10M|    {
  473|  2.10M|        return m_unexpected;
  474|  2.10M|    }
_ZN3scn2v48expectedINSt3__14pairINS0_6detail17basic_scan_bufferIcE16forward_iteratorENS0_4impl9sign_typeEEENS8_9eof_errorEEC2ISA_vEEOT_:
 1569|  2.18M|        : base(std::in_place, std::forward<U>(val)),
 1570|  2.18M|          ctor_base(detail::non_default_ctor_tag_t{})
 1571|  2.18M|    {
 1572|  2.18M|    }
_ZN3scn2v46detail21expected_storage_baseINSt3__14pairINS1_17basic_scan_bufferIcE16forward_iteratorENS0_4impl9sign_typeEEENS8_9eof_errorELb1EEC2IJSA_EvEENS3_10in_place_tEDpOT_:
  440|  2.18M|        : m_value(std::forward<Args>(args)...), m_has_value(true)
  441|  2.18M|    {
  442|  2.18M|    }
_ZN3scn2v46detail26expected_default_ctor_baseINSt3__14pairINS1_17basic_scan_bufferIcE16forward_iteratorENS0_4impl9sign_typeEEENS8_9eof_errorELb1EEC2ENS1_22non_default_ctor_tag_tE:
 1315|  2.18M|    {
 1316|  2.18M|    }
_ZNR3scn2v48expectedINS0_6detail17basic_scan_bufferIcE16forward_iteratorENS0_4impl11parse_errorEEdeIS5_TnPNSt3__19enable_ifIXntsr3stdE9is_void_vIT_EEvE4typeELPv0EEERSC_v:
 1794|   756k|    {
 1795|   756k|        return value();
 1796|   756k|    }
_ZNR3scn2v48expectedINS0_6detail17basic_scan_bufferIcE16forward_iteratorENS0_4impl11parse_errorEE5valueIS5_TnPNSt3__19enable_ifIXntsr3stdE9is_void_vIT_EEvE4typeELPv0EEERSC_v:
 1768|  4.28M|    {
 1769|  4.28M|        SCN_EXPECT(has_value());
  ------------------
  |  |  930|  4.28M|#define SCN_EXPECT(cond) SCN_ASSERT(cond, "Precondition violation")
  |  |  ------------------
  |  |  |  |  927|  4.28M|#define SCN_ASSERT(cond, msg) assert((cond) && msg)
  |  |  ------------------
  ------------------
 1770|  4.28M|        return this->get_value();
 1771|  4.28M|    }
_ZNR3scn2v46detail21expected_storage_baseINS1_17basic_scan_bufferIcE16forward_iteratorENS0_4impl11parse_errorELb1EE9get_valueEv:
  455|  4.28M|    {
  456|  4.28M|        return m_value;
  457|  4.28M|    }
_ZNK3scn2v48expectedINSt3__14pairINS0_6detail17basic_scan_bufferIcE16forward_iteratorENS0_4impl9sign_typeEEENS8_9eof_errorEEcvbEv:
 1739|  2.18M|    {
 1740|  2.18M|        return has_value();
 1741|  2.18M|    }
_ZNK3scn2v46detail21expected_storage_baseINSt3__14pairINS1_17basic_scan_bufferIcE16forward_iteratorENS0_4impl9sign_typeEEENS8_9eof_errorELb1EE9has_valueEv:
  489|  4.36M|    {
  490|  4.36M|        return m_has_value;
  491|  4.36M|    }
_ZN3scn2v46detail26expected_default_ctor_baseINS0_4impl27parse_integer_prefix_resultINS1_17basic_scan_bufferIcE16forward_iteratorEEENS3_9eof_errorELb1EEC2ENS1_22non_default_ctor_tag_tE:
 1315|  2.18M|    {
 1316|  2.18M|    }
_ZNO3scn2v48expectedINSt3__14pairINS0_6detail17basic_scan_bufferIcE16forward_iteratorENS0_4impl9sign_typeEEENS8_9eof_errorEEdeISA_TnPNS2_9enable_ifIXntsr3stdE9is_void_vIT_EEvE4typeELPv0EEEOSF_v:
 1804|  2.18M|    {
 1805|  2.18M|        return std::move(value());
 1806|  2.18M|    }
_ZNR3scn2v48expectedINSt3__14pairINS0_6detail17basic_scan_bufferIcE16forward_iteratorENS0_4impl9sign_typeEEENS8_9eof_errorEE5valueISA_TnPNS2_9enable_ifIXntsr3stdE9is_void_vIT_EEvE4typeELPv0EEERSF_v:
 1768|  2.18M|    {
 1769|  2.18M|        SCN_EXPECT(has_value());
  ------------------
  |  |  930|  2.18M|#define SCN_EXPECT(cond) SCN_ASSERT(cond, "Precondition violation")
  |  |  ------------------
  |  |  |  |  927|  2.18M|#define SCN_ASSERT(cond, msg) assert((cond) && msg)
  |  |  ------------------
  ------------------
 1770|  2.18M|        return this->get_value();
 1771|  2.18M|    }
_ZNR3scn2v46detail21expected_storage_baseINSt3__14pairINS1_17basic_scan_bufferIcE16forward_iteratorENS0_4impl9sign_typeEEENS8_9eof_errorELb1EE9get_valueEv:
  455|  2.18M|    {
  456|  2.18M|        return m_value;
  457|  2.18M|    }
_ZNO3scn2v48expectedINS0_6detail17basic_scan_bufferIcE16forward_iteratorENS0_4impl9eof_errorEE15transform_errorIRFNS6_11parse_errorES7_EEEDTclsr6detailE20transform_error_impldefpTclsr3stdE7forwardIT_Efp_EEEOSD_:
 1978|  1.97M|    {
 1979|  1.97M|        return detail::transform_error_impl(std::move(*this),
 1980|  1.97M|                                            std::forward<F>(f));
 1981|  1.97M|    }
_ZN3scn2v46detail20transform_error_implINS0_8expectedINS1_17basic_scan_bufferIcE16forward_iteratorENS0_4impl9eof_errorEEERFNS7_11parse_errorES8_ETnPNSt3__19enable_ifIXntsr11is_exp_voidIT_EE5valueEvE4typeELPv0ESA_EEDaOSF_OT0_:
 1461|  1.97M|{
 1462|       |    if constexpr (std::is_void_v<Ret>) {
 1463|       |        using result = expected<expected_value_type<Exp>, monostate>;
 1464|       |        if (SCN_LIKELY(exp.has_value())) {
 1465|       |            return result(*std::forward<Exp>(exp));
 1466|       |        }
 1467|       |
 1468|       |        trivial_invoke(std::forward<F>(f), std::forward<Exp>(exp).error());
 1469|       |        return result(unexpect, monostate{});
 1470|       |    }
 1471|  1.97M|    else {
 1472|  1.97M|        using result = expected<expected_value_type<Exp>, remove_cvref_t<Ret>>;
 1473|  1.97M|        return SCN_LIKELY(exp.has_value())
  ------------------
  |  |  864|  1.97M|#define SCN_LIKELY(x)   __builtin_expect(!!(x), 1)
  |  |  ------------------
  |  |  |  Branch (864:25): [True: 1.95M, False: 21.3k]
  |  |  ------------------
  ------------------
 1474|  1.97M|                   ? result(*std::forward<Exp>(exp))
 1475|  1.97M|                   : result(unexpect,
 1476|  21.3k|                            trivial_invoke(std::forward<F>(f),
 1477|  21.3k|                                           std::forward<Exp>(exp).error()));
 1478|  1.97M|    }
 1479|  1.97M|}
_ZN3scn2v48expectedINS0_6detail17basic_scan_bufferIcE16forward_iteratorENS0_4impl11parse_errorEEC2IS5_vEEOT_:
 1569|  3.54M|        : base(std::in_place, std::forward<U>(val)),
 1570|  3.54M|          ctor_base(detail::non_default_ctor_tag_t{})
 1571|  3.54M|    {
 1572|  3.54M|    }
_ZN3scn2v46detail21expected_storage_baseINS1_17basic_scan_bufferIcE16forward_iteratorENS0_4impl11parse_errorELb1EEC2IJS5_EvEENSt3__110in_place_tEDpOT_:
  440|  3.54M|        : m_value(std::forward<Args>(args)...), m_has_value(true)
  441|  3.54M|    {
  442|  3.54M|    }
_ZN3scn2v48expectedINS0_6detail17basic_scan_bufferIcE16forward_iteratorENS0_4impl11parse_errorEEC2IJS7_EvEENS0_10unexpect_tEDpOT_:
 1625|  21.3k|        : base(unexpect, std::forward<Args>(args)...),
 1626|  21.3k|          ctor_base(detail::non_default_ctor_tag_t{})
 1627|  21.3k|    {
 1628|  21.3k|    }
_ZNO3scn2v48expectedINS0_6detail17basic_scan_bufferIcE16forward_iteratorENS0_4impl11parse_errorEEdeIS5_TnPNSt3__19enable_ifIXntsr3stdE9is_void_vIT_EEvE4typeELPv0EEEOSC_v:
 1804|  3.52M|    {
 1805|  3.52M|        return std::move(value());
 1806|  3.52M|    }
_ZN3scn2v48expectedINS0_4impl27parse_integer_prefix_resultINS0_6detail17basic_scan_bufferIcE16forward_iteratorEEENS2_9eof_errorEEC2IS8_vEEOT_:
 1569|  2.18M|        : base(std::in_place, std::forward<U>(val)),
 1570|  2.18M|          ctor_base(detail::non_default_ctor_tag_t{})
 1571|  2.18M|    {
 1572|  2.18M|    }
_ZN3scn2v46detail21expected_storage_baseINS0_4impl27parse_integer_prefix_resultINS1_17basic_scan_bufferIcE16forward_iteratorEEENS3_9eof_errorELb1EEC2IJS8_EvEENSt3__110in_place_tEDpOT_:
  440|  2.18M|        : m_value(std::forward<Args>(args)...), m_has_value(true)
  441|  2.18M|    {
  442|  2.18M|    }
_ZNO3scn2v48expectedINS0_4impl27parse_integer_prefix_resultINS0_6detail17basic_scan_bufferIcE16forward_iteratorEEENS2_9eof_errorEE15transform_errorIRFNS0_10scan_errorES9_EEEDTclsr6detailE20transform_error_impldefpTclsr3stdE7forwardIT_Efp_EEEOSF_:
 1978|  2.18M|    {
 1979|  2.18M|        return detail::transform_error_impl(std::move(*this),
 1980|  2.18M|                                            std::forward<F>(f));
 1981|  2.18M|    }
_ZN3scn2v46detail20transform_error_implINS0_8expectedINS0_4impl27parse_integer_prefix_resultINS1_17basic_scan_bufferIcE16forward_iteratorEEENS4_9eof_errorEEERFNS0_10scan_errorESA_ETnPNSt3__19enable_ifIXntsr11is_exp_voidIT_EE5valueEvE4typeELPv0ESC_EEDaOSH_OT0_:
 1461|  2.18M|{
 1462|       |    if constexpr (std::is_void_v<Ret>) {
 1463|       |        using result = expected<expected_value_type<Exp>, monostate>;
 1464|       |        if (SCN_LIKELY(exp.has_value())) {
 1465|       |            return result(*std::forward<Exp>(exp));
 1466|       |        }
 1467|       |
 1468|       |        trivial_invoke(std::forward<F>(f), std::forward<Exp>(exp).error());
 1469|       |        return result(unexpect, monostate{});
 1470|       |    }
 1471|  2.18M|    else {
 1472|  2.18M|        using result = expected<expected_value_type<Exp>, remove_cvref_t<Ret>>;
 1473|  2.18M|        return SCN_LIKELY(exp.has_value())
  ------------------
  |  |  864|  2.18M|#define SCN_LIKELY(x)   __builtin_expect(!!(x), 1)
  |  |  ------------------
  |  |  |  Branch (864:25): [True: 2.18M, False: 0]
  |  |  ------------------
  ------------------
 1474|  2.18M|                   ? result(*std::forward<Exp>(exp))
 1475|  2.18M|                   : result(unexpect,
 1476|      0|                            trivial_invoke(std::forward<F>(f),
 1477|      0|                                           std::forward<Exp>(exp).error()));
 1478|  2.18M|    }
 1479|  2.18M|}
_ZNK3scn2v46detail21expected_storage_baseINS0_4impl27parse_integer_prefix_resultINS1_17basic_scan_bufferIcE16forward_iteratorEEENS3_9eof_errorELb1EE9has_valueEv:
  489|  4.36M|    {
  490|  4.36M|        return m_has_value;
  491|  4.36M|    }
_ZNO3scn2v48expectedINS0_4impl27parse_integer_prefix_resultINS0_6detail17basic_scan_bufferIcE16forward_iteratorEEENS2_9eof_errorEEdeIS8_TnPNSt3__19enable_ifIXntsr3stdE9is_void_vIT_EEvE4typeELPv0EEEOSE_v:
 1804|  2.18M|    {
 1805|  2.18M|        return std::move(value());
 1806|  2.18M|    }
_ZNR3scn2v48expectedINS0_4impl27parse_integer_prefix_resultINS0_6detail17basic_scan_bufferIcE16forward_iteratorEEENS2_9eof_errorEE5valueIS8_TnPNSt3__19enable_ifIXntsr3stdE9is_void_vIT_EEvE4typeELPv0EEERSE_v:
 1768|  2.18M|    {
 1769|  2.18M|        SCN_EXPECT(has_value());
  ------------------
  |  |  930|  2.18M|#define SCN_EXPECT(cond) SCN_ASSERT(cond, "Precondition violation")
  |  |  ------------------
  |  |  |  |  927|  2.18M|#define SCN_ASSERT(cond, msg) assert((cond) && msg)
  |  |  ------------------
  ------------------
 1770|  2.18M|        return this->get_value();
 1771|  2.18M|    }
_ZNR3scn2v46detail21expected_storage_baseINS0_4impl27parse_integer_prefix_resultINS1_17basic_scan_bufferIcE16forward_iteratorEEENS3_9eof_errorELb1EE9get_valueEv:
  455|  2.18M|    {
  456|  2.18M|        return m_value;
  457|  2.18M|    }
_ZN3scn2v48expectedINS0_4impl27parse_integer_prefix_resultINS0_6detail17basic_scan_bufferIcE16forward_iteratorEEENS0_10scan_errorEEC2IS8_vEEOT_:
 1569|  2.18M|        : base(std::in_place, std::forward<U>(val)),
 1570|  2.18M|          ctor_base(detail::non_default_ctor_tag_t{})
 1571|  2.18M|    {
 1572|  2.18M|    }
_ZN3scn2v46detail21expected_storage_baseINS0_4impl27parse_integer_prefix_resultINS1_17basic_scan_bufferIcE16forward_iteratorEEENS0_10scan_errorELb1EEC2IJS8_EvEENSt3__110in_place_tEDpOT_:
  440|  2.18M|        : m_value(std::forward<Args>(args)...), m_has_value(true)
  441|  2.18M|    {
  442|  2.18M|    }
_ZN3scn2v46detail26expected_default_ctor_baseINS0_4impl27parse_integer_prefix_resultINS1_17basic_scan_bufferIcE16forward_iteratorEEENS0_10scan_errorELb1EEC2ENS1_22non_default_ctor_tag_tE:
 1315|  2.18M|    {
 1316|  2.18M|    }
_ZNK3scn2v48expectedINS0_4impl27parse_integer_prefix_resultINS0_6detail17basic_scan_bufferIcE16forward_iteratorEEENS0_10scan_errorEEcvbEv:
 1739|  2.18M|    {
 1740|  2.18M|        return has_value();
 1741|  2.18M|    }
_ZNK3scn2v46detail21expected_storage_baseINS0_4impl27parse_integer_prefix_resultINS1_17basic_scan_bufferIcE16forward_iteratorEEENS0_10scan_errorELb1EE9has_valueEv:
  489|  4.36M|    {
  490|  4.36M|        return m_has_value;
  491|  4.36M|    }
_ZNO3scn2v48expectedINS0_4impl27parse_integer_prefix_resultINS0_6detail17basic_scan_bufferIcE16forward_iteratorEEENS0_10scan_errorEEdeIS8_TnPNSt3__19enable_ifIXntsr3stdE9is_void_vIT_EEvE4typeELPv0EEEOSE_v:
 1804|  2.18M|    {
 1805|  2.18M|        return std::move(value());
 1806|  2.18M|    }
_ZNR3scn2v48expectedINS0_4impl27parse_integer_prefix_resultINS0_6detail17basic_scan_bufferIcE16forward_iteratorEEENS0_10scan_errorEE5valueIS8_TnPNSt3__19enable_ifIXntsr3stdE9is_void_vIT_EEvE4typeELPv0EEERSE_v:
 1768|  2.18M|    {
 1769|  2.18M|        SCN_EXPECT(has_value());
  ------------------
  |  |  930|  2.18M|#define SCN_EXPECT(cond) SCN_ASSERT(cond, "Precondition violation")
  |  |  ------------------
  |  |  |  |  927|  2.18M|#define SCN_ASSERT(cond, msg) assert((cond) && msg)
  |  |  ------------------
  ------------------
 1770|  2.18M|        return this->get_value();
 1771|  2.18M|    }
_ZNR3scn2v46detail21expected_storage_baseINS0_4impl27parse_integer_prefix_resultINS1_17basic_scan_bufferIcE16forward_iteratorEEENS0_10scan_errorELb1EE9get_valueEv:
  455|  2.18M|    {
  456|  2.18M|        return m_value;
  457|  2.18M|    }
_ZNO3scn2v48expectedINS0_6detail17basic_scan_bufferIcE16forward_iteratorENS0_4impl11parse_errorEE15transform_errorIZNS6_29map_parse_error_to_scan_errorENS0_10scan_error4codeEPKcEUlS7_E_EEDTclsr6detailE20transform_error_impldefpTclsr3stdE7forwardIT_Efp_EEEOSF_:
 1978|  1.66M|    {
 1979|  1.66M|        return detail::transform_error_impl(std::move(*this),
 1980|  1.66M|                                            std::forward<F>(f));
 1981|  1.66M|    }
_ZN3scn2v46detail20transform_error_implINS0_8expectedINS1_17basic_scan_bufferIcE16forward_iteratorENS0_4impl11parse_errorEEEZNS7_29map_parse_error_to_scan_errorENS0_10scan_error4codeEPKcEUlS8_E_TnPNSt3__19enable_ifIXntsr11is_exp_voidIT_EE5valueEvE4typeELPv0ESA_EEDaOSH_OT0_:
 1461|  1.66M|{
 1462|       |    if constexpr (std::is_void_v<Ret>) {
 1463|       |        using result = expected<expected_value_type<Exp>, monostate>;
 1464|       |        if (SCN_LIKELY(exp.has_value())) {
 1465|       |            return result(*std::forward<Exp>(exp));
 1466|       |        }
 1467|       |
 1468|       |        trivial_invoke(std::forward<F>(f), std::forward<Exp>(exp).error());
 1469|       |        return result(unexpect, monostate{});
 1470|       |    }
 1471|  1.66M|    else {
 1472|  1.66M|        using result = expected<expected_value_type<Exp>, remove_cvref_t<Ret>>;
 1473|  1.66M|        return SCN_LIKELY(exp.has_value())
  ------------------
  |  |  864|  1.66M|#define SCN_LIKELY(x)   __builtin_expect(!!(x), 1)
  |  |  ------------------
  |  |  |  Branch (864:25): [True: 1.57M, False: 86.8k]
  |  |  ------------------
  ------------------
 1474|  1.66M|                   ? result(*std::forward<Exp>(exp))
 1475|  1.66M|                   : result(unexpect,
 1476|  86.8k|                            trivial_invoke(std::forward<F>(f),
 1477|  86.8k|                                           std::forward<Exp>(exp).error()));
 1478|  1.66M|    }
 1479|  1.66M|}
_ZNO3scn2v48expectedINS0_6detail17basic_scan_bufferIcE16forward_iteratorENS0_4impl11parse_errorEE5errorEv:
 1755|  86.8k|    {
 1756|  86.8k|        SCN_EXPECT(!has_value());
  ------------------
  |  |  930|  86.8k|#define SCN_EXPECT(cond) SCN_ASSERT(cond, "Precondition violation")
  |  |  ------------------
  |  |  |  |  927|  86.8k|#define SCN_ASSERT(cond, msg) assert((cond) && msg)
  |  |  ------------------
  ------------------
 1757|  86.8k|        return std::move(this->get_unexpected().error());
 1758|  86.8k|    }
_ZN3scn2v48expectedINSt3__15tupleIJNS0_6detail17basic_scan_bufferIcE16forward_iteratorENS2_12basic_stringIcNS2_11char_traitsIcEENS2_9allocatorIcEEEESD_EEENS0_10scan_errorEEC2ISF_TnPNS2_9enable_ifIXsr3stdE18is_constructible_vISF_OT_EEvE4typeELPv0ETnPNSI_IXsr3stdE16is_convertible_vISK_SF_EEvE4typeELSO_0EEEONS0_10unexpectedISJ_EE:
 1615|  10.1k|        : base(unexpect, std::move(e.error())),
 1616|  10.1k|          ctor_base(detail::non_default_ctor_tag_t{})
 1617|  10.1k|    {
 1618|  10.1k|    }
_ZN3scn2v46detail21expected_storage_baseINSt3__15tupleIJNS1_17basic_scan_bufferIcE16forward_iteratorENS3_12basic_stringIcNS3_11char_traitsIcEENS3_9allocatorIcEEEESD_EEENS0_10scan_errorELb0EEC2IJSF_EvEENS0_10unexpect_tEDpOT_:
  636|  10.1k|        : m_has_value(false)
  637|  10.1k|    {
  638|  10.1k|        construct_unexpected(std::in_place, std::forward<Args>(args)...);
  639|  10.1k|    }
_ZN3scn2v46detail21expected_storage_baseINSt3__15tupleIJNS1_17basic_scan_bufferIcE16forward_iteratorENS3_12basic_stringIcNS3_11char_traitsIcEENS3_9allocatorIcEEEESD_EEENS0_10scan_errorELb0EE20construct_unexpectedIJRKNS3_10in_place_tESF_EEEvDpOT_:
  700|  10.1k|    {
  701|  10.1k|        scn::detail::construct_at(unexpected_ptr(),
  702|  10.1k|                                  std::forward<Args>(args)...);
  703|  10.1k|        m_has_value = false;
  704|  10.1k|    }
_ZN3scn2v46detail21expected_storage_baseINSt3__15tupleIJNS1_17basic_scan_bufferIcE16forward_iteratorENS3_12basic_stringIcNS3_11char_traitsIcEENS3_9allocatorIcEEEESD_EEENS0_10scan_errorELb0EE14unexpected_ptrEv:
  729|  30.5k|    {
  730|  30.5k|        return reinterpret_cast<unexpected<E>*>(
  731|  30.5k|            SCN_ASSUME_ALIGNED(m_memory, alignof(unexpected<E>)));
  ------------------
  |  |  900|  30.5k|#define SCN_ASSUME_ALIGNED(x, n) __builtin_assume_aligned(x, n)
  ------------------
  732|  30.5k|    }
_ZN3scn2v46detail26expected_default_ctor_baseINSt3__15tupleIJNS1_17basic_scan_bufferIcE16forward_iteratorENS3_12basic_stringIcNS3_11char_traitsIcEENS3_9allocatorIcEEEESD_EEENS0_10scan_errorELb1EEC2ENS1_22non_default_ctor_tag_tE:
 1315|   324k|    {
 1316|   324k|    }
_ZN3scn2v48expectedINSt3__15tupleIJNS0_6detail17basic_scan_bufferIcE16forward_iteratorENS2_12basic_stringIcNS2_11char_traitsIcEENS2_9allocatorIcEEEESD_EEENS0_10scan_errorEEC2ISE_vEEOT_:
 1569|   313k|        : base(std::in_place, std::forward<U>(val)),
 1570|   313k|          ctor_base(detail::non_default_ctor_tag_t{})
 1571|   313k|    {
 1572|   313k|    }
_ZN3scn2v46detail21expected_storage_baseINSt3__15tupleIJNS1_17basic_scan_bufferIcE16forward_iteratorENS3_12basic_stringIcNS3_11char_traitsIcEENS3_9allocatorIcEEEESD_EEENS0_10scan_errorELb0EEC2IJSE_EvEENS3_10in_place_tEDpOT_:
  626|   313k|        : m_has_value(true)
  627|   313k|    {
  628|   313k|        construct(std::forward<Args>(args)...);
  629|   313k|    }
_ZN3scn2v46detail21expected_storage_baseINSt3__15tupleIJNS1_17basic_scan_bufferIcE16forward_iteratorENS3_12basic_stringIcNS3_11char_traitsIcEENS3_9allocatorIcEEEESD_EEENS0_10scan_errorELb0EE9constructIJSE_EEEvDpOT_:
  693|   313k|    {
  694|   313k|        scn::detail::construct_at(value_ptr(), std::forward<Args>(args)...);
  695|   313k|        m_has_value = true;
  696|   313k|    }
_ZN3scn2v46detail12construct_atINSt3__15tupleIJNS1_17basic_scan_bufferIcE16forward_iteratorENS3_12basic_stringIcNS3_11char_traitsIcEENS3_9allocatorIcEEEESD_EEEJSE_EEEPT_SG_DpOT0_:
  395|   313k|{
  396|   313k|    return ::new (const_cast<void*>(static_cast<const volatile void*>(p)))
  397|   313k|        T(std::forward<Args>(args)...);
  398|   313k|}
_ZN3scn2v46detail21expected_storage_baseINSt3__15tupleIJNS1_17basic_scan_bufferIcE16forward_iteratorENS3_12basic_stringIcNS3_11char_traitsIcEENS3_9allocatorIcEEEESD_EEENS0_10scan_errorELb0EE9value_ptrEv:
  717|   941k|    {
  718|   941k|        return reinterpret_cast<T*>(SCN_ASSUME_ALIGNED(m_memory, alignof(T)));
  ------------------
  |  |  900|   941k|#define SCN_ASSUME_ALIGNED(x, n) __builtin_assume_aligned(x, n)
  ------------------
  719|   941k|    }
_ZNK3scn2v48expectedINSt3__15tupleIJNS0_6detail17basic_scan_bufferIcE16forward_iteratorENS2_12basic_stringIcNS2_11char_traitsIcEENS2_9allocatorIcEEEESD_EEENS0_10scan_errorEEcvbEv:
 1739|   324k|    {
 1740|   324k|        return has_value();
 1741|   324k|    }
_ZNK3scn2v46detail21expected_storage_baseINSt3__15tupleIJNS1_17basic_scan_bufferIcE16forward_iteratorENS3_12basic_stringIcNS3_11char_traitsIcEENS3_9allocatorIcEEEESD_EEENS0_10scan_errorELb0EE9has_valueEv:
  686|   972k|    {
  687|   972k|        return m_has_value;
  688|   972k|    }
_ZNR3scn2v48expectedINSt3__15tupleIJNS0_6detail17basic_scan_bufferIcE16forward_iteratorENS2_12basic_stringIcNS2_11char_traitsIcEENS2_9allocatorIcEEEESD_EEENS0_10scan_errorEE5errorEv:
 1745|  10.1k|    {
 1746|  10.1k|        SCN_EXPECT(!has_value());
  ------------------
  |  |  930|  10.1k|#define SCN_EXPECT(cond) SCN_ASSERT(cond, "Precondition violation")
  |  |  ------------------
  |  |  |  |  927|  10.1k|#define SCN_ASSERT(cond, msg) assert((cond) && msg)
  |  |  ------------------
  ------------------
 1747|  10.1k|        return this->get_unexpected().error();
 1748|  10.1k|    }
_ZNR3scn2v46detail21expected_storage_baseINSt3__15tupleIJNS1_17basic_scan_bufferIcE16forward_iteratorENS3_12basic_stringIcNS3_11char_traitsIcEENS3_9allocatorIcEEEESD_EEENS0_10scan_errorELb0EE14get_unexpectedEv:
  669|  10.1k|    {
  670|  10.1k|        return *unexpected_ptr();
  671|  10.1k|    }
_ZNO3scn2v48expectedINSt3__15tupleIJNS0_6detail17basic_scan_bufferIcE16forward_iteratorENS2_12basic_stringIcNS2_11char_traitsIcEENS2_9allocatorIcEEEESD_EEENS0_10scan_errorEEdeISE_TnPNS2_9enable_ifIXntsr3stdE9is_void_vIT_EEvE4typeELPv0EEEOSJ_v:
 1804|   313k|    {
 1805|   313k|        return std::move(value());
 1806|   313k|    }
_ZNR3scn2v48expectedINSt3__15tupleIJNS0_6detail17basic_scan_bufferIcE16forward_iteratorENS2_12basic_stringIcNS2_11char_traitsIcEENS2_9allocatorIcEEEESD_EEENS0_10scan_errorEE5valueISE_TnPNS2_9enable_ifIXntsr3stdE9is_void_vIT_EEvE4typeELPv0EEERSJ_v:
 1768|   313k|    {
 1769|   313k|        SCN_EXPECT(has_value());
  ------------------
  |  |  930|   313k|#define SCN_EXPECT(cond) SCN_ASSERT(cond, "Precondition violation")
  |  |  ------------------
  |  |  |  |  927|   313k|#define SCN_ASSERT(cond, msg) assert((cond) && msg)
  |  |  ------------------
  ------------------
 1770|   313k|        return this->get_value();
 1771|   313k|    }
_ZNR3scn2v46detail21expected_storage_baseINSt3__15tupleIJNS1_17basic_scan_bufferIcE16forward_iteratorENS3_12basic_stringIcNS3_11char_traitsIcEENS3_9allocatorIcEEEESD_EEENS0_10scan_errorELb0EE9get_valueEv:
  652|   313k|    {
  653|   313k|        return *value_ptr();
  654|   313k|    }
_ZN3scn2v46detail21expected_storage_baseINSt3__15tupleIJNS1_17basic_scan_bufferIcE16forward_iteratorENS3_12basic_stringIcNS3_11char_traitsIcEENS3_9allocatorIcEEEESD_EEENS0_10scan_errorELb0EED2Ev:
  642|   324k|    {
  643|   324k|        if (has_value()) {
  ------------------
  |  Branch (643:13): [True: 313k, False: 10.1k]
  ------------------
  644|   313k|            destroy_value();
  645|   313k|        }
  646|  10.1k|        else {
  647|  10.1k|            destroy_unexpected();
  648|  10.1k|        }
  649|   324k|    }
_ZN3scn2v46detail21expected_storage_baseINSt3__15tupleIJNS1_17basic_scan_bufferIcE16forward_iteratorENS3_12basic_stringIcNS3_11char_traitsIcEENS3_9allocatorIcEEEESD_EEENS0_10scan_errorELb0EE13destroy_valueEv:
  707|   313k|    {
  708|   313k|        scn::detail::destroy_at(value_ptr());
  709|   313k|    }
_ZN3scn2v46detail10destroy_atINSt3__15tupleIJNS1_17basic_scan_bufferIcE16forward_iteratorENS3_12basic_stringIcNS3_11char_traitsIcEENS3_9allocatorIcEEEESD_EEEEEvPT_:
  401|   313k|{
  402|       |    if constexpr (std::is_array_v<T>) {
  403|       |        for (auto& elem : *p) {
  404|       |            scn::detail::destroy_at(&elem);
  405|       |        }
  406|       |    }
  407|   313k|    else {
  408|   313k|        p->~T();
  409|   313k|    }
  410|   313k|}
_ZN3scn2v46detail21expected_storage_baseINSt3__15tupleIJNS1_17basic_scan_bufferIcE16forward_iteratorENS3_12basic_stringIcNS3_11char_traitsIcEENS3_9allocatorIcEEEESD_EEENS0_10scan_errorELb0EE18destroy_unexpectedEv:
  711|  10.1k|    {
  712|  10.1k|        scn::detail::destroy_at(unexpected_ptr());
  713|  10.1k|    }
_ZNK3scn2v48expectedINS0_6detail17basic_scan_bufferIcE16forward_iteratorENS0_10scan_errorEEcvbEv:
 1739|  7.78M|    {
 1740|  7.78M|        return has_value();
 1741|  7.78M|    }
_ZNK3scn2v46detail21expected_storage_baseINS1_17basic_scan_bufferIcE16forward_iteratorENS0_10scan_errorELb1EE9has_valueEv:
  489|  15.5M|    {
  490|  15.5M|        return m_has_value;
  491|  15.5M|    }
_ZNR3scn2v48expectedINS0_6detail17basic_scan_bufferIcE16forward_iteratorENS0_10scan_errorEE5errorEv:
 1745|   429k|    {
 1746|   429k|        SCN_EXPECT(!has_value());
  ------------------
  |  |  930|   429k|#define SCN_EXPECT(cond) SCN_ASSERT(cond, "Precondition violation")
  |  |  ------------------
  |  |  |  |  927|   429k|#define SCN_ASSERT(cond, msg) assert((cond) && msg)
  |  |  ------------------
  ------------------
 1747|   429k|        return this->get_unexpected().error();
 1748|   429k|    }
_ZNR3scn2v46detail21expected_storage_baseINS1_17basic_scan_bufferIcE16forward_iteratorENS0_10scan_errorELb1EE14get_unexpectedEv:
  472|   429k|    {
  473|   429k|        return m_unexpected;
  474|   429k|    }
_ZNO3scn2v48expectedINS0_6detail17basic_scan_bufferIcE16forward_iteratorENS0_10scan_errorEEdeIS5_TnPNSt3__19enable_ifIXntsr3stdE9is_void_vIT_EEvE4typeELPv0EEEOSB_v:
 1804|  5.78M|    {
 1805|  5.78M|        return std::move(value());
 1806|  5.78M|    }
_ZNR3scn2v48expectedINS0_6detail17basic_scan_bufferIcE16forward_iteratorENS0_10scan_errorEE5valueIS5_TnPNSt3__19enable_ifIXntsr3stdE9is_void_vIT_EEvE4typeELPv0EEERSB_v:
 1768|  7.35M|    {
 1769|  7.35M|        SCN_EXPECT(has_value());
  ------------------
  |  |  930|  7.35M|#define SCN_EXPECT(cond) SCN_ASSERT(cond, "Precondition violation")
  |  |  ------------------
  |  |  |  |  927|  7.35M|#define SCN_ASSERT(cond, msg) assert((cond) && msg)
  |  |  ------------------
  ------------------
 1770|  7.35M|        return this->get_value();
 1771|  7.35M|    }
_ZNR3scn2v46detail21expected_storage_baseINS1_17basic_scan_bufferIcE16forward_iteratorENS0_10scan_errorELb1EE9get_valueEv:
  455|  7.35M|    {
  456|  7.35M|        return m_value;
  457|  7.35M|    }
_ZNK3scn2v46ranges6detail9subrange_8subrangeINS0_6detail17basic_scan_bufferIcE16forward_iteratorES8_E5beginEv:
 3479|  3.80M|    {
 3480|  3.80M|        return m_iterator;
 3481|  3.80M|    }
_ZNK3scn2v46ranges6detail9subrange_8subrangeINS0_6detail17basic_scan_bufferIcE16forward_iteratorES8_E3endEv:
 3483|  3.80M|    {
 3484|  3.80M|        return m_sentinel;
 3485|  3.80M|    }
_ZN3scn2v46ranges6detail9subrange_8subrangeINS0_6detail17basic_scan_bufferIcE16forward_iteratorES8_EC2IS8_TnPNSt3__19enable_ifIXsr3stdE16is_convertible_vIT_S8_EEvE4typeELPv0EEESD_S8_:
 3464|  1.57M|        : m_iterator(SCN_MOVE(i)), m_sentinel(SCN_MOVE(s))
  ------------------
  |  |  934|  1.57M|    static_cast<    \
  |  |  935|  1.57M|        typename ::scn::detail::remove_reference<decltype(x)>::type&&>(x)
  ------------------
                      : m_iterator(SCN_MOVE(i)), m_sentinel(SCN_MOVE(s))
  ------------------
  |  |  934|  1.57M|    static_cast<    \
  |  |  935|  1.57M|        typename ::scn::detail::remove_reference<decltype(x)>::type&&>(x)
  ------------------
 3465|  1.57M|    {
 3466|  1.57M|    }
_ZN3scn2v46detailneERKNS1_17basic_scan_bufferIcE16forward_iteratorENS0_6ranges18default_sentinel_tE:
 4568|  14.2M|    {
 4569|  14.2M|        return !x.is_at_end();
 4570|  14.2M|    }
_ZN3scn2v48expectedIPKcNS0_4impl9eof_errorEEC2IS5_TnPNSt3__19enable_ifIXsr3stdE18is_constructible_vIS5_OT_EEvE4typeELPv0ETnPNS9_IXsr3stdE16is_convertible_vISB_S5_EEvE4typeELSF_0EEEONS0_10unexpectedISA_EE:
 1615|  25.8k|        : base(unexpect, std::move(e.error())),
 1616|  25.8k|          ctor_base(detail::non_default_ctor_tag_t{})
 1617|  25.8k|    {
 1618|  25.8k|    }
_ZN3scn2v46detail21expected_storage_baseIPKcNS0_4impl9eof_errorELb1EEC2IJS6_EvEENS0_10unexpect_tEDpOT_:
  449|  25.8k|        : m_unexpected(std::in_place, std::forward<Args>(args)...),
  450|  25.8k|          m_has_value(false)
  451|  25.8k|    {
  452|  25.8k|    }
_ZN3scn2v46detail26expected_default_ctor_baseIPKcNS0_4impl9eof_errorELb1EEC2ENS1_22non_default_ctor_tag_tE:
 1315|  4.96M|    {
 1316|  4.96M|    }
_ZN3scn2v48expectedIPKcNS0_4impl9eof_errorEEC2IS3_vEEOT_:
 1569|  4.94M|        : base(std::in_place, std::forward<U>(val)),
 1570|  4.94M|          ctor_base(detail::non_default_ctor_tag_t{})
 1571|  4.94M|    {
 1572|  4.94M|    }
_ZN3scn2v46detail21expected_storage_baseIPKcNS0_4impl9eof_errorELb1EEC2IJS4_EvEENSt3__110in_place_tEDpOT_:
  440|  4.94M|        : m_value(std::forward<Args>(args)...), m_has_value(true)
  441|  4.94M|    {
  442|  4.94M|    }
_ZNK3scn2v48expectedIPKcNS0_4impl9eof_errorEEcvbEv:
 1739|  2.76M|    {
 1740|  2.76M|        return has_value();
 1741|  2.76M|    }
_ZNR3scn2v48expectedIPKcNS0_4impl9eof_errorEEdeIS3_TnPNSt3__19enable_ifIXntsr3stdE9is_void_vIT_EEvE4typeELPv0EEERSA_v:
 1794|   456k|    {
 1795|   456k|        return value();
 1796|   456k|    }
_ZN3scn2v48expectedINSt3__14pairIPKclEENS0_10scan_errorEEC2IS7_TnPNS2_9enable_ifIXsr3stdE18is_constructible_vIS7_OT_EEvE4typeELPv0ETnPNSA_IXsr3stdE16is_convertible_vISC_S7_EEvE4typeELSG_0EEEONS0_10unexpectedISB_EE:
 1615|  19.8k|        : base(unexpect, std::move(e.error())),
 1616|  19.8k|          ctor_base(detail::non_default_ctor_tag_t{})
 1617|  19.8k|    {
 1618|  19.8k|    }
_ZN3scn2v46detail21expected_storage_baseINSt3__14pairIPKclEENS0_10scan_errorELb1EEC2IJS8_EvEENS0_10unexpect_tEDpOT_:
  449|  19.8k|        : m_unexpected(std::in_place, std::forward<Args>(args)...),
  450|  19.8k|          m_has_value(false)
  451|  19.8k|    {
  452|  19.8k|    }
_ZN3scn2v46detail26expected_default_ctor_baseINSt3__14pairIPKclEENS0_10scan_errorELb1EEC2ENS1_22non_default_ctor_tag_tE:
 1315|  3.25M|    {
 1316|  3.25M|    }
_ZN3scn2v48expectedINSt3__14pairIPKclEENS0_10scan_errorEEC2IS6_vEEOT_:
 1569|  3.23M|        : base(std::in_place, std::forward<U>(val)),
 1570|  3.23M|          ctor_base(detail::non_default_ctor_tag_t{})
 1571|  3.23M|    {
 1572|  3.23M|    }
_ZN3scn2v46detail21expected_storage_baseINSt3__14pairIPKclEENS0_10scan_errorELb1EEC2IJS7_EvEENS3_10in_place_tEDpOT_:
  440|  3.23M|        : m_value(std::forward<Args>(args)...), m_has_value(true)
  441|  3.23M|    {
  442|  3.23M|    }
_ZNK3scn2v48expectedINSt3__14pairIPKclEENS0_10scan_errorEEcvbEv:
 1739|  3.25M|    {
 1740|  3.25M|        return has_value();
 1741|  3.25M|    }
_ZNK3scn2v46detail21expected_storage_baseINSt3__14pairIPKclEENS0_10scan_errorELb1EE9has_valueEv:
  489|  6.51M|    {
  490|  6.51M|        return m_has_value;
  491|  6.51M|    }
_ZNR3scn2v48expectedINSt3__14pairIPKclEENS0_10scan_errorEE5errorEv:
 1745|  19.8k|    {
 1746|  19.8k|        SCN_EXPECT(!has_value());
  ------------------
  |  |  930|  19.8k|#define SCN_EXPECT(cond) SCN_ASSERT(cond, "Precondition violation")
  |  |  ------------------
  |  |  |  |  927|  19.8k|#define SCN_ASSERT(cond, msg) assert((cond) && msg)
  |  |  ------------------
  ------------------
 1747|  19.8k|        return this->get_unexpected().error();
 1748|  19.8k|    }
_ZNR3scn2v46detail21expected_storage_baseINSt3__14pairIPKclEENS0_10scan_errorELb1EE14get_unexpectedEv:
  472|  19.8k|    {
  473|  19.8k|        return m_unexpected;
  474|  19.8k|    }
_ZNO3scn2v48expectedINSt3__14pairIPKclEENS0_10scan_errorEEdeIS6_TnPNS2_9enable_ifIXntsr3stdE9is_void_vIT_EEvE4typeELPv0EEEOSB_v:
 1804|  3.23M|    {
 1805|  3.23M|        return std::move(value());
 1806|  3.23M|    }
_ZNR3scn2v48expectedINSt3__14pairIPKclEENS0_10scan_errorEE5valueIS6_TnPNS2_9enable_ifIXntsr3stdE9is_void_vIT_EEvE4typeELPv0EEERSB_v:
 1768|  3.23M|    {
 1769|  3.23M|        SCN_EXPECT(has_value());
  ------------------
  |  |  930|  3.23M|#define SCN_EXPECT(cond) SCN_ASSERT(cond, "Precondition violation")
  |  |  ------------------
  |  |  |  |  927|  3.23M|#define SCN_ASSERT(cond, msg) assert((cond) && msg)
  |  |  ------------------
  ------------------
 1770|  3.23M|        return this->get_value();
 1771|  3.23M|    }
_ZNR3scn2v46detail21expected_storage_baseINSt3__14pairIPKclEENS0_10scan_errorELb1EE9get_valueEv:
  455|  3.23M|    {
  456|  3.23M|        return m_value;
  457|  3.23M|    }
_ZNR3scn2v48expectedIPKcNS0_4impl9eof_errorEE5errorEv:
 1745|    588|    {
 1746|    588|        SCN_EXPECT(!has_value());
  ------------------
  |  |  930|    588|#define SCN_EXPECT(cond) SCN_ASSERT(cond, "Precondition violation")
  |  |  ------------------
  |  |  |  |  927|    588|#define SCN_ASSERT(cond, msg) assert((cond) && msg)
  |  |  ------------------
  ------------------
 1747|    588|        return this->get_unexpected().error();
 1748|    588|    }
_ZN3scn2v48expectedIPKcNS0_4impl11parse_errorEEC2IS5_TnPNSt3__19enable_ifIXsr3stdE18is_constructible_vIS5_OT_EEvE4typeELPv0ETnPNS9_IXsr3stdE16is_convertible_vISB_S5_EEvE4typeELSF_0EEEONS0_10unexpectedISA_EE:
 1615|  21.4k|        : base(unexpect, std::move(e.error())),
 1616|  21.4k|          ctor_base(detail::non_default_ctor_tag_t{})
 1617|  21.4k|    {
 1618|  21.4k|    }
_ZN3scn2v46detail21expected_storage_baseIPKcNS0_4impl11parse_errorELb1EEC2IJS6_EvEENS0_10unexpect_tEDpOT_:
  449|  21.4k|        : m_unexpected(std::in_place, std::forward<Args>(args)...),
  450|  21.4k|          m_has_value(false)
  451|  21.4k|    {
  452|  21.4k|    }
_ZN3scn2v46detail26expected_default_ctor_baseIPKcNS0_4impl11parse_errorELb1EEC2ENS1_22non_default_ctor_tag_tE:
 1315|  5.31M|    {
 1316|  5.31M|    }
_ZN3scn2v48expectedIPKcNS0_4impl11parse_errorEEC2IRS3_vEEOT_:
 1569|   733k|        : base(std::in_place, std::forward<U>(val)),
 1570|   733k|          ctor_base(detail::non_default_ctor_tag_t{})
 1571|   733k|    {
 1572|   733k|    }
_ZN3scn2v46detail21expected_storage_baseIPKcNS0_4impl11parse_errorELb1EEC2IJRS4_EvEENSt3__110in_place_tEDpOT_:
  440|   733k|        : m_value(std::forward<Args>(args)...), m_has_value(true)
  441|   733k|    {
  442|   733k|    }
_ZN3scn2v48expectedIPKcNS0_4impl11parse_errorEEC2INS5_4codeETnPNSt3__19enable_ifIXsr3stdE18is_constructible_vIS5_OT_EEvE4typeELPv0ETnPNSA_IXsr3stdE16is_convertible_vISC_S5_EEvE4typeELSG_0EEEONS0_10unexpectedISB_EE:
 1615|  4.54M|        : base(unexpect, std::move(e.error())),
 1616|  4.54M|          ctor_base(detail::non_default_ctor_tag_t{})
 1617|  4.54M|    {
 1618|  4.54M|    }
_ZN3scn2v46detail21expected_storage_baseIPKcNS0_4impl11parse_errorELb1EEC2IJNS6_4codeEEvEENS0_10unexpect_tEDpOT_:
  449|  4.54M|        : m_unexpected(std::in_place, std::forward<Args>(args)...),
  450|  4.54M|          m_has_value(false)
  451|  4.54M|    {
  452|  4.54M|    }
_ZNK3scn2v48expectedIPKcNS0_4impl11parse_errorEEcvbEv:
 1739|  5.31M|    {
 1740|  5.31M|        return has_value();
 1741|  5.31M|    }
_ZNK3scn2v46detail21expected_storage_baseIPKcNS0_4impl11parse_errorELb1EE9has_valueEv:
  489|  8.06M|    {
  490|  8.06M|        return m_has_value;
  491|  8.06M|    }
_ZNR3scn2v48expectedIPKcNS0_4impl11parse_errorEE5errorEv:
 1745|  1.99M|    {
 1746|  1.99M|        SCN_EXPECT(!has_value());
  ------------------
  |  |  930|  1.99M|#define SCN_EXPECT(cond) SCN_ASSERT(cond, "Precondition violation")
  |  |  ------------------
  |  |  |  |  927|  1.99M|#define SCN_ASSERT(cond, msg) assert((cond) && msg)
  |  |  ------------------
  ------------------
 1747|  1.99M|        return this->get_unexpected().error();
 1748|  1.99M|    }
_ZNR3scn2v46detail21expected_storage_baseIPKcNS0_4impl11parse_errorELb1EE14get_unexpectedEv:
  472|  1.99M|    {
  473|  1.99M|        return m_unexpected;
  474|  1.99M|    }
_ZN3scn2v48expectedINSt3__14pairIPKcNS0_4impl9sign_typeEEENS6_9eof_errorEEC2IS8_vEEOT_:
 1569|  2.17M|        : base(std::in_place, std::forward<U>(val)),
 1570|  2.17M|          ctor_base(detail::non_default_ctor_tag_t{})
 1571|  2.17M|    {
 1572|  2.17M|    }
_ZN3scn2v46detail21expected_storage_baseINSt3__14pairIPKcNS0_4impl9sign_typeEEENS7_9eof_errorELb1EEC2IJS9_EvEENS3_10in_place_tEDpOT_:
  440|  2.17M|        : m_value(std::forward<Args>(args)...), m_has_value(true)
  441|  2.17M|    {
  442|  2.17M|    }
_ZN3scn2v46detail26expected_default_ctor_baseINSt3__14pairIPKcNS0_4impl9sign_typeEEENS7_9eof_errorELb1EEC2ENS1_22non_default_ctor_tag_tE:
 1315|  2.17M|    {
 1316|  2.17M|    }
_ZNR3scn2v48expectedIPKcNS0_4impl11parse_errorEEdeIS3_TnPNSt3__19enable_ifIXntsr3stdE9is_void_vIT_EEvE4typeELPv0EEERSA_v:
 1794|   751k|    {
 1795|   751k|        return value();
 1796|   751k|    }
_ZNR3scn2v48expectedIPKcNS0_4impl11parse_errorEE5valueIS3_TnPNSt3__19enable_ifIXntsr3stdE9is_void_vIT_EEvE4typeELPv0EEERSA_v:
 1768|   751k|    {
 1769|   751k|        SCN_EXPECT(has_value());
  ------------------
  |  |  930|   751k|#define SCN_EXPECT(cond) SCN_ASSERT(cond, "Precondition violation")
  |  |  ------------------
  |  |  |  |  927|   751k|#define SCN_ASSERT(cond, msg) assert((cond) && msg)
  |  |  ------------------
  ------------------
 1770|   751k|        return this->get_value();
 1771|   751k|    }
_ZNR3scn2v46detail21expected_storage_baseIPKcNS0_4impl11parse_errorELb1EE9get_valueEv:
  455|   751k|    {
  456|   751k|        return m_value;
  457|   751k|    }
_ZNK3scn2v48expectedINSt3__14pairIPKcNS0_4impl9sign_typeEEENS6_9eof_errorEEcvbEv:
 1739|  2.17M|    {
 1740|  2.17M|        return has_value();
 1741|  2.17M|    }
_ZNK3scn2v46detail21expected_storage_baseINSt3__14pairIPKcNS0_4impl9sign_typeEEENS7_9eof_errorELb1EE9has_valueEv:
  489|  4.35M|    {
  490|  4.35M|        return m_has_value;
  491|  4.35M|    }
_ZN3scn2v46detail26expected_default_ctor_baseINS0_4impl27parse_integer_prefix_resultIPKcEENS3_9eof_errorELb1EEC2ENS1_22non_default_ctor_tag_tE:
 1315|  2.17M|    {
 1316|  2.17M|    }
_ZNO3scn2v48expectedINSt3__14pairIPKcNS0_4impl9sign_typeEEENS6_9eof_errorEEdeIS8_TnPNS2_9enable_ifIXntsr3stdE9is_void_vIT_EEvE4typeELPv0EEEOSD_v:
 1804|  2.17M|    {
 1805|  2.17M|        return std::move(value());
 1806|  2.17M|    }
_ZNR3scn2v48expectedINSt3__14pairIPKcNS0_4impl9sign_typeEEENS6_9eof_errorEE5valueIS8_TnPNS2_9enable_ifIXntsr3stdE9is_void_vIT_EEvE4typeELPv0EEERSD_v:
 1768|  2.17M|    {
 1769|  2.17M|        SCN_EXPECT(has_value());
  ------------------
  |  |  930|  2.17M|#define SCN_EXPECT(cond) SCN_ASSERT(cond, "Precondition violation")
  |  |  ------------------
  |  |  |  |  927|  2.17M|#define SCN_ASSERT(cond, msg) assert((cond) && msg)
  |  |  ------------------
  ------------------
 1770|  2.17M|        return this->get_value();
 1771|  2.17M|    }
_ZNR3scn2v46detail21expected_storage_baseINSt3__14pairIPKcNS0_4impl9sign_typeEEENS7_9eof_errorELb1EE9get_valueEv:
  455|  2.17M|    {
  456|  2.17M|        return m_value;
  457|  2.17M|    }
_ZN3scn2v48expectedIPKcNS0_4impl11parse_errorEEC2IS3_vEEOT_:
 1569|  18.8k|        : base(std::in_place, std::forward<U>(val)),
 1570|  18.8k|          ctor_base(detail::non_default_ctor_tag_t{})
 1571|  18.8k|    {
 1572|  18.8k|    }
_ZN3scn2v46detail21expected_storage_baseIPKcNS0_4impl11parse_errorELb1EEC2IJS4_EvEENSt3__110in_place_tEDpOT_:
  440|  18.8k|        : m_value(std::forward<Args>(args)...), m_has_value(true)
  441|  18.8k|    {
  442|  18.8k|    }
_ZN3scn2v48expectedINS0_4impl27parse_integer_prefix_resultIPKcEENS2_9eof_errorEEC2IS6_vEEOT_:
 1569|  2.17M|        : base(std::in_place, std::forward<U>(val)),
 1570|  2.17M|          ctor_base(detail::non_default_ctor_tag_t{})
 1571|  2.17M|    {
 1572|  2.17M|    }
_ZN3scn2v46detail21expected_storage_baseINS0_4impl27parse_integer_prefix_resultIPKcEENS3_9eof_errorELb1EEC2IJS7_EvEENSt3__110in_place_tEDpOT_:
  440|  2.17M|        : m_value(std::forward<Args>(args)...), m_has_value(true)
  441|  2.17M|    {
  442|  2.17M|    }
_ZNO3scn2v48expectedINS0_4impl27parse_integer_prefix_resultIPKcEENS2_9eof_errorEE15transform_errorIRFNS0_10scan_errorES7_EEEDTclsr6detailE20transform_error_impldefpTclsr3stdE7forwardIT_Efp_EEEOSD_:
 1978|  2.17M|    {
 1979|  2.17M|        return detail::transform_error_impl(std::move(*this),
 1980|  2.17M|                                            std::forward<F>(f));
 1981|  2.17M|    }
_ZN3scn2v46detail20transform_error_implINS0_8expectedINS0_4impl27parse_integer_prefix_resultIPKcEENS4_9eof_errorEEERFNS0_10scan_errorES9_ETnPNSt3__19enable_ifIXntsr11is_exp_voidIT_EE5valueEvE4typeELPv0ESB_EEDaOSG_OT0_:
 1461|  2.17M|{
 1462|       |    if constexpr (std::is_void_v<Ret>) {
 1463|       |        using result = expected<expected_value_type<Exp>, monostate>;
 1464|       |        if (SCN_LIKELY(exp.has_value())) {
 1465|       |            return result(*std::forward<Exp>(exp));
 1466|       |        }
 1467|       |
 1468|       |        trivial_invoke(std::forward<F>(f), std::forward<Exp>(exp).error());
 1469|       |        return result(unexpect, monostate{});
 1470|       |    }
 1471|  2.17M|    else {
 1472|  2.17M|        using result = expected<expected_value_type<Exp>, remove_cvref_t<Ret>>;
 1473|  2.17M|        return SCN_LIKELY(exp.has_value())
  ------------------
  |  |  864|  2.17M|#define SCN_LIKELY(x)   __builtin_expect(!!(x), 1)
  |  |  ------------------
  |  |  |  Branch (864:25): [True: 2.17M, False: 0]
  |  |  ------------------
  ------------------
 1474|  2.17M|                   ? result(*std::forward<Exp>(exp))
 1475|  2.17M|                   : result(unexpect,
 1476|      0|                            trivial_invoke(std::forward<F>(f),
 1477|      0|                                           std::forward<Exp>(exp).error()));
 1478|  2.17M|    }
 1479|  2.17M|}
_ZNK3scn2v46detail21expected_storage_baseINS0_4impl27parse_integer_prefix_resultIPKcEENS3_9eof_errorELb1EE9has_valueEv:
  489|  4.35M|    {
  490|  4.35M|        return m_has_value;
  491|  4.35M|    }
_ZNO3scn2v48expectedINS0_4impl27parse_integer_prefix_resultIPKcEENS2_9eof_errorEEdeIS6_TnPNSt3__19enable_ifIXntsr3stdE9is_void_vIT_EEvE4typeELPv0EEEOSC_v:
 1804|  2.17M|    {
 1805|  2.17M|        return std::move(value());
 1806|  2.17M|    }
_ZNR3scn2v48expectedINS0_4impl27parse_integer_prefix_resultIPKcEENS2_9eof_errorEE5valueIS6_TnPNSt3__19enable_ifIXntsr3stdE9is_void_vIT_EEvE4typeELPv0EEERSC_v:
 1768|  2.17M|    {
 1769|  2.17M|        SCN_EXPECT(has_value());
  ------------------
  |  |  930|  2.17M|#define SCN_EXPECT(cond) SCN_ASSERT(cond, "Precondition violation")
  |  |  ------------------
  |  |  |  |  927|  2.17M|#define SCN_ASSERT(cond, msg) assert((cond) && msg)
  |  |  ------------------
  ------------------
 1770|  2.17M|        return this->get_value();
 1771|  2.17M|    }
_ZNR3scn2v46detail21expected_storage_baseINS0_4impl27parse_integer_prefix_resultIPKcEENS3_9eof_errorELb1EE9get_valueEv:
  455|  2.17M|    {
  456|  2.17M|        return m_value;
  457|  2.17M|    }
_ZN3scn2v48expectedINS0_4impl27parse_integer_prefix_resultIPKcEENS0_10scan_errorEEC2IS6_vEEOT_:
 1569|  2.17M|        : base(std::in_place, std::forward<U>(val)),
 1570|  2.17M|          ctor_base(detail::non_default_ctor_tag_t{})
 1571|  2.17M|    {
 1572|  2.17M|    }
_ZN3scn2v46detail21expected_storage_baseINS0_4impl27parse_integer_prefix_resultIPKcEENS0_10scan_errorELb1EEC2IJS7_EvEENSt3__110in_place_tEDpOT_:
  440|  2.17M|        : m_value(std::forward<Args>(args)...), m_has_value(true)
  441|  2.17M|    {
  442|  2.17M|    }
_ZN3scn2v46detail26expected_default_ctor_baseINS0_4impl27parse_integer_prefix_resultIPKcEENS0_10scan_errorELb1EEC2ENS1_22non_default_ctor_tag_tE:
 1315|  2.17M|    {
 1316|  2.17M|    }
