_ZN3scn2v36detail39code_point_length_by_starting_code_unitIcEEmT_:
 3802|  11.8M|{
 3803|  11.8M|    if constexpr (sizeof(U) == 1) {
 3804|  11.8M|        return utf8_code_point_length_by_starting_code_unit(ch);
 3805|       |    }
 3806|       |    else if constexpr (sizeof(U) == 2) {
 3807|       |        return utf16_code_point_length_by_starting_code_unit(ch);
 3808|       |    }
 3809|       |    else {
 3810|       |        // utf-32
 3811|       |        static_assert(sizeof(U) == 4);
 3812|       |        SCN_UNUSED(ch);
 3813|       |        return 1;
 3814|       |    }
 3815|  11.8M|}
_ZN3scn2v36detail44utf8_code_point_length_by_starting_code_unitIcEEmT_:
 3766|  11.8M|{
 3767|  11.8M|    static_assert(sizeof(U8) == 1);
 3768|       |
 3769|  11.8M|    SCN_GCC_COMPAT_PUSH
 3770|  11.8M|    SCN_GCC_COMPAT_IGNORE("-Wsign-conversion")
 3771|  11.8M|    constexpr char lengths[] =
 3772|  11.8M|        "\1\1\1\1\1\1\1\1"  // highest bit is 0 -> single-byte
 3773|  11.8M|        "\1\1\1\1\1\1\1\1"
 3774|  11.8M|        "\0\0\0\0\0\0\0\0"  // highest bits 10 -> error, non-initial
 3775|       |                            // byte
 3776|  11.8M|        "\2\2\2\2"          // highest bits 110 -> 2-byte cp
 3777|  11.8M|        "\3\3"              // highest bits 1110 -> 3-byte cp
 3778|  11.8M|        "\4";               // highest bits 11110 -> 4-byte cp
 3779|  11.8M|    return lengths[static_cast<unsigned char>(ch) >> 3];
 3780|  11.8M|    SCN_GCC_COMPAT_POP
 3781|  11.8M|}
_ZN3scn2v36detail28decode_code_point_exhaustiveIcEEDiNSt3__117basic_string_viewIT_NS3_11char_traitsIS5_EEEE:
 4008|  11.4M|{
 4009|  11.4M|    if constexpr (sizeof(CharT) == 1) {
 4010|  11.4M|        return decode_utf8_code_point_exhaustive(input);
 4011|       |    }
 4012|       |    else if constexpr (sizeof(CharT) == 2) {
 4013|       |        return decode_utf16_code_point_exhaustive(input);
 4014|       |    }
 4015|       |    else {
 4016|       |        SCN_EXPECT(input.size() == 1);
 4017|       |        auto cp = static_cast<char32_t>(input.front());
 4018|       |        if (SCN_UNLIKELY(cp >= invalid_code_point)) {
 4019|       |            return invalid_code_point;
 4020|       |        }
 4021|       |        return cp;
 4022|       |    }
 4023|  11.4M|}
_ZN3scn2v36detail33decode_utf8_code_point_exhaustiveENSt3__117basic_string_viewIcNS2_11char_traitsIcEEEE:
 3821|  11.4M|{
 3822|  11.4M|    SCN_EXPECT(!input.empty() && input.size() <= 4);
  ------------------
  |  |  924|  11.4M|#define SCN_EXPECT(cond) SCN_ASSERT(cond, "Precondition violation")
  |  |  ------------------
  |  |  |  |  921|  11.4M|#define SCN_ASSERT(cond, msg) assert((cond) && msg)
  |  |  ------------------
  ------------------
 3823|       |
 3824|  11.4M|    const auto is_trailing_code_unit = [](char ch) {
 3825|  11.4M|        return static_cast<unsigned char>(ch) >> 6 == 0x2;
 3826|  11.4M|    };
 3827|       |
 3828|  11.4M|    if (input.size() == 1) {
  ------------------
  |  Branch (3828:9): [True: 10.4M, False: 949k]
  ------------------
 3829|  10.4M|        if (static_cast<unsigned char>(input[0]) >= 0x80) {
  ------------------
  |  Branch (3829:13): [True: 564, False: 10.4M]
  ------------------
 3830|    564|            SCN_UNLIKELY_ATTR
 3831|    564|            return invalid_code_point;
 3832|    564|        }
 3833|  10.4M|        return static_cast<char32_t>(input[0]);
 3834|  10.4M|    }
 3835|       |
 3836|   949k|    if (input.size() == 2) {
  ------------------
  |  Branch (3836:9): [True: 252k, False: 696k]
  ------------------
 3837|   252k|        if ((static_cast<unsigned char>(input[0]) & 0xe0) != 0xc0) {
  ------------------
  |  Branch (3837:13): [True: 460, False: 252k]
  ------------------
 3838|    460|            SCN_UNLIKELY_ATTR
 3839|    460|            return invalid_code_point;
 3840|    460|        }
 3841|   252k|        if (!is_trailing_code_unit(input[1])) {
  ------------------
  |  Branch (3841:13): [True: 44.2k, False: 208k]
  ------------------
 3842|  44.2k|            SCN_UNLIKELY_ATTR
 3843|  44.2k|            return invalid_code_point;
 3844|  44.2k|        }
 3845|       |
 3846|   208k|        char32_t cp{};
 3847|   208k|        cp |= (static_cast<char32_t>(input[0]) & 0x1f) << 6;
 3848|   208k|        cp |= (static_cast<char32_t>(input[1]) & 0x3f) << 0;
 3849|   208k|        return cp;
 3850|   252k|    }
 3851|       |
 3852|   696k|    if (input.size() == 3) {
  ------------------
  |  Branch (3852:9): [True: 658k, False: 38.5k]
  ------------------
 3853|   658k|        if ((static_cast<unsigned char>(input[0]) & 0xf0) != 0xe0) {
  ------------------
  |  Branch (3853:13): [True: 101, False: 658k]
  ------------------
 3854|    101|            SCN_UNLIKELY_ATTR
 3855|    101|            return invalid_code_point;
 3856|    101|        }
 3857|   658k|        if (!is_trailing_code_unit(input[1]) ||
  ------------------
  |  Branch (3857:13): [True: 9.11k, False: 648k]
  ------------------
 3858|   658k|            !is_trailing_code_unit(input[2])) {
  ------------------
  |  Branch (3858:13): [True: 2.68k, False: 646k]
  ------------------
 3859|  11.7k|            SCN_UNLIKELY_ATTR
 3860|  11.7k|            return invalid_code_point;
 3861|  11.7k|        }
 3862|       |
 3863|   646k|        char32_t cp{};
 3864|   646k|        cp |= (static_cast<char32_t>(input[0]) & 0x0f) << 12;
 3865|   646k|        cp |= (static_cast<char32_t>(input[1]) & 0x3f) << 6;
 3866|   646k|        cp |= (static_cast<char32_t>(input[2]) & 0x3f) << 0;
 3867|   646k|        return cp;
 3868|   658k|    }
 3869|       |
 3870|  38.5k|    if (input.size() == 4) {
  ------------------
  |  Branch (3870:9): [True: 38.5k, False: 0]
  ------------------
 3871|  38.5k|        if ((static_cast<unsigned char>(input[0]) & 0xf8) != 0xf0) {
  ------------------
  |  Branch (3871:13): [True: 0, False: 38.5k]
  ------------------
 3872|      0|            SCN_UNLIKELY_ATTR
 3873|      0|            return invalid_code_point;
 3874|      0|        }
 3875|  38.5k|        if (static_cast<unsigned char>(input[0]) > 0xf4) {
  ------------------
  |  Branch (3875:13): [True: 23.3k, False: 15.2k]
  ------------------
 3876|  23.3k|            SCN_UNLIKELY_ATTR
 3877|  23.3k|            return invalid_code_point;
 3878|  23.3k|        }
 3879|  15.2k|        if (!is_trailing_code_unit(input[1]) ||
  ------------------
  |  Branch (3879:13): [True: 3.54k, False: 11.7k]
  ------------------
 3880|  15.2k|            !is_trailing_code_unit(input[2]) ||
  ------------------
  |  Branch (3880:13): [True: 197, False: 11.5k]
  ------------------
 3881|  15.2k|            !is_trailing_code_unit(input[3])) {
  ------------------
  |  Branch (3881:13): [True: 298, False: 11.2k]
  ------------------
 3882|  4.03k|            SCN_UNLIKELY_ATTR
 3883|  4.03k|            return invalid_code_point;
 3884|  4.03k|        }
 3885|       |
 3886|  11.2k|        char32_t cp{};
 3887|  11.2k|        cp |= (static_cast<char32_t>(input[0]) & 0x07) << 18;
 3888|  11.2k|        cp |= (static_cast<char32_t>(input[1]) & 0x3f) << 12;
 3889|  11.2k|        cp |= (static_cast<char32_t>(input[2]) & 0x3f) << 6;
 3890|  11.2k|        cp |= (static_cast<char32_t>(input[3]) & 0x3f) << 0;
 3891|  11.2k|        return cp;
 3892|  15.2k|    }
 3893|       |
 3894|      0|#if !SCN_GCC || SCN_GCC >= SCN_COMPILER(8, 0, 0)
 3895|       |    // gcc 7 thinks we'll get here, even when we won't
 3896|      0|    SCN_EXPECT(false);
  ------------------
  |  |  924|      0|#define SCN_EXPECT(cond) SCN_ASSERT(cond, "Precondition violation")
  |  |  ------------------
  |  |  |  |  921|      0|#define SCN_ASSERT(cond, msg) assert((cond) && msg)
  |  |  ------------------
  ------------------
 3897|      0|#endif
 3898|      0|    SCN_UNREACHABLE;
  ------------------
  |  |  887|      0|#define SCN_UNREACHABLE __builtin_unreachable()
  ------------------
 3899|      0|}
_ZZN3scn2v36detail33decode_utf8_code_point_exhaustiveENSt3__117basic_string_viewIcNS2_11char_traitsIcEEEEENKUlcE_clEc:
 3824|  1.59M|    const auto is_trailing_code_unit = [](char ch) {
 3825|  1.59M|        return static_cast<unsigned char>(ch) >> 6 == 0x2;
 3826|  1.59M|    };
_ZN3scn2v36detail31make_string_view_from_iteratorsIcEENSt3__117basic_string_viewIT_NS3_11char_traitsIS5_EEEENS8_8iteratorES9_:
 3694|  10.0M|{
 3695|       |    if constexpr (std::is_constructible_v<std::basic_string_view<CharT>,
 3696|       |                                          decltype(first), decltype(last)> &&
 3697|       |                  !SCN_MSVC_DEBUG_ITERATORS) {
 3698|       |        return {first, last};
 3699|       |    }
 3700|  10.0M|    else {
 3701|  10.0M|        return {to_address(first), static_cast<size_t>(std::distance(
 3702|  10.0M|                                       to_address(first), to_address(last)))};
 3703|  10.0M|    }
 3704|  10.0M|}
_ZN3scn2v36detail10to_addressIRPKcEEDTclgssr3scn6detailE15to_address_implscDtfp_Efp_tlNS1_12priority_tagILm2EEEEEEOT_:
  325|  31.0M|{
  326|  31.0M|    return ::scn::detail::to_address_impl(SCN_FWD(p), priority_tag<2>{});
  ------------------
  |  |  930|  31.0M|#define SCN_FWD(x)          static_cast<decltype(x)&&>(x)
  ------------------
  327|  31.0M|}
_ZN3scn2v36detail15to_address_implIKcEEPT_S5_NS1_12priority_tagILm2EEE:
  303|  33.9M|{
  304|  33.9M|    return p;
  305|  33.9M|}
_ZN3scn2v36detail25make_string_view_iteratorIcEENSt3__117basic_string_viewIT_NS3_11char_traitsIS5_EEE8iteratorES8_S9_:
 3725|  4.81M|{
 3726|       |    if constexpr (std::is_constructible_v<
 3727|       |                      typename std::basic_string_view<CharT>::iterator,
 3728|       |                      decltype(it)> &&
 3729|  4.81M|                  !SCN_MSVC_DEBUG_ITERATORS) {
 3730|  4.81M|        SCN_UNUSED(sv);
  ------------------
  |  |  909|  4.81M|#define SCN_UNUSED(x) static_cast<void>(sizeof(x))
  ------------------
 3731|  4.81M|        return it;
 3732|       |    }
 3733|       |    else {
 3734|       |        return sv.begin() + std::distance(sv.data(), detail::to_address(it));
 3735|       |    }
 3736|  4.81M|}
_ZNK3scn2v36ranges6detail6begin_2fnclIRNSt3__117basic_string_viewIcNS6_11char_traitsIcEEEEEEDTclsr2fnE4implscDtfp_Efp_tlNS0_6detail12priority_tagILm3EEEEEEOT_:
 2723|  63.1k|    {
 2724|  63.1k|        return fn::impl(SCN_FWD(t), priority_tag<3>{});
  ------------------
  |  |  930|  63.1k|#define SCN_FWD(x)          static_cast<decltype(x)&&>(x)
  ------------------
 2725|  63.1k|    }
_ZN3scn2v36ranges6detail6begin_2fn4implIRNSt3__117basic_string_viewIcNS6_11char_traitsIcEEEEEENS6_9enable_ifIX24input_or_output_iteratorIDTcl10decay_copycldtscDtfp_Efp_5beginEEEEESE_E4typeEOT_NS0_6detail12priority_tagILm1EEE:
 2704|  63.1k|    {
 2705|  63.1k|        return decay_copy(t.begin());
 2706|  63.1k|    }
_ZN3scn2v36ranges6detail10decay_copyIPKcEEu7__decayIT_EOS6_:
 1948|  5.08M|{
 1949|  5.08M|    return SCN_FWD(t);
  ------------------
  |  |  930|  5.08M|#define SCN_FWD(x)          static_cast<decltype(x)&&>(x)
  ------------------
 1950|  5.08M|}
_ZNK3scn2v36ranges6detail4end_2fnclIRNSt3__117basic_string_viewIcNS6_11char_traitsIcEEEEEEDTclsr2fnE4implscDtfp_Efp_tlNS0_6detail12priority_tagILm3EEEEEEOT_:
 2780|  1.18M|    {
 2781|  1.18M|        return fn::impl(SCN_FWD(t), priority_tag<3>{});
  ------------------
  |  |  930|  1.18M|#define SCN_FWD(x)          static_cast<decltype(x)&&>(x)
  ------------------
 2782|  1.18M|    }
_ZN3scn2v36ranges6detail4end_2fn4implIRNSt3__117basic_string_viewIcNS6_11char_traitsIcEEEEPKcSD_EENS6_9enable_ifIX12sentinel_forIT0_T1_EEDTcl10decay_copycldtscDtfp_Efp_3endEEEE4typeEOT_NS0_6detail12priority_tagILm1EEE:
 2762|  1.18M|    {
 2763|  1.18M|        return decay_copy(SCN_FWD(t).end());
  ------------------
  |  |  930|  1.18M|#define SCN_FWD(x)          static_cast<decltype(x)&&>(x)
  ------------------
 2764|  1.18M|    }
_ZN3scn2v34scanIJNSt3__112basic_stringIcNS2_11char_traitsIcEENS2_9allocatorIcEEEEENS0_6ranges6detail9subrange_8subrangeIPKcSE_EEvEENS0_13scan_expectedINS0_11scan_resultINS2_11conditionalIXsr3stdE9is_same_vIu11__remove_cvIu20__remove_reference_tIT0_EEP8_IO_FILEEESN_NS0_6detail22borrowed_tail_subrangeISJ_Xsr6rangesE14borrowed_rangeISJ_EEE4typeEE4typeEJDpT_EEEEEOSJ_NS0_24basic_scan_format_stringIcNSO_13type_identityISJ_E4typeEJDpNS10_ISU_E4typeEEEE:
 8876|   120k|{
 8877|   120k|    auto args = make_scan_args<scan_context, Args...>();
 8878|   120k|    auto result = vscan(SCN_FWD(source), format, args);
  ------------------
  |  |  930|   120k|#define SCN_FWD(x)          static_cast<decltype(x)&&>(x)
  ------------------
 8879|   120k|    return make_scan_result(SCN_MOVE(result), SCN_MOVE(args.args()));
  ------------------
  |  |  928|   120k|    static_cast<    \
  |  |  929|   120k|        typename ::scn::detail::remove_reference<decltype(x)>::type&&>(x)
  ------------------
                  return make_scan_result(SCN_MOVE(result), SCN_MOVE(args.args()));
  ------------------
  |  |  928|   120k|    static_cast<    \
  |  |  929|   120k|        typename ::scn::detail::remove_reference<decltype(x)>::type&&>(x)
  ------------------
 8880|   120k|}
_ZN3scn2v314make_scan_argsINS0_18basic_scan_contextIcEEJNSt3__112basic_stringIcNS4_11char_traitsIcEENS4_9allocatorIcEEEEEEEDav:
 5405|   530k|{
 5406|   530k|    detail::check_scan_arg_types<Args...>();
 5407|   530k|    return detail::scan_arg_store<Context, Args...>{};
 5408|   530k|}
_ZN3scn2v36detail20check_scan_arg_typesIJNSt3__112basic_stringIcNS3_11char_traitsIcEENS3_9allocatorIcEEEEEEEvv:
 5144|   652k|{
 5145|   652k|    static_assert(std::conjunction_v<std::is_default_constructible<Args>...>,
 5146|   652k|                  "Scan argument types must be default constructible");
 5147|   652k|    static_assert(std::conjunction_v<std::is_destructible<Args>...>,
 5148|   652k|                  "Scan argument types must be Destructible");
 5149|   652k|    static_assert(
 5150|   652k|        !std::conjunction_v<std::false_type, std::is_reference<Args>...>,
 5151|   652k|        "Scan argument types must not be references");
 5152|   652k|}
_ZN3scn2v36detail14scan_arg_storeINS0_18basic_scan_contextIcEEJNSt3__112basic_stringIcNS5_11char_traitsIcEENS5_9allocatorIcEEEEEEC2Ev:
 5357|   530k|        : m_argptrs(std::apply(make_argptrs<Args...>, m_args))
 5358|   530k|    {
 5359|   530k|    }
_ZN3scn2v36detail14scan_arg_storeINS0_18basic_scan_contextIcEEJNSt3__112basic_stringIcNS5_11char_traitsIcEENS5_9allocatorIcEEEEEE12make_argptrsIJSB_EEENS5_5arrayIPvLm1EEEDpRT_:
 5369|   530k|    {
 5370|   530k|        return {detail::make_arg<
 5371|   530k|            kind, Context,
 5372|   530k|            mapped_type_constant<remove_cvref_t<A>,
 5373|   530k|                                 typename Context::char_type>::value>(args)...};
 5374|   530k|    }
_ZN3scn2v36detail8make_argILNS1_19scan_arg_store_kindE0ENS0_18basic_scan_contextIcEELNS1_8arg_typeE21ENSt3__112basic_stringIcNS7_11char_traitsIcEENS7_9allocatorIcEEEEvEEPvRT2_:
 5179|   530k|{
 5180|   530k|    return make_value<Context>(value).ref_value;
 5181|   530k|}
_ZN3scn2v36detail10make_valueINS0_18basic_scan_contextIcEENSt3__112basic_stringIcNS5_11char_traitsIcEENS5_9allocatorIcEEEEEEDaRT0_:
 5129|   652k|{
 5130|   652k|    auto&& arg = arg_mapper<typename Context::char_type>().map(value);
 5131|       |
 5132|       |    if constexpr (!std::is_same_v<remove_cvref_t<decltype(arg)>,
 5133|   652k|                                  needs_context_tag>) {
 5134|   652k|        return make_value_impl(SCN_FWD(arg));
  ------------------
  |  |  930|   652k|#define SCN_FWD(x)          static_cast<decltype(x)&&>(x)
  ------------------
 5135|       |    }
 5136|       |    else {
 5137|       |        return make_value_impl(arg_mapper<typename Context::char_type>().map(
 5138|       |            value, context_tag<Context>{}));
 5139|       |    }
 5140|   652k|}
_ZN3scn2v36detail10arg_mapperIcE3mapERNSt3__112basic_stringIcNS4_11char_traitsIcEENS4_9allocatorIcEEEE:
 4968|   652k|    {                                                                        \
 4969|   652k|        return val;                                                          \
 4970|   652k|    }
_ZN3scn2v36detail15make_value_implIRNSt3__112basic_stringIcNS3_11char_traitsIcEENS3_9allocatorIcEEEEEEDaOT_:
 5098|   652k|{
 5099|   652k|    using arg_nocvref_t = remove_cvref_t<Arg>;
 5100|   652k|    static_assert(!std::is_same_v<arg_nocvref_t, needs_context_tag>);
 5101|       |
 5102|   652k|    constexpr bool scannable_char =
 5103|   652k|        !std::is_same_v<arg_nocvref_t, unscannable_char>;
 5104|   652k|    static_assert(scannable_char,
 5105|   652k|                  "Cannot scan an argument of an unsupported character "
 5106|   652k|                  "type (i.e. char from a wchar_t source)");
 5107|       |
 5108|   652k|    constexpr bool scannable_const =
 5109|   652k|        !std::is_same_v<arg_nocvref_t, unscannable_const>;
 5110|   652k|    static_assert(scannable_const, "Cannot scan a const argument");
 5111|       |
 5112|   652k|    constexpr bool scannable_disabled =
 5113|   652k|        !std::is_same_v<arg_nocvref_t, unscannable_disabled>;
 5114|   652k|    static_assert(scannable_disabled,
 5115|   652k|                  "Cannot scan an argument that has been disabled by "
 5116|   652k|                  "flag (SCN_DISABLE_TYPE_*)");
 5117|       |
 5118|   652k|    constexpr bool scannable = !std::is_same_v<arg_nocvref_t, unscannable>;
 5119|   652k|    static_assert(
 5120|   652k|        scannable,
 5121|   652k|        "Cannot scan an argument. To make a type T scannable, provide "
 5122|   652k|        "a scn::scanner<T, CharT> specialization.");
 5123|       |
 5124|   652k|    return arg_value{arg};
 5125|   652k|}
_ZN3scn2v36detail9arg_valueC2INSt3__112basic_stringIcNS4_11char_traitsIcEENS4_9allocatorIcEEEEEERT_:
 4909|   652k|    explicit constexpr arg_value(T& val) : ref_value{std::addressof(val)}
 4910|   652k|    {
 4911|   652k|    }
_ZN3scn2v35vscanINS0_6ranges6detail9subrange_8subrangeIPKcS7_EEEENS0_13scan_expectedINSt3__111conditionalIXsr3stdE9is_same_vIu11__remove_cvIu20__remove_reference_tIT_EEP8_IO_FILEEESG_NS0_6detail22borrowed_tail_subrangeISC_Xsr6rangesE14borrowed_rangeISC_EEE4typeEE4typeEEEOSC_NSA_17basic_string_viewIcNSA_11char_traitsIcEEEENS0_15basic_scan_argsINS0_18basic_scan_contextIcEEEE:
 8663|   241k|{
 8664|   241k|    return detail::vscan_generic(SCN_FWD(source), format, args);
  ------------------
  |  |  930|   241k|#define SCN_FWD(x)          static_cast<decltype(x)&&>(x)
  ------------------
 8665|   241k|}
_ZN3scn2v36detail13vscan_genericINS0_6ranges6detail9subrange_8subrangeIPKcS8_EEcEENS0_13scan_expectedINSt3__111conditionalIXsr3stdE9is_same_vIu11__remove_cvIu20__remove_reference_tIT_EEP8_IO_FILEEESH_NS1_22borrowed_tail_subrangeISD_Xsr6rangesE14borrowed_rangeISD_EEE4typeEE4typeEEEOSD_NSB_17basic_string_viewIT0_NSB_11char_traitsISQ_EEEENS0_15basic_scan_argsINS0_18basic_scan_contextISQ_EEEE:
 8600|   241k|{
 8601|   241k|    auto buffer = make_scan_buffer(range);
 8602|       |
 8603|   241k|    auto result = vscan_impl(buffer, format, args);
 8604|   241k|    if (SCN_UNLIKELY(!result)) {
  ------------------
  |  |  859|   241k|#define SCN_UNLIKELY(x) __builtin_expect(!!(x), 0)
  |  |  ------------------
  |  |  |  Branch (859:25): [True: 28.0k, False: 213k]
  |  |  ------------------
  ------------------
 8605|  28.0k|        return unexpected(result.error());
 8606|  28.0k|    }
 8607|   213k|    return make_vscan_result_range(SCN_FWD(range), *result);
  ------------------
  |  |  930|   213k|#define SCN_FWD(x)          static_cast<decltype(x)&&>(x)
  ------------------
 8608|   241k|}
_ZN3scn2v36detail16make_scan_bufferINS0_6ranges6detail9subrange_8subrangeIPKcS8_EEEEDaRKT_:
 4728|   593k|{
 4729|   593k|    using T = decltype(_make_scan_buffer::impl(range, priority_tag<4>{}));
 4730|       |
 4731|   593k|    static_assert(!std::is_same_v<T, invalid_char_type>,
 4732|   593k|                  "\n"
 4733|   593k|                  "Unsupported range type given as input to a scanning "
 4734|   593k|                  "function.\n"
 4735|   593k|                  "A range needs to have a character type (value type) "
 4736|   593k|                  "of either `char` or `wchar_t` to be scannable.\n"
 4737|   593k|                  "For proper `wchar_t` support, <scn/xchar.h> needs "
 4738|   593k|                  "to be included.\n"
 4739|   593k|                  "See the scnlib documentation for more details.");
 4740|   593k|    static_assert(
 4741|   593k|        !std::is_same_v<T, custom_char_traits>,
 4742|   593k|        "\n"
 4743|   593k|        "Unsupported range type given as input to a scanning "
 4744|   593k|        "function.\n"
 4745|   593k|        "String types (std::basic_string, and std::basic_string_view) "
 4746|   593k|        "need to use std::char_traits. Strings with custom Traits are "
 4747|   593k|        "not supported.");
 4748|   593k|    static_assert(!std::is_same_v<T, file_marker_found>,
 4749|   593k|                  "\n"
 4750|   593k|                  "Unsupported range type given as input to a scanning "
 4751|   593k|                  "function.\n"
 4752|   593k|                  "file_marker_found cannot be used as an "
 4753|   593k|                  "source range type to scn::scan.\n"
 4754|   593k|                  "To read from stdin, use scn::input or scn::prompt, "
 4755|   593k|                  "and do not provide an explicit source range, "
 4756|   593k|                  "or use scn::scan with a FILE* directly.");
 4757|   593k|    static_assert(!std::is_same_v<T, insufficient_range>,
 4758|   593k|                  "\n"
 4759|   593k|                  "Unsupported range type given as input to a scanning "
 4760|   593k|                  "function.\n"
 4761|   593k|                  "In order to be scannable, a range needs to satisfy "
 4762|   593k|                  "`forward_range`. `input_range` is not sufficient.");
 4763|   593k|    static_assert(!std::is_same_v<T, invalid_input_range>,
 4764|   593k|                  "\n"
 4765|   593k|                  "Unsupported range type given as input to a scanning "
 4766|   593k|                  "function.\n"
 4767|   593k|                  "A range needs to model forward_range and have a valid "
 4768|   593k|                  "character type (char or wchar_t) to be scannable.\n"
 4769|   593k|                  "Examples of scannable ranges are std::string, "
 4770|   593k|                  "std::string_view, "
 4771|   593k|                  "std::vector<char>, and scn::istreambuf_view.\n"
 4772|   593k|                  "See the scnlib documentation for more details.");
 4773|       |
 4774|   593k|    return _make_scan_buffer::impl(range, priority_tag<4>{});
 4775|   593k|}
_ZN3scn2v36detail17_make_scan_buffer4implINS0_6ranges6detail9subrange_8subrangeIPKcS9_EETnPNSt3__19enable_ifIXaasr6rangesE16contiguous_rangeIT_Esr6rangesE11sized_rangeISD_EEvE4typeELPv0EEEDaRKSD_NS1_12priority_tagILm2EEE:
 4667|   593k|{
 4668|   593k|    if constexpr (is_valid_char_type<detail::char_t<Range>>) {
 4669|   593k|        return std::basic_string_view{ranges::data(r), ranges::size(r)};
 4670|       |    }
 4671|       |    else {
 4672|       |        return invalid_char_type{};
 4673|       |    }
 4674|   593k|}
_ZNK3scn2v36ranges6detail5data_2fnclIRKNS2_9subrange_8subrangeIPKcS9_EEEEDTclsr2fnE4implscDtfp_Efp_tlNS0_6detail12priority_tagILm1EEEEEEOT_:
 2854|   593k|    {
 2855|   593k|        return fn::impl(SCN_FWD(t), priority_tag<1>{});
  ------------------
  |  |  930|   593k|#define SCN_FWD(x)          static_cast<decltype(x)&&>(x)
  ------------------
 2856|   593k|    }
_ZN3scn2v36ranges6detail5data_2fn4implIKNS2_9subrange_8subrangeIPKcS9_EES9_EENSt3__19enable_ifIX19is_object_pointer_vIT0_EESE_E4typeERT_NS0_6detail12priority_tagILm1EEE:
 2835|   593k|    {
 2836|   593k|        return t.data();
 2837|   593k|    }
_ZNK3scn2v36ranges14view_interfaceINS1_6detail9subrange_8subrangeIPKcS7_EEE4dataIS8_vEEDav:
 3228|   593k|    {
 3229|   593k|        return detail::to_address(ranges::begin(derived()));
 3230|   593k|    }
_ZN3scn2v36detail10to_addressIPKcEEDTclgssr3scn6detailE15to_address_implscDtfp_Efp_tlNS1_12priority_tagILm2EEEEEEOT_:
  325|  2.90M|{
  326|  2.90M|    return ::scn::detail::to_address_impl(SCN_FWD(p), priority_tag<2>{});
  ------------------
  |  |  930|  2.90M|#define SCN_FWD(x)          static_cast<decltype(x)&&>(x)
  ------------------
  327|  2.90M|}
_ZNK3scn2v36ranges6detail6begin_2fnclIRKNS2_9subrange_8subrangeIPKcS9_EEEEDTclsr2fnE4implscDtfp_Efp_tlNS0_6detail12priority_tagILm3EEEEEEOT_:
 2723|  1.12M|    {
 2724|  1.12M|        return fn::impl(SCN_FWD(t), priority_tag<3>{});
  ------------------
  |  |  930|  1.12M|#define SCN_FWD(x)          static_cast<decltype(x)&&>(x)
  ------------------
 2725|  1.12M|    }
_ZN3scn2v36ranges6detail6begin_2fn4implIRKNS2_9subrange_8subrangeIPKcS9_EEEENSt3__19enable_ifIX24input_or_output_iteratorIDTcl10decay_copycldtscDtfp_Efp_5beginEEEEESG_E4typeEOT_NS0_6detail12priority_tagILm1EEE:
 2704|  1.12M|    {
 2705|  1.12M|        return decay_copy(t.begin());
 2706|  1.12M|    }
_ZNK3scn2v36ranges6detail9subrange_8subrangeIPKcS6_E5beginEv:
 3325|  6.57M|    {
 3326|  6.57M|        return m_iterator;
 3327|  6.57M|    }
_ZNK3scn2v36ranges14view_interfaceINS1_6detail9subrange_8subrangeIPKcS7_EEE7derivedEv:
 3184|   593k|    {
 3185|   593k|        return static_cast<const D&>(*this);
 3186|   593k|    }
_ZNK3scn2v36ranges6detail5size_2fnclIRKNS2_9subrange_8subrangeIPKcS9_EEEEDTclsr2fnE4implclsr3stdE7forwardIT_Efp_EtlNS0_6detail12priority_tagILm3EEEEEEOSD_:
 2929|   593k|    {
 2930|   593k|        return fn::impl(std::forward<T>(t), priority_tag<3>{});
 2931|   593k|    }
_ZN3scn2v36ranges6detail5size_2fn4implIRKNS2_9subrange_8subrangeIPKcS9_EEmEENSt3__19enable_ifIXaasr3stdE13is_integral_vIT0_Ent19disable_sized_rangeIu11__remove_cvIu20__remove_reference_tIT_EEEESF_E4typeEOSG_NS0_6detail12priority_tagILm2EEE:
 2895|   593k|    {
 2896|   593k|        return decay_copy(SCN_FWD(t).size());
  ------------------
  |  |  930|   593k|#define SCN_FWD(x)          static_cast<decltype(x)&&>(x)
  ------------------
 2897|   593k|    }
_ZN3scn2v36ranges6detail10decay_copyImEEu7__decayIT_EOS4_:
 1948|  6.37M|{
 1949|  6.37M|    return SCN_FWD(t);
  ------------------
  |  |  930|  6.37M|#define SCN_FWD(x)          static_cast<decltype(x)&&>(x)
  ------------------
 1950|  6.37M|}
_ZNK3scn2v36ranges6detail9subrange_8subrangeIPKcS6_E4sizeIS6_TnPNSt3__19enable_ifIX18sized_sentinel_forIS6_T_EEvE4typeELPv0EEEmv:
 3341|  2.23M|    {
 3342|  2.23M|        return static_cast<size_t>(m_sentinel - m_iterator);
 3343|  2.23M|    }
_ZNK3scn2v38expectedIlNS0_10scan_errorEEcvbEv:
 1597|  12.8M|    {
 1598|  12.8M|        return has_value();
 1599|  12.8M|    }
_ZNK3scn2v36detail21expected_storage_baseIlNS0_10scan_errorELb1EE9has_valueEv:
  484|  25.6M|    {
  485|  25.6M|        return m_has_value;
  486|  25.6M|    }
_ZNR3scn2v38expectedIlNS0_10scan_errorEE5errorEv:
 1603|   273k|    {
 1604|   273k|        SCN_EXPECT(!has_value());
  ------------------
  |  |  924|   273k|#define SCN_EXPECT(cond) SCN_ASSERT(cond, "Precondition violation")
  |  |  ------------------
  |  |  |  |  921|   273k|#define SCN_ASSERT(cond, msg) assert((cond) && msg)
  |  |  ------------------
  ------------------
 1605|   273k|        return this->get_unexpected().error();
 1606|   273k|    }
_ZNR3scn2v36detail21expected_storage_baseIlNS0_10scan_errorELb1EE14get_unexpectedEv:
  467|   273k|    {
  468|   273k|        return m_unexpected;
  469|   273k|    }
_ZNR3scn2v310unexpectedINS0_10scan_errorEE5errorEv:
  360|  2.02M|    {
  361|  2.02M|        return m_unexpected;
  362|  2.02M|    }
_ZN3scn2v310unexpectedINS0_10scan_errorEEC2IRS2_vEEOT_:
  345|  1.01M|        : m_unexpected(std::forward<Err>(e))
  346|  1.01M|    {
  347|  1.01M|        SCN_UNLIKELY_ATTR SCN_UNUSED(m_unexpected);
  ------------------
  |  |  909|  1.01M|#define SCN_UNUSED(x) static_cast<void>(sizeof(x))
  ------------------
  348|  1.01M|    }
_ZN3scn2v38expectedINS0_6ranges6detail9subrange_8subrangeIPKcS7_EENS0_10scan_errorEEC2IS9_TnPNSt3__19enable_ifIXsr3stdE18is_constructible_vIS9_OT_EEvE4typeELPv0ETnPNSD_IXsr3stdE16is_convertible_vISF_S9_EEvE4typeELSJ_0EEEONS0_10unexpectedISE_EE:
 1473|  60.8k|        : base(unexpect, std::move(e.error())),
 1474|  60.8k|          ctor_base(detail::non_default_ctor_tag_t{})
 1475|  60.8k|    {
 1476|  60.8k|    }
_ZN3scn2v36detail21expected_storage_baseINS0_6ranges6detail9subrange_8subrangeIPKcS8_EENS0_10scan_errorELb1EEC2IJSA_EvEENS0_10unexpect_tEDpOT_:
  444|  60.8k|        : m_unexpected(std::in_place, std::forward<Args>(args)...),
  445|  60.8k|          m_has_value(false)
  446|  60.8k|    {
  447|  60.8k|    }
_ZN3scn2v310unexpectedINS0_10scan_errorEEC2IJS2_EvEENSt3__110in_place_tEDpOT_:
  354|  1.16M|        : m_unexpected(std::forward<Args>(args)...)
  355|  1.16M|    {
  356|  1.16M|        SCN_UNLIKELY_ATTR SCN_UNUSED(m_unexpected);
  ------------------
  |  |  909|  1.16M|#define SCN_UNUSED(x) static_cast<void>(sizeof(x))
  ------------------
  357|  1.16M|    }
_ZN3scn2v36detail26expected_default_ctor_baseINS0_6ranges6detail9subrange_8subrangeIPKcS8_EENS0_10scan_errorELb1EEC2ENS1_22non_default_ctor_tag_tE:
 1176|   593k|    {
 1177|   593k|    }
_ZN3scn2v36detail23make_vscan_result_rangeINS0_6ranges6detail9subrange_8subrangeIPKcS8_EEEENS1_22borrowed_tail_subrangeIT_Xsr6rangesE14borrowed_rangeISB_EEE4typeEOSB_l:
 5932|   532k|{
 5933|       |    if constexpr (ranges::random_access_iterator<
 5934|   532k|                      ranges::iterator_t<SourceRange>>) {
 5935|   532k|        return {ranges::begin(source) + n, make_vscan_result_range_end(source)};
 5936|       |    }
 5937|       |    else {
 5938|       |        auto it = ranges::begin(source);
 5939|       |        while (n > 0) {
 5940|       |            --n;
 5941|       |            ++it;
 5942|       |        }
 5943|       |        return {SCN_MOVE(it), make_vscan_result_range_end(source)};
 5944|       |    }
 5945|   532k|}
_ZNK3scn2v36ranges6detail6begin_2fnclIRNS2_9subrange_8subrangeIPKcS9_EEEEDTclsr2fnE4implscDtfp_Efp_tlNS0_6detail12priority_tagILm3EEEEEEOT_:
 2723|  2.17M|    {
 2724|  2.17M|        return fn::impl(SCN_FWD(t), priority_tag<3>{});
  ------------------
  |  |  930|  2.17M|#define SCN_FWD(x)          static_cast<decltype(x)&&>(x)
  ------------------
 2725|  2.17M|    }
_ZN3scn2v36ranges6detail6begin_2fn4implIRNS2_9subrange_8subrangeIPKcS9_EEEENSt3__19enable_ifIX24input_or_output_iteratorIDTcl10decay_copycldtscDtfp_Efp_5beginEEEEESF_E4typeEOT_NS0_6detail12priority_tagILm1EEE:
 2704|  2.17M|    {
 2705|  2.17M|        return decay_copy(t.begin());
 2706|  2.17M|    }
_ZN3scn2v36detail27make_vscan_result_range_endINS0_6ranges6detail9subrange_8subrangeIPKcS8_EEEEDaRT_:
 5919|   532k|{
 5920|   532k|    return ranges::end(source);
 5921|   532k|}
_ZNK3scn2v36ranges6detail4end_2fnclIRNS2_9subrange_8subrangeIPKcS9_EEEEDTclsr2fnE4implscDtfp_Efp_tlNS0_6detail12priority_tagILm3EEEEEEOT_:
 2780|   532k|    {
 2781|   532k|        return fn::impl(SCN_FWD(t), priority_tag<3>{});
  ------------------
  |  |  930|   532k|#define SCN_FWD(x)          static_cast<decltype(x)&&>(x)
  ------------------
 2782|   532k|    }
_ZN3scn2v36ranges6detail4end_2fn4implIRNS2_9subrange_8subrangeIPKcS9_EES9_S9_EENSt3__19enable_ifIX12sentinel_forIT0_T1_EEDTcl10decay_copycldtscDtfp_Efp_3endEEEE4typeEOT_NS0_6detail12priority_tagILm1EEE:
 2762|   532k|    {
 2763|   532k|        return decay_copy(SCN_FWD(t).end());
  ------------------
  |  |  930|   532k|#define SCN_FWD(x)          static_cast<decltype(x)&&>(x)
  ------------------
 2764|   532k|    }
_ZNK3scn2v36ranges6detail9subrange_8subrangeIPKcS6_E3endEv:
 3329|  3.42M|    {
 3330|  3.42M|        return m_sentinel;
 3331|  3.42M|    }
_ZNR3scn2v38expectedIlNS0_10scan_errorEEdeIlTnPNSt3__19enable_ifIXntsr3stdE9is_void_vIT_EEvE4typeELPv0EEERS7_v:
 1652|  12.5M|    {
 1653|  12.5M|        return value();
 1654|  12.5M|    }
_ZNR3scn2v38expectedIlNS0_10scan_errorEE5valueIlTnPNSt3__19enable_ifIXntsr3stdE9is_void_vIT_EEvE4typeELPv0EEERS7_v:
 1626|  12.5M|    {
 1627|  12.5M|        SCN_EXPECT(has_value());
  ------------------
  |  |  924|  12.5M|#define SCN_EXPECT(cond) SCN_ASSERT(cond, "Precondition violation")
  |  |  ------------------
  |  |  |  |  921|  12.5M|#define SCN_ASSERT(cond, msg) assert((cond) && msg)
  |  |  ------------------
  ------------------
 1628|  12.5M|        return this->get_value();
 1629|  12.5M|    }
_ZNR3scn2v36detail21expected_storage_baseIlNS0_10scan_errorELb1EE9get_valueEv:
  450|  12.5M|    {
  451|  12.5M|        return m_value;
  452|  12.5M|    }
_ZN3scn2v38expectedINS0_6ranges6detail9subrange_8subrangeIPKcS7_EENS0_10scan_errorEEC2IS8_vEEOT_:
 1427|   532k|        : base(std::in_place, std::forward<U>(val)),
 1428|   532k|          ctor_base(detail::non_default_ctor_tag_t{})
 1429|   532k|    {
 1430|   532k|    }
_ZN3scn2v36detail21expected_storage_baseINS0_6ranges6detail9subrange_8subrangeIPKcS8_EENS0_10scan_errorELb1EEC2IJS9_EvEENSt3__110in_place_tEDpOT_:
  435|   532k|        : m_value(std::forward<Args>(args)...), m_has_value(true)
  436|   532k|    {
  437|   532k|    }
_ZNK3scn2v324basic_scan_format_stringIcNS0_6ranges6detail9subrange_8subrangeIPKcS7_EEJNSt3__112basic_stringIcNS9_11char_traitsIcEENS9_9allocatorIcEEEEEEcvNS9_17basic_string_viewIcSC_EEEv:
 7984|   241k|    {
 7985|   241k|        return m_str;
 7986|   241k|    }
_ZN3scn2v315basic_scan_argsINS0_18basic_scan_contextIcEEEC2IJNSt3__112basic_stringIcNS6_11char_traitsIcEENS6_9allocatorIcEEEEEEERNS0_6detail14scan_arg_storeIS3_JDpT_EEE:
 5434|   530k|        : basic_scan_args(store.desc, store.arg_pointers().data())
 5435|   530k|    {
 5436|   530k|    }
_ZN3scn2v36detail14scan_arg_storeINS0_18basic_scan_contextIcEEJNSt3__112basic_stringIcNS5_11char_traitsIcEENS5_9allocatorIcEEEEEE12arg_pointersEv:
 5388|   530k|    {
 5389|   530k|        return m_argptrs;
 5390|   530k|    }
_ZN3scn2v315basic_scan_argsINS0_18basic_scan_contextIcEEEC2EmPPv:
 5486|   771k|        : m_desc(desc), m_builtin_values(data)
 5487|   771k|    {
 5488|   771k|    }
_ZN3scn2v316make_scan_resultINS0_6ranges6detail9subrange_8subrangeIPKcS7_EEJNSt3__112basic_stringIcNS9_11char_traitsIcEENS9_9allocatorIcEEEEEEENS0_13scan_expectedINS0_11scan_resultIT_JDpT0_EEEEEONSG_ISI_EEONS9_5tupleIJSK_EEE:
 8829|   241k|{
 8830|   241k|    if (SCN_UNLIKELY(!result)) {
  ------------------
  |  |  859|   241k|#define SCN_UNLIKELY(x) __builtin_expect(!!(x), 0)
  |  |  ------------------
  |  |  |  Branch (859:25): [True: 28.0k, False: 213k]
  |  |  ------------------
  ------------------
 8831|  28.0k|        return unexpected(result.error());
 8832|  28.0k|    }
 8833|   213k|    return scan_result{SCN_MOVE(*result), SCN_MOVE(args)};
  ------------------
  |  |  928|   213k|    static_cast<    \
  |  |  929|   213k|        typename ::scn::detail::remove_reference<decltype(x)>::type&&>(x)
  ------------------
                  return scan_result{SCN_MOVE(*result), SCN_MOVE(args)};
  ------------------
  |  |  928|   213k|    static_cast<    \
  |  |  929|   213k|        typename ::scn::detail::remove_reference<decltype(x)>::type&&>(x)
  ------------------
 8834|   241k|}
_ZNK3scn2v38expectedINS0_6ranges6detail9subrange_8subrangeIPKcS7_EENS0_10scan_errorEEcvbEv:
 1597|   593k|    {
 1598|   593k|        return has_value();
 1599|   593k|    }
_ZNK3scn2v36detail21expected_storage_baseINS0_6ranges6detail9subrange_8subrangeIPKcS8_EENS0_10scan_errorELb1EE9has_valueEv:
  484|  1.18M|    {
  485|  1.18M|        return m_has_value;
  486|  1.18M|    }
_ZNR3scn2v38expectedINS0_6ranges6detail9subrange_8subrangeIPKcS7_EENS0_10scan_errorEE5errorEv:
 1603|  60.8k|    {
 1604|  60.8k|        SCN_EXPECT(!has_value());
  ------------------
  |  |  924|  60.8k|#define SCN_EXPECT(cond) SCN_ASSERT(cond, "Precondition violation")
  |  |  ------------------
  |  |  |  |  921|  60.8k|#define SCN_ASSERT(cond, msg) assert((cond) && msg)
  |  |  ------------------
  ------------------
 1605|  60.8k|        return this->get_unexpected().error();
 1606|  60.8k|    }
_ZNR3scn2v36detail21expected_storage_baseINS0_6ranges6detail9subrange_8subrangeIPKcS8_EENS0_10scan_errorELb1EE14get_unexpectedEv:
  467|  60.8k|    {
  468|  60.8k|        return m_unexpected;
  469|  60.8k|    }
_ZN3scn2v38expectedINS0_11scan_resultINS0_6ranges6detail9subrange_8subrangeIPKcS8_EEJNSt3__112basic_stringIcNSA_11char_traitsIcEENSA_9allocatorIcEEEEEEENS0_10scan_errorEEC2ISI_TnPNSA_9enable_ifIXsr3stdE18is_constructible_vISI_OT_EEvE4typeELPv0ETnPNSL_IXsr3stdE16is_convertible_vISN_SI_EEvE4typeELSR_0EEEONS0_10unexpectedISM_EE:
 1473|  30.4k|        : base(unexpect, std::move(e.error())),
 1474|  30.4k|          ctor_base(detail::non_default_ctor_tag_t{})
 1475|  30.4k|    {
 1476|  30.4k|    }
_ZN3scn2v36detail21expected_storage_baseINS0_11scan_resultINS0_6ranges6detail9subrange_8subrangeIPKcS9_EEJNSt3__112basic_stringIcNSB_11char_traitsIcEENSB_9allocatorIcEEEEEEENS0_10scan_errorELb0EEC2IJSJ_EvEENS0_10unexpect_tEDpOT_:
  624|  30.4k|        : m_has_value(false)
  625|  30.4k|    {
  626|  30.4k|        construct_unexpected(std::in_place, std::forward<Args>(args)...);
  627|  30.4k|    }
_ZN3scn2v36detail21expected_storage_baseINS0_11scan_resultINS0_6ranges6detail9subrange_8subrangeIPKcS9_EEJNSt3__112basic_stringIcNSB_11char_traitsIcEENSB_9allocatorIcEEEEEEENS0_10scan_errorELb0EE20construct_unexpectedIJRKNSB_10in_place_tESJ_EEEvDpOT_:
  688|  30.4k|    {
  689|  30.4k|        scn::detail::construct_at(unexpected_ptr(),
  690|  30.4k|                                  std::forward<Args>(args)...);
  691|  30.4k|        m_has_value = false;
  692|  30.4k|    }
_ZN3scn2v36detail12construct_atINS0_10unexpectedINS0_10scan_errorEEEJRKNSt3__110in_place_tES4_EEEPT_SB_DpOT0_:
  391|   182k|{
  392|   182k|    return ::new (const_cast<void*>(static_cast<const volatile void*>(p)))
  393|   182k|        T(std::forward<Args>(args)...);
  394|   182k|}
_ZN3scn2v36detail21expected_storage_baseINS0_11scan_resultINS0_6ranges6detail9subrange_8subrangeIPKcS9_EEJNSt3__112basic_stringIcNSB_11char_traitsIcEENSB_9allocatorIcEEEEEEENS0_10scan_errorELb0EE14unexpected_ptrEv:
  717|  60.8k|    {
  718|  60.8k|        return reinterpret_cast<unexpected<E>*>(
  719|  60.8k|            SCN_ASSUME_ALIGNED(m_memory, alignof(unexpected<E>)));
  ------------------
  |  |  894|  60.8k|#define SCN_ASSUME_ALIGNED(x, n) __builtin_assume_aligned(x, n)
  ------------------
  720|  60.8k|    }
_ZN3scn2v36detail26expected_default_ctor_baseINS0_11scan_resultINS0_6ranges6detail9subrange_8subrangeIPKcS9_EEJNSt3__112basic_stringIcNSB_11char_traitsIcEENSB_9allocatorIcEEEEEEENS0_10scan_errorELb1EEC2ENS1_22non_default_ctor_tag_tE:
 1176|   296k|    {
 1177|   296k|    }
_ZNR3scn2v38expectedINS0_6ranges6detail9subrange_8subrangeIPKcS7_EENS0_10scan_errorEEdeIS8_TnPNSt3__19enable_ifIXntsr3stdE9is_void_vIT_EEvE4typeELPv0EEERSE_v:
 1652|   427k|    {
 1653|   427k|        return value();
 1654|   427k|    }
_ZNR3scn2v38expectedINS0_6ranges6detail9subrange_8subrangeIPKcS7_EENS0_10scan_errorEE5valueIS8_TnPNSt3__19enable_ifIXntsr3stdE9is_void_vIT_EEvE4typeELPv0EEERSE_v:
 1626|   532k|    {
 1627|   532k|        SCN_EXPECT(has_value());
  ------------------
  |  |  924|   532k|#define SCN_EXPECT(cond) SCN_ASSERT(cond, "Precondition violation")
  |  |  ------------------
  |  |  |  |  921|   532k|#define SCN_ASSERT(cond, msg) assert((cond) && msg)
  |  |  ------------------
  ------------------
 1628|   532k|        return this->get_value();
 1629|   532k|    }
_ZNR3scn2v36detail21expected_storage_baseINS0_6ranges6detail9subrange_8subrangeIPKcS8_EENS0_10scan_errorELb1EE9get_valueEv:
  450|   532k|    {
  451|   532k|        return m_value;
  452|   532k|    }
_ZN3scn2v311scan_resultINS0_6ranges6detail9subrange_8subrangeIPKcS7_EEJNSt3__112basic_stringIcNS9_11char_traitsIcEENS9_9allocatorIcEEEEEEC2ES8_ONS9_5tupleIJSF_EEE:
 5838|   266k|        : range_base(SCN_MOVE(r)), value_base(SCN_MOVE(values))
  ------------------
  |  |  928|   266k|    static_cast<    \
  |  |  929|   266k|        typename ::scn::detail::remove_reference<decltype(x)>::type&&>(x)
  ------------------
                      : range_base(SCN_MOVE(r)), value_base(SCN_MOVE(values))
  ------------------
  |  |  928|   266k|    static_cast<    \
  |  |  929|   266k|        typename ::scn::detail::remove_reference<decltype(x)>::type&&>(x)
  ------------------
 5839|   266k|    {
 5840|   266k|    }
_ZN3scn2v36detail25scan_result_range_storageINS0_6ranges6detail9subrange_8subrangeIPKcS8_EEEC2EOS9_:
 5689|   532k|    constexpr scan_result_range_storage(range_type&& r) : m_range(SCN_MOVE(r))
  ------------------
  |  |  928|   532k|    static_cast<    \
  |  |  929|   532k|        typename ::scn::detail::remove_reference<decltype(x)>::type&&>(x)
  ------------------
 5690|   532k|    {
 5691|   532k|    }
_ZN3scn2v36detail25scan_result_value_storageIJNSt3__112basic_stringIcNS3_11char_traitsIcEENS3_9allocatorIcEEEEEEC2EONS3_5tupleIJS9_EEE:
 5624|   591k|        : m_values(SCN_MOVE(values))
  ------------------
  |  |  928|   591k|    static_cast<    \
  |  |  929|   591k|        typename ::scn::detail::remove_reference<decltype(x)>::type&&>(x)
  ------------------
 5625|   591k|    {
 5626|   591k|    }
_ZN3scn2v38expectedINS0_11scan_resultINS0_6ranges6detail9subrange_8subrangeIPKcS8_EEJNSt3__112basic_stringIcNSA_11char_traitsIcEENSA_9allocatorIcEEEEEEENS0_10scan_errorEEC2ISH_vEEOT_:
 1427|   266k|        : base(std::in_place, std::forward<U>(val)),
 1428|   266k|          ctor_base(detail::non_default_ctor_tag_t{})
 1429|   266k|    {
 1430|   266k|    }
_ZN3scn2v36detail21expected_storage_baseINS0_11scan_resultINS0_6ranges6detail9subrange_8subrangeIPKcS9_EEJNSt3__112basic_stringIcNSB_11char_traitsIcEENSB_9allocatorIcEEEEEEENS0_10scan_errorELb0EEC2IJSI_EvEENSB_10in_place_tEDpOT_:
  614|   266k|        : m_has_value(true)
  615|   266k|    {
  616|   266k|        construct(std::forward<Args>(args)...);
  617|   266k|    }
_ZN3scn2v36detail21expected_storage_baseINS0_11scan_resultINS0_6ranges6detail9subrange_8subrangeIPKcS9_EEJNSt3__112basic_stringIcNSB_11char_traitsIcEENSB_9allocatorIcEEEEEEENS0_10scan_errorELb0EE9constructIJSI_EEEvDpOT_:
  681|   266k|    {
  682|   266k|        scn::detail::construct_at(value_ptr(), std::forward<Args>(args)...);
  683|   266k|        m_has_value = true;
  684|   266k|    }
_ZN3scn2v36detail12construct_atINS0_11scan_resultINS0_6ranges6detail9subrange_8subrangeIPKcS9_EEJNSt3__112basic_stringIcNSB_11char_traitsIcEENSB_9allocatorIcEEEEEEEJSI_EEEPT_SK_DpOT0_:
  391|   266k|{
  392|   266k|    return ::new (const_cast<void*>(static_cast<const volatile void*>(p)))
  393|   266k|        T(std::forward<Args>(args)...);
  394|   266k|}
_ZN3scn2v311scan_resultINS0_6ranges6detail9subrange_8subrangeIPKcS7_EEJNSt3__112basic_stringIcNS9_11char_traitsIcEENS9_9allocatorIcEEEEEEC2EOSG_:
 5831|   266k|    constexpr scan_result(scan_result&&) = default;
_ZN3scn2v36detail21expected_storage_baseINS0_11scan_resultINS0_6ranges6detail9subrange_8subrangeIPKcS9_EEJNSt3__112basic_stringIcNSB_11char_traitsIcEENSB_9allocatorIcEEEEEEENS0_10scan_errorELb0EE9value_ptrEv:
  705|   799k|    {
  706|   799k|        return reinterpret_cast<T*>(SCN_ASSUME_ALIGNED(m_memory, alignof(T)));
  ------------------
  |  |  894|   799k|#define SCN_ASSUME_ALIGNED(x, n) __builtin_assume_aligned(x, n)
  ------------------
  707|   799k|    }
_ZN3scn2v311scan_resultINS0_6ranges6detail9subrange_8subrangeIPKcS7_EEJNSt3__112basic_stringIcNS9_11char_traitsIcEENS9_9allocatorIcEEEEEED2Ev:
 5835|   532k|    ~scan_result() = default;
_ZN3scn2v36detail14scan_arg_storeINS0_18basic_scan_contextIcEEJNSt3__112basic_stringIcNS5_11char_traitsIcEENS5_9allocatorIcEEEEEE4argsEv:
 5383|   530k|    {
 5384|   530k|        return m_args;
 5385|   530k|    }
_ZN3scn2v36detail14scan_arg_storeINS0_18basic_scan_contextIcEEJNSt3__112basic_stringIcNS5_11char_traitsIcEENS5_9allocatorIcEEEEEED2Ev:
 5380|   530k|    ~scan_arg_store() = default;
_ZN3scn2v36ranges6detail9subrange_8subrangeIPKcS6_EC2IS6_TnPNSt3__19enable_ifIXsr3stdE16is_convertible_vIT_S6_EEvE4typeELPv0EEESB_S6_:
 3310|  3.83M|        : m_iterator(SCN_MOVE(i)), m_sentinel(SCN_MOVE(s))
  ------------------
  |  |  928|  3.83M|    static_cast<    \
  |  |  929|  3.83M|        typename ::scn::detail::remove_reference<decltype(x)>::type&&>(x)
  ------------------
                      : m_iterator(SCN_MOVE(i)), m_sentinel(SCN_MOVE(s))
  ------------------
  |  |  928|  3.83M|    static_cast<    \
  |  |  929|  3.83M|        typename ::scn::detail::remove_reference<decltype(x)>::type&&>(x)
  ------------------
 3311|  3.83M|    {
 3312|  3.83M|    }
_ZN3scn2v314runtime_formatENSt3__117basic_string_viewIcNS1_11char_traitsIcEEEE:
 7700|   771k|{
 7701|   771k|    return s;
 7702|   771k|}
_ZN3scn2v36detail27basic_runtime_format_stringIcEC2ENSt3__117basic_string_viewIcNS4_11char_traitsIcEEEE:
 7677|   771k|    basic_runtime_format_string(std::basic_string_view<CharT> s) : str(s) {}
_ZN3scn2v324basic_scan_format_stringIcNS0_6ranges6detail9subrange_8subrangeIPKcS7_EEJNSt3__112basic_stringIcNS9_11char_traitsIcEENS9_9allocatorIcEEEEEEC2ENS0_6detail27basic_runtime_format_stringIcEE:
 7979|   241k|        : m_str(r.str)
 7980|   241k|    {
 7981|   241k|    }
_ZNK3scn2v38expectedINS0_11scan_resultINS0_6ranges6detail9subrange_8subrangeIPKcS8_EEJNSt3__112basic_stringIcNSA_11char_traitsIcEENSA_9allocatorIcEEEEEEENS0_10scan_errorEEcvbEv:
 1597|   296k|    {
 1598|   296k|        return has_value();
 1599|   296k|    }
_ZNK3scn2v36detail21expected_storage_baseINS0_11scan_resultINS0_6ranges6detail9subrange_8subrangeIPKcS9_EEJNSt3__112basic_stringIcNSB_11char_traitsIcEENSB_9allocatorIcEEEEEEENS0_10scan_errorELb0EE9has_valueEv:
  674|   859k|    {
  675|   859k|        return m_has_value;
  676|   859k|    }
_ZN3scn2v38expectedINS0_11scan_resultINS0_6ranges6detail9subrange_8subrangeIPKcS8_EEJNSt3__112basic_stringIcNSA_11char_traitsIcEENSA_9allocatorIcEEEEEEENS0_10scan_errorEEptEv:
 1672|   266k|    {
 1673|   266k|        return &value();
 1674|   266k|    }
_ZNR3scn2v38expectedINS0_11scan_resultINS0_6ranges6detail9subrange_8subrangeIPKcS8_EEJNSt3__112basic_stringIcNSA_11char_traitsIcEENSA_9allocatorIcEEEEEEENS0_10scan_errorEE5valueISH_TnPNSA_9enable_ifIXntsr3stdE9is_void_vIT_EEvE4typeELPv0EEERSM_v:
 1626|   266k|    {
 1627|   266k|        SCN_EXPECT(has_value());
  ------------------
  |  |  924|   266k|#define SCN_EXPECT(cond) SCN_ASSERT(cond, "Precondition violation")
  |  |  ------------------
  |  |  |  |  921|   266k|#define SCN_ASSERT(cond, msg) assert((cond) && msg)
  |  |  ------------------
  ------------------
 1628|   266k|        return this->get_value();
 1629|   266k|    }
_ZNR3scn2v36detail21expected_storage_baseINS0_11scan_resultINS0_6ranges6detail9subrange_8subrangeIPKcS9_EEJNSt3__112basic_stringIcNSB_11char_traitsIcEENSB_9allocatorIcEEEEEEENS0_10scan_errorELb0EE9get_valueEv:
  640|   266k|    {
  641|   266k|        return *value_ptr();
  642|   266k|    }
_ZNK3scn2v36detail25scan_result_range_storageINS0_6ranges6detail9subrange_8subrangeIPKcS8_EEE5beginEv:
 5707|   532k|    {
 5708|   532k|        return ranges::begin(m_range);
 5709|   532k|    }
_ZN3scn2v36detail21expected_storage_baseINS0_11scan_resultINS0_6ranges6detail9subrange_8subrangeIPKcS9_EEJNSt3__112basic_stringIcNSB_11char_traitsIcEENSB_9allocatorIcEEEEEEENS0_10scan_errorELb0EED2Ev:
  630|   296k|    {
  631|   296k|        if (has_value()) {
  ------------------
  |  Branch (631:13): [True: 266k, False: 30.4k]
  ------------------
  632|   266k|            destroy_value();
  633|   266k|        }
  634|  30.4k|        else {
  635|  30.4k|            destroy_unexpected();
  636|  30.4k|        }
  637|   296k|    }
_ZN3scn2v36detail21expected_storage_baseINS0_11scan_resultINS0_6ranges6detail9subrange_8subrangeIPKcS9_EEJNSt3__112basic_stringIcNSB_11char_traitsIcEENSB_9allocatorIcEEEEEEENS0_10scan_errorELb0EE13destroy_valueEv:
  695|   266k|    {
  696|   266k|        scn::detail::destroy_at(value_ptr());
  697|   266k|    }
_ZN3scn2v36detail10destroy_atINS0_11scan_resultINS0_6ranges6detail9subrange_8subrangeIPKcS9_EEJNSt3__112basic_stringIcNSB_11char_traitsIcEENSB_9allocatorIcEEEEEEEEEvPT_:
  397|   266k|{
  398|       |    if constexpr (std::is_array_v<T>) {
  399|       |        for (auto& elem : *p) {
  400|       |            scn::detail::destroy_at(&elem);
  401|       |        }
  402|       |    }
  403|   266k|    else {
  404|   266k|        p->~T();
  405|   266k|    }
  406|   266k|}
_ZN3scn2v36detail21expected_storage_baseINS0_11scan_resultINS0_6ranges6detail9subrange_8subrangeIPKcS9_EEJNSt3__112basic_stringIcNSB_11char_traitsIcEENSB_9allocatorIcEEEEEEENS0_10scan_errorELb0EE18destroy_unexpectedEv:
  699|  30.4k|    {
  700|  30.4k|        scn::detail::destroy_at(unexpected_ptr());
  701|  30.4k|    }
_ZN3scn2v36detail10destroy_atINS0_10unexpectedINS0_10scan_errorEEEEEvPT_:
  397|   182k|{
  398|       |    if constexpr (std::is_array_v<T>) {
  399|       |        for (auto& elem : *p) {
  400|       |            scn::detail::destroy_at(&elem);
  401|       |        }
  402|       |    }
  403|   182k|    else {
  404|   182k|        p->~T();
  405|   182k|    }
  406|   182k|}
_ZN3scn2v34scanIJNSt3__112basic_stringIcNS2_11char_traitsIcEENS2_9allocatorIcEEEEENS2_6localeENS0_6ranges6detail9subrange_8subrangeIPKcSF_EEvvEENS0_13scan_expectedINS0_11scan_resultINS2_11conditionalIXsr3stdE9is_same_vIu11__remove_cvIu20__remove_reference_tIT1_EEP8_IO_FILEEESO_NS0_6detail22borrowed_tail_subrangeISK_Xsr6rangesE14borrowed_rangeISK_EEE4typeEE4typeEJDpT_EEEEERKT0_OSK_NS0_24basic_scan_format_stringIcNSP_13type_identityISK_E4typeEJDpNS14_ISV_E4typeEEEE:
 8943|   120k|{
 8944|   120k|    auto args = make_scan_args<scan_context, Args...>();
 8945|   120k|    auto result = vscan(loc, SCN_FWD(source), format, args);
  ------------------
  |  |  930|   120k|#define SCN_FWD(x)          static_cast<decltype(x)&&>(x)
  ------------------
 8946|   120k|    return make_scan_result(SCN_MOVE(result), SCN_MOVE(args.args()));
  ------------------
  |  |  928|   120k|    static_cast<    \
  |  |  929|   120k|        typename ::scn::detail::remove_reference<decltype(x)>::type&&>(x)
  ------------------
                  return make_scan_result(SCN_MOVE(result), SCN_MOVE(args.args()));
  ------------------
  |  |  928|   120k|    static_cast<    \
  |  |  929|   120k|        typename ::scn::detail::remove_reference<decltype(x)>::type&&>(x)
  ------------------
 8947|   120k|}
_ZN3scn2v35vscanINS0_6ranges6detail9subrange_8subrangeIPKcS7_EENSt3__16localeEvEENS0_13scan_expectedINS9_11conditionalIXsr3stdE9is_same_vIu11__remove_cvIu20__remove_reference_tIT_EEP8_IO_FILEEESH_NS0_6detail22borrowed_tail_subrangeISD_Xsr6rangesE14borrowed_rangeISD_EEE4typeEE4typeEEERKT0_OSD_NS9_17basic_string_viewIcNS9_11char_traitsIcEEEENS0_15basic_scan_argsINS0_18basic_scan_contextIcEEEE:
 8681|   241k|{
 8682|   241k|    return detail::vscan_localized_generic(loc, SCN_FWD(source), format, args);
  ------------------
  |  |  930|   241k|#define SCN_FWD(x)          static_cast<decltype(x)&&>(x)
  ------------------
 8683|   241k|}
_ZN3scn2v36detail23vscan_localized_genericINSt3__16localeENS0_6ranges6detail9subrange_8subrangeIPKcSA_EEcEENS0_13scan_expectedINS3_11conditionalIXsr3stdE9is_same_vIu11__remove_cvIu20__remove_reference_tIT0_EEP8_IO_FILEEESI_NS1_22borrowed_tail_subrangeISE_Xsr6rangesE14borrowed_rangeISE_EEE4typeEE4typeEEERKT_OSE_NS3_17basic_string_viewIT1_NS3_11char_traitsISU_EEEENS0_15basic_scan_argsINS0_18basic_scan_contextISU_EEEE:
 8616|   241k|{
 8617|   241k|#if !SCN_DISABLE_LOCALE
 8618|   241k|    auto buffer = detail::make_scan_buffer(range);
 8619|       |
 8620|   241k|    SCN_CLANG_PUSH_IGNORE_UNDEFINED_TEMPLATE
 8621|   241k|    auto result = detail::vscan_localized_impl(loc, buffer, format, args);
 8622|   241k|    SCN_CLANG_POP_IGNORE_UNDEFINED_TEMPLATE
 8623|       |
 8624|   241k|    if (SCN_UNLIKELY(!result)) {
  ------------------
  |  |  859|   241k|#define SCN_UNLIKELY(x) __builtin_expect(!!(x), 0)
  |  |  ------------------
  |  |  |  Branch (859:25): [True: 28.0k, False: 213k]
  |  |  ------------------
  ------------------
 8625|  28.0k|        return unexpected(result.error());
 8626|  28.0k|    }
 8627|   213k|    return detail::make_vscan_result_range(SCN_FWD(range), *result);
  ------------------
  |  |  930|   213k|#define SCN_FWD(x)          static_cast<decltype(x)&&>(x)
  ------------------
 8628|       |#else
 8629|       |    static_assert(dependent_false<Locale>::value,
 8630|       |                  "Can't use scan(locale, ...) with SCN_DISABLE_LOCALE on");
 8631|       |
 8632|       |    return {};
 8633|       |#endif
 8634|   241k|}
_ZN3scn2v310scan_valueINSt3__112basic_stringIcNS2_11char_traitsIcEENS2_9allocatorIcEEEENS0_6ranges6detail9subrange_8subrangeIPKcSE_EEvEENS0_13scan_expectedINS0_11scan_resultINS2_11conditionalIXsr3stdE9is_same_vIu11__remove_cvIu20__remove_reference_tIT0_EEP8_IO_FILEEESN_NS0_6detail22borrowed_tail_subrangeISJ_Xsr6rangesE14borrowed_rangeISJ_EEE4typeEE4typeEJT_EEEEEOSJ_:
 8982|  55.1k|{
 8983|  55.1k|    T value;
 8984|  55.1k|    auto arg = detail::make_arg<scan_context>(value);
 8985|  55.1k|    SCN_TRY(it, vscan_value(SCN_FWD(source), arg));
  ------------------
  |  | 3668|  55.1k|#define SCN_TRY(name, x) SCN_TRY_ASSIGN(auto name, x)
  |  |  ------------------
  |  |  |  | 3663|  55.1k|    auto&& SCN_TRY_TMP = (x);                          \
  |  |  |  | 3664|  55.1k|    if (SCN_UNLIKELY(!SCN_TRY_TMP)) {                  \
  |  |  |  |  ------------------
  |  |  |  |  |  |  859|  55.1k|#define SCN_UNLIKELY(x) __builtin_expect(!!(x), 0)
  |  |  |  |  |  |  ------------------
  |  |  |  |  |  |  |  Branch (859:25): [True: 2.34k, False: 52.8k]
  |  |  |  |  |  |  ------------------
  |  |  |  |  ------------------
  |  |  |  | 3665|  2.34k|        return ::scn::unexpected(SCN_TRY_TMP.error()); \
  |  |  |  |  ------------------
  |  |  |  |  |  | 3660|  2.34k|#define SCN_TRY_TMP                SCN_TRY_IMPL_CONCAT2(_scn_try_tmp_, __LINE__)
  |  |  |  |  |  |  ------------------
  |  |  |  |  |  |  |  | 3659|  2.34k|#define SCN_TRY_IMPL_CONCAT2(a, b) SCN_TRY_IMPL_CONCAT(a, b)
  |  |  |  |  |  |  |  |  ------------------
  |  |  |  |  |  |  |  |  |  | 3658|  2.34k|#define SCN_TRY_IMPL_CONCAT(a, b)  a##b
  |  |  |  |  |  |  |  |  ------------------
  |  |  |  |  |  |  ------------------
  |  |  |  |  ------------------
  |  |  |  | 3666|  2.34k|    }                                                  \
  |  |  |  | 3667|  55.1k|    init = *SCN_FWD(SCN_TRY_TMP);
  |  |  |  |  ------------------
  |  |  |  |  |  |  930|  52.8k|#define SCN_FWD(x)          static_cast<decltype(x)&&>(x)
  |  |  |  |  ------------------
  |  |  ------------------
  ------------------
 8986|  52.8k|    return scan_result{SCN_MOVE(it), std::tuple{SCN_MOVE(value)}};
  ------------------
  |  |  928|  52.8k|    static_cast<    \
  |  |  929|  52.8k|        typename ::scn::detail::remove_reference<decltype(x)>::type&&>(x)
  ------------------
                  return scan_result{SCN_MOVE(it), std::tuple{SCN_MOVE(value)}};
  ------------------
  |  |  928|  52.8k|    static_cast<    \
  |  |  929|  52.8k|        typename ::scn::detail::remove_reference<decltype(x)>::type&&>(x)
  ------------------
 8987|  55.1k|}
_ZN3scn2v36detail8make_argINS0_18basic_scan_contextIcEENSt3__112basic_stringIcNS5_11char_traitsIcEENS5_9allocatorIcEEEEEENS0_14basic_scan_argIT_EERT0_:
 5164|   121k|{
 5165|   121k|    check_scan_arg_types<T>();
 5166|       |
 5167|   121k|    basic_scan_arg<Context> arg;
 5168|   121k|    arg.m_type = mapped_type_constant<T, typename Context::char_type>::value;
 5169|   121k|    arg.m_value = make_value<Context>(value);
 5170|   121k|    return arg;
 5171|   121k|}
_ZN3scn2v314basic_scan_argINS0_18basic_scan_contextIcEEEC2Ev:
 5250|   948k|    constexpr basic_scan_arg() = default;
_ZN3scn2v36detail9arg_valueC2Ev:
 4906|  9.62M|    arg_value() = default;
_ZN3scn2v311vscan_valueINS0_6ranges6detail9subrange_8subrangeIPKcS7_EEEENS0_13scan_expectedINSt3__111conditionalIXsr3stdE9is_same_vIu11__remove_cvIu20__remove_reference_tIT_EEP8_IO_FILEEESG_NS0_6detail22borrowed_tail_subrangeISC_Xsr6rangesE14borrowed_rangeISC_EEE4typeEE4typeEEEOSC_NS0_14basic_scan_argINS0_18basic_scan_contextIcEEEE:
 8694|   110k|{
 8695|   110k|    return detail::vscan_value_generic(SCN_FWD(source), arg);
  ------------------
  |  |  930|   110k|#define SCN_FWD(x)          static_cast<decltype(x)&&>(x)
  ------------------
 8696|   110k|}
_ZN3scn2v36detail19vscan_value_genericINS0_6ranges6detail9subrange_8subrangeIPKcS8_EEcEENS0_13scan_expectedINSt3__111conditionalIXsr3stdE9is_same_vIu11__remove_cvIu20__remove_reference_tIT_EEP8_IO_FILEEESH_NS1_22borrowed_tail_subrangeISD_Xsr6rangesE14borrowed_rangeISD_EEE4typeEE4typeEEEOSD_NS0_14basic_scan_argINS0_18basic_scan_contextIT0_EEEE:
 8640|   110k|{
 8641|   110k|    auto buffer = detail::make_scan_buffer(range);
 8642|       |
 8643|   110k|    auto result = detail::vscan_value_impl(buffer, arg);
 8644|   110k|    if (SCN_UNLIKELY(!result)) {
  ------------------
  |  |  859|   110k|#define SCN_UNLIKELY(x) __builtin_expect(!!(x), 0)
  |  |  ------------------
  |  |  |  Branch (859:25): [True: 4.68k, False: 105k]
  |  |  ------------------
  ------------------
 8645|  4.68k|        return unexpected(result.error());
 8646|  4.68k|    }
 8647|   105k|    return detail::make_vscan_result_range(SCN_FWD(range), *result);
  ------------------
  |  |  930|   105k|#define SCN_FWD(x)          static_cast<decltype(x)&&>(x)
  ------------------
 8648|   110k|}
_ZNO3scn2v38expectedINS0_6ranges6detail9subrange_8subrangeIPKcS7_EENS0_10scan_errorEEdeIS8_TnPNSt3__19enable_ifIXntsr3stdE9is_void_vIT_EEvE4typeELPv0EEEOSE_v:
 1662|   105k|    {
 1663|   105k|        return std::move(value());
 1664|   105k|    }
_ZN3scn2v34scanIJNSt3__117basic_string_viewIcNS2_11char_traitsIcEEEEENS0_6ranges6detail9subrange_8subrangeIPKcSC_EEvEENS0_13scan_expectedINS0_11scan_resultINS2_11conditionalIXsr3stdE9is_same_vIu11__remove_cvIu20__remove_reference_tIT0_EEP8_IO_FILEEESL_NS0_6detail22borrowed_tail_subrangeISH_Xsr6rangesE14borrowed_rangeISH_EEE4typeEE4typeEJDpT_EEEEEOSH_NS0_24basic_scan_format_stringIcNSM_13type_identityISH_E4typeEJDpNSY_ISS_E4typeEEEE:
 8876|   120k|{
 8877|   120k|    auto args = make_scan_args<scan_context, Args...>();
 8878|   120k|    auto result = vscan(SCN_FWD(source), format, args);
  ------------------
  |  |  930|   120k|#define SCN_FWD(x)          static_cast<decltype(x)&&>(x)
  ------------------
 8879|   120k|    return make_scan_result(SCN_MOVE(result), SCN_MOVE(args.args()));
  ------------------
  |  |  928|   120k|    static_cast<    \
  |  |  929|   120k|        typename ::scn::detail::remove_reference<decltype(x)>::type&&>(x)
  ------------------
                  return make_scan_result(SCN_MOVE(result), SCN_MOVE(args.args()));
  ------------------
  |  |  928|   120k|    static_cast<    \
  |  |  929|   120k|        typename ::scn::detail::remove_reference<decltype(x)>::type&&>(x)
  ------------------
 8880|   120k|}
_ZN3scn2v314make_scan_argsINS0_18basic_scan_contextIcEEJNSt3__117basic_string_viewIcNS4_11char_traitsIcEEEEEEEDav:
 5405|   241k|{
 5406|   241k|    detail::check_scan_arg_types<Args...>();
 5407|   241k|    return detail::scan_arg_store<Context, Args...>{};
 5408|   241k|}
_ZN3scn2v36detail20check_scan_arg_typesIJNSt3__117basic_string_viewIcNS3_11char_traitsIcEEEEEEEvv:
 5144|   296k|{
 5145|   296k|    static_assert(std::conjunction_v<std::is_default_constructible<Args>...>,
 5146|   296k|                  "Scan argument types must be default constructible");
 5147|   296k|    static_assert(std::conjunction_v<std::is_destructible<Args>...>,
 5148|   296k|                  "Scan argument types must be Destructible");
 5149|   296k|    static_assert(
 5150|   296k|        !std::conjunction_v<std::false_type, std::is_reference<Args>...>,
 5151|   296k|        "Scan argument types must not be references");
 5152|   296k|}
_ZN3scn2v36detail14scan_arg_storeINS0_18basic_scan_contextIcEEJNSt3__117basic_string_viewIcNS5_11char_traitsIcEEEEEEC2Ev:
 5357|   241k|        : m_argptrs(std::apply(make_argptrs<Args...>, m_args))
 5358|   241k|    {
 5359|   241k|    }
_ZN3scn2v36detail14scan_arg_storeINS0_18basic_scan_contextIcEEJNSt3__117basic_string_viewIcNS5_11char_traitsIcEEEEEE12make_argptrsIJS9_EEENS5_5arrayIPvLm1EEEDpRT_:
 5369|   241k|    {
 5370|   241k|        return {detail::make_arg<
 5371|   241k|            kind, Context,
 5372|   241k|            mapped_type_constant<remove_cvref_t<A>,
 5373|   241k|                                 typename Context::char_type>::value>(args)...};
 5374|   241k|    }
_ZN3scn2v36detail8make_argILNS1_19scan_arg_store_kindE0ENS0_18basic_scan_contextIcEELNS1_8arg_typeE19ENSt3__117basic_string_viewIcNS7_11char_traitsIcEEEEvEEPvRT2_:
 5179|   241k|{
 5180|   241k|    return make_value<Context>(value).ref_value;
 5181|   241k|}
_ZN3scn2v36detail10make_valueINS0_18basic_scan_contextIcEENSt3__117basic_string_viewIcNS5_11char_traitsIcEEEEEEDaRT0_:
 5129|   296k|{
 5130|   296k|    auto&& arg = arg_mapper<typename Context::char_type>().map(value);
 5131|       |
 5132|       |    if constexpr (!std::is_same_v<remove_cvref_t<decltype(arg)>,
 5133|   296k|                                  needs_context_tag>) {
 5134|   296k|        return make_value_impl(SCN_FWD(arg));
  ------------------
  |  |  930|   296k|#define SCN_FWD(x)          static_cast<decltype(x)&&>(x)
  ------------------
 5135|       |    }
 5136|       |    else {
 5137|       |        return make_value_impl(arg_mapper<typename Context::char_type>().map(
 5138|       |            value, context_tag<Context>{}));
 5139|       |    }
 5140|   296k|}
_ZN3scn2v36detail10arg_mapperIcE3mapERNSt3__117basic_string_viewIcNS4_11char_traitsIcEEEE:
 4968|   296k|    {                                                                        \
 4969|   296k|        return val;                                                          \
 4970|   296k|    }
_ZN3scn2v36detail15make_value_implIRNSt3__117basic_string_viewIcNS3_11char_traitsIcEEEEEEDaOT_:
 5098|   296k|{
 5099|   296k|    using arg_nocvref_t = remove_cvref_t<Arg>;
 5100|   296k|    static_assert(!std::is_same_v<arg_nocvref_t, needs_context_tag>);
 5101|       |
 5102|   296k|    constexpr bool scannable_char =
 5103|   296k|        !std::is_same_v<arg_nocvref_t, unscannable_char>;
 5104|   296k|    static_assert(scannable_char,
 5105|   296k|                  "Cannot scan an argument of an unsupported character "
 5106|   296k|                  "type (i.e. char from a wchar_t source)");
 5107|       |
 5108|   296k|    constexpr bool scannable_const =
 5109|   296k|        !std::is_same_v<arg_nocvref_t, unscannable_const>;
 5110|   296k|    static_assert(scannable_const, "Cannot scan a const argument");
 5111|       |
 5112|   296k|    constexpr bool scannable_disabled =
 5113|   296k|        !std::is_same_v<arg_nocvref_t, unscannable_disabled>;
 5114|   296k|    static_assert(scannable_disabled,
 5115|   296k|                  "Cannot scan an argument that has been disabled by "
 5116|   296k|                  "flag (SCN_DISABLE_TYPE_*)");
 5117|       |
 5118|   296k|    constexpr bool scannable = !std::is_same_v<arg_nocvref_t, unscannable>;
 5119|   296k|    static_assert(
 5120|   296k|        scannable,
 5121|   296k|        "Cannot scan an argument. To make a type T scannable, provide "
 5122|   296k|        "a scn::scanner<T, CharT> specialization.");
 5123|       |
 5124|   296k|    return arg_value{arg};
 5125|   296k|}
_ZN3scn2v36detail9arg_valueC2INSt3__117basic_string_viewIcNS4_11char_traitsIcEEEEEERT_:
 4909|   296k|    explicit constexpr arg_value(T& val) : ref_value{std::addressof(val)}
 4910|   296k|    {
 4911|   296k|    }
_ZNK3scn2v324basic_scan_format_stringIcNS0_6ranges6detail9subrange_8subrangeIPKcS7_EEJNSt3__117basic_string_viewIcNS9_11char_traitsIcEEEEEEcvSD_Ev:
 7984|   241k|    {
 7985|   241k|        return m_str;
 7986|   241k|    }
_ZN3scn2v315basic_scan_argsINS0_18basic_scan_contextIcEEEC2IJNSt3__117basic_string_viewIcNS6_11char_traitsIcEEEEEEERNS0_6detail14scan_arg_storeIS3_JDpT_EEE:
 5434|   241k|        : basic_scan_args(store.desc, store.arg_pointers().data())
 5435|   241k|    {
 5436|   241k|    }
_ZN3scn2v36detail14scan_arg_storeINS0_18basic_scan_contextIcEEJNSt3__117basic_string_viewIcNS5_11char_traitsIcEEEEEE12arg_pointersEv:
 5388|   241k|    {
 5389|   241k|        return m_argptrs;
 5390|   241k|    }
_ZN3scn2v316make_scan_resultINS0_6ranges6detail9subrange_8subrangeIPKcS7_EEJNSt3__117basic_string_viewIcNS9_11char_traitsIcEEEEEEENS0_13scan_expectedINS0_11scan_resultIT_JDpT0_EEEEEONSE_ISG_EEONS9_5tupleIJSI_EEE:
 8829|   241k|{
 8830|   241k|    if (SCN_UNLIKELY(!result)) {
  ------------------
  |  |  859|   241k|#define SCN_UNLIKELY(x) __builtin_expect(!!(x), 0)
  |  |  ------------------
  |  |  |  Branch (859:25): [True: 28.0k, False: 213k]
  |  |  ------------------
  ------------------
 8831|  28.0k|        return unexpected(result.error());
 8832|  28.0k|    }
 8833|   213k|    return scan_result{SCN_MOVE(*result), SCN_MOVE(args)};
  ------------------
  |  |  928|   213k|    static_cast<    \
  |  |  929|   213k|        typename ::scn::detail::remove_reference<decltype(x)>::type&&>(x)
  ------------------
                  return scan_result{SCN_MOVE(*result), SCN_MOVE(args)};
  ------------------
  |  |  928|   213k|    static_cast<    \
  |  |  929|   213k|        typename ::scn::detail::remove_reference<decltype(x)>::type&&>(x)
  ------------------
 8834|   241k|}
_ZN3scn2v38expectedINS0_11scan_resultINS0_6ranges6detail9subrange_8subrangeIPKcS8_EEJNSt3__117basic_string_viewIcNSA_11char_traitsIcEEEEEEENS0_10scan_errorEEC2ISG_TnPNSA_9enable_ifIXsr3stdE18is_constructible_vISG_OT_EEvE4typeELPv0ETnPNSJ_IXsr3stdE16is_convertible_vISL_SG_EEvE4typeELSP_0EEEONS0_10unexpectedISK_EE:
 1473|  30.4k|        : base(unexpect, std::move(e.error())),
 1474|  30.4k|          ctor_base(detail::non_default_ctor_tag_t{})
 1475|  30.4k|    {
 1476|  30.4k|    }
_ZN3scn2v36detail21expected_storage_baseINS0_11scan_resultINS0_6ranges6detail9subrange_8subrangeIPKcS9_EEJNSt3__117basic_string_viewIcNSB_11char_traitsIcEEEEEEENS0_10scan_errorELb1EEC2IJSH_EvEENS0_10unexpect_tEDpOT_:
  444|  30.4k|        : m_unexpected(std::in_place, std::forward<Args>(args)...),
  445|  30.4k|          m_has_value(false)
  446|  30.4k|    {
  447|  30.4k|    }
_ZN3scn2v36detail26expected_default_ctor_baseINS0_11scan_resultINS0_6ranges6detail9subrange_8subrangeIPKcS9_EEJNSt3__117basic_string_viewIcNSB_11char_traitsIcEEEEEEENS0_10scan_errorELb1EEC2ENS1_22non_default_ctor_tag_tE:
 1176|   296k|    {
 1177|   296k|    }
_ZN3scn2v311scan_resultINS0_6ranges6detail9subrange_8subrangeIPKcS7_EEJNSt3__117basic_string_viewIcNS9_11char_traitsIcEEEEEEC2ES8_ONS9_5tupleIJSD_EEE:
 5838|   266k|        : range_base(SCN_MOVE(r)), value_base(SCN_MOVE(values))
  ------------------
  |  |  928|   266k|    static_cast<    \
  |  |  929|   266k|        typename ::scn::detail::remove_reference<decltype(x)>::type&&>(x)
  ------------------
                      : range_base(SCN_MOVE(r)), value_base(SCN_MOVE(values))
  ------------------
  |  |  928|   266k|    static_cast<    \
  |  |  929|   266k|        typename ::scn::detail::remove_reference<decltype(x)>::type&&>(x)
  ------------------
 5839|   266k|    {
 5840|   266k|    }
_ZN3scn2v36detail25scan_result_value_storageIJNSt3__117basic_string_viewIcNS3_11char_traitsIcEEEEEEC2EONS3_5tupleIJS7_EEE:
 5624|   266k|        : m_values(SCN_MOVE(values))
  ------------------
  |  |  928|   266k|    static_cast<    \
  |  |  929|   266k|        typename ::scn::detail::remove_reference<decltype(x)>::type&&>(x)
  ------------------
 5625|   266k|    {
 5626|   266k|    }
_ZN3scn2v38expectedINS0_11scan_resultINS0_6ranges6detail9subrange_8subrangeIPKcS8_EEJNSt3__117basic_string_viewIcNSA_11char_traitsIcEEEEEEENS0_10scan_errorEEC2ISF_vEEOT_:
 1427|   266k|        : base(std::in_place, std::forward<U>(val)),
 1428|   266k|          ctor_base(detail::non_default_ctor_tag_t{})
 1429|   266k|    {
 1430|   266k|    }
_ZN3scn2v36detail21expected_storage_baseINS0_11scan_resultINS0_6ranges6detail9subrange_8subrangeIPKcS9_EEJNSt3__117basic_string_viewIcNSB_11char_traitsIcEEEEEEENS0_10scan_errorELb1EEC2IJSG_EvEENSB_10in_place_tEDpOT_:
  435|   266k|        : m_value(std::forward<Args>(args)...), m_has_value(true)
  436|   266k|    {
  437|   266k|    }
_ZN3scn2v36detail14scan_arg_storeINS0_18basic_scan_contextIcEEJNSt3__117basic_string_viewIcNS5_11char_traitsIcEEEEEE4argsEv:
 5383|   241k|    {
 5384|   241k|        return m_args;
 5385|   241k|    }
_ZN3scn2v324basic_scan_format_stringIcNS0_6ranges6detail9subrange_8subrangeIPKcS7_EEJNSt3__117basic_string_viewIcNS9_11char_traitsIcEEEEEEC2ENS0_6detail27basic_runtime_format_stringIcEE:
 7979|   241k|        : m_str(r.str)
 7980|   241k|    {
 7981|   241k|    }
_ZNK3scn2v38expectedINS0_11scan_resultINS0_6ranges6detail9subrange_8subrangeIPKcS8_EEJNSt3__117basic_string_viewIcNSA_11char_traitsIcEEEEEEENS0_10scan_errorEEcvbEv:
 1597|   296k|    {
 1598|   296k|        return has_value();
 1599|   296k|    }
_ZNK3scn2v36detail21expected_storage_baseINS0_11scan_resultINS0_6ranges6detail9subrange_8subrangeIPKcS9_EEJNSt3__117basic_string_viewIcNSB_11char_traitsIcEEEEEEENS0_10scan_errorELb1EE9has_valueEv:
  484|   563k|    {
  485|   563k|        return m_has_value;
  486|   563k|    }
_ZN3scn2v38expectedINS0_11scan_resultINS0_6ranges6detail9subrange_8subrangeIPKcS8_EEJNSt3__117basic_string_viewIcNSA_11char_traitsIcEEEEEEENS0_10scan_errorEEptEv:
 1672|   266k|    {
 1673|   266k|        return &value();
 1674|   266k|    }
_ZNR3scn2v38expectedINS0_11scan_resultINS0_6ranges6detail9subrange_8subrangeIPKcS8_EEJNSt3__117basic_string_viewIcNSA_11char_traitsIcEEEEEEENS0_10scan_errorEE5valueISF_TnPNSA_9enable_ifIXntsr3stdE9is_void_vIT_EEvE4typeELPv0EEERSK_v:
 1626|   266k|    {
 1627|   266k|        SCN_EXPECT(has_value());
  ------------------
  |  |  924|   266k|#define SCN_EXPECT(cond) SCN_ASSERT(cond, "Precondition violation")
  |  |  ------------------
  |  |  |  |  921|   266k|#define SCN_ASSERT(cond, msg) assert((cond) && msg)
  |  |  ------------------
  ------------------
 1628|   266k|        return this->get_value();
 1629|   266k|    }
_ZNR3scn2v36detail21expected_storage_baseINS0_11scan_resultINS0_6ranges6detail9subrange_8subrangeIPKcS9_EEJNSt3__117basic_string_viewIcNSB_11char_traitsIcEEEEEEENS0_10scan_errorELb1EE9get_valueEv:
  450|   266k|    {
  451|   266k|        return m_value;
  452|   266k|    }
_ZN3scn2v34scanIJNSt3__117basic_string_viewIcNS2_11char_traitsIcEEEEENS2_6localeENS0_6ranges6detail9subrange_8subrangeIPKcSD_EEvvEENS0_13scan_expectedINS0_11scan_resultINS2_11conditionalIXsr3stdE9is_same_vIu11__remove_cvIu20__remove_reference_tIT1_EEP8_IO_FILEEESM_NS0_6detail22borrowed_tail_subrangeISI_Xsr6rangesE14borrowed_rangeISI_EEE4typeEE4typeEJDpT_EEEEERKT0_OSI_NS0_24basic_scan_format_stringIcNSN_13type_identityISI_E4typeEJDpNS12_IST_E4typeEEEE:
 8943|   120k|{
 8944|   120k|    auto args = make_scan_args<scan_context, Args...>();
 8945|   120k|    auto result = vscan(loc, SCN_FWD(source), format, args);
  ------------------
  |  |  930|   120k|#define SCN_FWD(x)          static_cast<decltype(x)&&>(x)
  ------------------
 8946|   120k|    return make_scan_result(SCN_MOVE(result), SCN_MOVE(args.args()));
  ------------------
  |  |  928|   120k|    static_cast<    \
  |  |  929|   120k|        typename ::scn::detail::remove_reference<decltype(x)>::type&&>(x)
  ------------------
                  return make_scan_result(SCN_MOVE(result), SCN_MOVE(args.args()));
  ------------------
  |  |  928|   120k|    static_cast<    \
  |  |  929|   120k|        typename ::scn::detail::remove_reference<decltype(x)>::type&&>(x)
  ------------------
 8947|   120k|}
_ZN3scn2v310scan_valueINSt3__117basic_string_viewIcNS2_11char_traitsIcEEEENS0_6ranges6detail9subrange_8subrangeIPKcSC_EEvEENS0_13scan_expectedINS0_11scan_resultINS2_11conditionalIXsr3stdE9is_same_vIu11__remove_cvIu20__remove_reference_tIT0_EEP8_IO_FILEEESL_NS0_6detail22borrowed_tail_subrangeISH_Xsr6rangesE14borrowed_rangeISH_EEE4typeEE4typeEJT_EEEEEOSH_:
 8982|  55.1k|{
 8983|  55.1k|    T value;
 8984|  55.1k|    auto arg = detail::make_arg<scan_context>(value);
 8985|  55.1k|    SCN_TRY(it, vscan_value(SCN_FWD(source), arg));
  ------------------
  |  | 3668|  55.1k|#define SCN_TRY(name, x) SCN_TRY_ASSIGN(auto name, x)
  |  |  ------------------
  |  |  |  | 3663|  55.1k|    auto&& SCN_TRY_TMP = (x);                          \
  |  |  |  | 3664|  55.1k|    if (SCN_UNLIKELY(!SCN_TRY_TMP)) {                  \
  |  |  |  |  ------------------
  |  |  |  |  |  |  859|  55.1k|#define SCN_UNLIKELY(x) __builtin_expect(!!(x), 0)
  |  |  |  |  |  |  ------------------
  |  |  |  |  |  |  |  Branch (859:25): [True: 2.34k, False: 52.8k]
  |  |  |  |  |  |  ------------------
  |  |  |  |  ------------------
  |  |  |  | 3665|  2.34k|        return ::scn::unexpected(SCN_TRY_TMP.error()); \
  |  |  |  |  ------------------
  |  |  |  |  |  | 3660|  2.34k|#define SCN_TRY_TMP                SCN_TRY_IMPL_CONCAT2(_scn_try_tmp_, __LINE__)
  |  |  |  |  |  |  ------------------
  |  |  |  |  |  |  |  | 3659|  2.34k|#define SCN_TRY_IMPL_CONCAT2(a, b) SCN_TRY_IMPL_CONCAT(a, b)
  |  |  |  |  |  |  |  |  ------------------
  |  |  |  |  |  |  |  |  |  | 3658|  2.34k|#define SCN_TRY_IMPL_CONCAT(a, b)  a##b
  |  |  |  |  |  |  |  |  ------------------
  |  |  |  |  |  |  ------------------
  |  |  |  |  ------------------
  |  |  |  | 3666|  2.34k|    }                                                  \
  |  |  |  | 3667|  55.1k|    init = *SCN_FWD(SCN_TRY_TMP);
  |  |  |  |  ------------------
  |  |  |  |  |  |  930|  52.8k|#define SCN_FWD(x)          static_cast<decltype(x)&&>(x)
  |  |  |  |  ------------------
  |  |  ------------------
  ------------------
 8986|  52.8k|    return scan_result{SCN_MOVE(it), std::tuple{SCN_MOVE(value)}};
  ------------------
  |  |  928|  52.8k|    static_cast<    \
  |  |  929|  52.8k|        typename ::scn::detail::remove_reference<decltype(x)>::type&&>(x)
  ------------------
                  return scan_result{SCN_MOVE(it), std::tuple{SCN_MOVE(value)}};
  ------------------
  |  |  928|  52.8k|    static_cast<    \
  |  |  929|  52.8k|        typename ::scn::detail::remove_reference<decltype(x)>::type&&>(x)
  ------------------
 8987|  55.1k|}
_ZN3scn2v36detail8make_argINS0_18basic_scan_contextIcEENSt3__117basic_string_viewIcNS5_11char_traitsIcEEEEEENS0_14basic_scan_argIT_EERT0_:
 5164|  55.1k|{
 5165|  55.1k|    check_scan_arg_types<T>();
 5166|       |
 5167|  55.1k|    basic_scan_arg<Context> arg;
 5168|  55.1k|    arg.m_type = mapped_type_constant<T, typename Context::char_type>::value;
 5169|  55.1k|    arg.m_value = make_value<Context>(value);
 5170|  55.1k|    return arg;
 5171|  55.1k|}
_ZNK3scn2v36ranges6detail6begin_2fnclIRKNSt3__15dequeIcNS6_9allocatorIcEEEEEEDTclsr2fnE4implscDtfp_Efp_tlNS0_6detail12priority_tagILm3EEEEEEOT_:
 2723|  30.4k|    {
 2724|  30.4k|        return fn::impl(SCN_FWD(t), priority_tag<3>{});
  ------------------
  |  |  930|  30.4k|#define SCN_FWD(x)          static_cast<decltype(x)&&>(x)
  ------------------
 2725|  30.4k|    }
_ZN3scn2v36ranges6detail6begin_2fn4implIRKNSt3__15dequeIcNS6_9allocatorIcEEEEEENS6_9enable_ifIX24input_or_output_iteratorIDTcl10decay_copycldtscDtfp_Efp_5beginEEEEESF_E4typeEOT_NS0_6detail12priority_tagILm1EEE:
 2704|  30.4k|    {
 2705|  30.4k|        return decay_copy(t.begin());
 2706|  30.4k|    }
_ZN3scn2v36ranges6detail10decay_copyINSt3__116__deque_iteratorIcPKcRS6_PKS7_lLl4096EEEEEu7__decayIT_EOSC_:
 1948|  14.8M|{
 1949|  14.8M|    return SCN_FWD(t);
  ------------------
  |  |  930|  14.8M|#define SCN_FWD(x)          static_cast<decltype(x)&&>(x)
  ------------------
 1950|  14.8M|}
_ZNK3scn2v36ranges6detail4end_2fnclIRKNSt3__15dequeIcNS6_9allocatorIcEEEEEEDTclsr2fnE4implscDtfp_Efp_tlNS0_6detail12priority_tagILm3EEEEEEOT_:
 2780|   710k|    {
 2781|   710k|        return fn::impl(SCN_FWD(t), priority_tag<3>{});
  ------------------
  |  |  930|   710k|#define SCN_FWD(x)          static_cast<decltype(x)&&>(x)
  ------------------
 2782|   710k|    }
_ZN3scn2v36ranges6detail4end_2fn4implIRKNSt3__15dequeIcNS6_9allocatorIcEEEENS6_16__deque_iteratorIcPKcRSE_PKSF_lLl4096EEESJ_EENS6_9enable_ifIX12sentinel_forIT0_T1_EEDTcl10decay_copycldtscDtfp_Efp_3endEEEE4typeEOT_NS0_6detail12priority_tagILm1EEE:
 2762|   710k|    {
 2763|   710k|        return decay_copy(SCN_FWD(t).end());
  ------------------
  |  |  930|   710k|#define SCN_FWD(x)          static_cast<decltype(x)&&>(x)
  ------------------
 2764|   710k|    }
_ZN3scn2v34scanIJNSt3__112basic_stringIcNS2_11char_traitsIcEENS2_9allocatorIcEEEEENS0_6ranges6detail9subrange_8subrangeINS2_16__deque_iteratorIcPKcRSE_PKSF_lLl4096EEESJ_EEvEENS0_13scan_expectedINS0_11scan_resultINS2_11conditionalIXsr3stdE9is_same_vIu11__remove_cvIu20__remove_reference_tIT0_EEP8_IO_FILEEESS_NS0_6detail22borrowed_tail_subrangeISO_Xsr6rangesE14borrowed_rangeISO_EEE4typeEE4typeEJDpT_EEEEEOSO_NS0_24basic_scan_format_stringIcNST_13type_identityISO_E4typeEJDpNS15_ISZ_E4typeEEEE:
 8876|   144k|{
 8877|   144k|    auto args = make_scan_args<scan_context, Args...>();
 8878|   144k|    auto result = vscan(SCN_FWD(source), format, args);
  ------------------
  |  |  930|   144k|#define SCN_FWD(x)          static_cast<decltype(x)&&>(x)
  ------------------
 8879|   144k|    return make_scan_result(SCN_MOVE(result), SCN_MOVE(args.args()));
  ------------------
  |  |  928|   144k|    static_cast<    \
  |  |  929|   144k|        typename ::scn::detail::remove_reference<decltype(x)>::type&&>(x)
  ------------------
                  return make_scan_result(SCN_MOVE(result), SCN_MOVE(args.args()));
  ------------------
  |  |  928|   144k|    static_cast<    \
  |  |  929|   144k|        typename ::scn::detail::remove_reference<decltype(x)>::type&&>(x)
  ------------------
 8880|   144k|}
_ZN3scn2v35vscanINS0_6ranges6detail9subrange_8subrangeINSt3__116__deque_iteratorIcPKcRS8_PKS9_lLl4096EEESD_EEEENS0_13scan_expectedINS6_11conditionalIXsr3stdE9is_same_vIu11__remove_cvIu20__remove_reference_tIT_EEP8_IO_FILEEESL_NS0_6detail22borrowed_tail_subrangeISH_Xsr6rangesE14borrowed_rangeISH_EEE4typeEE4typeEEEOSH_NS6_17basic_string_viewIcNS6_11char_traitsIcEEEENS0_15basic_scan_argsINS0_18basic_scan_contextIcEEEE:
 8663|   144k|{
 8664|   144k|    return detail::vscan_generic(SCN_FWD(source), format, args);
  ------------------
  |  |  930|   144k|#define SCN_FWD(x)          static_cast<decltype(x)&&>(x)
  ------------------
 8665|   144k|}
_ZN3scn2v36detail13vscan_genericINS0_6ranges6detail9subrange_8subrangeINSt3__116__deque_iteratorIcPKcRS9_PKSA_lLl4096EEESE_EEcEENS0_13scan_expectedINS7_11conditionalIXsr3stdE9is_same_vIu11__remove_cvIu20__remove_reference_tIT_EEP8_IO_FILEEESM_NS1_22borrowed_tail_subrangeISI_Xsr6rangesE14borrowed_rangeISI_EEE4typeEE4typeEEEOSI_NS7_17basic_string_viewIT0_NS7_11char_traitsISV_EEEENS0_15basic_scan_argsINS0_18basic_scan_contextISV_EEEE:
 8600|   144k|{
 8601|   144k|    auto buffer = make_scan_buffer(range);
 8602|       |
 8603|   144k|    auto result = vscan_impl(buffer, format, args);
 8604|   144k|    if (SCN_UNLIKELY(!result)) {
  ------------------
  |  |  859|   144k|#define SCN_UNLIKELY(x) __builtin_expect(!!(x), 0)
  |  |  ------------------
  |  |  |  Branch (859:25): [True: 14.0k, False: 130k]
  |  |  ------------------
  ------------------
 8605|  14.0k|        return unexpected(result.error());
 8606|  14.0k|    }
 8607|   130k|    return make_vscan_result_range(SCN_FWD(range), *result);
  ------------------
  |  |  930|   130k|#define SCN_FWD(x)          static_cast<decltype(x)&&>(x)
  ------------------
 8608|   144k|}
_ZN3scn2v36detail16make_scan_bufferINS0_6ranges6detail9subrange_8subrangeINSt3__116__deque_iteratorIcPKcRS9_PKSA_lLl4096EEESE_EEEEDaRKT_:
 4728|   355k|{
 4729|   355k|    using T = decltype(_make_scan_buffer::impl(range, priority_tag<4>{}));
 4730|       |
 4731|   355k|    static_assert(!std::is_same_v<T, invalid_char_type>,
 4732|   355k|                  "\n"
 4733|   355k|                  "Unsupported range type given as input to a scanning "
 4734|   355k|                  "function.\n"
 4735|   355k|                  "A range needs to have a character type (value type) "
 4736|   355k|                  "of either `char` or `wchar_t` to be scannable.\n"
 4737|   355k|                  "For proper `wchar_t` support, <scn/xchar.h> needs "
 4738|   355k|                  "to be included.\n"
 4739|   355k|                  "See the scnlib documentation for more details.");
 4740|   355k|    static_assert(
 4741|   355k|        !std::is_same_v<T, custom_char_traits>,
 4742|   355k|        "\n"
 4743|   355k|        "Unsupported range type given as input to a scanning "
 4744|   355k|        "function.\n"
 4745|   355k|        "String types (std::basic_string, and std::basic_string_view) "
 4746|   355k|        "need to use std::char_traits. Strings with custom Traits are "
 4747|   355k|        "not supported.");
 4748|   355k|    static_assert(!std::is_same_v<T, file_marker_found>,
 4749|   355k|                  "\n"
 4750|   355k|                  "Unsupported range type given as input to a scanning "
 4751|   355k|                  "function.\n"
 4752|   355k|                  "file_marker_found cannot be used as an "
 4753|   355k|                  "source range type to scn::scan.\n"
 4754|   355k|                  "To read from stdin, use scn::input or scn::prompt, "
 4755|   355k|                  "and do not provide an explicit source range, "
 4756|   355k|                  "or use scn::scan with a FILE* directly.");
 4757|   355k|    static_assert(!std::is_same_v<T, insufficient_range>,
 4758|   355k|                  "\n"
 4759|   355k|                  "Unsupported range type given as input to a scanning "
 4760|   355k|                  "function.\n"
 4761|   355k|                  "In order to be scannable, a range needs to satisfy "
 4762|   355k|                  "`forward_range`. `input_range` is not sufficient.");
 4763|   355k|    static_assert(!std::is_same_v<T, invalid_input_range>,
 4764|   355k|                  "\n"
 4765|   355k|                  "Unsupported range type given as input to a scanning "
 4766|   355k|                  "function.\n"
 4767|   355k|                  "A range needs to model forward_range and have a valid "
 4768|   355k|                  "character type (char or wchar_t) to be scannable.\n"
 4769|   355k|                  "Examples of scannable ranges are std::string, "
 4770|   355k|                  "std::string_view, "
 4771|   355k|                  "std::vector<char>, and scn::istreambuf_view.\n"
 4772|   355k|                  "See the scnlib documentation for more details.");
 4773|       |
 4774|   355k|    return _make_scan_buffer::impl(range, priority_tag<4>{});
 4775|   355k|}
_ZN3scn2v36detail17_make_scan_buffer4implINS0_6ranges6detail9subrange_8subrangeINSt3__116__deque_iteratorIcPKcRSA_PKSB_lLl4096EEESF_EEEEDaRKT_NS1_12priority_tagILm0EEE:
 4698|   355k|{
 4699|       |    if constexpr (std::is_same_v<Range, file_marker>) {
 4700|       |        return file_marker_found{};
 4701|       |    }
 4702|       |    else if constexpr (!ranges::forward_range<Range>) {
 4703|       |        if constexpr (ranges::range<Range>) {
 4704|       |            return insufficient_range{};
 4705|       |        }
 4706|       |        else {
 4707|       |            return invalid_input_range{};
 4708|       |        }
 4709|       |    }
 4710|       |    else if constexpr (!is_valid_char_type<detail::char_t<Range>>) {
 4711|       |        return invalid_char_type{};
 4712|       |    }
 4713|   355k|    else {
 4714|   355k|        return make_forward_scan_buffer(r);
 4715|   355k|    }
 4716|   355k|}
_ZN3scn2v36detail24make_forward_scan_bufferINS0_6ranges6detail9subrange_8subrangeINSt3__116__deque_iteratorIcPKcRS9_PKSA_lLl4096EEESE_EEEEDaRKT_:
 4532|   355k|{
 4533|   355k|    return basic_scan_forward_buffer_impl(range);
 4534|   355k|}
_ZN3scn2v36detail30basic_scan_forward_buffer_implINS0_6ranges6detail9subrange_8subrangeINSt3__116__deque_iteratorIcPKcRS9_PKSA_lLl4096EEESE_EEEC2IRKSF_TnPNS7_9enable_ifIXaa11is_not_selfIT_SG_Esr3stdE16is_convertible_vISL_SJ_EEvE4typeELPv0EEEOSL_:
 4417|   355k|        : m_range(std::addressof(static_cast<const Range&>(SCN_FWD(r)))),
  ------------------
  |  |  930|   355k|#define SCN_FWD(x)          static_cast<decltype(x)&&>(x)
  ------------------
 4418|   355k|          m_cursor(ranges::begin(*m_range))
 4419|   355k|    {
 4420|   355k|    }
_ZN3scn2v36detail30basic_scan_forward_buffer_baseIcEC2Ev:
 4389|   355k|    basic_scan_forward_buffer_base() : base(typename base::non_contiguous_tag{})
 4390|   355k|    {
 4391|   355k|    }
_ZN3scn2v36detail17basic_scan_bufferIcEC2ENS3_18non_contiguous_tagENSt3__117basic_string_viewIcNS5_11char_traitsIcEEEE:
 4157|   355k|        : m_current_view(sv), m_is_contiguous(false)
 4158|   355k|    {
 4159|   355k|    }
_ZN3scn2v36detail17basic_scan_bufferIcED2Ev:
 4073|   355k|    virtual ~basic_scan_buffer() = default;
_ZNK3scn2v36ranges6detail6begin_2fnclIRKNS2_9subrange_8subrangeINSt3__116__deque_iteratorIcPKcRSA_PKSB_lLl4096EEESF_EEEEDTclsr2fnE4implscDtfp_Efp_tlNS0_6detail12priority_tagILm3EEEEEEOT_:
 2723|   680k|    {
 2724|   680k|        return fn::impl(SCN_FWD(t), priority_tag<3>{});
  ------------------
  |  |  930|   680k|#define SCN_FWD(x)          static_cast<decltype(x)&&>(x)
  ------------------
 2725|   680k|    }
_ZN3scn2v36ranges6detail6begin_2fn4implIRKNS2_9subrange_8subrangeINSt3__116__deque_iteratorIcPKcRSA_PKSB_lLl4096EEESF_EEEENS8_9enable_ifIX24input_or_output_iteratorIDTcl10decay_copycldtscDtfp_Efp_5beginEEEEESL_E4typeEOT_NS0_6detail12priority_tagILm1EEE:
 2704|   680k|    {
 2705|   680k|        return decay_copy(t.begin());
 2706|   680k|    }
_ZNK3scn2v36ranges6detail9subrange_8subrangeINSt3__116__deque_iteratorIcPKcRS7_PKS8_lLl4096EEESC_E5beginEv:
 3325|  1.00M|    {
 3326|  1.00M|        return m_iterator;
 3327|  1.00M|    }
_ZN3scn2v36detail30basic_scan_forward_buffer_implINS0_6ranges6detail9subrange_8subrangeINSt3__116__deque_iteratorIcPKcRS9_PKSA_lLl4096EEESE_EEE4fillEv:
 4423|  4.27M|    {
 4424|  4.27M|        if (m_cursor == ranges::end(*m_range)) {
  ------------------
  |  Branch (4424:13): [True: 37.1k, False: 4.24M]
  ------------------
 4425|  37.1k|            return false;
 4426|  37.1k|        }
 4427|  4.24M|        if constexpr (mp_valid_v<less_than_compare, iterator, sentinel>) {
 4428|  4.24M|            SCN_EXPECT(m_cursor < ranges::end(*m_range));
  ------------------
  |  |  924|  4.24M|#define SCN_EXPECT(cond) SCN_ASSERT(cond, "Precondition violation")
  |  |  ------------------
  |  |  |  |  921|  4.24M|#define SCN_ASSERT(cond, msg) assert((cond) && msg)
  |  |  ------------------
  ------------------
 4429|  4.24M|        }
 4430|  4.24M|        if (!this->m_current_view.empty()) {
  ------------------
  |  Branch (4430:13): [True: 3.90M, False: 338k]
  ------------------
 4431|  3.90M|            this->m_putback_buffer.insert(this->m_putback_buffer.end(),
 4432|  3.90M|                                          this->m_current_view.begin(),
 4433|  3.90M|                                          this->m_current_view.end());
 4434|  3.90M|        }
 4435|  4.24M|        m_latest = *m_cursor;
 4436|  4.24M|        ++m_cursor;
 4437|  4.24M|        this->m_current_view = std::basic_string_view<char_type>{&m_latest, 1};
 4438|  4.24M|        if constexpr (mp_valid_v<less_than_compare, iterator, sentinel>) {
 4439|  4.24M|            SCN_EXPECT(m_cursor <= ranges::end(*m_range));
  ------------------
  |  |  924|  4.24M|#define SCN_EXPECT(cond) SCN_ASSERT(cond, "Precondition violation")
  |  |  ------------------
  |  |  |  |  921|  4.24M|#define SCN_ASSERT(cond, msg) assert((cond) && msg)
  |  |  ------------------
  ------------------
 4440|  4.24M|        }
 4441|  4.24M|        return true;
 4442|  4.27M|    }
_ZNK3scn2v36ranges6detail4end_2fnclIRKNS2_9subrange_8subrangeINSt3__116__deque_iteratorIcPKcRSA_PKSB_lLl4096EEESF_EEEEDTclsr2fnE4implscDtfp_Efp_tlNS0_6detail12priority_tagILm3EEEEEEOT_:
 2780|  12.7M|    {
 2781|  12.7M|        return fn::impl(SCN_FWD(t), priority_tag<3>{});
  ------------------
  |  |  930|  12.7M|#define SCN_FWD(x)          static_cast<decltype(x)&&>(x)
  ------------------
 2782|  12.7M|    }
_ZN3scn2v36ranges6detail4end_2fn4implIRKNS2_9subrange_8subrangeINSt3__116__deque_iteratorIcPKcRSA_PKSB_lLl4096EEESF_EESF_SF_EENS8_9enable_ifIX12sentinel_forIT0_T1_EEDTcl10decay_copycldtscDtfp_Efp_3endEEEE4typeEOT_NS0_6detail12priority_tagILm1EEE:
 2762|  12.7M|    {
 2763|  12.7M|        return decay_copy(SCN_FWD(t).end());
  ------------------
  |  |  930|  12.7M|#define SCN_FWD(x)          static_cast<decltype(x)&&>(x)
  ------------------
 2764|  12.7M|    }
_ZNK3scn2v36ranges6detail9subrange_8subrangeINSt3__116__deque_iteratorIcPKcRS7_PKS8_lLl4096EEESC_E3endEv:
 3329|  13.0M|    {
 3330|  13.0M|        return m_sentinel;
 3331|  13.0M|    }
_ZN3scn2v36detail17basic_scan_bufferIcE4syncEl:
 4078|   355k|    {
 4079|   355k|        SCN_UNUSED(position);
  ------------------
  |  |  909|   355k|#define SCN_UNUSED(x) static_cast<void>(sizeof(x))
  ------------------
 4080|   355k|    }
_ZN3scn2v38expectedINS0_6ranges6detail9subrange_8subrangeINSt3__116__deque_iteratorIcPKcRS8_PKS9_lLl4096EEESD_EENS0_10scan_errorEEC2ISF_TnPNS6_9enable_ifIXsr3stdE18is_constructible_vISF_OT_EEvE4typeELPv0ETnPNSI_IXsr3stdE16is_convertible_vISK_SF_EEvE4typeELSO_0EEEONS0_10unexpectedISJ_EE:
 1473|  30.4k|        : base(unexpect, std::move(e.error())),
 1474|  30.4k|          ctor_base(detail::non_default_ctor_tag_t{})
 1475|  30.4k|    {
 1476|  30.4k|    }
_ZN3scn2v36detail21expected_storage_baseINS0_6ranges6detail9subrange_8subrangeINSt3__116__deque_iteratorIcPKcRS9_PKSA_lLl4096EEESE_EENS0_10scan_errorELb1EEC2IJSG_EvEENS0_10unexpect_tEDpOT_:
  444|  30.4k|        : m_unexpected(std::in_place, std::forward<Args>(args)...),
  445|  30.4k|          m_has_value(false)
  446|  30.4k|    {
  447|  30.4k|    }
_ZN3scn2v36detail26expected_default_ctor_baseINS0_6ranges6detail9subrange_8subrangeINSt3__116__deque_iteratorIcPKcRS9_PKSA_lLl4096EEESE_EENS0_10scan_errorELb1EEC2ENS1_22non_default_ctor_tag_tE:
 1176|   355k|    {
 1177|   355k|    }
_ZN3scn2v36detail23make_vscan_result_rangeINS0_6ranges6detail9subrange_8subrangeINSt3__116__deque_iteratorIcPKcRS9_PKSA_lLl4096EEESE_EEEENS1_22borrowed_tail_subrangeIT_Xsr6rangesE14borrowed_rangeISH_EEE4typeEOSH_l:
 5932|   324k|{
 5933|       |    if constexpr (ranges::random_access_iterator<
 5934|   324k|                      ranges::iterator_t<SourceRange>>) {
 5935|   324k|        return {ranges::begin(source) + n, make_vscan_result_range_end(source)};
 5936|       |    }
 5937|       |    else {
 5938|       |        auto it = ranges::begin(source);
 5939|       |        while (n > 0) {
 5940|       |            --n;
 5941|       |            ++it;
 5942|       |        }
 5943|       |        return {SCN_MOVE(it), make_vscan_result_range_end(source)};
 5944|       |    }
 5945|   324k|}
_ZNK3scn2v36ranges6detail6begin_2fnclIRNS2_9subrange_8subrangeINSt3__116__deque_iteratorIcPKcRSA_PKSB_lLl4096EEESF_EEEEDTclsr2fnE4implscDtfp_Efp_tlNS0_6detail12priority_tagILm3EEEEEEOT_:
 2723|   324k|    {
 2724|   324k|        return fn::impl(SCN_FWD(t), priority_tag<3>{});
  ------------------
  |  |  930|   324k|#define SCN_FWD(x)          static_cast<decltype(x)&&>(x)
  ------------------
 2725|   324k|    }
_ZN3scn2v36ranges6detail6begin_2fn4implIRNS2_9subrange_8subrangeINSt3__116__deque_iteratorIcPKcRSA_PKSB_lLl4096EEESF_EEEENS8_9enable_ifIX24input_or_output_iteratorIDTcl10decay_copycldtscDtfp_Efp_5beginEEEEESK_E4typeEOT_NS0_6detail12priority_tagILm1EEE:
 2704|   324k|    {
 2705|   324k|        return decay_copy(t.begin());
 2706|   324k|    }
_ZN3scn2v36detail27make_vscan_result_range_endINS0_6ranges6detail9subrange_8subrangeINSt3__116__deque_iteratorIcPKcRS9_PKSA_lLl4096EEESE_EEEEDaRT_:
 5919|   324k|{
 5920|   324k|    return ranges::end(source);
 5921|   324k|}
_ZNK3scn2v36ranges6detail4end_2fnclIRNS2_9subrange_8subrangeINSt3__116__deque_iteratorIcPKcRSA_PKSB_lLl4096EEESF_EEEEDTclsr2fnE4implscDtfp_Efp_tlNS0_6detail12priority_tagILm3EEEEEEOT_:
 2780|   324k|    {
 2781|   324k|        return fn::impl(SCN_FWD(t), priority_tag<3>{});
  ------------------
  |  |  930|   324k|#define SCN_FWD(x)          static_cast<decltype(x)&&>(x)
  ------------------
 2782|   324k|    }
_ZN3scn2v36ranges6detail4end_2fn4implIRNS2_9subrange_8subrangeINSt3__116__deque_iteratorIcPKcRSA_PKSB_lLl4096EEESF_EESF_SF_EENS8_9enable_ifIX12sentinel_forIT0_T1_EEDTcl10decay_copycldtscDtfp_Efp_3endEEEE4typeEOT_NS0_6detail12priority_tagILm1EEE:
 2762|   324k|    {
 2763|   324k|        return decay_copy(SCN_FWD(t).end());
  ------------------
  |  |  930|   324k|#define SCN_FWD(x)          static_cast<decltype(x)&&>(x)
  ------------------
 2764|   324k|    }
_ZN3scn2v38expectedINS0_6ranges6detail9subrange_8subrangeINSt3__116__deque_iteratorIcPKcRS8_PKS9_lLl4096EEESD_EENS0_10scan_errorEEC2ISE_vEEOT_:
 1427|   324k|        : base(std::in_place, std::forward<U>(val)),
 1428|   324k|          ctor_base(detail::non_default_ctor_tag_t{})
 1429|   324k|    {
 1430|   324k|    }
_ZN3scn2v36detail21expected_storage_baseINS0_6ranges6detail9subrange_8subrangeINSt3__116__deque_iteratorIcPKcRS9_PKSA_lLl4096EEESE_EENS0_10scan_errorELb1EEC2IJSF_EvEENS7_10in_place_tEDpOT_:
  435|   324k|        : m_value(std::forward<Args>(args)...), m_has_value(true)
  436|   324k|    {
  437|   324k|    }
_ZNK3scn2v324basic_scan_format_stringIcNS0_6ranges6detail9subrange_8subrangeINSt3__116__deque_iteratorIcPKcRS8_PKS9_lLl4096EEESD_EEJNS6_12basic_stringIcNS6_11char_traitsIcEENS6_9allocatorIcEEEEEEcvNS6_17basic_string_viewIcSH_EEEv:
 7984|   288k|    {
 7985|   288k|        return m_str;
 7986|   288k|    }
_ZN3scn2v316make_scan_resultINS0_6ranges6detail9subrange_8subrangeINSt3__116__deque_iteratorIcPKcRS8_PKS9_lLl4096EEESD_EEJNS6_12basic_stringIcNS6_11char_traitsIcEENS6_9allocatorIcEEEEEEENS0_13scan_expectedINS0_11scan_resultIT_JDpT0_EEEEEONSL_ISN_EEONS6_5tupleIJSP_EEE:
 8829|   288k|{
 8830|   288k|    if (SCN_UNLIKELY(!result)) {
  ------------------
  |  |  859|   288k|#define SCN_UNLIKELY(x) __builtin_expect(!!(x), 0)
  |  |  ------------------
  |  |  |  Branch (859:25): [True: 28.0k, False: 260k]
  |  |  ------------------
  ------------------
 8831|  28.0k|        return unexpected(result.error());
 8832|  28.0k|    }
 8833|   260k|    return scan_result{SCN_MOVE(*result), SCN_MOVE(args)};
  ------------------
  |  |  928|   260k|    static_cast<    \
  |  |  929|   260k|        typename ::scn::detail::remove_reference<decltype(x)>::type&&>(x)
  ------------------
                  return scan_result{SCN_MOVE(*result), SCN_MOVE(args)};
  ------------------
  |  |  928|   260k|    static_cast<    \
  |  |  929|   260k|        typename ::scn::detail::remove_reference<decltype(x)>::type&&>(x)
  ------------------
 8834|   288k|}
_ZNK3scn2v38expectedINS0_6ranges6detail9subrange_8subrangeINSt3__116__deque_iteratorIcPKcRS8_PKS9_lLl4096EEESD_EENS0_10scan_errorEEcvbEv:
 1597|   355k|    {
 1598|   355k|        return has_value();
 1599|   355k|    }
_ZNK3scn2v36detail21expected_storage_baseINS0_6ranges6detail9subrange_8subrangeINSt3__116__deque_iteratorIcPKcRS9_PKSA_lLl4096EEESE_EENS0_10scan_errorELb1EE9has_valueEv:
  484|   710k|    {
  485|   710k|        return m_has_value;
  486|   710k|    }
_ZNR3scn2v38expectedINS0_6ranges6detail9subrange_8subrangeINSt3__116__deque_iteratorIcPKcRS8_PKS9_lLl4096EEESD_EENS0_10scan_errorEE5errorEv:
 1603|  30.4k|    {
 1604|  30.4k|        SCN_EXPECT(!has_value());
  ------------------
  |  |  924|  30.4k|#define SCN_EXPECT(cond) SCN_ASSERT(cond, "Precondition violation")
  |  |  ------------------
  |  |  |  |  921|  30.4k|#define SCN_ASSERT(cond, msg) assert((cond) && msg)
  |  |  ------------------
  ------------------
 1605|  30.4k|        return this->get_unexpected().error();
 1606|  30.4k|    }
_ZNR3scn2v36detail21expected_storage_baseINS0_6ranges6detail9subrange_8subrangeINSt3__116__deque_iteratorIcPKcRS9_PKSA_lLl4096EEESE_EENS0_10scan_errorELb1EE14get_unexpectedEv:
  467|  30.4k|    {
  468|  30.4k|        return m_unexpected;
  469|  30.4k|    }
_ZN3scn2v38expectedINS0_11scan_resultINS0_6ranges6detail9subrange_8subrangeINSt3__116__deque_iteratorIcPKcRS9_PKSA_lLl4096EEESE_EEJNS7_12basic_stringIcNS7_11char_traitsIcEENS7_9allocatorIcEEEEEEENS0_10scan_errorEEC2ISN_TnPNS7_9enable_ifIXsr3stdE18is_constructible_vISN_OT_EEvE4typeELPv0ETnPNSQ_IXsr3stdE16is_convertible_vISS_SN_EEvE4typeELSW_0EEEONS0_10unexpectedISR_EE:
 1473|  30.4k|        : base(unexpect, std::move(e.error())),
 1474|  30.4k|          ctor_base(detail::non_default_ctor_tag_t{})
 1475|  30.4k|    {
 1476|  30.4k|    }
_ZN3scn2v36detail21expected_storage_baseINS0_11scan_resultINS0_6ranges6detail9subrange_8subrangeINSt3__116__deque_iteratorIcPKcRSA_PKSB_lLl4096EEESF_EEJNS8_12basic_stringIcNS8_11char_traitsIcEENS8_9allocatorIcEEEEEEENS0_10scan_errorELb0EEC2IJSO_EvEENS0_10unexpect_tEDpOT_:
  624|  30.4k|        : m_has_value(false)
  625|  30.4k|    {
  626|  30.4k|        construct_unexpected(std::in_place, std::forward<Args>(args)...);
  627|  30.4k|    }
_ZN3scn2v36detail21expected_storage_baseINS0_11scan_resultINS0_6ranges6detail9subrange_8subrangeINSt3__116__deque_iteratorIcPKcRSA_PKSB_lLl4096EEESF_EEJNS8_12basic_stringIcNS8_11char_traitsIcEENS8_9allocatorIcEEEEEEENS0_10scan_errorELb0EE20construct_unexpectedIJRKNS8_10in_place_tESO_EEEvDpOT_:
  688|  30.4k|    {
  689|  30.4k|        scn::detail::construct_at(unexpected_ptr(),
  690|  30.4k|                                  std::forward<Args>(args)...);
  691|  30.4k|        m_has_value = false;
  692|  30.4k|    }
_ZN3scn2v36detail21expected_storage_baseINS0_11scan_resultINS0_6ranges6detail9subrange_8subrangeINSt3__116__deque_iteratorIcPKcRSA_PKSB_lLl4096EEESF_EEJNS8_12basic_stringIcNS8_11char_traitsIcEENS8_9allocatorIcEEEEEEENS0_10scan_errorELb0EE14unexpected_ptrEv:
  717|  60.8k|    {
  718|  60.8k|        return reinterpret_cast<unexpected<E>*>(
  719|  60.8k|            SCN_ASSUME_ALIGNED(m_memory, alignof(unexpected<E>)));
  ------------------
  |  |  894|  60.8k|#define SCN_ASSUME_ALIGNED(x, n) __builtin_assume_aligned(x, n)
  ------------------
  720|  60.8k|    }
_ZN3scn2v36detail26expected_default_ctor_baseINS0_11scan_resultINS0_6ranges6detail9subrange_8subrangeINSt3__116__deque_iteratorIcPKcRSA_PKSB_lLl4096EEESF_EEJNS8_12basic_stringIcNS8_11char_traitsIcEENS8_9allocatorIcEEEEEEENS0_10scan_errorELb1EEC2ENS1_22non_default_ctor_tag_tE:
 1176|   355k|    {
 1177|   355k|    }
_ZNR3scn2v38expectedINS0_6ranges6detail9subrange_8subrangeINSt3__116__deque_iteratorIcPKcRS8_PKS9_lLl4096EEESD_EENS0_10scan_errorEEdeISE_TnPNS6_9enable_ifIXntsr3stdE9is_void_vIT_EEvE4typeELPv0EEERSJ_v:
 1652|   260k|    {
 1653|   260k|        return value();
 1654|   260k|    }
_ZNR3scn2v38expectedINS0_6ranges6detail9subrange_8subrangeINSt3__116__deque_iteratorIcPKcRS8_PKS9_lLl4096EEESD_EENS0_10scan_errorEE5valueISE_TnPNS6_9enable_ifIXntsr3stdE9is_void_vIT_EEvE4typeELPv0EEERSJ_v:
 1626|   324k|    {
 1627|   324k|        SCN_EXPECT(has_value());
  ------------------
  |  |  924|   324k|#define SCN_EXPECT(cond) SCN_ASSERT(cond, "Precondition violation")
  |  |  ------------------
  |  |  |  |  921|   324k|#define SCN_ASSERT(cond, msg) assert((cond) && msg)
  |  |  ------------------
  ------------------
 1628|   324k|        return this->get_value();
 1629|   324k|    }
_ZNR3scn2v36detail21expected_storage_baseINS0_6ranges6detail9subrange_8subrangeINSt3__116__deque_iteratorIcPKcRS9_PKSA_lLl4096EEESE_EENS0_10scan_errorELb1EE9get_valueEv:
  450|   324k|    {
  451|   324k|        return m_value;
  452|   324k|    }
_ZN3scn2v311scan_resultINS0_6ranges6detail9subrange_8subrangeINSt3__116__deque_iteratorIcPKcRS8_PKS9_lLl4096EEESD_EEJNS6_12basic_stringIcNS6_11char_traitsIcEENS6_9allocatorIcEEEEEEC2ESE_ONS6_5tupleIJSK_EEE:
 5838|   324k|        : range_base(SCN_MOVE(r)), value_base(SCN_MOVE(values))
  ------------------
  |  |  928|   324k|    static_cast<    \
  |  |  929|   324k|        typename ::scn::detail::remove_reference<decltype(x)>::type&&>(x)
  ------------------
                      : range_base(SCN_MOVE(r)), value_base(SCN_MOVE(values))
  ------------------
  |  |  928|   324k|    static_cast<    \
  |  |  929|   324k|        typename ::scn::detail::remove_reference<decltype(x)>::type&&>(x)
  ------------------
 5839|   324k|    {
 5840|   324k|    }
_ZN3scn2v36detail25scan_result_range_storageINS0_6ranges6detail9subrange_8subrangeINSt3__116__deque_iteratorIcPKcRS9_PKSA_lLl4096EEESE_EEEC2EOSF_:
 5689|   324k|    constexpr scan_result_range_storage(range_type&& r) : m_range(SCN_MOVE(r))
  ------------------
  |  |  928|   324k|    static_cast<    \
  |  |  929|   324k|        typename ::scn::detail::remove_reference<decltype(x)>::type&&>(x)
  ------------------
 5690|   324k|    {
 5691|   324k|    }
_ZN3scn2v38expectedINS0_11scan_resultINS0_6ranges6detail9subrange_8subrangeINSt3__116__deque_iteratorIcPKcRS9_PKSA_lLl4096EEESE_EEJNS7_12basic_stringIcNS7_11char_traitsIcEENS7_9allocatorIcEEEEEEENS0_10scan_errorEEC2ISM_vEEOT_:
 1427|   324k|        : base(std::in_place, std::forward<U>(val)),
 1428|   324k|          ctor_base(detail::non_default_ctor_tag_t{})
 1429|   324k|    {
 1430|   324k|    }
_ZN3scn2v36detail21expected_storage_baseINS0_11scan_resultINS0_6ranges6detail9subrange_8subrangeINSt3__116__deque_iteratorIcPKcRSA_PKSB_lLl4096EEESF_EEJNS8_12basic_stringIcNS8_11char_traitsIcEENS8_9allocatorIcEEEEEEENS0_10scan_errorELb0EEC2IJSN_EvEENS8_10in_place_tEDpOT_:
  614|   324k|        : m_has_value(true)
  615|   324k|    {
  616|   324k|        construct(std::forward<Args>(args)...);
  617|   324k|    }
_ZN3scn2v36detail21expected_storage_baseINS0_11scan_resultINS0_6ranges6detail9subrange_8subrangeINSt3__116__deque_iteratorIcPKcRSA_PKSB_lLl4096EEESF_EEJNS8_12basic_stringIcNS8_11char_traitsIcEENS8_9allocatorIcEEEEEEENS0_10scan_errorELb0EE9constructIJSN_EEEvDpOT_:
  681|   324k|    {
  682|   324k|        scn::detail::construct_at(value_ptr(), std::forward<Args>(args)...);
  683|   324k|        m_has_value = true;
  684|   324k|    }
_ZN3scn2v36detail12construct_atINS0_11scan_resultINS0_6ranges6detail9subrange_8subrangeINSt3__116__deque_iteratorIcPKcRSA_PKSB_lLl4096EEESF_EEJNS8_12basic_stringIcNS8_11char_traitsIcEENS8_9allocatorIcEEEEEEEJSN_EEEPT_SP_DpOT0_:
  391|   324k|{
  392|   324k|    return ::new (const_cast<void*>(static_cast<const volatile void*>(p)))
  393|   324k|        T(std::forward<Args>(args)...);
  394|   324k|}
_ZN3scn2v311scan_resultINS0_6ranges6detail9subrange_8subrangeINSt3__116__deque_iteratorIcPKcRS8_PKS9_lLl4096EEESD_EEJNS6_12basic_stringIcNS6_11char_traitsIcEENS6_9allocatorIcEEEEEEC2EOSL_:
 5831|   324k|    constexpr scan_result(scan_result&&) = default;
_ZN3scn2v36detail21expected_storage_baseINS0_11scan_resultINS0_6ranges6detail9subrange_8subrangeINSt3__116__deque_iteratorIcPKcRSA_PKSB_lLl4096EEESF_EEJNS8_12basic_stringIcNS8_11char_traitsIcEENS8_9allocatorIcEEEEEEENS0_10scan_errorELb0EE9value_ptrEv:
  705|   974k|    {
  706|   974k|        return reinterpret_cast<T*>(SCN_ASSUME_ALIGNED(m_memory, alignof(T)));
  ------------------
  |  |  894|   974k|#define SCN_ASSUME_ALIGNED(x, n) __builtin_assume_aligned(x, n)
  ------------------
  707|   974k|    }
_ZN3scn2v311scan_resultINS0_6ranges6detail9subrange_8subrangeINSt3__116__deque_iteratorIcPKcRS8_PKS9_lLl4096EEESD_EEJNS6_12basic_stringIcNS6_11char_traitsIcEENS6_9allocatorIcEEEEEED2Ev:
 5835|   649k|    ~scan_result() = default;
_ZN3scn2v36ranges6detail9subrange_8subrangeINSt3__116__deque_iteratorIcPKcRS7_PKS8_lLl4096EEESC_EC2ISC_TnPNS5_9enable_ifIXsr3stdE16is_convertible_vIT_SC_EEvE4typeELPv0EEESG_SC_:
 3310|   680k|        : m_iterator(SCN_MOVE(i)), m_sentinel(SCN_MOVE(s))
  ------------------
  |  |  928|   680k|    static_cast<    \
  |  |  929|   680k|        typename ::scn::detail::remove_reference<decltype(x)>::type&&>(x)
  ------------------
                      : m_iterator(SCN_MOVE(i)), m_sentinel(SCN_MOVE(s))
  ------------------
  |  |  928|   680k|    static_cast<    \
  |  |  929|   680k|        typename ::scn::detail::remove_reference<decltype(x)>::type&&>(x)
  ------------------
 3311|   680k|    {
 3312|   680k|    }
_ZN3scn2v324basic_scan_format_stringIcNS0_6ranges6detail9subrange_8subrangeINSt3__116__deque_iteratorIcPKcRS8_PKS9_lLl4096EEESD_EEJNS6_12basic_stringIcNS6_11char_traitsIcEENS6_9allocatorIcEEEEEEC2ENS0_6detail27basic_runtime_format_stringIcEE:
 7979|   288k|        : m_str(r.str)
 7980|   288k|    {
 7981|   288k|    }
_ZNK3scn2v38expectedINS0_11scan_resultINS0_6ranges6detail9subrange_8subrangeINSt3__116__deque_iteratorIcPKcRS9_PKSA_lLl4096EEESE_EEJNS7_12basic_stringIcNS7_11char_traitsIcEENS7_9allocatorIcEEEEEEENS0_10scan_errorEEcvbEv:
 1597|   355k|    {
 1598|   355k|        return has_value();
 1599|   355k|    }
_ZNK3scn2v36detail21expected_storage_baseINS0_11scan_resultINS0_6ranges6detail9subrange_8subrangeINSt3__116__deque_iteratorIcPKcRSA_PKSB_lLl4096EEESF_EEJNS8_12basic_stringIcNS8_11char_traitsIcEENS8_9allocatorIcEEEEEEENS0_10scan_errorELb0EE9has_valueEv:
  674|  1.03M|    {
  675|  1.03M|        return m_has_value;
  676|  1.03M|    }
_ZN3scn2v38expectedINS0_11scan_resultINS0_6ranges6detail9subrange_8subrangeINSt3__116__deque_iteratorIcPKcRS9_PKSA_lLl4096EEESE_EEJNS7_12basic_stringIcNS7_11char_traitsIcEENS7_9allocatorIcEEEEEEENS0_10scan_errorEEptEv:
 1672|   324k|    {
 1673|   324k|        return &value();
 1674|   324k|    }
_ZNR3scn2v38expectedINS0_11scan_resultINS0_6ranges6detail9subrange_8subrangeINSt3__116__deque_iteratorIcPKcRS9_PKSA_lLl4096EEESE_EEJNS7_12basic_stringIcNS7_11char_traitsIcEENS7_9allocatorIcEEEEEEENS0_10scan_errorEE5valueISM_TnPNS7_9enable_ifIXntsr3stdE9is_void_vIT_EEvE4typeELPv0EEERSR_v:
 1626|   324k|    {
 1627|   324k|        SCN_EXPECT(has_value());
  ------------------
  |  |  924|   324k|#define SCN_EXPECT(cond) SCN_ASSERT(cond, "Precondition violation")
  |  |  ------------------
  |  |  |  |  921|   324k|#define SCN_ASSERT(cond, msg) assert((cond) && msg)
  |  |  ------------------
  ------------------
 1628|   324k|        return this->get_value();
 1629|   324k|    }
_ZNR3scn2v36detail21expected_storage_baseINS0_11scan_resultINS0_6ranges6detail9subrange_8subrangeINSt3__116__deque_iteratorIcPKcRSA_PKSB_lLl4096EEESF_EEJNS8_12basic_stringIcNS8_11char_traitsIcEENS8_9allocatorIcEEEEEEENS0_10scan_errorELb0EE9get_valueEv:
  640|   324k|    {
  641|   324k|        return *value_ptr();
  642|   324k|    }
_ZNK3scn2v36detail25scan_result_range_storageINS0_6ranges6detail9subrange_8subrangeINSt3__116__deque_iteratorIcPKcRS9_PKSA_lLl4096EEESE_EEE5beginEv:
 5707|   324k|    {
 5708|   324k|        return ranges::begin(m_range);
 5709|   324k|    }
_ZN3scn2v36detail21expected_storage_baseINS0_11scan_resultINS0_6ranges6detail9subrange_8subrangeINSt3__116__deque_iteratorIcPKcRSA_PKSB_lLl4096EEESF_EEJNS8_12basic_stringIcNS8_11char_traitsIcEENS8_9allocatorIcEEEEEEENS0_10scan_errorELb0EED2Ev:
  630|   355k|    {
  631|   355k|        if (has_value()) {
  ------------------
  |  Branch (631:13): [True: 324k, False: 30.4k]
  ------------------
  632|   324k|            destroy_value();
  633|   324k|        }
  634|  30.4k|        else {
  635|  30.4k|            destroy_unexpected();
  636|  30.4k|        }
  637|   355k|    }
_ZN3scn2v36detail21expected_storage_baseINS0_11scan_resultINS0_6ranges6detail9subrange_8subrangeINSt3__116__deque_iteratorIcPKcRSA_PKSB_lLl4096EEESF_EEJNS8_12basic_stringIcNS8_11char_traitsIcEENS8_9allocatorIcEEEEEEENS0_10scan_errorELb0EE13destroy_valueEv:
  695|   324k|    {
  696|   324k|        scn::detail::destroy_at(value_ptr());
  697|   324k|    }
_ZN3scn2v36detail10destroy_atINS0_11scan_resultINS0_6ranges6detail9subrange_8subrangeINSt3__116__deque_iteratorIcPKcRSA_PKSB_lLl4096EEESF_EEJNS8_12basic_stringIcNS8_11char_traitsIcEENS8_9allocatorIcEEEEEEEEEvPT_:
  397|   324k|{
  398|       |    if constexpr (std::is_array_v<T>) {
  399|       |        for (auto& elem : *p) {
  400|       |            scn::detail::destroy_at(&elem);
  401|       |        }
  402|       |    }
  403|   324k|    else {
  404|   324k|        p->~T();
  405|   324k|    }
  406|   324k|}
_ZN3scn2v36detail21expected_storage_baseINS0_11scan_resultINS0_6ranges6detail9subrange_8subrangeINSt3__116__deque_iteratorIcPKcRSA_PKSB_lLl4096EEESF_EEJNS8_12basic_stringIcNS8_11char_traitsIcEENS8_9allocatorIcEEEEEEENS0_10scan_errorELb0EE18destroy_unexpectedEv:
  699|  30.4k|    {
  700|  30.4k|        scn::detail::destroy_at(unexpected_ptr());
  701|  30.4k|    }
_ZN3scn2v34scanIJNSt3__112basic_stringIcNS2_11char_traitsIcEENS2_9allocatorIcEEEEENS2_6localeENS0_6ranges6detail9subrange_8subrangeINS2_16__deque_iteratorIcPKcRSF_PKSG_lLl4096EEESK_EEvvEENS0_13scan_expectedINS0_11scan_resultINS2_11conditionalIXsr3stdE9is_same_vIu11__remove_cvIu20__remove_reference_tIT1_EEP8_IO_FILEEEST_NS0_6detail22borrowed_tail_subrangeISP_Xsr6rangesE14borrowed_rangeISP_EEE4typeEE4typeEJDpT_EEEEERKT0_OSP_NS0_24basic_scan_format_stringIcNSU_13type_identityISP_E4typeEJDpNS19_IS10_E4typeEEEE:
 8943|   144k|{
 8944|   144k|    auto args = make_scan_args<scan_context, Args...>();
 8945|   144k|    auto result = vscan(loc, SCN_FWD(source), format, args);
  ------------------
  |  |  930|   144k|#define SCN_FWD(x)          static_cast<decltype(x)&&>(x)
  ------------------
 8946|   144k|    return make_scan_result(SCN_MOVE(result), SCN_MOVE(args.args()));
  ------------------
  |  |  928|   144k|    static_cast<    \
  |  |  929|   144k|        typename ::scn::detail::remove_reference<decltype(x)>::type&&>(x)
  ------------------
                  return make_scan_result(SCN_MOVE(result), SCN_MOVE(args.args()));
  ------------------
  |  |  928|   144k|    static_cast<    \
  |  |  929|   144k|        typename ::scn::detail::remove_reference<decltype(x)>::type&&>(x)
  ------------------
 8947|   144k|}
_ZN3scn2v35vscanINS0_6ranges6detail9subrange_8subrangeINSt3__116__deque_iteratorIcPKcRS8_PKS9_lLl4096EEESD_EENS6_6localeEvEENS0_13scan_expectedINS6_11conditionalIXsr3stdE9is_same_vIu11__remove_cvIu20__remove_reference_tIT_EEP8_IO_FILEEESM_NS0_6detail22borrowed_tail_subrangeISI_Xsr6rangesE14borrowed_rangeISI_EEE4typeEE4typeEEERKT0_OSI_NS6_17basic_string_viewIcNS6_11char_traitsIcEEEENS0_15basic_scan_argsINS0_18basic_scan_contextIcEEEE:
 8681|   144k|{
 8682|   144k|    return detail::vscan_localized_generic(loc, SCN_FWD(source), format, args);
  ------------------
  |  |  930|   144k|#define SCN_FWD(x)          static_cast<decltype(x)&&>(x)
  ------------------
 8683|   144k|}
_ZN3scn2v36detail23vscan_localized_genericINSt3__16localeENS0_6ranges6detail9subrange_8subrangeINS3_16__deque_iteratorIcPKcRSA_PKSB_lLl4096EEESF_EEcEENS0_13scan_expectedINS3_11conditionalIXsr3stdE9is_same_vIu11__remove_cvIu20__remove_reference_tIT0_EEP8_IO_FILEEESN_NS1_22borrowed_tail_subrangeISJ_Xsr6rangesE14borrowed_rangeISJ_EEE4typeEE4typeEEERKT_OSJ_NS3_17basic_string_viewIT1_NS3_11char_traitsISZ_EEEENS0_15basic_scan_argsINS0_18basic_scan_contextISZ_EEEE:
 8616|   144k|{
 8617|   144k|#if !SCN_DISABLE_LOCALE
 8618|   144k|    auto buffer = detail::make_scan_buffer(range);
 8619|       |
 8620|   144k|    SCN_CLANG_PUSH_IGNORE_UNDEFINED_TEMPLATE
 8621|   144k|    auto result = detail::vscan_localized_impl(loc, buffer, format, args);
 8622|   144k|    SCN_CLANG_POP_IGNORE_UNDEFINED_TEMPLATE
 8623|       |
 8624|   144k|    if (SCN_UNLIKELY(!result)) {
  ------------------
  |  |  859|   144k|#define SCN_UNLIKELY(x) __builtin_expect(!!(x), 0)
  |  |  ------------------
  |  |  |  Branch (859:25): [True: 14.0k, False: 130k]
  |  |  ------------------
  ------------------
 8625|  14.0k|        return unexpected(result.error());
 8626|  14.0k|    }
 8627|   130k|    return detail::make_vscan_result_range(SCN_FWD(range), *result);
  ------------------
  |  |  930|   130k|#define SCN_FWD(x)          static_cast<decltype(x)&&>(x)
  ------------------
 8628|       |#else
 8629|       |    static_assert(dependent_false<Locale>::value,
 8630|       |                  "Can't use scan(locale, ...) with SCN_DISABLE_LOCALE on");
 8631|       |
 8632|       |    return {};
 8633|       |#endif
 8634|   144k|}
_ZN3scn2v310scan_valueINSt3__112basic_stringIcNS2_11char_traitsIcEENS2_9allocatorIcEEEENS0_6ranges6detail9subrange_8subrangeINS2_16__deque_iteratorIcPKcRSE_PKSF_lLl4096EEESJ_EEvEENS0_13scan_expectedINS0_11scan_resultINS2_11conditionalIXsr3stdE9is_same_vIu11__remove_cvIu20__remove_reference_tIT0_EEP8_IO_FILEEESS_NS0_6detail22borrowed_tail_subrangeISO_Xsr6rangesE14borrowed_rangeISO_EEE4typeEE4typeEJT_EEEEEOSO_:
 8982|  66.6k|{
 8983|  66.6k|    T value;
 8984|  66.6k|    auto arg = detail::make_arg<scan_context>(value);
 8985|  66.6k|    SCN_TRY(it, vscan_value(SCN_FWD(source), arg));
  ------------------
  |  | 3668|  66.6k|#define SCN_TRY(name, x) SCN_TRY_ASSIGN(auto name, x)
  |  |  ------------------
  |  |  |  | 3663|  66.6k|    auto&& SCN_TRY_TMP = (x);                          \
  |  |  |  | 3664|  66.6k|    if (SCN_UNLIKELY(!SCN_TRY_TMP)) {                  \
  |  |  |  |  ------------------
  |  |  |  |  |  |  859|  66.6k|#define SCN_UNLIKELY(x) __builtin_expect(!!(x), 0)
  |  |  |  |  |  |  ------------------
  |  |  |  |  |  |  |  Branch (859:25): [True: 2.34k, False: 64.3k]
  |  |  |  |  |  |  ------------------
  |  |  |  |  ------------------
  |  |  |  | 3665|  2.34k|        return ::scn::unexpected(SCN_TRY_TMP.error()); \
  |  |  |  |  ------------------
  |  |  |  |  |  | 3660|  2.34k|#define SCN_TRY_TMP                SCN_TRY_IMPL_CONCAT2(_scn_try_tmp_, __LINE__)
  |  |  |  |  |  |  ------------------
  |  |  |  |  |  |  |  | 3659|  2.34k|#define SCN_TRY_IMPL_CONCAT2(a, b) SCN_TRY_IMPL_CONCAT(a, b)
  |  |  |  |  |  |  |  |  ------------------
  |  |  |  |  |  |  |  |  |  | 3658|  2.34k|#define SCN_TRY_IMPL_CONCAT(a, b)  a##b
  |  |  |  |  |  |  |  |  ------------------
  |  |  |  |  |  |  ------------------
  |  |  |  |  ------------------
  |  |  |  | 3666|  2.34k|    }                                                  \
  |  |  |  | 3667|  66.6k|    init = *SCN_FWD(SCN_TRY_TMP);
  |  |  |  |  ------------------
  |  |  |  |  |  |  930|  64.3k|#define SCN_FWD(x)          static_cast<decltype(x)&&>(x)
  |  |  |  |  ------------------
  |  |  ------------------
  ------------------
 8986|  64.3k|    return scan_result{SCN_MOVE(it), std::tuple{SCN_MOVE(value)}};
  ------------------
  |  |  928|  64.3k|    static_cast<    \
  |  |  929|  64.3k|        typename ::scn::detail::remove_reference<decltype(x)>::type&&>(x)
  ------------------
                  return scan_result{SCN_MOVE(it), std::tuple{SCN_MOVE(value)}};
  ------------------
  |  |  928|  64.3k|    static_cast<    \
  |  |  929|  64.3k|        typename ::scn::detail::remove_reference<decltype(x)>::type&&>(x)
  ------------------
 8987|  66.6k|}
_ZN3scn2v311vscan_valueINS0_6ranges6detail9subrange_8subrangeINSt3__116__deque_iteratorIcPKcRS8_PKS9_lLl4096EEESD_EEEENS0_13scan_expectedINS6_11conditionalIXsr3stdE9is_same_vIu11__remove_cvIu20__remove_reference_tIT_EEP8_IO_FILEEESL_NS0_6detail22borrowed_tail_subrangeISH_Xsr6rangesE14borrowed_rangeISH_EEE4typeEE4typeEEEOSH_NS0_14basic_scan_argINS0_18basic_scan_contextIcEEEE:
 8694|  66.6k|{
 8695|  66.6k|    return detail::vscan_value_generic(SCN_FWD(source), arg);
  ------------------
  |  |  930|  66.6k|#define SCN_FWD(x)          static_cast<decltype(x)&&>(x)
  ------------------
 8696|  66.6k|}
_ZN3scn2v36detail19vscan_value_genericINS0_6ranges6detail9subrange_8subrangeINSt3__116__deque_iteratorIcPKcRS9_PKSA_lLl4096EEESE_EEcEENS0_13scan_expectedINS7_11conditionalIXsr3stdE9is_same_vIu11__remove_cvIu20__remove_reference_tIT_EEP8_IO_FILEEESM_NS1_22borrowed_tail_subrangeISI_Xsr6rangesE14borrowed_rangeISI_EEE4typeEE4typeEEEOSI_NS0_14basic_scan_argINS0_18basic_scan_contextIT0_EEEE:
 8640|  66.6k|{
 8641|  66.6k|    auto buffer = detail::make_scan_buffer(range);
 8642|       |
 8643|  66.6k|    auto result = detail::vscan_value_impl(buffer, arg);
 8644|  66.6k|    if (SCN_UNLIKELY(!result)) {
  ------------------
  |  |  859|  66.6k|#define SCN_UNLIKELY(x) __builtin_expect(!!(x), 0)
  |  |  ------------------
  |  |  |  Branch (859:25): [True: 2.34k, False: 64.3k]
  |  |  ------------------
  ------------------
 8645|  2.34k|        return unexpected(result.error());
 8646|  2.34k|    }
 8647|  64.3k|    return detail::make_vscan_result_range(SCN_FWD(range), *result);
  ------------------
  |  |  930|  64.3k|#define SCN_FWD(x)          static_cast<decltype(x)&&>(x)
  ------------------
 8648|  66.6k|}
_ZNO3scn2v38expectedINS0_6ranges6detail9subrange_8subrangeINSt3__116__deque_iteratorIcPKcRS8_PKS9_lLl4096EEESD_EENS0_10scan_errorEEdeISE_TnPNS6_9enable_ifIXntsr3stdE9is_void_vIT_EEvE4typeELPv0EEEOSJ_v:
 1662|  64.3k|    {
 1663|  64.3k|        return std::move(value());
 1664|  64.3k|    }
_ZNK3scn2v36ranges6detail6begin_2fnclIRNSt3__117basic_string_viewIwNS6_11char_traitsIwEEEEEEDTclsr2fnE4implscDtfp_Efp_tlNS0_6detail12priority_tagILm3EEEEEEOT_:
 2723|   126k|    {
 2724|   126k|        return fn::impl(SCN_FWD(t), priority_tag<3>{});
  ------------------
  |  |  930|   126k|#define SCN_FWD(x)          static_cast<decltype(x)&&>(x)
  ------------------
 2725|   126k|    }
_ZN3scn2v36ranges6detail6begin_2fn4implIRNSt3__117basic_string_viewIwNS6_11char_traitsIwEEEEEENS6_9enable_ifIX24input_or_output_iteratorIDTcl10decay_copycldtscDtfp_Efp_5beginEEEEESE_E4typeEOT_NS0_6detail12priority_tagILm1EEE:
 2704|   126k|    {
 2705|   126k|        return decay_copy(t.begin());
 2706|   126k|    }
_ZN3scn2v36ranges6detail10decay_copyIPKwEEu7__decayIT_EOS6_:
 1948|  40.1M|{
 1949|  40.1M|    return SCN_FWD(t);
  ------------------
  |  |  930|  40.1M|#define SCN_FWD(x)          static_cast<decltype(x)&&>(x)
  ------------------
 1950|  40.1M|}
_ZNK3scn2v36ranges6detail4end_2fnclIRNSt3__117basic_string_viewIwNS6_11char_traitsIwEEEEEEDTclsr2fnE4implscDtfp_Efp_tlNS0_6detail12priority_tagILm3EEEEEEOT_:
 2780|  11.5M|    {
 2781|  11.5M|        return fn::impl(SCN_FWD(t), priority_tag<3>{});
  ------------------
  |  |  930|  11.5M|#define SCN_FWD(x)          static_cast<decltype(x)&&>(x)
  ------------------
 2782|  11.5M|    }
_ZN3scn2v36ranges6detail4end_2fn4implIRNSt3__117basic_string_viewIwNS6_11char_traitsIwEEEEPKwSD_EENS6_9enable_ifIX12sentinel_forIT0_T1_EEDTcl10decay_copycldtscDtfp_Efp_3endEEEE4typeEOT_NS0_6detail12priority_tagILm1EEE:
 2762|  11.5M|    {
 2763|  11.5M|        return decay_copy(SCN_FWD(t).end());
  ------------------
  |  |  930|  11.5M|#define SCN_FWD(x)          static_cast<decltype(x)&&>(x)
  ------------------
 2764|  11.5M|    }
_ZN3scn2v314make_scan_argsINS0_18basic_scan_contextIwEEJNSt3__112basic_stringIwNS4_11char_traitsIwEENS4_9allocatorIwEEEEEEEDav:
 5405|  4.64M|{
 5406|  4.64M|    detail::check_scan_arg_types<Args...>();
 5407|  4.64M|    return detail::scan_arg_store<Context, Args...>{};
 5408|  4.64M|}
_ZN3scn2v36detail20check_scan_arg_typesIJNSt3__112basic_stringIwNS3_11char_traitsIwEENS3_9allocatorIwEEEEEEEvv:
 5144|  5.78M|{
 5145|  5.78M|    static_assert(std::conjunction_v<std::is_default_constructible<Args>...>,
 5146|  5.78M|                  "Scan argument types must be default constructible");
 5147|  5.78M|    static_assert(std::conjunction_v<std::is_destructible<Args>...>,
 5148|  5.78M|                  "Scan argument types must be Destructible");
 5149|  5.78M|    static_assert(
 5150|  5.78M|        !std::conjunction_v<std::false_type, std::is_reference<Args>...>,
 5151|  5.78M|        "Scan argument types must not be references");
 5152|  5.78M|}
_ZN3scn2v36detail14scan_arg_storeINS0_18basic_scan_contextIwEEJNSt3__112basic_stringIwNS5_11char_traitsIwEENS5_9allocatorIwEEEEEEC2Ev:
 5357|  4.64M|        : m_argptrs(std::apply(make_argptrs<Args...>, m_args))
 5358|  4.64M|    {
 5359|  4.64M|    }
_ZN3scn2v36detail14scan_arg_storeINS0_18basic_scan_contextIwEEJNSt3__112basic_stringIwNS5_11char_traitsIwEENS5_9allocatorIwEEEEEE12make_argptrsIJSB_EEENS5_5arrayIPvLm1EEEDpRT_:
 5369|  4.64M|    {
 5370|  4.64M|        return {detail::make_arg<
 5371|  4.64M|            kind, Context,
 5372|  4.64M|            mapped_type_constant<remove_cvref_t<A>,
 5373|  4.64M|                                 typename Context::char_type>::value>(args)...};
 5374|  4.64M|    }
_ZN3scn2v36detail8make_argILNS1_19scan_arg_store_kindE0ENS0_18basic_scan_contextIwEELNS1_8arg_typeE22ENSt3__112basic_stringIwNS7_11char_traitsIwEENS7_9allocatorIwEEEEvEEPvRT2_:
 5179|  4.64M|{
 5180|  4.64M|    return make_value<Context>(value).ref_value;
 5181|  4.64M|}
_ZN3scn2v36detail10make_valueINS0_18basic_scan_contextIwEENSt3__112basic_stringIwNS5_11char_traitsIwEENS5_9allocatorIwEEEEEEDaRT0_:
 5129|  5.78M|{
 5130|  5.78M|    auto&& arg = arg_mapper<typename Context::char_type>().map(value);
 5131|       |
 5132|       |    if constexpr (!std::is_same_v<remove_cvref_t<decltype(arg)>,
 5133|  5.78M|                                  needs_context_tag>) {
 5134|  5.78M|        return make_value_impl(SCN_FWD(arg));
  ------------------
  |  |  930|  5.78M|#define SCN_FWD(x)          static_cast<decltype(x)&&>(x)
  ------------------
 5135|       |    }
 5136|       |    else {
 5137|       |        return make_value_impl(arg_mapper<typename Context::char_type>().map(
 5138|       |            value, context_tag<Context>{}));
 5139|       |    }
 5140|  5.78M|}
_ZN3scn2v36detail10arg_mapperIwE3mapERNSt3__112basic_stringIwNS4_11char_traitsIwEENS4_9allocatorIwEEEE:
 4968|  5.78M|    {                                                                        \
 4969|  5.78M|        return val;                                                          \
 4970|  5.78M|    }
_ZN3scn2v36detail15make_value_implIRNSt3__112basic_stringIwNS3_11char_traitsIwEENS3_9allocatorIwEEEEEEDaOT_:
 5098|  5.78M|{
 5099|  5.78M|    using arg_nocvref_t = remove_cvref_t<Arg>;
 5100|  5.78M|    static_assert(!std::is_same_v<arg_nocvref_t, needs_context_tag>);
 5101|       |
 5102|  5.78M|    constexpr bool scannable_char =
 5103|  5.78M|        !std::is_same_v<arg_nocvref_t, unscannable_char>;
 5104|  5.78M|    static_assert(scannable_char,
 5105|  5.78M|                  "Cannot scan an argument of an unsupported character "
 5106|  5.78M|                  "type (i.e. char from a wchar_t source)");
 5107|       |
 5108|  5.78M|    constexpr bool scannable_const =
 5109|  5.78M|        !std::is_same_v<arg_nocvref_t, unscannable_const>;
 5110|  5.78M|    static_assert(scannable_const, "Cannot scan a const argument");
 5111|       |
 5112|  5.78M|    constexpr bool scannable_disabled =
 5113|  5.78M|        !std::is_same_v<arg_nocvref_t, unscannable_disabled>;
 5114|  5.78M|    static_assert(scannable_disabled,
 5115|  5.78M|                  "Cannot scan an argument that has been disabled by "
 5116|  5.78M|                  "flag (SCN_DISABLE_TYPE_*)");
 5117|       |
 5118|  5.78M|    constexpr bool scannable = !std::is_same_v<arg_nocvref_t, unscannable>;
 5119|  5.78M|    static_assert(
 5120|  5.78M|        scannable,
 5121|  5.78M|        "Cannot scan an argument. To make a type T scannable, provide "
 5122|  5.78M|        "a scn::scanner<T, CharT> specialization.");
 5123|       |
 5124|  5.78M|    return arg_value{arg};
 5125|  5.78M|}
_ZN3scn2v36detail9arg_valueC2INSt3__112basic_stringIwNS4_11char_traitsIwEENS4_9allocatorIwEEEEEERT_:
 4909|  5.78M|    explicit constexpr arg_value(T& val) : ref_value{std::addressof(val)}
 4910|  5.78M|    {
 4911|  5.78M|    }
_ZN3scn2v36detail13vscan_genericINS0_6ranges6detail9subrange_8subrangeIPKwS8_EEwEENS0_13scan_expectedINSt3__111conditionalIXsr3stdE9is_same_vIu11__remove_cvIu20__remove_reference_tIT_EEP8_IO_FILEEESH_NS1_22borrowed_tail_subrangeISD_Xsr6rangesE14borrowed_rangeISD_EEE4typeEE4typeEEEOSD_NSB_17basic_string_viewIT0_NSB_11char_traitsISQ_EEEENS0_15basic_scan_argsINS0_18basic_scan_contextISQ_EEEE:
 8600|  2.32M|{
 8601|  2.32M|    auto buffer = make_scan_buffer(range);
 8602|       |
 8603|  2.32M|    auto result = vscan_impl(buffer, format, args);
 8604|  2.32M|    if (SCN_UNLIKELY(!result)) {
  ------------------
  |  |  859|  2.32M|#define SCN_UNLIKELY(x) __builtin_expect(!!(x), 0)
  |  |  ------------------
  |  |  |  Branch (859:25): [True: 56.1k, False: 2.26M]
  |  |  ------------------
  ------------------
 8605|  56.1k|        return unexpected(result.error());
 8606|  56.1k|    }
 8607|  2.26M|    return make_vscan_result_range(SCN_FWD(range), *result);
  ------------------
  |  |  930|  2.26M|#define SCN_FWD(x)          static_cast<decltype(x)&&>(x)
  ------------------
 8608|  2.32M|}
_ZN3scn2v36detail16make_scan_bufferINS0_6ranges6detail9subrange_8subrangeIPKwS8_EEEEDaRKT_:
 4728|  5.78M|{
 4729|  5.78M|    using T = decltype(_make_scan_buffer::impl(range, priority_tag<4>{}));
 4730|       |
 4731|  5.78M|    static_assert(!std::is_same_v<T, invalid_char_type>,
 4732|  5.78M|                  "\n"
 4733|  5.78M|                  "Unsupported range type given as input to a scanning "
 4734|  5.78M|                  "function.\n"
 4735|  5.78M|                  "A range needs to have a character type (value type) "
 4736|  5.78M|                  "of either `char` or `wchar_t` to be scannable.\n"
 4737|  5.78M|                  "For proper `wchar_t` support, <scn/xchar.h> needs "
 4738|  5.78M|                  "to be included.\n"
 4739|  5.78M|                  "See the scnlib documentation for more details.");
 4740|  5.78M|    static_assert(
 4741|  5.78M|        !std::is_same_v<T, custom_char_traits>,
 4742|  5.78M|        "\n"
 4743|  5.78M|        "Unsupported range type given as input to a scanning "
 4744|  5.78M|        "function.\n"
 4745|  5.78M|        "String types (std::basic_string, and std::basic_string_view) "
 4746|  5.78M|        "need to use std::char_traits. Strings with custom Traits are "
 4747|  5.78M|        "not supported.");
 4748|  5.78M|    static_assert(!std::is_same_v<T, file_marker_found>,
 4749|  5.78M|                  "\n"
 4750|  5.78M|                  "Unsupported range type given as input to a scanning "
 4751|  5.78M|                  "function.\n"
 4752|  5.78M|                  "file_marker_found cannot be used as an "
 4753|  5.78M|                  "source range type to scn::scan.\n"
 4754|  5.78M|                  "To read from stdin, use scn::input or scn::prompt, "
 4755|  5.78M|                  "and do not provide an explicit source range, "
 4756|  5.78M|                  "or use scn::scan with a FILE* directly.");
 4757|  5.78M|    static_assert(!std::is_same_v<T, insufficient_range>,
 4758|  5.78M|                  "\n"
 4759|  5.78M|                  "Unsupported range type given as input to a scanning "
 4760|  5.78M|                  "function.\n"
 4761|  5.78M|                  "In order to be scannable, a range needs to satisfy "
 4762|  5.78M|                  "`forward_range`. `input_range` is not sufficient.");
 4763|  5.78M|    static_assert(!std::is_same_v<T, invalid_input_range>,
 4764|  5.78M|                  "\n"
 4765|  5.78M|                  "Unsupported range type given as input to a scanning "
 4766|  5.78M|                  "function.\n"
 4767|  5.78M|                  "A range needs to model forward_range and have a valid "
 4768|  5.78M|                  "character type (char or wchar_t) to be scannable.\n"
 4769|  5.78M|                  "Examples of scannable ranges are std::string, "
 4770|  5.78M|                  "std::string_view, "
 4771|  5.78M|                  "std::vector<char>, and scn::istreambuf_view.\n"
 4772|  5.78M|                  "See the scnlib documentation for more details.");
 4773|       |
 4774|  5.78M|    return _make_scan_buffer::impl(range, priority_tag<4>{});
 4775|  5.78M|}
_ZN3scn2v36detail17_make_scan_buffer4implINS0_6ranges6detail9subrange_8subrangeIPKwS9_EETnPNSt3__19enable_ifIXaasr6rangesE16contiguous_rangeIT_Esr6rangesE11sized_rangeISD_EEvE4typeELPv0EEEDaRKSD_NS1_12priority_tagILm2EEE:
 4667|  5.78M|{
 4668|  5.78M|    if constexpr (is_valid_char_type<detail::char_t<Range>>) {
 4669|  5.78M|        return std::basic_string_view{ranges::data(r), ranges::size(r)};
 4670|       |    }
 4671|       |    else {
 4672|       |        return invalid_char_type{};
 4673|       |    }
 4674|  5.78M|}
_ZNK3scn2v36ranges6detail5data_2fnclIRKNS2_9subrange_8subrangeIPKwS9_EEEEDTclsr2fnE4implscDtfp_Efp_tlNS0_6detail12priority_tagILm1EEEEEEOT_:
 2854|  5.78M|    {
 2855|  5.78M|        return fn::impl(SCN_FWD(t), priority_tag<1>{});
  ------------------
  |  |  930|  5.78M|#define SCN_FWD(x)          static_cast<decltype(x)&&>(x)
  ------------------
 2856|  5.78M|    }
_ZN3scn2v36ranges6detail5data_2fn4implIKNS2_9subrange_8subrangeIPKwS9_EES9_EENSt3__19enable_ifIX19is_object_pointer_vIT0_EESE_E4typeERT_NS0_6detail12priority_tagILm1EEE:
 2835|  5.78M|    {
 2836|  5.78M|        return t.data();
 2837|  5.78M|    }
_ZNK3scn2v36ranges14view_interfaceINS1_6detail9subrange_8subrangeIPKwS7_EEE4dataIS8_vEEDav:
 3228|  5.78M|    {
 3229|  5.78M|        return detail::to_address(ranges::begin(derived()));
 3230|  5.78M|    }
_ZN3scn2v36detail10to_addressIPKwEEDTclgssr3scn6detailE15to_address_implscDtfp_Efp_tlNS1_12priority_tagILm2EEEEEEOT_:
  325|  17.1M|{
  326|  17.1M|    return ::scn::detail::to_address_impl(SCN_FWD(p), priority_tag<2>{});
  ------------------
  |  |  930|  17.1M|#define SCN_FWD(x)          static_cast<decltype(x)&&>(x)
  ------------------
  327|  17.1M|}
_ZN3scn2v36detail15to_address_implIKwEEPT_S5_NS1_12priority_tagILm2EEE:
  303|   559M|{
  304|   559M|    return p;
  305|   559M|}
_ZNK3scn2v36ranges6detail6begin_2fnclIRKNS2_9subrange_8subrangeIPKwS9_EEEEDTclsr2fnE4implscDtfp_Efp_tlNS0_6detail12priority_tagILm3EEEEEEOT_:
 2723|  11.4M|    {
 2724|  11.4M|        return fn::impl(SCN_FWD(t), priority_tag<3>{});
  ------------------
  |  |  930|  11.4M|#define SCN_FWD(x)          static_cast<decltype(x)&&>(x)
  ------------------
 2725|  11.4M|    }
_ZN3scn2v36ranges6detail6begin_2fn4implIRKNS2_9subrange_8subrangeIPKwS9_EEEENSt3__19enable_ifIX24input_or_output_iteratorIDTcl10decay_copycldtscDtfp_Efp_5beginEEEEESG_E4typeEOT_NS0_6detail12priority_tagILm1EEE:
 2704|  11.4M|    {
 2705|  11.4M|        return decay_copy(t.begin());
 2706|  11.4M|    }
_ZNK3scn2v36ranges6detail9subrange_8subrangeIPKwS6_E5beginEv:
 3325|   492M|    {
 3326|   492M|        return m_iterator;
 3327|   492M|    }
_ZNK3scn2v36ranges14view_interfaceINS1_6detail9subrange_8subrangeIPKwS7_EEE7derivedEv:
 3184|  5.78M|    {
 3185|  5.78M|        return static_cast<const D&>(*this);
 3186|  5.78M|    }
_ZNK3scn2v36ranges6detail5size_2fnclIRKNS2_9subrange_8subrangeIPKwS9_EEEEDTclsr2fnE4implclsr3stdE7forwardIT_Efp_EtlNS0_6detail12priority_tagILm3EEEEEEOSD_:
 2929|  5.78M|    {
 2930|  5.78M|        return fn::impl(std::forward<T>(t), priority_tag<3>{});
 2931|  5.78M|    }
_ZN3scn2v36ranges6detail5size_2fn4implIRKNS2_9subrange_8subrangeIPKwS9_EEmEENSt3__19enable_ifIXaasr3stdE13is_integral_vIT0_Ent19disable_sized_rangeIu11__remove_cvIu20__remove_reference_tIT_EEEESF_E4typeEOSG_NS0_6detail12priority_tagILm2EEE:
 2895|  5.78M|    {
 2896|  5.78M|        return decay_copy(SCN_FWD(t).size());
  ------------------
  |  |  930|  5.78M|#define SCN_FWD(x)          static_cast<decltype(x)&&>(x)
  ------------------
 2897|  5.78M|    }
_ZNK3scn2v36ranges6detail9subrange_8subrangeIPKwS6_E4sizeIS6_TnPNSt3__19enable_ifIX18sized_sentinel_forIS6_T_EEvE4typeELPv0EEEmv:
 3341|  11.4M|    {
 3342|  11.4M|        return static_cast<size_t>(m_sentinel - m_iterator);
 3343|  11.4M|    }
_ZN3scn2v38expectedINS0_6ranges6detail9subrange_8subrangeIPKwS7_EENS0_10scan_errorEEC2IS9_TnPNSt3__19enable_ifIXsr3stdE18is_constructible_vIS9_OT_EEvE4typeELPv0ETnPNSD_IXsr3stdE16is_convertible_vISF_S9_EEvE4typeELSJ_0EEEONS0_10unexpectedISE_EE:
 1473|   121k|        : base(unexpect, std::move(e.error())),
 1474|   121k|          ctor_base(detail::non_default_ctor_tag_t{})
 1475|   121k|    {
 1476|   121k|    }
_ZN3scn2v36detail21expected_storage_baseINS0_6ranges6detail9subrange_8subrangeIPKwS8_EENS0_10scan_errorELb1EEC2IJSA_EvEENS0_10unexpect_tEDpOT_:
  444|   121k|        : m_unexpected(std::in_place, std::forward<Args>(args)...),
  445|   121k|          m_has_value(false)
  446|   121k|    {
  447|   121k|    }
_ZN3scn2v36detail26expected_default_ctor_baseINS0_6ranges6detail9subrange_8subrangeIPKwS8_EENS0_10scan_errorELb1EEC2ENS1_22non_default_ctor_tag_tE:
 1176|  5.78M|    {
 1177|  5.78M|    }
_ZN3scn2v36detail23make_vscan_result_rangeINS0_6ranges6detail9subrange_8subrangeIPKwS8_EEEENS1_22borrowed_tail_subrangeIT_Xsr6rangesE14borrowed_rangeISB_EEE4typeEOSB_l:
 5932|  5.65M|{
 5933|       |    if constexpr (ranges::random_access_iterator<
 5934|  5.65M|                      ranges::iterator_t<SourceRange>>) {
 5935|  5.65M|        return {ranges::begin(source) + n, make_vscan_result_range_end(source)};
 5936|       |    }
 5937|       |    else {
 5938|       |        auto it = ranges::begin(source);
 5939|       |        while (n > 0) {
 5940|       |            --n;
 5941|       |            ++it;
 5942|       |        }
 5943|       |        return {SCN_MOVE(it), make_vscan_result_range_end(source)};
 5944|       |    }
 5945|  5.65M|}
_ZNK3scn2v36ranges6detail6begin_2fnclIRNS2_9subrange_8subrangeIPKwS9_EEEEDTclsr2fnE4implscDtfp_Efp_tlNS0_6detail12priority_tagILm3EEEEEEOT_:
 2723|  11.3M|    {
 2724|  11.3M|        return fn::impl(SCN_FWD(t), priority_tag<3>{});
  ------------------
  |  |  930|  11.3M|#define SCN_FWD(x)          static_cast<decltype(x)&&>(x)
  ------------------
 2725|  11.3M|    }
_ZN3scn2v36ranges6detail6begin_2fn4implIRNS2_9subrange_8subrangeIPKwS9_EEEENSt3__19enable_ifIX24input_or_output_iteratorIDTcl10decay_copycldtscDtfp_Efp_5beginEEEEESF_E4typeEOT_NS0_6detail12priority_tagILm1EEE:
 2704|  11.3M|    {
 2705|  11.3M|        return decay_copy(t.begin());
 2706|  11.3M|    }
_ZN3scn2v36detail27make_vscan_result_range_endINS0_6ranges6detail9subrange_8subrangeIPKwS8_EEEEDaRT_:
 5919|  5.65M|{
 5920|  5.65M|    return ranges::end(source);
 5921|  5.65M|}
_ZNK3scn2v36ranges6detail4end_2fnclIRNS2_9subrange_8subrangeIPKwS9_EEEEDTclsr2fnE4implscDtfp_Efp_tlNS0_6detail12priority_tagILm3EEEEEEOT_:
 2780|  5.65M|    {
 2781|  5.65M|        return fn::impl(SCN_FWD(t), priority_tag<3>{});
  ------------------
  |  |  930|  5.65M|#define SCN_FWD(x)          static_cast<decltype(x)&&>(x)
  ------------------
 2782|  5.65M|    }
_ZN3scn2v36ranges6detail4end_2fn4implIRNS2_9subrange_8subrangeIPKwS9_EES9_S9_EENSt3__19enable_ifIX12sentinel_forIT0_T1_EEDTcl10decay_copycldtscDtfp_Efp_3endEEEE4typeEOT_NS0_6detail12priority_tagILm1EEE:
 2762|  5.65M|    {
 2763|  5.65M|        return decay_copy(SCN_FWD(t).end());
  ------------------
  |  |  930|  5.65M|#define SCN_FWD(x)          static_cast<decltype(x)&&>(x)
  ------------------
 2764|  5.65M|    }
_ZNK3scn2v36ranges6detail9subrange_8subrangeIPKwS6_E3endEv:
 3329|   465M|    {
 3330|   465M|        return m_sentinel;
 3331|   465M|    }
_ZN3scn2v38expectedINS0_6ranges6detail9subrange_8subrangeIPKwS7_EENS0_10scan_errorEEC2IS8_vEEOT_:
 1427|  5.65M|        : base(std::in_place, std::forward<U>(val)),
 1428|  5.65M|          ctor_base(detail::non_default_ctor_tag_t{})
 1429|  5.65M|    {
 1430|  5.65M|    }
_ZN3scn2v36detail21expected_storage_baseINS0_6ranges6detail9subrange_8subrangeIPKwS8_EENS0_10scan_errorELb1EEC2IJS9_EvEENSt3__110in_place_tEDpOT_:
  435|  5.65M|        : m_value(std::forward<Args>(args)...), m_has_value(true)
  436|  5.65M|    {
  437|  5.65M|    }
_ZNK3scn2v324basic_scan_format_stringIwNS0_6ranges6detail9subrange_8subrangeIPKwS7_EEJNSt3__112basic_stringIwNS9_11char_traitsIwEENS9_9allocatorIwEEEEEEcvNS9_17basic_string_viewIwSC_EEEv:
 7984|  2.32M|    {
 7985|  2.32M|        return m_str;
 7986|  2.32M|    }
_ZN3scn2v315basic_scan_argsINS0_18basic_scan_contextIwEEEC2IJNSt3__112basic_stringIwNS6_11char_traitsIwEENS6_9allocatorIwEEEEEEERNS0_6detail14scan_arg_storeIS3_JDpT_EEE:
 5434|  4.64M|        : basic_scan_args(store.desc, store.arg_pointers().data())
 5435|  4.64M|    {
 5436|  4.64M|    }
_ZN3scn2v36detail14scan_arg_storeINS0_18basic_scan_contextIwEEJNSt3__112basic_stringIwNS5_11char_traitsIwEENS5_9allocatorIwEEEEEE12arg_pointersEv:
 5388|  4.64M|    {
 5389|  4.64M|        return m_argptrs;
 5390|  4.64M|    }
_ZN3scn2v315basic_scan_argsINS0_18basic_scan_contextIwEEEC2EmPPv:
 5486|  6.96M|        : m_desc(desc), m_builtin_values(data)
 5487|  6.96M|    {
 5488|  6.96M|    }
_ZN3scn2v316make_scan_resultINS0_6ranges6detail9subrange_8subrangeIPKwS7_EEJNSt3__112basic_stringIwNS9_11char_traitsIwEENS9_9allocatorIwEEEEEEENS0_13scan_expectedINS0_11scan_resultIT_JDpT0_EEEEEONSG_ISI_EEONS9_5tupleIJSK_EEE:
 8829|  2.32M|{
 8830|  2.32M|    if (SCN_UNLIKELY(!result)) {
  ------------------
  |  |  859|  2.32M|#define SCN_UNLIKELY(x) __builtin_expect(!!(x), 0)
  |  |  ------------------
  |  |  |  Branch (859:25): [True: 56.1k, False: 2.26M]
  |  |  ------------------
  ------------------
 8831|  56.1k|        return unexpected(result.error());
 8832|  56.1k|    }
 8833|  2.26M|    return scan_result{SCN_MOVE(*result), SCN_MOVE(args)};
  ------------------
  |  |  928|  2.26M|    static_cast<    \
  |  |  929|  2.26M|        typename ::scn::detail::remove_reference<decltype(x)>::type&&>(x)
  ------------------
                  return scan_result{SCN_MOVE(*result), SCN_MOVE(args)};
  ------------------
  |  |  928|  2.26M|    static_cast<    \
  |  |  929|  2.26M|        typename ::scn::detail::remove_reference<decltype(x)>::type&&>(x)
  ------------------
 8834|  2.32M|}
_ZNK3scn2v38expectedINS0_6ranges6detail9subrange_8subrangeIPKwS7_EENS0_10scan_errorEEcvbEv:
 1597|  5.78M|    {
 1598|  5.78M|        return has_value();
 1599|  5.78M|    }
_ZNK3scn2v36detail21expected_storage_baseINS0_6ranges6detail9subrange_8subrangeIPKwS8_EENS0_10scan_errorELb1EE9has_valueEv:
  484|  11.5M|    {
  485|  11.5M|        return m_has_value;
  486|  11.5M|    }
_ZNR3scn2v38expectedINS0_6ranges6detail9subrange_8subrangeIPKwS7_EENS0_10scan_errorEE5errorEv:
 1603|   121k|    {
 1604|   121k|        SCN_EXPECT(!has_value());
  ------------------
  |  |  924|   121k|#define SCN_EXPECT(cond) SCN_ASSERT(cond, "Precondition violation")
  |  |  ------------------
  |  |  |  |  921|   121k|#define SCN_ASSERT(cond, msg) assert((cond) && msg)
  |  |  ------------------
  ------------------
 1605|   121k|        return this->get_unexpected().error();
 1606|   121k|    }
_ZNR3scn2v36detail21expected_storage_baseINS0_6ranges6detail9subrange_8subrangeIPKwS8_EENS0_10scan_errorELb1EE14get_unexpectedEv:
  467|   121k|    {
  468|   121k|        return m_unexpected;
  469|   121k|    }
_ZN3scn2v38expectedINS0_11scan_resultINS0_6ranges6detail9subrange_8subrangeIPKwS8_EEJNSt3__112basic_stringIwNSA_11char_traitsIwEENSA_9allocatorIwEEEEEEENS0_10scan_errorEEC2ISI_TnPNSA_9enable_ifIXsr3stdE18is_constructible_vISI_OT_EEvE4typeELPv0ETnPNSL_IXsr3stdE16is_convertible_vISN_SI_EEvE4typeELSR_0EEEONS0_10unexpectedISM_EE:
 1473|  60.8k|        : base(unexpect, std::move(e.error())),
 1474|  60.8k|          ctor_base(detail::non_default_ctor_tag_t{})
 1475|  60.8k|    {
 1476|  60.8k|    }
_ZN3scn2v36detail21expected_storage_baseINS0_11scan_resultINS0_6ranges6detail9subrange_8subrangeIPKwS9_EEJNSt3__112basic_stringIwNSB_11char_traitsIwEENSB_9allocatorIwEEEEEEENS0_10scan_errorELb0EEC2IJSJ_EvEENS0_10unexpect_tEDpOT_:
  624|  60.8k|        : m_has_value(false)
  625|  60.8k|    {
  626|  60.8k|        construct_unexpected(std::in_place, std::forward<Args>(args)...);
  627|  60.8k|    }
_ZN3scn2v36detail21expected_storage_baseINS0_11scan_resultINS0_6ranges6detail9subrange_8subrangeIPKwS9_EEJNSt3__112basic_stringIwNSB_11char_traitsIwEENSB_9allocatorIwEEEEEEENS0_10scan_errorELb0EE20construct_unexpectedIJRKNSB_10in_place_tESJ_EEEvDpOT_:
  688|  60.8k|    {
  689|  60.8k|        scn::detail::construct_at(unexpected_ptr(),
  690|  60.8k|                                  std::forward<Args>(args)...);
  691|  60.8k|        m_has_value = false;
  692|  60.8k|    }
_ZN3scn2v36detail21expected_storage_baseINS0_11scan_resultINS0_6ranges6detail9subrange_8subrangeIPKwS9_EEJNSt3__112basic_stringIwNSB_11char_traitsIwEENSB_9allocatorIwEEEEEEENS0_10scan_errorELb0EE14unexpected_ptrEv:
  717|   121k|    {
  718|   121k|        return reinterpret_cast<unexpected<E>*>(
  719|   121k|            SCN_ASSUME_ALIGNED(m_memory, alignof(unexpected<E>)));
  ------------------
  |  |  894|   121k|#define SCN_ASSUME_ALIGNED(x, n) __builtin_assume_aligned(x, n)
  ------------------
  720|   121k|    }
_ZN3scn2v36detail26expected_default_ctor_baseINS0_11scan_resultINS0_6ranges6detail9subrange_8subrangeIPKwS9_EEJNSt3__112basic_stringIwNSB_11char_traitsIwEENSB_9allocatorIwEEEEEEENS0_10scan_errorELb1EEC2ENS1_22non_default_ctor_tag_tE:
 1176|  2.89M|    {
 1177|  2.89M|    }
_ZNR3scn2v38expectedINS0_6ranges6detail9subrange_8subrangeIPKwS7_EENS0_10scan_errorEEdeIS8_TnPNSt3__19enable_ifIXntsr3stdE9is_void_vIT_EEvE4typeELPv0EEERSE_v:
 1652|  4.52M|    {
 1653|  4.52M|        return value();
 1654|  4.52M|    }
_ZNR3scn2v38expectedINS0_6ranges6detail9subrange_8subrangeIPKwS7_EENS0_10scan_errorEE5valueIS8_TnPNSt3__19enable_ifIXntsr3stdE9is_void_vIT_EEvE4typeELPv0EEERSE_v:
 1626|  5.65M|    {
 1627|  5.65M|        SCN_EXPECT(has_value());
  ------------------
  |  |  924|  5.65M|#define SCN_EXPECT(cond) SCN_ASSERT(cond, "Precondition violation")
  |  |  ------------------
  |  |  |  |  921|  5.65M|#define SCN_ASSERT(cond, msg) assert((cond) && msg)
  |  |  ------------------
  ------------------
 1628|  5.65M|        return this->get_value();
 1629|  5.65M|    }
_ZNR3scn2v36detail21expected_storage_baseINS0_6ranges6detail9subrange_8subrangeIPKwS8_EENS0_10scan_errorELb1EE9get_valueEv:
  450|  5.65M|    {
  451|  5.65M|        return m_value;
  452|  5.65M|    }
_ZN3scn2v311scan_resultINS0_6ranges6detail9subrange_8subrangeIPKwS7_EEJNSt3__112basic_stringIwNS9_11char_traitsIwEENS9_9allocatorIwEEEEEEC2ES8_ONS9_5tupleIJSF_EEE:
 5838|  2.82M|        : range_base(SCN_MOVE(r)), value_base(SCN_MOVE(values))
  ------------------
  |  |  928|  2.82M|    static_cast<    \
  |  |  929|  2.82M|        typename ::scn::detail::remove_reference<decltype(x)>::type&&>(x)
  ------------------
                      : range_base(SCN_MOVE(r)), value_base(SCN_MOVE(values))
  ------------------
  |  |  928|  2.82M|    static_cast<    \
  |  |  929|  2.82M|        typename ::scn::detail::remove_reference<decltype(x)>::type&&>(x)
  ------------------
 5839|  2.82M|    {
 5840|  2.82M|    }
_ZN3scn2v36detail25scan_result_range_storageINS0_6ranges6detail9subrange_8subrangeIPKwS8_EEEC2EOS9_:
 5689|  5.65M|    constexpr scan_result_range_storage(range_type&& r) : m_range(SCN_MOVE(r))
  ------------------
  |  |  928|  5.65M|    static_cast<    \
  |  |  929|  5.65M|        typename ::scn::detail::remove_reference<decltype(x)>::type&&>(x)
  ------------------
 5690|  5.65M|    {
 5691|  5.65M|    }
_ZN3scn2v36detail25scan_result_value_storageIJNSt3__112basic_stringIwNS3_11char_traitsIwEENS3_9allocatorIwEEEEEEC2EONS3_5tupleIJS9_EEE:
 5624|  5.65M|        : m_values(SCN_MOVE(values))
  ------------------
  |  |  928|  5.65M|    static_cast<    \
  |  |  929|  5.65M|        typename ::scn::detail::remove_reference<decltype(x)>::type&&>(x)
  ------------------
 5625|  5.65M|    {
 5626|  5.65M|    }
_ZN3scn2v38expectedINS0_11scan_resultINS0_6ranges6detail9subrange_8subrangeIPKwS8_EEJNSt3__112basic_stringIwNSA_11char_traitsIwEENSA_9allocatorIwEEEEEEENS0_10scan_errorEEC2ISH_vEEOT_:
 1427|  2.82M|        : base(std::in_place, std::forward<U>(val)),
 1428|  2.82M|          ctor_base(detail::non_default_ctor_tag_t{})
 1429|  2.82M|    {
 1430|  2.82M|    }
_ZN3scn2v36detail21expected_storage_baseINS0_11scan_resultINS0_6ranges6detail9subrange_8subrangeIPKwS9_EEJNSt3__112basic_stringIwNSB_11char_traitsIwEENSB_9allocatorIwEEEEEEENS0_10scan_errorELb0EEC2IJSI_EvEENSB_10in_place_tEDpOT_:
  614|  2.82M|        : m_has_value(true)
  615|  2.82M|    {
  616|  2.82M|        construct(std::forward<Args>(args)...);
  617|  2.82M|    }
_ZN3scn2v36detail21expected_storage_baseINS0_11scan_resultINS0_6ranges6detail9subrange_8subrangeIPKwS9_EEJNSt3__112basic_stringIwNSB_11char_traitsIwEENSB_9allocatorIwEEEEEEENS0_10scan_errorELb0EE9constructIJSI_EEEvDpOT_:
  681|  2.82M|    {
  682|  2.82M|        scn::detail::construct_at(value_ptr(), std::forward<Args>(args)...);
  683|  2.82M|        m_has_value = true;
  684|  2.82M|    }
_ZN3scn2v36detail12construct_atINS0_11scan_resultINS0_6ranges6detail9subrange_8subrangeIPKwS9_EEJNSt3__112basic_stringIwNSB_11char_traitsIwEENSB_9allocatorIwEEEEEEEJSI_EEEPT_SK_DpOT0_:
  391|  2.82M|{
  392|  2.82M|    return ::new (const_cast<void*>(static_cast<const volatile void*>(p)))
  393|  2.82M|        T(std::forward<Args>(args)...);
  394|  2.82M|}
_ZN3scn2v311scan_resultINS0_6ranges6detail9subrange_8subrangeIPKwS7_EEJNSt3__112basic_stringIwNS9_11char_traitsIwEENS9_9allocatorIwEEEEEEC2EOSG_:
 5831|  2.82M|    constexpr scan_result(scan_result&&) = default;
_ZN3scn2v36detail21expected_storage_baseINS0_11scan_resultINS0_6ranges6detail9subrange_8subrangeIPKwS9_EEJNSt3__112basic_stringIwNSB_11char_traitsIwEENSB_9allocatorIwEEEEEEENS0_10scan_errorELb0EE9value_ptrEv:
  705|  8.48M|    {
  706|  8.48M|        return reinterpret_cast<T*>(SCN_ASSUME_ALIGNED(m_memory, alignof(T)));
  ------------------
  |  |  894|  8.48M|#define SCN_ASSUME_ALIGNED(x, n) __builtin_assume_aligned(x, n)
  ------------------
  707|  8.48M|    }
_ZN3scn2v311scan_resultINS0_6ranges6detail9subrange_8subrangeIPKwS7_EEJNSt3__112basic_stringIwNS9_11char_traitsIwEENS9_9allocatorIwEEEEEED2Ev:
 5835|  5.65M|    ~scan_result() = default;
_ZN3scn2v36detail14scan_arg_storeINS0_18basic_scan_contextIwEEJNSt3__112basic_stringIwNS5_11char_traitsIwEENS5_9allocatorIwEEEEEE4argsEv:
 5383|  4.64M|    {
 5384|  4.64M|        return m_args;
 5385|  4.64M|    }
_ZN3scn2v36detail14scan_arg_storeINS0_18basic_scan_contextIwEEJNSt3__112basic_stringIwNS5_11char_traitsIwEENS5_9allocatorIwEEEEEED2Ev:
 5380|  4.64M|    ~scan_arg_store() = default;
_ZN3scn2v36ranges6detail9subrange_8subrangeIPKwS6_EC2IS6_TnPNSt3__19enable_ifIXsr3stdE16is_convertible_vIT_S6_EEvE4typeELPv0EEESB_S6_:
 3310|   186M|        : m_iterator(SCN_MOVE(i)), m_sentinel(SCN_MOVE(s))
  ------------------
  |  |  928|   186M|    static_cast<    \
  |  |  929|   186M|        typename ::scn::detail::remove_reference<decltype(x)>::type&&>(x)
  ------------------
                      : m_iterator(SCN_MOVE(i)), m_sentinel(SCN_MOVE(s))
  ------------------
  |  |  928|   186M|    static_cast<    \
  |  |  929|   186M|        typename ::scn::detail::remove_reference<decltype(x)>::type&&>(x)
  ------------------
 3311|   186M|    {
 3312|   186M|    }
_ZN3scn2v314runtime_formatENSt3__117basic_string_viewIwNS1_11char_traitsIwEEEE:
 7705|  6.96M|{
 7706|  6.96M|    return s;
 7707|  6.96M|}
_ZN3scn2v36detail27basic_runtime_format_stringIwEC2ENSt3__117basic_string_viewIwNS4_11char_traitsIwEEEE:
 7677|  6.96M|    basic_runtime_format_string(std::basic_string_view<CharT> s) : str(s) {}
_ZN3scn2v324basic_scan_format_stringIwNS0_6ranges6detail9subrange_8subrangeIPKwS7_EEJNSt3__112basic_stringIwNS9_11char_traitsIwEENS9_9allocatorIwEEEEEEC2ENS0_6detail27basic_runtime_format_stringIwEE:
 7979|  2.32M|        : m_str(r.str)
 7980|  2.32M|    {
 7981|  2.32M|    }
_ZNK3scn2v38expectedINS0_11scan_resultINS0_6ranges6detail9subrange_8subrangeIPKwS8_EEJNSt3__112basic_stringIwNSA_11char_traitsIwEENSA_9allocatorIwEEEEEEENS0_10scan_errorEEcvbEv:
 1597|  2.89M|    {
 1598|  2.89M|        return has_value();
 1599|  2.89M|    }
_ZNK3scn2v36detail21expected_storage_baseINS0_11scan_resultINS0_6ranges6detail9subrange_8subrangeIPKwS9_EEJNSt3__112basic_stringIwNSB_11char_traitsIwEENSB_9allocatorIwEEEEEEENS0_10scan_errorELb0EE9has_valueEv:
  674|  8.61M|    {
  675|  8.61M|        return m_has_value;
  676|  8.61M|    }
_ZN3scn2v38expectedINS0_11scan_resultINS0_6ranges6detail9subrange_8subrangeIPKwS8_EEJNSt3__112basic_stringIwNSA_11char_traitsIwEENSA_9allocatorIwEEEEEEENS0_10scan_errorEEptEv:
 1672|  2.82M|    {
 1673|  2.82M|        return &value();
 1674|  2.82M|    }
_ZNR3scn2v38expectedINS0_11scan_resultINS0_6ranges6detail9subrange_8subrangeIPKwS8_EEJNSt3__112basic_stringIwNSA_11char_traitsIwEENSA_9allocatorIwEEEEEEENS0_10scan_errorEE5valueISH_TnPNSA_9enable_ifIXntsr3stdE9is_void_vIT_EEvE4typeELPv0EEERSM_v:
 1626|  2.82M|    {
 1627|  2.82M|        SCN_EXPECT(has_value());
  ------------------
  |  |  924|  2.82M|#define SCN_EXPECT(cond) SCN_ASSERT(cond, "Precondition violation")
  |  |  ------------------
  |  |  |  |  921|  2.82M|#define SCN_ASSERT(cond, msg) assert((cond) && msg)
  |  |  ------------------
  ------------------
 1628|  2.82M|        return this->get_value();
 1629|  2.82M|    }
_ZNR3scn2v36detail21expected_storage_baseINS0_11scan_resultINS0_6ranges6detail9subrange_8subrangeIPKwS9_EEJNSt3__112basic_stringIwNSB_11char_traitsIwEENSB_9allocatorIwEEEEEEENS0_10scan_errorELb0EE9get_valueEv:
  640|  2.82M|    {
  641|  2.82M|        return *value_ptr();
  642|  2.82M|    }
_ZNK3scn2v36detail25scan_result_range_storageINS0_6ranges6detail9subrange_8subrangeIPKwS8_EEE5beginEv:
 5707|  5.65M|    {
 5708|  5.65M|        return ranges::begin(m_range);
 5709|  5.65M|    }
_ZN3scn2v36detail21expected_storage_baseINS0_11scan_resultINS0_6ranges6detail9subrange_8subrangeIPKwS9_EEJNSt3__112basic_stringIwNSB_11char_traitsIwEENSB_9allocatorIwEEEEEEENS0_10scan_errorELb0EED2Ev:
  630|  2.89M|    {
  631|  2.89M|        if (has_value()) {
  ------------------
  |  Branch (631:13): [True: 2.82M, False: 60.8k]
  ------------------
  632|  2.82M|            destroy_value();
  633|  2.82M|        }
  634|  60.8k|        else {
  635|  60.8k|            destroy_unexpected();
  636|  60.8k|        }
  637|  2.89M|    }
_ZN3scn2v36detail21expected_storage_baseINS0_11scan_resultINS0_6ranges6detail9subrange_8subrangeIPKwS9_EEJNSt3__112basic_stringIwNSB_11char_traitsIwEENSB_9allocatorIwEEEEEEENS0_10scan_errorELb0EE13destroy_valueEv:
  695|  2.82M|    {
  696|  2.82M|        scn::detail::destroy_at(value_ptr());
  697|  2.82M|    }
_ZN3scn2v36detail10destroy_atINS0_11scan_resultINS0_6ranges6detail9subrange_8subrangeIPKwS9_EEJNSt3__112basic_stringIwNSB_11char_traitsIwEENSB_9allocatorIwEEEEEEEEEvPT_:
  397|  2.82M|{
  398|       |    if constexpr (std::is_array_v<T>) {
  399|       |        for (auto& elem : *p) {
  400|       |            scn::detail::destroy_at(&elem);
  401|       |        }
  402|       |    }
  403|  2.82M|    else {
  404|  2.82M|        p->~T();
  405|  2.82M|    }
  406|  2.82M|}
_ZN3scn2v36detail21expected_storage_baseINS0_11scan_resultINS0_6ranges6detail9subrange_8subrangeIPKwS9_EEJNSt3__112basic_stringIwNSB_11char_traitsIwEENSB_9allocatorIwEEEEEEENS0_10scan_errorELb0EE18destroy_unexpectedEv:
  699|  60.8k|    {
  700|  60.8k|        scn::detail::destroy_at(unexpected_ptr());
  701|  60.8k|    }
_ZN3scn2v36detail23vscan_localized_genericINSt3__16localeENS0_6ranges6detail9subrange_8subrangeIPKwSA_EEwEENS0_13scan_expectedINS3_11conditionalIXsr3stdE9is_same_vIu11__remove_cvIu20__remove_reference_tIT0_EEP8_IO_FILEEESI_NS1_22borrowed_tail_subrangeISE_Xsr6rangesE14borrowed_rangeISE_EEE4typeEE4typeEEERKT_OSE_NS3_17basic_string_viewIT1_NS3_11char_traitsISU_EEEENS0_15basic_scan_argsINS0_18basic_scan_contextISU_EEEE:
 8616|  2.32M|{
 8617|  2.32M|#if !SCN_DISABLE_LOCALE
 8618|  2.32M|    auto buffer = detail::make_scan_buffer(range);
 8619|       |
 8620|  2.32M|    SCN_CLANG_PUSH_IGNORE_UNDEFINED_TEMPLATE
 8621|  2.32M|    auto result = detail::vscan_localized_impl(loc, buffer, format, args);
 8622|  2.32M|    SCN_CLANG_POP_IGNORE_UNDEFINED_TEMPLATE
 8623|       |
 8624|  2.32M|    if (SCN_UNLIKELY(!result)) {
  ------------------
  |  |  859|  2.32M|#define SCN_UNLIKELY(x) __builtin_expect(!!(x), 0)
  |  |  ------------------
  |  |  |  Branch (859:25): [True: 56.1k, False: 2.26M]
  |  |  ------------------
  ------------------
 8625|  56.1k|        return unexpected(result.error());
 8626|  56.1k|    }
 8627|  2.26M|    return detail::make_vscan_result_range(SCN_FWD(range), *result);
  ------------------
  |  |  930|  2.26M|#define SCN_FWD(x)          static_cast<decltype(x)&&>(x)
  ------------------
 8628|       |#else
 8629|       |    static_assert(dependent_false<Locale>::value,
 8630|       |                  "Can't use scan(locale, ...) with SCN_DISABLE_LOCALE on");
 8631|       |
 8632|       |    return {};
 8633|       |#endif
 8634|  2.32M|}
_ZN3scn2v36detail8make_argINS0_18basic_scan_contextIwEENSt3__112basic_stringIwNS5_11char_traitsIwEENS5_9allocatorIwEEEEEENS0_14basic_scan_argIT_EERT0_:
 5164|  1.14M|{
 5165|  1.14M|    check_scan_arg_types<T>();
 5166|       |
 5167|  1.14M|    basic_scan_arg<Context> arg;
 5168|  1.14M|    arg.m_type = mapped_type_constant<T, typename Context::char_type>::value;
 5169|  1.14M|    arg.m_value = make_value<Context>(value);
 5170|  1.14M|    return arg;
 5171|  1.14M|}
_ZN3scn2v314basic_scan_argINS0_18basic_scan_contextIwEEEC2Ev:
 5250|  8.67M|    constexpr basic_scan_arg() = default;
_ZN3scn2v36detail19vscan_value_genericINS0_6ranges6detail9subrange_8subrangeIPKwS8_EEwEENS0_13scan_expectedINSt3__111conditionalIXsr3stdE9is_same_vIu11__remove_cvIu20__remove_reference_tIT_EEP8_IO_FILEEESH_NS1_22borrowed_tail_subrangeISD_Xsr6rangesE14borrowed_rangeISD_EEE4typeEE4typeEEEOSD_NS0_14basic_scan_argINS0_18basic_scan_contextIT0_EEEE:
 8640|  1.14M|{
 8641|  1.14M|    auto buffer = detail::make_scan_buffer(range);
 8642|       |
 8643|  1.14M|    auto result = detail::vscan_value_impl(buffer, arg);
 8644|  1.14M|    if (SCN_UNLIKELY(!result)) {
  ------------------
  |  |  859|  1.14M|#define SCN_UNLIKELY(x) __builtin_expect(!!(x), 0)
  |  |  ------------------
  |  |  |  Branch (859:25): [True: 9.36k, False: 1.13M]
  |  |  ------------------
  ------------------
 8645|  9.36k|        return unexpected(result.error());
 8646|  9.36k|    }
 8647|  1.13M|    return detail::make_vscan_result_range(SCN_FWD(range), *result);
  ------------------
  |  |  930|  1.13M|#define SCN_FWD(x)          static_cast<decltype(x)&&>(x)
  ------------------
 8648|  1.14M|}
_ZNO3scn2v38expectedINS0_6ranges6detail9subrange_8subrangeIPKwS7_EENS0_10scan_errorEEdeIS8_TnPNSt3__19enable_ifIXntsr3stdE9is_void_vIT_EEvE4typeELPv0EEEOSE_v:
 1662|  1.13M|    {
 1663|  1.13M|        return std::move(value());
 1664|  1.13M|    }
_ZN3scn2v314make_scan_argsINS0_18basic_scan_contextIwEEJNSt3__117basic_string_viewIwNS4_11char_traitsIwEEEEEEEDav:
 5405|  2.32M|{
 5406|  2.32M|    detail::check_scan_arg_types<Args...>();
 5407|  2.32M|    return detail::scan_arg_store<Context, Args...>{};
 5408|  2.32M|}
_ZN3scn2v36detail20check_scan_arg_typesIJNSt3__117basic_string_viewIwNS3_11char_traitsIwEEEEEEEvv:
 5144|  2.89M|{
 5145|  2.89M|    static_assert(std::conjunction_v<std::is_default_constructible<Args>...>,
 5146|  2.89M|                  "Scan argument types must be default constructible");
 5147|  2.89M|    static_assert(std::conjunction_v<std::is_destructible<Args>...>,
 5148|  2.89M|                  "Scan argument types must be Destructible");
 5149|  2.89M|    static_assert(
 5150|  2.89M|        !std::conjunction_v<std::false_type, std::is_reference<Args>...>,
 5151|  2.89M|        "Scan argument types must not be references");
 5152|  2.89M|}
_ZN3scn2v36detail14scan_arg_storeINS0_18basic_scan_contextIwEEJNSt3__117basic_string_viewIwNS5_11char_traitsIwEEEEEEC2Ev:
 5357|  2.32M|        : m_argptrs(std::apply(make_argptrs<Args...>, m_args))
 5358|  2.32M|    {
 5359|  2.32M|    }
_ZN3scn2v36detail14scan_arg_storeINS0_18basic_scan_contextIwEEJNSt3__117basic_string_viewIwNS5_11char_traitsIwEEEEEE12make_argptrsIJS9_EEENS5_5arrayIPvLm1EEEDpRT_:
 5369|  2.32M|    {
 5370|  2.32M|        return {detail::make_arg<
 5371|  2.32M|            kind, Context,
 5372|  2.32M|            mapped_type_constant<remove_cvref_t<A>,
 5373|  2.32M|                                 typename Context::char_type>::value>(args)...};
 5374|  2.32M|    }
_ZN3scn2v36detail8make_argILNS1_19scan_arg_store_kindE0ENS0_18basic_scan_contextIwEELNS1_8arg_typeE20ENSt3__117basic_string_viewIwNS7_11char_traitsIwEEEEvEEPvRT2_:
 5179|  2.32M|{
 5180|  2.32M|    return make_value<Context>(value).ref_value;
 5181|  2.32M|}
_ZN3scn2v36detail10make_valueINS0_18basic_scan_contextIwEENSt3__117basic_string_viewIwNS5_11char_traitsIwEEEEEEDaRT0_:
 5129|  2.89M|{
 5130|  2.89M|    auto&& arg = arg_mapper<typename Context::char_type>().map(value);
 5131|       |
 5132|       |    if constexpr (!std::is_same_v<remove_cvref_t<decltype(arg)>,
 5133|  2.89M|                                  needs_context_tag>) {
 5134|  2.89M|        return make_value_impl(SCN_FWD(arg));
  ------------------
  |  |  930|  2.89M|#define SCN_FWD(x)          static_cast<decltype(x)&&>(x)
  ------------------
 5135|       |    }
 5136|       |    else {
 5137|       |        return make_value_impl(arg_mapper<typename Context::char_type>().map(
 5138|       |            value, context_tag<Context>{}));
 5139|       |    }
 5140|  2.89M|}
_ZN3scn2v36detail10arg_mapperIwE3mapERNSt3__117basic_string_viewIwNS4_11char_traitsIwEEEE:
 4968|  2.89M|    {                                                                        \
 4969|  2.89M|        return val;                                                          \
 4970|  2.89M|    }
_ZN3scn2v36detail15make_value_implIRNSt3__117basic_string_viewIwNS3_11char_traitsIwEEEEEEDaOT_:
 5098|  2.89M|{
 5099|  2.89M|    using arg_nocvref_t = remove_cvref_t<Arg>;
 5100|  2.89M|    static_assert(!std::is_same_v<arg_nocvref_t, needs_context_tag>);
 5101|       |
 5102|  2.89M|    constexpr bool scannable_char =
 5103|  2.89M|        !std::is_same_v<arg_nocvref_t, unscannable_char>;
 5104|  2.89M|    static_assert(scannable_char,
 5105|  2.89M|                  "Cannot scan an argument of an unsupported character "
 5106|  2.89M|                  "type (i.e. char from a wchar_t source)");
 5107|       |
 5108|  2.89M|    constexpr bool scannable_const =
 5109|  2.89M|        !std::is_same_v<arg_nocvref_t, unscannable_const>;
 5110|  2.89M|    static_assert(scannable_const, "Cannot scan a const argument");
 5111|       |
 5112|  2.89M|    constexpr bool scannable_disabled =
 5113|  2.89M|        !std::is_same_v<arg_nocvref_t, unscannable_disabled>;
 5114|  2.89M|    static_assert(scannable_disabled,
 5115|  2.89M|                  "Cannot scan an argument that has been disabled by "
 5116|  2.89M|                  "flag (SCN_DISABLE_TYPE_*)");
 5117|       |
 5118|  2.89M|    constexpr bool scannable = !std::is_same_v<arg_nocvref_t, unscannable>;
 5119|  2.89M|    static_assert(
 5120|  2.89M|        scannable,
 5121|  2.89M|        "Cannot scan an argument. To make a type T scannable, provide "
 5122|  2.89M|        "a scn::scanner<T, CharT> specialization.");
 5123|       |
 5124|  2.89M|    return arg_value{arg};
 5125|  2.89M|}
_ZN3scn2v36detail9arg_valueC2INSt3__117basic_string_viewIwNS4_11char_traitsIwEEEEEERT_:
 4909|  2.89M|    explicit constexpr arg_value(T& val) : ref_value{std::addressof(val)}
 4910|  2.89M|    {
 4911|  2.89M|    }
_ZNK3scn2v324basic_scan_format_stringIwNS0_6ranges6detail9subrange_8subrangeIPKwS7_EEJNSt3__117basic_string_viewIwNS9_11char_traitsIwEEEEEEcvSD_Ev:
 7984|  2.32M|    {
 7985|  2.32M|        return m_str;
 7986|  2.32M|    }
_ZN3scn2v315basic_scan_argsINS0_18basic_scan_contextIwEEEC2IJNSt3__117basic_string_viewIwNS6_11char_traitsIwEEEEEEERNS0_6detail14scan_arg_storeIS3_JDpT_EEE:
 5434|  2.32M|        : basic_scan_args(store.desc, store.arg_pointers().data())
 5435|  2.32M|    {
 5436|  2.32M|    }
_ZN3scn2v36detail14scan_arg_storeINS0_18basic_scan_contextIwEEJNSt3__117basic_string_viewIwNS5_11char_traitsIwEEEEEE12arg_pointersEv:
 5388|  2.32M|    {
 5389|  2.32M|        return m_argptrs;
 5390|  2.32M|    }
_ZN3scn2v316make_scan_resultINS0_6ranges6detail9subrange_8subrangeIPKwS7_EEJNSt3__117basic_string_viewIwNS9_11char_traitsIwEEEEEEENS0_13scan_expectedINS0_11scan_resultIT_JDpT0_EEEEEONSE_ISG_EEONS9_5tupleIJSI_EEE:
 8829|  2.32M|{
 8830|  2.32M|    if (SCN_UNLIKELY(!result)) {
  ------------------
  |  |  859|  2.32M|#define SCN_UNLIKELY(x) __builtin_expect(!!(x), 0)
  |  |  ------------------
  |  |  |  Branch (859:25): [True: 56.1k, False: 2.26M]
  |  |  ------------------
  ------------------
 8831|  56.1k|        return unexpected(result.error());
 8832|  56.1k|    }
 8833|  2.26M|    return scan_result{SCN_MOVE(*result), SCN_MOVE(args)};
  ------------------
  |  |  928|  2.26M|    static_cast<    \
  |  |  929|  2.26M|        typename ::scn::detail::remove_reference<decltype(x)>::type&&>(x)
  ------------------
                  return scan_result{SCN_MOVE(*result), SCN_MOVE(args)};
  ------------------
  |  |  928|  2.26M|    static_cast<    \
  |  |  929|  2.26M|        typename ::scn::detail::remove_reference<decltype(x)>::type&&>(x)
  ------------------
 8834|  2.32M|}
_ZN3scn2v38expectedINS0_11scan_resultINS0_6ranges6detail9subrange_8subrangeIPKwS8_EEJNSt3__117basic_string_viewIwNSA_11char_traitsIwEEEEEEENS0_10scan_errorEEC2ISG_TnPNSA_9enable_ifIXsr3stdE18is_constructible_vISG_OT_EEvE4typeELPv0ETnPNSJ_IXsr3stdE16is_convertible_vISL_SG_EEvE4typeELSP_0EEEONS0_10unexpectedISK_EE:
 1473|  60.8k|        : base(unexpect, std::move(e.error())),
 1474|  60.8k|          ctor_base(detail::non_default_ctor_tag_t{})
 1475|  60.8k|    {
 1476|  60.8k|    }
_ZN3scn2v36detail21expected_storage_baseINS0_11scan_resultINS0_6ranges6detail9subrange_8subrangeIPKwS9_EEJNSt3__117basic_string_viewIwNSB_11char_traitsIwEEEEEEENS0_10scan_errorELb1EEC2IJSH_EvEENS0_10unexpect_tEDpOT_:
  444|  60.8k|        : m_unexpected(std::in_place, std::forward<Args>(args)...),
  445|  60.8k|          m_has_value(false)
  446|  60.8k|    {
  447|  60.8k|    }
_ZN3scn2v36detail26expected_default_ctor_baseINS0_11scan_resultINS0_6ranges6detail9subrange_8subrangeIPKwS9_EEJNSt3__117basic_string_viewIwNSB_11char_traitsIwEEEEEEENS0_10scan_errorELb1EEC2ENS1_22non_default_ctor_tag_tE:
 1176|  2.89M|    {
 1177|  2.89M|    }
_ZN3scn2v311scan_resultINS0_6ranges6detail9subrange_8subrangeIPKwS7_EEJNSt3__117basic_string_viewIwNS9_11char_traitsIwEEEEEEC2ES8_ONS9_5tupleIJSD_EEE:
 5838|  2.82M|        : range_base(SCN_MOVE(r)), value_base(SCN_MOVE(values))
  ------------------
  |  |  928|  2.82M|    static_cast<    \
  |  |  929|  2.82M|        typename ::scn::detail::remove_reference<decltype(x)>::type&&>(x)
  ------------------
                      : range_base(SCN_MOVE(r)), value_base(SCN_MOVE(values))
  ------------------
  |  |  928|  2.82M|    static_cast<    \
  |  |  929|  2.82M|        typename ::scn::detail::remove_reference<decltype(x)>::type&&>(x)
  ------------------
 5839|  2.82M|    {
 5840|  2.82M|    }
_ZN3scn2v36detail25scan_result_value_storageIJNSt3__117basic_string_viewIwNS3_11char_traitsIwEEEEEEC2EONS3_5tupleIJS7_EEE:
 5624|  2.82M|        : m_values(SCN_MOVE(values))
  ------------------
  |  |  928|  2.82M|    static_cast<    \
  |  |  929|  2.82M|        typename ::scn::detail::remove_reference<decltype(x)>::type&&>(x)
  ------------------
 5625|  2.82M|    {
 5626|  2.82M|    }
_ZN3scn2v38expectedINS0_11scan_resultINS0_6ranges6detail9subrange_8subrangeIPKwS8_EEJNSt3__117basic_string_viewIwNSA_11char_traitsIwEEEEEEENS0_10scan_errorEEC2ISF_vEEOT_:
 1427|  2.82M|        : base(std::in_place, std::forward<U>(val)),
 1428|  2.82M|          ctor_base(detail::non_default_ctor_tag_t{})
 1429|  2.82M|    {
 1430|  2.82M|    }
_ZN3scn2v36detail21expected_storage_baseINS0_11scan_resultINS0_6ranges6detail9subrange_8subrangeIPKwS9_EEJNSt3__117basic_string_viewIwNSB_11char_traitsIwEEEEEEENS0_10scan_errorELb1EEC2IJSG_EvEENSB_10in_place_tEDpOT_:
  435|  2.82M|        : m_value(std::forward<Args>(args)...), m_has_value(true)
  436|  2.82M|    {
  437|  2.82M|    }
_ZN3scn2v36detail14scan_arg_storeINS0_18basic_scan_contextIwEEJNSt3__117basic_string_viewIwNS5_11char_traitsIwEEEEEE4argsEv:
 5383|  2.32M|    {
 5384|  2.32M|        return m_args;
 5385|  2.32M|    }
_ZN3scn2v324basic_scan_format_stringIwNS0_6ranges6detail9subrange_8subrangeIPKwS7_EEJNSt3__117basic_string_viewIwNS9_11char_traitsIwEEEEEEC2ENS0_6detail27basic_runtime_format_stringIwEE:
 7979|  2.32M|        : m_str(r.str)
 7980|  2.32M|    {
 7981|  2.32M|    }
_ZNK3scn2v38expectedINS0_11scan_resultINS0_6ranges6detail9subrange_8subrangeIPKwS8_EEJNSt3__117basic_string_viewIwNSA_11char_traitsIwEEEEEEENS0_10scan_errorEEcvbEv:
 1597|  2.89M|    {
 1598|  2.89M|        return has_value();
 1599|  2.89M|    }
_ZNK3scn2v36detail21expected_storage_baseINS0_11scan_resultINS0_6ranges6detail9subrange_8subrangeIPKwS9_EEJNSt3__117basic_string_viewIwNSB_11char_traitsIwEEEEEEENS0_10scan_errorELb1EE9has_valueEv:
  484|  5.72M|    {
  485|  5.72M|        return m_has_value;
  486|  5.72M|    }
_ZN3scn2v38expectedINS0_11scan_resultINS0_6ranges6detail9subrange_8subrangeIPKwS8_EEJNSt3__117basic_string_viewIwNSA_11char_traitsIwEEEEEEENS0_10scan_errorEEptEv:
 1672|  2.82M|    {
 1673|  2.82M|        return &value();
 1674|  2.82M|    }
_ZNR3scn2v38expectedINS0_11scan_resultINS0_6ranges6detail9subrange_8subrangeIPKwS8_EEJNSt3__117basic_string_viewIwNSA_11char_traitsIwEEEEEEENS0_10scan_errorEE5valueISF_TnPNSA_9enable_ifIXntsr3stdE9is_void_vIT_EEvE4typeELPv0EEERSK_v:
 1626|  2.82M|    {
 1627|  2.82M|        SCN_EXPECT(has_value());
  ------------------
  |  |  924|  2.82M|#define SCN_EXPECT(cond) SCN_ASSERT(cond, "Precondition violation")
  |  |  ------------------
  |  |  |  |  921|  2.82M|#define SCN_ASSERT(cond, msg) assert((cond) && msg)
  |  |  ------------------
  ------------------
 1628|  2.82M|        return this->get_value();
 1629|  2.82M|    }
_ZNR3scn2v36detail21expected_storage_baseINS0_11scan_resultINS0_6ranges6detail9subrange_8subrangeIPKwS9_EEJNSt3__117basic_string_viewIwNSB_11char_traitsIwEEEEEEENS0_10scan_errorELb1EE9get_valueEv:
  450|  2.82M|    {
  451|  2.82M|        return m_value;
  452|  2.82M|    }
_ZN3scn2v36detail8make_argINS0_18basic_scan_contextIwEENSt3__117basic_string_viewIwNS5_11char_traitsIwEEEEEENS0_14basic_scan_argIT_EERT0_:
 5164|   570k|{
 5165|   570k|    check_scan_arg_types<T>();
 5166|       |
 5167|   570k|    basic_scan_arg<Context> arg;
 5168|   570k|    arg.m_type = mapped_type_constant<T, typename Context::char_type>::value;
 5169|   570k|    arg.m_value = make_value<Context>(value);
 5170|   570k|    return arg;
 5171|   570k|}
_ZNK3scn2v36ranges6detail6begin_2fnclIRKNSt3__15dequeIwNS6_9allocatorIwEEEEEEDTclsr2fnE4implscDtfp_Efp_tlNS0_6detail12priority_tagILm3EEEEEEOT_:
 2723|  60.8k|    {
 2724|  60.8k|        return fn::impl(SCN_FWD(t), priority_tag<3>{});
  ------------------
  |  |  930|  60.8k|#define SCN_FWD(x)          static_cast<decltype(x)&&>(x)
  ------------------
 2725|  60.8k|    }
_ZN3scn2v36ranges6detail6begin_2fn4implIRKNSt3__15dequeIwNS6_9allocatorIwEEEEEENS6_9enable_ifIX24input_or_output_iteratorIDTcl10decay_copycldtscDtfp_Efp_5beginEEEEESF_E4typeEOT_NS0_6detail12priority_tagILm1EEE:
 2704|  60.8k|    {
 2705|  60.8k|        return decay_copy(t.begin());
 2706|  60.8k|    }
_ZN3scn2v36ranges6detail10decay_copyINSt3__116__deque_iteratorIwPKwRS6_PKS7_lLl1024EEEEEu7__decayIT_EOSC_:
 1948|   229M|{
 1949|   229M|    return SCN_FWD(t);
  ------------------
  |  |  930|   229M|#define SCN_FWD(x)          static_cast<decltype(x)&&>(x)
  ------------------
 1950|   229M|}
_ZNK3scn2v36ranges6detail4end_2fnclIRKNSt3__15dequeIwNS6_9allocatorIwEEEEEEDTclsr2fnE4implscDtfp_Efp_tlNS0_6detail12priority_tagILm3EEEEEEOT_:
 2780|  5.78M|    {
 2781|  5.78M|        return fn::impl(SCN_FWD(t), priority_tag<3>{});
  ------------------
  |  |  930|  5.78M|#define SCN_FWD(x)          static_cast<decltype(x)&&>(x)
  ------------------
 2782|  5.78M|    }
_ZN3scn2v36ranges6detail4end_2fn4implIRKNSt3__15dequeIwNS6_9allocatorIwEEEENS6_16__deque_iteratorIwPKwRSE_PKSF_lLl1024EEESJ_EENS6_9enable_ifIX12sentinel_forIT0_T1_EEDTcl10decay_copycldtscDtfp_Efp_3endEEEE4typeEOT_NS0_6detail12priority_tagILm1EEE:
 2762|  5.78M|    {
 2763|  5.78M|        return decay_copy(SCN_FWD(t).end());
  ------------------
  |  |  930|  5.78M|#define SCN_FWD(x)          static_cast<decltype(x)&&>(x)
  ------------------
 2764|  5.78M|    }
_ZN3scn2v36detail13vscan_genericINS0_6ranges6detail9subrange_8subrangeINSt3__116__deque_iteratorIwPKwRS9_PKSA_lLl1024EEESE_EEwEENS0_13scan_expectedINS7_11conditionalIXsr3stdE9is_same_vIu11__remove_cvIu20__remove_reference_tIT_EEP8_IO_FILEEESM_NS1_22borrowed_tail_subrangeISI_Xsr6rangesE14borrowed_rangeISI_EEE4typeEE4typeEEEOSI_NS7_17basic_string_viewIT0_NS7_11char_traitsISV_EEEENS0_15basic_scan_argsINS0_18basic_scan_contextISV_EEEE:
 8600|  1.16M|{
 8601|  1.16M|    auto buffer = make_scan_buffer(range);
 8602|       |
 8603|  1.16M|    auto result = vscan_impl(buffer, format, args);
 8604|  1.16M|    if (SCN_UNLIKELY(!result)) {
  ------------------
  |  |  859|  1.16M|#define SCN_UNLIKELY(x) __builtin_expect(!!(x), 0)
  |  |  ------------------
  |  |  |  Branch (859:25): [True: 28.0k, False: 1.13M]
  |  |  ------------------
  ------------------
 8605|  28.0k|        return unexpected(result.error());
 8606|  28.0k|    }
 8607|  1.13M|    return make_vscan_result_range(SCN_FWD(range), *result);
  ------------------
  |  |  930|  1.13M|#define SCN_FWD(x)          static_cast<decltype(x)&&>(x)
  ------------------
 8608|  1.16M|}
_ZN3scn2v36detail16make_scan_bufferINS0_6ranges6detail9subrange_8subrangeINSt3__116__deque_iteratorIwPKwRS9_PKSA_lLl1024EEESE_EEEEDaRKT_:
 4728|  2.89M|{
 4729|  2.89M|    using T = decltype(_make_scan_buffer::impl(range, priority_tag<4>{}));
 4730|       |
 4731|  2.89M|    static_assert(!std::is_same_v<T, invalid_char_type>,
 4732|  2.89M|                  "\n"
 4733|  2.89M|                  "Unsupported range type given as input to a scanning "
 4734|  2.89M|                  "function.\n"
 4735|  2.89M|                  "A range needs to have a character type (value type) "
 4736|  2.89M|                  "of either `char` or `wchar_t` to be scannable.\n"
 4737|  2.89M|                  "For proper `wchar_t` support, <scn/xchar.h> needs "
 4738|  2.89M|                  "to be included.\n"
 4739|  2.89M|                  "See the scnlib documentation for more details.");
 4740|  2.89M|    static_assert(
 4741|  2.89M|        !std::is_same_v<T, custom_char_traits>,
 4742|  2.89M|        "\n"
 4743|  2.89M|        "Unsupported range type given as input to a scanning "
 4744|  2.89M|        "function.\n"
 4745|  2.89M|        "String types (std::basic_string, and std::basic_string_view) "
 4746|  2.89M|        "need to use std::char_traits. Strings with custom Traits are "
 4747|  2.89M|        "not supported.");
 4748|  2.89M|    static_assert(!std::is_same_v<T, file_marker_found>,
 4749|  2.89M|                  "\n"
 4750|  2.89M|                  "Unsupported range type given as input to a scanning "
 4751|  2.89M|                  "function.\n"
 4752|  2.89M|                  "file_marker_found cannot be used as an "
 4753|  2.89M|                  "source range type to scn::scan.\n"
 4754|  2.89M|                  "To read from stdin, use scn::input or scn::prompt, "
 4755|  2.89M|                  "and do not provide an explicit source range, "
 4756|  2.89M|                  "or use scn::scan with a FILE* directly.");
 4757|  2.89M|    static_assert(!std::is_same_v<T, insufficient_range>,
 4758|  2.89M|                  "\n"
 4759|  2.89M|                  "Unsupported range type given as input to a scanning "
 4760|  2.89M|                  "function.\n"
 4761|  2.89M|                  "In order to be scannable, a range needs to satisfy "
 4762|  2.89M|                  "`forward_range`. `input_range` is not sufficient.");
 4763|  2.89M|    static_assert(!std::is_same_v<T, invalid_input_range>,
 4764|  2.89M|                  "\n"
 4765|  2.89M|                  "Unsupported range type given as input to a scanning "
 4766|  2.89M|                  "function.\n"
 4767|  2.89M|                  "A range needs to model forward_range and have a valid "
 4768|  2.89M|                  "character type (char or wchar_t) to be scannable.\n"
 4769|  2.89M|                  "Examples of scannable ranges are std::string, "
 4770|  2.89M|                  "std::string_view, "
 4771|  2.89M|                  "std::vector<char>, and scn::istreambuf_view.\n"
 4772|  2.89M|                  "See the scnlib documentation for more details.");
 4773|       |
 4774|  2.89M|    return _make_scan_buffer::impl(range, priority_tag<4>{});
 4775|  2.89M|}
_ZN3scn2v36detail17_make_scan_buffer4implINS0_6ranges6detail9subrange_8subrangeINSt3__116__deque_iteratorIwPKwRSA_PKSB_lLl1024EEESF_EEEEDaRKT_NS1_12priority_tagILm0EEE:
 4698|  2.89M|{
 4699|       |    if constexpr (std::is_same_v<Range, file_marker>) {
 4700|       |        return file_marker_found{};
 4701|       |    }
 4702|       |    else if constexpr (!ranges::forward_range<Range>) {
 4703|       |        if constexpr (ranges::range<Range>) {
 4704|       |            return insufficient_range{};
 4705|       |        }
 4706|       |        else {
 4707|       |            return invalid_input_range{};
 4708|       |        }
 4709|       |    }
 4710|       |    else if constexpr (!is_valid_char_type<detail::char_t<Range>>) {
 4711|       |        return invalid_char_type{};
 4712|       |    }
 4713|  2.89M|    else {
 4714|  2.89M|        return make_forward_scan_buffer(r);
 4715|  2.89M|    }
 4716|  2.89M|}
_ZN3scn2v36detail24make_forward_scan_bufferINS0_6ranges6detail9subrange_8subrangeINSt3__116__deque_iteratorIwPKwRS9_PKSA_lLl1024EEESE_EEEEDaRKT_:
 4532|  2.89M|{
 4533|  2.89M|    return basic_scan_forward_buffer_impl(range);
 4534|  2.89M|}
_ZN3scn2v36detail30basic_scan_forward_buffer_implINS0_6ranges6detail9subrange_8subrangeINSt3__116__deque_iteratorIwPKwRS9_PKSA_lLl1024EEESE_EEEC2IRKSF_TnPNS7_9enable_ifIXaa11is_not_selfIT_SG_Esr3stdE16is_convertible_vISL_SJ_EEvE4typeELPv0EEEOSL_:
 4417|  2.89M|        : m_range(std::addressof(static_cast<const Range&>(SCN_FWD(r)))),
  ------------------
  |  |  930|  2.89M|#define SCN_FWD(x)          static_cast<decltype(x)&&>(x)
  ------------------
 4418|  2.89M|          m_cursor(ranges::begin(*m_range))
 4419|  2.89M|    {
 4420|  2.89M|    }
_ZN3scn2v36detail30basic_scan_forward_buffer_baseIwEC2Ev:
 4389|  2.89M|    basic_scan_forward_buffer_base() : base(typename base::non_contiguous_tag{})
 4390|  2.89M|    {
 4391|  2.89M|    }
_ZN3scn2v36detail17basic_scan_bufferIwEC2ENS3_18non_contiguous_tagENSt3__117basic_string_viewIwNS5_11char_traitsIwEEEE:
 4157|  2.89M|        : m_current_view(sv), m_is_contiguous(false)
 4158|  2.89M|    {
 4159|  2.89M|    }
_ZN3scn2v36detail17basic_scan_bufferIwED2Ev:
 4073|  2.89M|    virtual ~basic_scan_buffer() = default;
_ZNK3scn2v36ranges6detail6begin_2fnclIRKNS2_9subrange_8subrangeINSt3__116__deque_iteratorIwPKwRSA_PKSB_lLl1024EEESF_EEEEDTclsr2fnE4implscDtfp_Efp_tlNS0_6detail12priority_tagILm3EEEEEEOT_:
 2723|  5.72M|    {
 2724|  5.72M|        return fn::impl(SCN_FWD(t), priority_tag<3>{});
  ------------------
  |  |  930|  5.72M|#define SCN_FWD(x)          static_cast<decltype(x)&&>(x)
  ------------------
 2725|  5.72M|    }
_ZN3scn2v36ranges6detail6begin_2fn4implIRKNS2_9subrange_8subrangeINSt3__116__deque_iteratorIwPKwRSA_PKSB_lLl1024EEESF_EEEENS8_9enable_ifIX24input_or_output_iteratorIDTcl10decay_copycldtscDtfp_Efp_5beginEEEEESL_E4typeEOT_NS0_6detail12priority_tagILm1EEE:
 2704|  5.72M|    {
 2705|  5.72M|        return decay_copy(t.begin());
 2706|  5.72M|    }
_ZNK3scn2v36ranges6detail9subrange_8subrangeINSt3__116__deque_iteratorIwPKwRS7_PKS8_lLl1024EEESC_E5beginEv:
 3325|  8.55M|    {
 3326|  8.55M|        return m_iterator;
 3327|  8.55M|    }
_ZN3scn2v36detail30basic_scan_forward_buffer_implINS0_6ranges6detail9subrange_8subrangeINSt3__116__deque_iteratorIwPKwRS9_PKSA_lLl1024EEESE_EEE4fillEv:
 4423|  70.8M|    {
 4424|  70.8M|        if (m_cursor == ranges::end(*m_range)) {
  ------------------
  |  Branch (4424:13): [True: 50.3k, False: 70.7M]
  ------------------
 4425|  50.3k|            return false;
 4426|  50.3k|        }
 4427|  70.7M|        if constexpr (mp_valid_v<less_than_compare, iterator, sentinel>) {
 4428|  70.7M|            SCN_EXPECT(m_cursor < ranges::end(*m_range));
  ------------------
  |  |  924|  70.7M|#define SCN_EXPECT(cond) SCN_ASSERT(cond, "Precondition violation")
  |  |  ------------------
  |  |  |  |  921|  70.7M|#define SCN_ASSERT(cond, msg) assert((cond) && msg)
  |  |  ------------------
  ------------------
 4429|  70.7M|        }
 4430|  70.7M|        if (!this->m_current_view.empty()) {
  ------------------
  |  Branch (4430:13): [True: 67.9M, False: 2.85M]
  ------------------
 4431|  67.9M|            this->m_putback_buffer.insert(this->m_putback_buffer.end(),
 4432|  67.9M|                                          this->m_current_view.begin(),
 4433|  67.9M|                                          this->m_current_view.end());
 4434|  67.9M|        }
 4435|  70.7M|        m_latest = *m_cursor;
 4436|  70.7M|        ++m_cursor;
 4437|  70.7M|        this->m_current_view = std::basic_string_view<char_type>{&m_latest, 1};
 4438|  70.7M|        if constexpr (mp_valid_v<less_than_compare, iterator, sentinel>) {
 4439|  70.7M|            SCN_EXPECT(m_cursor <= ranges::end(*m_range));
  ------------------
  |  |  924|  70.7M|#define SCN_EXPECT(cond) SCN_ASSERT(cond, "Precondition violation")
  |  |  ------------------
  |  |  |  |  921|  70.7M|#define SCN_ASSERT(cond, msg) assert((cond) && msg)
  |  |  ------------------
  ------------------
 4440|  70.7M|        }
 4441|  70.7M|        return true;
 4442|  70.8M|    }
_ZNK3scn2v36ranges6detail4end_2fnclIRKNS2_9subrange_8subrangeINSt3__116__deque_iteratorIwPKwRSA_PKSB_lLl1024EEESF_EEEEDTclsr2fnE4implscDtfp_Efp_tlNS0_6detail12priority_tagILm3EEEEEEOT_:
 2780|   212M|    {
 2781|   212M|        return fn::impl(SCN_FWD(t), priority_tag<3>{});
  ------------------
  |  |  930|   212M|#define SCN_FWD(x)          static_cast<decltype(x)&&>(x)
  ------------------
 2782|   212M|    }
_ZN3scn2v36ranges6detail4end_2fn4implIRKNS2_9subrange_8subrangeINSt3__116__deque_iteratorIwPKwRSA_PKSB_lLl1024EEESF_EESF_SF_EENS8_9enable_ifIX12sentinel_forIT0_T1_EEDTcl10decay_copycldtscDtfp_Efp_3endEEEE4typeEOT_NS0_6detail12priority_tagILm1EEE:
 2762|   212M|    {
 2763|   212M|        return decay_copy(SCN_FWD(t).end());
  ------------------
  |  |  930|   212M|#define SCN_FWD(x)          static_cast<decltype(x)&&>(x)
  ------------------
 2764|   212M|    }
_ZNK3scn2v36ranges6detail9subrange_8subrangeINSt3__116__deque_iteratorIwPKwRS7_PKS8_lLl1024EEESC_E3endEv:
 3329|   215M|    {
 3330|   215M|        return m_sentinel;
 3331|   215M|    }
_ZN3scn2v36detail17basic_scan_bufferIwE4syncEl:
 4078|  2.89M|    {
 4079|  2.89M|        SCN_UNUSED(position);
  ------------------
  |  |  909|  2.89M|#define SCN_UNUSED(x) static_cast<void>(sizeof(x))
  ------------------
 4080|  2.89M|    }
_ZN3scn2v38expectedINS0_6ranges6detail9subrange_8subrangeINSt3__116__deque_iteratorIwPKwRS8_PKS9_lLl1024EEESD_EENS0_10scan_errorEEC2ISF_TnPNS6_9enable_ifIXsr3stdE18is_constructible_vISF_OT_EEvE4typeELPv0ETnPNSI_IXsr3stdE16is_convertible_vISK_SF_EEvE4typeELSO_0EEEONS0_10unexpectedISJ_EE:
 1473|  60.8k|        : base(unexpect, std::move(e.error())),
 1474|  60.8k|          ctor_base(detail::non_default_ctor_tag_t{})
 1475|  60.8k|    {
 1476|  60.8k|    }
_ZN3scn2v36detail21expected_storage_baseINS0_6ranges6detail9subrange_8subrangeINSt3__116__deque_iteratorIwPKwRS9_PKSA_lLl1024EEESE_EENS0_10scan_errorELb1EEC2IJSG_EvEENS0_10unexpect_tEDpOT_:
  444|  60.8k|        : m_unexpected(std::in_place, std::forward<Args>(args)...),
  445|  60.8k|          m_has_value(false)
  446|  60.8k|    {
  447|  60.8k|    }
_ZN3scn2v36detail26expected_default_ctor_baseINS0_6ranges6detail9subrange_8subrangeINSt3__116__deque_iteratorIwPKwRS9_PKSA_lLl1024EEESE_EENS0_10scan_errorELb1EEC2ENS1_22non_default_ctor_tag_tE:
 1176|  2.89M|    {
 1177|  2.89M|    }
_ZN3scn2v36detail23make_vscan_result_rangeINS0_6ranges6detail9subrange_8subrangeINSt3__116__deque_iteratorIwPKwRS9_PKSA_lLl1024EEESE_EEEENS1_22borrowed_tail_subrangeIT_Xsr6rangesE14borrowed_rangeISH_EEE4typeEOSH_l:
 5932|  2.82M|{
 5933|       |    if constexpr (ranges::random_access_iterator<
 5934|  2.82M|                      ranges::iterator_t<SourceRange>>) {
 5935|  2.82M|        return {ranges::begin(source) + n, make_vscan_result_range_end(source)};
 5936|       |    }
 5937|       |    else {
 5938|       |        auto it = ranges::begin(source);
 5939|       |        while (n > 0) {
 5940|       |            --n;
 5941|       |            ++it;
 5942|       |        }
 5943|       |        return {SCN_MOVE(it), make_vscan_result_range_end(source)};
 5944|       |    }
 5945|  2.82M|}
_ZNK3scn2v36ranges6detail6begin_2fnclIRNS2_9subrange_8subrangeINSt3__116__deque_iteratorIwPKwRSA_PKSB_lLl1024EEESF_EEEEDTclsr2fnE4implscDtfp_Efp_tlNS0_6detail12priority_tagILm3EEEEEEOT_:
 2723|  2.82M|    {
 2724|  2.82M|        return fn::impl(SCN_FWD(t), priority_tag<3>{});
  ------------------
  |  |  930|  2.82M|#define SCN_FWD(x)          static_cast<decltype(x)&&>(x)
  ------------------
 2725|  2.82M|    }
_ZN3scn2v36ranges6detail6begin_2fn4implIRNS2_9subrange_8subrangeINSt3__116__deque_iteratorIwPKwRSA_PKSB_lLl1024EEESF_EEEENS8_9enable_ifIX24input_or_output_iteratorIDTcl10decay_copycldtscDtfp_Efp_5beginEEEEESK_E4typeEOT_NS0_6detail12priority_tagILm1EEE:
 2704|  2.82M|    {
 2705|  2.82M|        return decay_copy(t.begin());
 2706|  2.82M|    }
_ZN3scn2v36detail27make_vscan_result_range_endINS0_6ranges6detail9subrange_8subrangeINSt3__116__deque_iteratorIwPKwRS9_PKSA_lLl1024EEESE_EEEEDaRT_:
 5919|  2.82M|{
 5920|  2.82M|    return ranges::end(source);
 5921|  2.82M|}
_ZNK3scn2v36ranges6detail4end_2fnclIRNS2_9subrange_8subrangeINSt3__116__deque_iteratorIwPKwRSA_PKSB_lLl1024EEESF_EEEEDTclsr2fnE4implscDtfp_Efp_tlNS0_6detail12priority_tagILm3EEEEEEOT_:
 2780|  2.82M|    {
 2781|  2.82M|        return fn::impl(SCN_FWD(t), priority_tag<3>{});
  ------------------
  |  |  930|  2.82M|#define SCN_FWD(x)          static_cast<decltype(x)&&>(x)
  ------------------
 2782|  2.82M|    }
_ZN3scn2v36ranges6detail4end_2fn4implIRNS2_9subrange_8subrangeINSt3__116__deque_iteratorIwPKwRSA_PKSB_lLl1024EEESF_EESF_SF_EENS8_9enable_ifIX12sentinel_forIT0_T1_EEDTcl10decay_copycldtscDtfp_Efp_3endEEEE4typeEOT_NS0_6detail12priority_tagILm1EEE:
 2762|  2.82M|    {
 2763|  2.82M|        return decay_copy(SCN_FWD(t).end());
  ------------------
  |  |  930|  2.82M|#define SCN_FWD(x)          static_cast<decltype(x)&&>(x)
  ------------------
 2764|  2.82M|    }
_ZN3scn2v38expectedINS0_6ranges6detail9subrange_8subrangeINSt3__116__deque_iteratorIwPKwRS8_PKS9_lLl1024EEESD_EENS0_10scan_errorEEC2ISE_vEEOT_:
 1427|  2.82M|        : base(std::in_place, std::forward<U>(val)),
 1428|  2.82M|          ctor_base(detail::non_default_ctor_tag_t{})
 1429|  2.82M|    {
 1430|  2.82M|    }
_ZN3scn2v36detail21expected_storage_baseINS0_6ranges6detail9subrange_8subrangeINSt3__116__deque_iteratorIwPKwRS9_PKSA_lLl1024EEESE_EENS0_10scan_errorELb1EEC2IJSF_EvEENS7_10in_place_tEDpOT_:
  435|  2.82M|        : m_value(std::forward<Args>(args)...), m_has_value(true)
  436|  2.82M|    {
  437|  2.82M|    }
_ZNK3scn2v324basic_scan_format_stringIwNS0_6ranges6detail9subrange_8subrangeINSt3__116__deque_iteratorIwPKwRS8_PKS9_lLl1024EEESD_EEJNS6_12basic_stringIwNS6_11char_traitsIwEENS6_9allocatorIwEEEEEEcvNS6_17basic_string_viewIwSH_EEEv:
 7984|  2.32M|    {
 7985|  2.32M|        return m_str;
 7986|  2.32M|    }
_ZN3scn2v316make_scan_resultINS0_6ranges6detail9subrange_8subrangeINSt3__116__deque_iteratorIwPKwRS8_PKS9_lLl1024EEESD_EEJNS6_12basic_stringIwNS6_11char_traitsIwEENS6_9allocatorIwEEEEEEENS0_13scan_expectedINS0_11scan_resultIT_JDpT0_EEEEEONSL_ISN_EEONS6_5tupleIJSP_EEE:
 8829|  2.32M|{
 8830|  2.32M|    if (SCN_UNLIKELY(!result)) {
  ------------------
  |  |  859|  2.32M|#define SCN_UNLIKELY(x) __builtin_expect(!!(x), 0)
  |  |  ------------------
  |  |  |  Branch (859:25): [True: 56.1k, False: 2.26M]
  |  |  ------------------
  ------------------
 8831|  56.1k|        return unexpected(result.error());
 8832|  56.1k|    }
 8833|  2.26M|    return scan_result{SCN_MOVE(*result), SCN_MOVE(args)};
  ------------------
  |  |  928|  2.26M|    static_cast<    \
  |  |  929|  2.26M|        typename ::scn::detail::remove_reference<decltype(x)>::type&&>(x)
  ------------------
                  return scan_result{SCN_MOVE(*result), SCN_MOVE(args)};
  ------------------
  |  |  928|  2.26M|    static_cast<    \
  |  |  929|  2.26M|        typename ::scn::detail::remove_reference<decltype(x)>::type&&>(x)
  ------------------
 8834|  2.32M|}
_ZNK3scn2v38expectedINS0_6ranges6detail9subrange_8subrangeINSt3__116__deque_iteratorIwPKwRS8_PKS9_lLl1024EEESD_EENS0_10scan_errorEEcvbEv:
 1597|  2.89M|    {
 1598|  2.89M|        return has_value();
 1599|  2.89M|    }
_ZNK3scn2v36detail21expected_storage_baseINS0_6ranges6detail9subrange_8subrangeINSt3__116__deque_iteratorIwPKwRS9_PKSA_lLl1024EEESE_EENS0_10scan_errorELb1EE9has_valueEv:
  484|  5.78M|    {
  485|  5.78M|        return m_has_value;
  486|  5.78M|    }
_ZNR3scn2v38expectedINS0_6ranges6detail9subrange_8subrangeINSt3__116__deque_iteratorIwPKwRS8_PKS9_lLl1024EEESD_EENS0_10scan_errorEE5errorEv:
 1603|  60.8k|    {
 1604|  60.8k|        SCN_EXPECT(!has_value());
  ------------------
  |  |  924|  60.8k|#define SCN_EXPECT(cond) SCN_ASSERT(cond, "Precondition violation")
  |  |  ------------------
  |  |  |  |  921|  60.8k|#define SCN_ASSERT(cond, msg) assert((cond) && msg)
  |  |  ------------------
  ------------------
 1605|  60.8k|        return this->get_unexpected().error();
 1606|  60.8k|    }
_ZNR3scn2v36detail21expected_storage_baseINS0_6ranges6detail9subrange_8subrangeINSt3__116__deque_iteratorIwPKwRS9_PKSA_lLl1024EEESE_EENS0_10scan_errorELb1EE14get_unexpectedEv:
  467|  60.8k|    {
  468|  60.8k|        return m_unexpected;
  469|  60.8k|    }
_ZN3scn2v38expectedINS0_11scan_resultINS0_6ranges6detail9subrange_8subrangeINSt3__116__deque_iteratorIwPKwRS9_PKSA_lLl1024EEESE_EEJNS7_12basic_stringIwNS7_11char_traitsIwEENS7_9allocatorIwEEEEEEENS0_10scan_errorEEC2ISN_TnPNS7_9enable_ifIXsr3stdE18is_constructible_vISN_OT_EEvE4typeELPv0ETnPNSQ_IXsr3stdE16is_convertible_vISS_SN_EEvE4typeELSW_0EEEONS0_10unexpectedISR_EE:
 1473|  60.8k|        : base(unexpect, std::move(e.error())),
 1474|  60.8k|          ctor_base(detail::non_default_ctor_tag_t{})
 1475|  60.8k|    {
 1476|  60.8k|    }
_ZN3scn2v36detail21expected_storage_baseINS0_11scan_resultINS0_6ranges6detail9subrange_8subrangeINSt3__116__deque_iteratorIwPKwRSA_PKSB_lLl1024EEESF_EEJNS8_12basic_stringIwNS8_11char_traitsIwEENS8_9allocatorIwEEEEEEENS0_10scan_errorELb0EEC2IJSO_EvEENS0_10unexpect_tEDpOT_:
  624|  60.8k|        : m_has_value(false)
  625|  60.8k|    {
  626|  60.8k|        construct_unexpected(std::in_place, std::forward<Args>(args)...);
  627|  60.8k|    }
_ZN3scn2v36detail21expected_storage_baseINS0_11scan_resultINS0_6ranges6detail9subrange_8subrangeINSt3__116__deque_iteratorIwPKwRSA_PKSB_lLl1024EEESF_EEJNS8_12basic_stringIwNS8_11char_traitsIwEENS8_9allocatorIwEEEEEEENS0_10scan_errorELb0EE20construct_unexpectedIJRKNS8_10in_place_tESO_EEEvDpOT_:
  688|  60.8k|    {
  689|  60.8k|        scn::detail::construct_at(unexpected_ptr(),
  690|  60.8k|                                  std::forward<Args>(args)...);
  691|  60.8k|        m_has_value = false;
  692|  60.8k|    }
_ZN3scn2v36detail21expected_storage_baseINS0_11scan_resultINS0_6ranges6detail9subrange_8subrangeINSt3__116__deque_iteratorIwPKwRSA_PKSB_lLl1024EEESF_EEJNS8_12basic_stringIwNS8_11char_traitsIwEENS8_9allocatorIwEEEEEEENS0_10scan_errorELb0EE14unexpected_ptrEv:
  717|   121k|    {
  718|   121k|        return reinterpret_cast<unexpected<E>*>(
  719|   121k|            SCN_ASSUME_ALIGNED(m_memory, alignof(unexpected<E>)));
  ------------------
  |  |  894|   121k|#define SCN_ASSUME_ALIGNED(x, n) __builtin_assume_aligned(x, n)
  ------------------
  720|   121k|    }
_ZN3scn2v36detail26expected_default_ctor_baseINS0_11scan_resultINS0_6ranges6detail9subrange_8subrangeINSt3__116__deque_iteratorIwPKwRSA_PKSB_lLl1024EEESF_EEJNS8_12basic_stringIwNS8_11char_traitsIwEENS8_9allocatorIwEEEEEEENS0_10scan_errorELb1EEC2ENS1_22non_default_ctor_tag_tE:
 1176|  2.89M|    {
 1177|  2.89M|    }
_ZNR3scn2v38expectedINS0_6ranges6detail9subrange_8subrangeINSt3__116__deque_iteratorIwPKwRS8_PKS9_lLl1024EEESD_EENS0_10scan_errorEEdeISE_TnPNS6_9enable_ifIXntsr3stdE9is_void_vIT_EEvE4typeELPv0EEERSJ_v:
 1652|  2.26M|    {
 1653|  2.26M|        return value();
 1654|  2.26M|    }
_ZNR3scn2v38expectedINS0_6ranges6detail9subrange_8subrangeINSt3__116__deque_iteratorIwPKwRS8_PKS9_lLl1024EEESD_EENS0_10scan_errorEE5valueISE_TnPNS6_9enable_ifIXntsr3stdE9is_void_vIT_EEvE4typeELPv0EEERSJ_v:
 1626|  2.82M|    {
 1627|  2.82M|        SCN_EXPECT(has_value());
  ------------------
  |  |  924|  2.82M|#define SCN_EXPECT(cond) SCN_ASSERT(cond, "Precondition violation")
  |  |  ------------------
  |  |  |  |  921|  2.82M|#define SCN_ASSERT(cond, msg) assert((cond) && msg)
  |  |  ------------------
  ------------------
 1628|  2.82M|        return this->get_value();
 1629|  2.82M|    }
_ZNR3scn2v36detail21expected_storage_baseINS0_6ranges6detail9subrange_8subrangeINSt3__116__deque_iteratorIwPKwRS9_PKSA_lLl1024EEESE_EENS0_10scan_errorELb1EE9get_valueEv:
  450|  2.82M|    {
  451|  2.82M|        return m_value;
  452|  2.82M|    }
_ZN3scn2v311scan_resultINS0_6ranges6detail9subrange_8subrangeINSt3__116__deque_iteratorIwPKwRS8_PKS9_lLl1024EEESD_EEJNS6_12basic_stringIwNS6_11char_traitsIwEENS6_9allocatorIwEEEEEEC2ESE_ONS6_5tupleIJSK_EEE:
 5838|  2.82M|        : range_base(SCN_MOVE(r)), value_base(SCN_MOVE(values))
  ------------------
  |  |  928|  2.82M|    static_cast<    \
  |  |  929|  2.82M|        typename ::scn::detail::remove_reference<decltype(x)>::type&&>(x)
  ------------------
                      : range_base(SCN_MOVE(r)), value_base(SCN_MOVE(values))
  ------------------
  |  |  928|  2.82M|    static_cast<    \
  |  |  929|  2.82M|        typename ::scn::detail::remove_reference<decltype(x)>::type&&>(x)
  ------------------
 5839|  2.82M|    {
 5840|  2.82M|    }
_ZN3scn2v36detail25scan_result_range_storageINS0_6ranges6detail9subrange_8subrangeINSt3__116__deque_iteratorIwPKwRS9_PKSA_lLl1024EEESE_EEEC2EOSF_:
 5689|  2.82M|    constexpr scan_result_range_storage(range_type&& r) : m_range(SCN_MOVE(r))
  ------------------
  |  |  928|  2.82M|    static_cast<    \
  |  |  929|  2.82M|        typename ::scn::detail::remove_reference<decltype(x)>::type&&>(x)
  ------------------
 5690|  2.82M|    {
 5691|  2.82M|    }
_ZN3scn2v38expectedINS0_11scan_resultINS0_6ranges6detail9subrange_8subrangeINSt3__116__deque_iteratorIwPKwRS9_PKSA_lLl1024EEESE_EEJNS7_12basic_stringIwNS7_11char_traitsIwEENS7_9allocatorIwEEEEEEENS0_10scan_errorEEC2ISM_vEEOT_:
 1427|  2.82M|        : base(std::in_place, std::forward<U>(val)),
 1428|  2.82M|          ctor_base(detail::non_default_ctor_tag_t{})
 1429|  2.82M|    {
 1430|  2.82M|    }
_ZN3scn2v36detail21expected_storage_baseINS0_11scan_resultINS0_6ranges6detail9subrange_8subrangeINSt3__116__deque_iteratorIwPKwRSA_PKSB_lLl1024EEESF_EEJNS8_12basic_stringIwNS8_11char_traitsIwEENS8_9allocatorIwEEEEEEENS0_10scan_errorELb0EEC2IJSN_EvEENS8_10in_place_tEDpOT_:
  614|  2.82M|        : m_has_value(true)
  615|  2.82M|    {
  616|  2.82M|        construct(std::forward<Args>(args)...);
  617|  2.82M|    }
_ZN3scn2v36detail21expected_storage_baseINS0_11scan_resultINS0_6ranges6detail9subrange_8subrangeINSt3__116__deque_iteratorIwPKwRSA_PKSB_lLl1024EEESF_EEJNS8_12basic_stringIwNS8_11char_traitsIwEENS8_9allocatorIwEEEEEEENS0_10scan_errorELb0EE9constructIJSN_EEEvDpOT_:
  681|  2.82M|    {
  682|  2.82M|        scn::detail::construct_at(value_ptr(), std::forward<Args>(args)...);
  683|  2.82M|        m_has_value = true;
  684|  2.82M|    }
_ZN3scn2v36detail12construct_atINS0_11scan_resultINS0_6ranges6detail9subrange_8subrangeINSt3__116__deque_iteratorIwPKwRSA_PKSB_lLl1024EEESF_EEJNS8_12basic_stringIwNS8_11char_traitsIwEENS8_9allocatorIwEEEEEEEJSN_EEEPT_SP_DpOT0_:
  391|  2.82M|{
  392|  2.82M|    return ::new (const_cast<void*>(static_cast<const volatile void*>(p)))
  393|  2.82M|        T(std::forward<Args>(args)...);
  394|  2.82M|}
_ZN3scn2v311scan_resultINS0_6ranges6detail9subrange_8subrangeINSt3__116__deque_iteratorIwPKwRS8_PKS9_lLl1024EEESD_EEJNS6_12basic_stringIwNS6_11char_traitsIwEENS6_9allocatorIwEEEEEEC2EOSL_:
 5831|  2.82M|    constexpr scan_result(scan_result&&) = default;
_ZN3scn2v36detail21expected_storage_baseINS0_11scan_resultINS0_6ranges6detail9subrange_8subrangeINSt3__116__deque_iteratorIwPKwRSA_PKSB_lLl1024EEESF_EEJNS8_12basic_stringIwNS8_11char_traitsIwEENS8_9allocatorIwEEEEEEENS0_10scan_errorELb0EE9value_ptrEv:
  705|  8.48M|    {
  706|  8.48M|        return reinterpret_cast<T*>(SCN_ASSUME_ALIGNED(m_memory, alignof(T)));
  ------------------
  |  |  894|  8.48M|#define SCN_ASSUME_ALIGNED(x, n) __builtin_assume_aligned(x, n)
  ------------------
  707|  8.48M|    }
_ZN3scn2v311scan_resultINS0_6ranges6detail9subrange_8subrangeINSt3__116__deque_iteratorIwPKwRS8_PKS9_lLl1024EEESD_EEJNS6_12basic_stringIwNS6_11char_traitsIwEENS6_9allocatorIwEEEEEED2Ev:
 5835|  5.65M|    ~scan_result() = default;
_ZN3scn2v36ranges6detail9subrange_8subrangeINSt3__116__deque_iteratorIwPKwRS7_PKS8_lLl1024EEESC_EC2ISC_TnPNS5_9enable_ifIXsr3stdE16is_convertible_vIT_SC_EEvE4typeELPv0EEESG_SC_:
 3310|  5.72M|        : m_iterator(SCN_MOVE(i)), m_sentinel(SCN_MOVE(s))
  ------------------
  |  |  928|  5.72M|    static_cast<    \
  |  |  929|  5.72M|        typename ::scn::detail::remove_reference<decltype(x)>::type&&>(x)
  ------------------
                      : m_iterator(SCN_MOVE(i)), m_sentinel(SCN_MOVE(s))
  ------------------
  |  |  928|  5.72M|    static_cast<    \
  |  |  929|  5.72M|        typename ::scn::detail::remove_reference<decltype(x)>::type&&>(x)
  ------------------
 3311|  5.72M|    {
 3312|  5.72M|    }
_ZN3scn2v324basic_scan_format_stringIwNS0_6ranges6detail9subrange_8subrangeINSt3__116__deque_iteratorIwPKwRS8_PKS9_lLl1024EEESD_EEJNS6_12basic_stringIwNS6_11char_traitsIwEENS6_9allocatorIwEEEEEEC2ENS0_6detail27basic_runtime_format_stringIwEE:
 7979|  2.32M|        : m_str(r.str)
 7980|  2.32M|    {
 7981|  2.32M|    }
_ZNK3scn2v38expectedINS0_11scan_resultINS0_6ranges6detail9subrange_8subrangeINSt3__116__deque_iteratorIwPKwRS9_PKSA_lLl1024EEESE_EEJNS7_12basic_stringIwNS7_11char_traitsIwEENS7_9allocatorIwEEEEEEENS0_10scan_errorEEcvbEv:
 1597|  2.89M|    {
 1598|  2.89M|        return has_value();
 1599|  2.89M|    }
_ZNK3scn2v36detail21expected_storage_baseINS0_11scan_resultINS0_6ranges6detail9subrange_8subrangeINSt3__116__deque_iteratorIwPKwRSA_PKSB_lLl1024EEESF_EEJNS8_12basic_stringIwNS8_11char_traitsIwEENS8_9allocatorIwEEEEEEENS0_10scan_errorELb0EE9has_valueEv:
  674|  8.61M|    {
  675|  8.61M|        return m_has_value;
  676|  8.61M|    }
_ZN3scn2v38expectedINS0_11scan_resultINS0_6ranges6detail9subrange_8subrangeINSt3__116__deque_iteratorIwPKwRS9_PKSA_lLl1024EEESE_EEJNS7_12basic_stringIwNS7_11char_traitsIwEENS7_9allocatorIwEEEEEEENS0_10scan_errorEEptEv:
 1672|  2.82M|    {
 1673|  2.82M|        return &value();
 1674|  2.82M|    }
_ZNR3scn2v38expectedINS0_11scan_resultINS0_6ranges6detail9subrange_8subrangeINSt3__116__deque_iteratorIwPKwRS9_PKSA_lLl1024EEESE_EEJNS7_12basic_stringIwNS7_11char_traitsIwEENS7_9allocatorIwEEEEEEENS0_10scan_errorEE5valueISM_TnPNS7_9enable_ifIXntsr3stdE9is_void_vIT_EEvE4typeELPv0EEERSR_v:
 1626|  2.82M|    {
 1627|  2.82M|        SCN_EXPECT(has_value());
  ------------------
  |  |  924|  2.82M|#define SCN_EXPECT(cond) SCN_ASSERT(cond, "Precondition violation")
  |  |  ------------------
  |  |  |  |  921|  2.82M|#define SCN_ASSERT(cond, msg) assert((cond) && msg)
  |  |  ------------------
  ------------------
 1628|  2.82M|        return this->get_value();
 1629|  2.82M|    }
_ZNR3scn2v36detail21expected_storage_baseINS0_11scan_resultINS0_6ranges6detail9subrange_8subrangeINSt3__116__deque_iteratorIwPKwRSA_PKSB_lLl1024EEESF_EEJNS8_12basic_stringIwNS8_11char_traitsIwEENS8_9allocatorIwEEEEEEENS0_10scan_errorELb0EE9get_valueEv:
  640|  2.82M|    {
  641|  2.82M|        return *value_ptr();
  642|  2.82M|    }
_ZNK3scn2v36detail25scan_result_range_storageINS0_6ranges6detail9subrange_8subrangeINSt3__116__deque_iteratorIwPKwRS9_PKSA_lLl1024EEESE_EEE5beginEv:
 5707|  2.82M|    {
 5708|  2.82M|        return ranges::begin(m_range);
 5709|  2.82M|    }
_ZN3scn2v36detail21expected_storage_baseINS0_11scan_resultINS0_6ranges6detail9subrange_8subrangeINSt3__116__deque_iteratorIwPKwRSA_PKSB_lLl1024EEESF_EEJNS8_12basic_stringIwNS8_11char_traitsIwEENS8_9allocatorIwEEEEEEENS0_10scan_errorELb0EED2Ev:
  630|  2.89M|    {
  631|  2.89M|        if (has_value()) {
  ------------------
  |  Branch (631:13): [True: 2.82M, False: 60.8k]
  ------------------
  632|  2.82M|            destroy_value();
  633|  2.82M|        }
  634|  60.8k|        else {
  635|  60.8k|            destroy_unexpected();
  636|  60.8k|        }
  637|  2.89M|    }
_ZN3scn2v36detail21expected_storage_baseINS0_11scan_resultINS0_6ranges6detail9subrange_8subrangeINSt3__116__deque_iteratorIwPKwRSA_PKSB_lLl1024EEESF_EEJNS8_12basic_stringIwNS8_11char_traitsIwEENS8_9allocatorIwEEEEEEENS0_10scan_errorELb0EE13destroy_valueEv:
  695|  2.82M|    {
  696|  2.82M|        scn::detail::destroy_at(value_ptr());
  697|  2.82M|    }
_ZN3scn2v36detail10destroy_atINS0_11scan_resultINS0_6ranges6detail9subrange_8subrangeINSt3__116__deque_iteratorIwPKwRSA_PKSB_lLl1024EEESF_EEJNS8_12basic_stringIwNS8_11char_traitsIwEENS8_9allocatorIwEEEEEEEEEvPT_:
  397|  2.82M|{
  398|       |    if constexpr (std::is_array_v<T>) {
  399|       |        for (auto& elem : *p) {
  400|       |            scn::detail::destroy_at(&elem);
  401|       |        }
  402|       |    }
  403|  2.82M|    else {
  404|  2.82M|        p->~T();
  405|  2.82M|    }
  406|  2.82M|}
_ZN3scn2v36detail21expected_storage_baseINS0_11scan_resultINS0_6ranges6detail9subrange_8subrangeINSt3__116__deque_iteratorIwPKwRSA_PKSB_lLl1024EEESF_EEJNS8_12basic_stringIwNS8_11char_traitsIwEENS8_9allocatorIwEEEEEEENS0_10scan_errorELb0EE18destroy_unexpectedEv:
  699|  60.8k|    {
  700|  60.8k|        scn::detail::destroy_at(unexpected_ptr());
  701|  60.8k|    }
_ZN3scn2v36detail23vscan_localized_genericINSt3__16localeENS0_6ranges6detail9subrange_8subrangeINS3_16__deque_iteratorIwPKwRSA_PKSB_lLl1024EEESF_EEwEENS0_13scan_expectedINS3_11conditionalIXsr3stdE9is_same_vIu11__remove_cvIu20__remove_reference_tIT0_EEP8_IO_FILEEESN_NS1_22borrowed_tail_subrangeISJ_Xsr6rangesE14borrowed_rangeISJ_EEE4typeEE4typeEEERKT_OSJ_NS3_17basic_string_viewIT1_NS3_11char_traitsISZ_EEEENS0_15basic_scan_argsINS0_18basic_scan_contextISZ_EEEE:
 8616|  1.16M|{
 8617|  1.16M|#if !SCN_DISABLE_LOCALE
 8618|  1.16M|    auto buffer = detail::make_scan_buffer(range);
 8619|       |
 8620|  1.16M|    SCN_CLANG_PUSH_IGNORE_UNDEFINED_TEMPLATE
 8621|  1.16M|    auto result = detail::vscan_localized_impl(loc, buffer, format, args);
 8622|  1.16M|    SCN_CLANG_POP_IGNORE_UNDEFINED_TEMPLATE
 8623|       |
 8624|  1.16M|    if (SCN_UNLIKELY(!result)) {
  ------------------
  |  |  859|  1.16M|#define SCN_UNLIKELY(x) __builtin_expect(!!(x), 0)
  |  |  ------------------
  |  |  |  Branch (859:25): [True: 28.0k, False: 1.13M]
  |  |  ------------------
  ------------------
 8625|  28.0k|        return unexpected(result.error());
 8626|  28.0k|    }
 8627|  1.13M|    return detail::make_vscan_result_range(SCN_FWD(range), *result);
  ------------------
  |  |  930|  1.13M|#define SCN_FWD(x)          static_cast<decltype(x)&&>(x)
  ------------------
 8628|       |#else
 8629|       |    static_assert(dependent_false<Locale>::value,
 8630|       |                  "Can't use scan(locale, ...) with SCN_DISABLE_LOCALE on");
 8631|       |
 8632|       |    return {};
 8633|       |#endif
 8634|  1.16M|}
_ZN3scn2v36detail19vscan_value_genericINS0_6ranges6detail9subrange_8subrangeINSt3__116__deque_iteratorIwPKwRS9_PKSA_lLl1024EEESE_EEwEENS0_13scan_expectedINS7_11conditionalIXsr3stdE9is_same_vIu11__remove_cvIu20__remove_reference_tIT_EEP8_IO_FILEEESM_NS1_22borrowed_tail_subrangeISI_Xsr6rangesE14borrowed_rangeISI_EEE4typeEE4typeEEEOSI_NS0_14basic_scan_argINS0_18basic_scan_contextIT0_EEEE:
 8640|   570k|{
 8641|   570k|    auto buffer = detail::make_scan_buffer(range);
 8642|       |
 8643|   570k|    auto result = detail::vscan_value_impl(buffer, arg);
 8644|   570k|    if (SCN_UNLIKELY(!result)) {
  ------------------
  |  |  859|   570k|#define SCN_UNLIKELY(x) __builtin_expect(!!(x), 0)
  |  |  ------------------
  |  |  |  Branch (859:25): [True: 4.68k, False: 565k]
  |  |  ------------------
  ------------------
 8645|  4.68k|        return unexpected(result.error());
 8646|  4.68k|    }
 8647|   565k|    return detail::make_vscan_result_range(SCN_FWD(range), *result);
  ------------------
  |  |  930|   565k|#define SCN_FWD(x)          static_cast<decltype(x)&&>(x)
  ------------------
 8648|   570k|}
_ZNO3scn2v38expectedINS0_6ranges6detail9subrange_8subrangeINSt3__116__deque_iteratorIwPKwRS8_PKS9_lLl1024EEESD_EENS0_10scan_errorEEdeISE_TnPNS6_9enable_ifIXntsr3stdE9is_void_vIT_EEvE4typeELPv0EEEOSJ_v:
 1662|   565k|    {
 1663|   565k|        return std::move(value());
 1664|   565k|    }
_ZN3scn2v310scan_errorC2ENS1_4codeEPKc:
 3562|   358k|    constexpr scan_error(code_t c, const char* m) noexcept : m_msg(m), m_code(c)
 3563|   358k|    {
 3564|   358k|        SCN_UNLIKELY_ATTR SCN_UNUSED(m_code);
  ------------------
  |  |  909|   358k|#define SCN_UNUSED(x) static_cast<void>(sizeof(x))
  ------------------
 3565|   358k|    }
_ZNK3scn2v310scan_errorcvbEv:
 3569|  29.7M|    {
 3570|  29.7M|        return m_code == good;
 3571|  29.7M|    }
_ZNK3scn2v310scan_error4codeEv:
 3580|   126k|    {
 3581|   126k|        return m_code;
 3582|   126k|    }
_ZNK3scn2v36ranges6detail9subrange_8subrangeINS0_6detail17basic_scan_bufferIcE16forward_iteratorENS1_18default_sentinel_tEE5beginEv:
 3325|  14.1M|    {
 3326|  14.1M|        return m_iterator;
 3327|  14.1M|    }
_ZNK3scn2v36ranges6detail9subrange_8subrangeINS0_6detail17basic_scan_bufferIwE16forward_iteratorENS1_18default_sentinel_tEE5beginEv:
 3325|   237M|    {
 3326|   237M|        return m_iterator;
 3327|   237M|    }
_ZN3scn2v36detail12specs_setterC2ERNS1_12format_specsE:
 6269|  3.95M|    explicit constexpr specs_setter(format_specs& specs) : m_specs(specs) {}
_ZN3scn2v36detail12specs_setter8on_widthEi:
 6291|  84.2k|    {
 6292|  84.2k|        if (m_specs.precision != 0 && width > m_specs.precision) {
  ------------------
  |  Branch (6292:13): [True: 0, False: 84.2k]
  |  Branch (6292:39): [True: 0, False: 0]
  ------------------
 6293|       |            // clang-format off
 6294|      0|            return this->on_error("Width (i.e., minimum field length) cannot be larger than precision (i.e., maximum field length)");
 6295|       |            // clang-format on
 6296|      0|        }
 6297|       |
 6298|  84.2k|        m_specs.width = width;
 6299|  84.2k|    }
_ZN3scn2v36detail12specs_setter7on_typeENS1_17presentation_typeE:
 6312|  3.87M|    {
 6313|  3.87M|        m_specs.type = type;
 6314|  3.87M|    }
_ZN3scn2v36detail12specs_setter16on_charset_rangeEDiDi:
 6329|  98.2k|    {
 6330|  98.2k|        const auto begin_value = static_cast<unsigned>(begin);
 6331|  98.2k|        const auto end_value = static_cast<unsigned>(end);
 6332|  98.2k|        SCN_EXPECT(begin_value < end_value);
  ------------------
  |  |  924|  98.2k|#define SCN_EXPECT(cond) SCN_ASSERT(cond, "Precondition violation")
  |  |  ------------------
  |  |  |  |  921|  98.2k|#define SCN_ASSERT(cond, msg) assert((cond) && msg)
  |  |  ------------------
  ------------------
 6333|       |
 6334|  98.2k|        if (SCN_LIKELY(end_value <= 127)) {
  ------------------
  |  |  858|  98.2k|#define SCN_LIKELY(x)   __builtin_expect(!!(x), 1)
  |  |  ------------------
  |  |  |  Branch (858:25): [True: 98.2k, False: 0]
  |  |  ------------------
  ------------------
 6335|       |            // No need to bit-twiddle with a mask, because with the
 6336|       |            // SCN_ASSUME, -O3 will optimize this to a single operation
 6337|  98.2k|            SCN_ASSUME(begin_value < end_value);
  ------------------
  |  |  878|  98.2k|#define SCN_ASSUME(x) __builtin_assume(x)
  ------------------
 6338|  2.65M|            for (auto v = begin_value; v != end_value; ++v) {
  ------------------
  |  Branch (6338:40): [True: 2.55M, False: 98.2k]
  ------------------
 6339|  2.55M|                m_specs.charset_literals[v / 8] |=
 6340|  2.55M|                    static_cast<unsigned char>(1ul << (v % 8));
 6341|  2.55M|            }
 6342|  98.2k|        }
 6343|      0|        else {
 6344|      0|            m_specs.charset_has_nonascii = true;
 6345|      0|        }
 6346|  98.2k|    }
_ZN3scn2v36detail12specs_setter8on_errorEPKc:
 6374|  84.2k|    {
 6375|  84.2k|        SCN_UNLIKELY_ATTR
 6376|  84.2k|        m_error = scan_error{scan_error::invalid_format_string, msg};
 6377|  84.2k|    }
_ZNK3scn2v36detail12specs_settercvbEv:
 6385|  4.10M|    {
 6386|  4.10M|        return static_cast<bool>(m_error);
 6387|  4.10M|    }
_ZN3scn2v3eqENS0_10scan_errorENS1_4codeE:
 3604|   126k|{
 3605|   126k|    return a.code() == b;
 3606|   126k|}
_ZN3scn2v3neENS0_10scan_errorENS1_4codeE:
 3608|   126k|{
 3609|   126k|    return !(a == b);
 3610|   126k|}
_ZN3scn2v36detail11is_cp_spaceEDi:
 4042|   216M|{
 4043|       |    // Pattern_White_Space property
 4044|   216M|    return (cp >= 0x09 && cp <= 0x0d) ||
  ------------------
  |  Branch (4044:13): [True: 61.6M, False: 155M]
  |  Branch (4044:27): [True: 8.79M, False: 52.8M]
  ------------------
 4045|   216M|           cp == 0x20 ||    // ASCII space characters
  ------------------
  |  Branch (4045:12): [True: 9.28M, False: 198M]
  ------------------
 4046|   216M|           cp == 0x85 ||    // NEXT LINE (NEL)
  ------------------
  |  Branch (4046:12): [True: 1.34M, False: 197M]
  ------------------
 4047|   216M|           cp == 0x200e ||  // LEFT-TO-RIGHT MARK
  ------------------
  |  Branch (4047:12): [True: 564k, False: 196M]
  ------------------
 4048|   216M|           cp == 0x200f ||  // RIGHT-TO-LEFT MARK
  ------------------
  |  Branch (4048:12): [True: 560k, False: 196M]
  ------------------
 4049|   216M|           cp == 0x2028 ||  // LINE SEPARATOR
  ------------------
  |  Branch (4049:12): [True: 319k, False: 196M]
  ------------------
 4050|   216M|           cp == 0x2029;    // PARAGRAPH SEPARATOR
  ------------------
  |  Branch (4050:12): [True: 285, False: 196M]
  ------------------
 4051|   216M|}
_ZN3scn2v36detail25get_category_for_arg_typeENS1_8arg_typeE:
 7072|  42.1k|{
 7073|  42.1k|    switch (type) {
 7074|      0|        case arg_type::none_type:
  ------------------
  |  Branch (7074:9): [True: 0, False: 42.1k]
  ------------------
 7075|      0|            return arg_type_category::none;
 7076|       |
 7077|      0|        case arg_type::schar_type:
  ------------------
  |  Branch (7077:9): [True: 0, False: 42.1k]
  ------------------
 7078|      0|        case arg_type::short_type:
  ------------------
  |  Branch (7078:9): [True: 0, False: 42.1k]
  ------------------
 7079|      0|        case arg_type::int_type:
  ------------------
  |  Branch (7079:9): [True: 0, False: 42.1k]
  ------------------
 7080|      0|        case arg_type::long_type:
  ------------------
  |  Branch (7080:9): [True: 0, False: 42.1k]
  ------------------
 7081|      0|        case arg_type::llong_type:
  ------------------
  |  Branch (7081:9): [True: 0, False: 42.1k]
  ------------------
 7082|      0|            return arg_type_category::integer;
 7083|       |
 7084|      0|        case arg_type::uchar_type:
  ------------------
  |  Branch (7084:9): [True: 0, False: 42.1k]
  ------------------
 7085|      0|        case arg_type::ushort_type:
  ------------------
  |  Branch (7085:9): [True: 0, False: 42.1k]
  ------------------
 7086|      0|        case arg_type::uint_type:
  ------------------
  |  Branch (7086:9): [True: 0, False: 42.1k]
  ------------------
 7087|      0|        case arg_type::ulong_type:
  ------------------
  |  Branch (7087:9): [True: 0, False: 42.1k]
  ------------------
 7088|      0|        case arg_type::ullong_type:
  ------------------
  |  Branch (7088:9): [True: 0, False: 42.1k]
  ------------------
 7089|      0|            return arg_type_category::unsigned_integer;
 7090|       |
 7091|      0|        case arg_type::pointer_type:
  ------------------
  |  Branch (7091:9): [True: 0, False: 42.1k]
  ------------------
 7092|      0|            return arg_type_category::pointer;
 7093|      0|        case arg_type::bool_type:
  ------------------
  |  Branch (7093:9): [True: 0, False: 42.1k]
  ------------------
 7094|      0|            return arg_type_category::boolean;
 7095|      0|        case arg_type::narrow_character_type:
  ------------------
  |  Branch (7095:9): [True: 0, False: 42.1k]
  ------------------
 7096|      0|        case arg_type::wide_character_type:
  ------------------
  |  Branch (7096:9): [True: 0, False: 42.1k]
  ------------------
 7097|      0|        case arg_type::code_point_type:
  ------------------
  |  Branch (7097:9): [True: 0, False: 42.1k]
  ------------------
 7098|      0|            return arg_type_category::character;
 7099|       |
 7100|      0|        case arg_type::float_type:
  ------------------
  |  Branch (7100:9): [True: 0, False: 42.1k]
  ------------------
 7101|      0|        case arg_type::double_type:
  ------------------
  |  Branch (7101:9): [True: 0, False: 42.1k]
  ------------------
 7102|      0|        case arg_type::ldouble_type:
  ------------------
  |  Branch (7102:9): [True: 0, False: 42.1k]
  ------------------
 7103|      0|            return arg_type_category::floating;
 7104|       |
 7105|  4.68k|        case arg_type::narrow_string_view_type:
  ------------------
  |  Branch (7105:9): [True: 4.68k, False: 37.4k]
  ------------------
 7106|  14.0k|        case arg_type::narrow_string_type:
  ------------------
  |  Branch (7106:9): [True: 9.36k, False: 32.7k]
  ------------------
 7107|  23.4k|        case arg_type::wide_string_view_type:
  ------------------
  |  Branch (7107:9): [True: 9.36k, False: 32.7k]
  ------------------
 7108|  42.1k|        case arg_type::wide_string_type:
  ------------------
  |  Branch (7108:9): [True: 18.7k, False: 23.4k]
  ------------------
 7109|  42.1k|            return arg_type_category::string;
 7110|       |
 7111|      0|        case arg_type::custom_type:
  ------------------
  |  Branch (7111:9): [True: 0, False: 42.1k]
  ------------------
 7112|      0|            return arg_type_category::custom;
 7113|       |
 7114|      0|            SCN_CLANG_PUSH
 7115|      0|            SCN_CLANG_IGNORE("-Wcovered-switch-default")
 7116|      0|        default:
  ------------------
  |  Branch (7116:9): [True: 0, False: 42.1k]
  ------------------
 7117|      0|            SCN_ENSURE(false);
  ------------------
  |  |  925|      0|#define SCN_ENSURE(cond) SCN_ASSERT(cond, "Postcondition violation")
  |  |  ------------------
  |  |  |  |  921|      0|#define SCN_ASSERT(cond, msg) assert((cond) && msg)
  |  |  ------------------
  ------------------
 7118|  42.1k|            SCN_UNREACHABLE;
  ------------------
  |  |  887|      0|#define SCN_UNREACHABLE __builtin_unreachable()
  ------------------
 7119|  42.1k|            SCN_CLANG_POP
 7120|  42.1k|    }
 7121|       |
 7122|      0|    SCN_UNREACHABLE;
  ------------------
  |  |  887|      0|#define SCN_UNREACHABLE __builtin_unreachable()
  ------------------
 7123|  42.1k|}
_ZN3scn2v321unexpected_scan_errorIJNS0_10scan_error4codeERA41_KcEEEDaDpOT_:
 3649|  42.1k|{
 3650|  42.1k|    return unexpected(scan_error{SCN_FWD(args)...});
  ------------------
  |  |  930|  42.1k|#define SCN_FWD(x)          static_cast<decltype(x)&&>(x)
  ------------------
 3651|  42.1k|}
_ZN3scn2v321unexpected_scan_errorIJNS0_10scan_error4codeERA35_KcEEEDaDpOT_:
 3649|  52.4k|{
 3650|  52.4k|    return unexpected(scan_error{SCN_FWD(args)...});
  ------------------
  |  |  930|  52.4k|#define SCN_FWD(x)          static_cast<decltype(x)&&>(x)
  ------------------
 3651|  52.4k|}
_ZN3scn2v321unexpected_scan_errorIJNS0_10scan_error4codeERA40_KcEEEDaDpOT_:
 3649|  26.7k|{
 3650|  26.7k|    return unexpected(scan_error{SCN_FWD(args)...});
  ------------------
  |  |  930|  26.7k|#define SCN_FWD(x)          static_cast<decltype(x)&&>(x)
  ------------------
 3651|  26.7k|}
_ZN3scn2v36detail23check_string_type_specsIRNS0_4impl20reader_error_handlerEEEvRKNS1_12format_specsEOT_:
 7214|  3.87M|{
 7215|  3.87M|    if (specs.type == presentation_type::none ||
  ------------------
  |  Branch (7215:9): [True: 0, False: 3.87M]
  ------------------
 7216|  3.87M|        specs.type == presentation_type::string ||
  ------------------
  |  Branch (7216:9): [True: 3.77M, False: 91.2k]
  ------------------
 7217|  3.87M|        specs.type == presentation_type::string_set ||
  ------------------
  |  Branch (7217:9): [True: 49.1k, False: 42.1k]
  ------------------
 7218|  3.87M|        specs.type == presentation_type::regex ||
  ------------------
  |  Branch (7218:9): [True: 0, False: 42.1k]
  ------------------
 7219|  3.87M|        specs.type == presentation_type::regex_escaped) {
  ------------------
  |  Branch (7219:9): [True: 0, False: 42.1k]
  ------------------
 7220|  3.82M|        return;
 7221|  3.82M|    }
 7222|  42.1k|    if (specs.type == presentation_type::character) {
  ------------------
  |  Branch (7222:9): [True: 42.1k, False: 0]
  ------------------
 7223|  42.1k|        if (SCN_UNLIKELY(specs.precision == 0)) {
  ------------------
  |  |  859|  42.1k|#define SCN_UNLIKELY(x) __builtin_expect(!!(x), 0)
  |  |  ------------------
  |  |  |  Branch (859:25): [True: 42.1k, False: 0]
  |  |  ------------------
  ------------------
 7224|       |            // clang-format off
 7225|  42.1k|            return handler.on_error("'c' type specifier for strings requires the field precision to be specified");
 7226|       |            // clang-format on
 7227|  42.1k|        }
 7228|      0|        return;
 7229|  42.1k|    }
 7230|      0|    SCN_UNLIKELY_ATTR
 7231|      0|    handler.on_error("Invalid type specifier for string");
 7232|      0|}
_ZNK3scn2v36detail17basic_scan_bufferIcE16forward_iterator13stores_parentEv:
 4202|  76.9M|    {
 4203|  76.9M|        assert(m_begin);
 4204|  76.9M|        return m_end == nullptr;
 4205|  76.9M|    }
_ZN3scn2v36detail30make_string_view_from_pointersIcEENSt3__117basic_string_viewIT_NS3_11char_traitsIS5_EEEEPKS5_SA_:
 3710|   324k|{
 3711|       |    if constexpr (std::is_constructible_v<std::basic_string_view<CharT>,
 3712|       |                                          const CharT*, const CharT*>) {
 3713|       |        return {first, last};
 3714|       |    }
 3715|   324k|    else {
 3716|   324k|        return {first, static_cast<size_t>(std::distance(first, last))};
 3717|   324k|    }
 3718|   324k|}
_ZNK3scn2v36detail17basic_scan_bufferIcE16forward_iterator18contiguous_segmentEv:
 4219|  1.66M|    {
 4220|  1.66M|        if (!stores_parent()) {
  ------------------
  |  Branch (4220:13): [True: 0, False: 1.66M]
  ------------------
 4221|      0|            return make_string_view_from_pointers(
 4222|      0|                static_cast<const CharT*>(m_begin) + position(),
 4223|      0|                static_cast<const CharT*>(m_end));
 4224|      0|        }
 4225|  1.66M|        return parent()->get_segment_starting_at(position());
 4226|  1.66M|    }
_ZNK3scn2v36detail17basic_scan_bufferIcE16forward_iterator6parentEv:
 4213|  44.8M|    {
 4214|  44.8M|        SCN_EXPECT(stores_parent());
  ------------------
  |  |  924|  44.8M|#define SCN_EXPECT(cond) SCN_ASSERT(cond, "Precondition violation")
  |  |  ------------------
  |  |  |  |  921|  44.8M|#define SCN_ASSERT(cond, msg) assert((cond) && msg)
  |  |  ------------------
  ------------------
 4215|  44.8M|        return static_cast<const basic_scan_buffer<CharT>*>(m_begin);
 4216|  44.8M|    }
_ZNK3scn2v36detail17basic_scan_bufferIcE23get_segment_starting_atEl:
 4108|  1.66M|    {
 4109|  1.66M|        if (SCN_UNLIKELY(
  ------------------
  |  |  859|  1.66M|#define SCN_UNLIKELY(x) __builtin_expect(!!(x), 0)
  |  |  ------------------
  |  |  |  Branch (859:25): [True: 957k, False: 711k]
  |  |  ------------------
  ------------------
 4110|  1.66M|                pos < static_cast<std::ptrdiff_t>(m_putback_buffer.size()))) {
 4111|   957k|            return std::basic_string_view<CharT>(m_putback_buffer).substr(pos);
 4112|   957k|        }
 4113|   711k|        const auto start = pos - m_putback_buffer.size();
 4114|   711k|        SCN_EXPECT(start <= m_current_view.size());
  ------------------
  |  |  924|   711k|#define SCN_EXPECT(cond) SCN_ASSERT(cond, "Precondition violation")
  |  |  ------------------
  |  |  |  |  921|   711k|#define SCN_ASSERT(cond, msg) assert((cond) && msg)
  |  |  ------------------
  ------------------
 4115|   711k|        return m_current_view.substr(start);
 4116|   711k|    }
_ZNK3scn2v36detail17basic_scan_bufferIcE16forward_iterator8positionEv:
 4197|  1.87M|    {
 4198|  1.87M|        return m_position;
 4199|  1.87M|    }
_ZNK3scn2v36detail17basic_scan_bufferIcE13is_contiguousEv:
 4130|  1.06M|    {
 4131|  1.06M|        return m_is_contiguous;
 4132|  1.06M|    }
_ZNK3scn2v36detail17basic_scan_bufferIwE16forward_iterator13stores_parentEv:
 4202|  1.29G|    {
 4203|  1.29G|        assert(m_begin);
 4204|  1.29G|        return m_end == nullptr;
 4205|  1.29G|    }
_ZN3scn2v36detail30make_string_view_from_pointersIwEENSt3__117basic_string_viewIT_NS3_11char_traitsIS5_EEEEPKS5_SA_:
 3710|  2.83M|{
 3711|       |    if constexpr (std::is_constructible_v<std::basic_string_view<CharT>,
 3712|       |                                          const CharT*, const CharT*>) {
 3713|       |        return {first, last};
 3714|       |    }
 3715|  2.83M|    else {
 3716|  2.83M|        return {first, static_cast<size_t>(std::distance(first, last))};
 3717|  2.83M|    }
 3718|  2.83M|}
_ZNK3scn2v36detail17basic_scan_bufferIwE16forward_iterator18contiguous_segmentEv:
 4219|  8.55M|    {
 4220|  8.55M|        if (!stores_parent()) {
  ------------------
  |  Branch (4220:13): [True: 0, False: 8.55M]
  ------------------
 4221|      0|            return make_string_view_from_pointers(
 4222|      0|                static_cast<const CharT*>(m_begin) + position(),
 4223|      0|                static_cast<const CharT*>(m_end));
 4224|      0|        }
 4225|  8.55M|        return parent()->get_segment_starting_at(position());
 4226|  8.55M|    }
_ZNK3scn2v36detail17basic_scan_bufferIwE16forward_iterator6parentEv:
 4213|   752M|    {
 4214|   752M|        SCN_EXPECT(stores_parent());
  ------------------
  |  |  924|   752M|#define SCN_EXPECT(cond) SCN_ASSERT(cond, "Precondition violation")
  |  |  ------------------
  |  |  |  |  921|   752M|#define SCN_ASSERT(cond, msg) assert((cond) && msg)
  |  |  ------------------
  ------------------
 4215|   752M|        return static_cast<const basic_scan_buffer<CharT>*>(m_begin);
 4216|   752M|    }
_ZNK3scn2v36detail17basic_scan_bufferIwE23get_segment_starting_atEl:
 4108|  8.55M|    {
 4109|  8.55M|        if (SCN_UNLIKELY(
  ------------------
  |  |  859|  8.55M|#define SCN_UNLIKELY(x) __builtin_expect(!!(x), 0)
  |  |  ------------------
  |  |  |  Branch (859:25): [True: 5.67M, False: 2.88M]
  |  |  ------------------
  ------------------
 4110|  8.55M|                pos < static_cast<std::ptrdiff_t>(m_putback_buffer.size()))) {
 4111|  5.67M|            return std::basic_string_view<CharT>(m_putback_buffer).substr(pos);
 4112|  5.67M|        }
 4113|  2.88M|        const auto start = pos - m_putback_buffer.size();
 4114|  2.88M|        SCN_EXPECT(start <= m_current_view.size());
  ------------------
  |  |  924|  2.88M|#define SCN_EXPECT(cond) SCN_ASSERT(cond, "Precondition violation")
  |  |  ------------------
  |  |  |  |  921|  2.88M|#define SCN_ASSERT(cond, msg) assert((cond) && msg)
  |  |  ------------------
  ------------------
 4115|  2.88M|        return m_current_view.substr(start);
 4116|  2.88M|    }
_ZNK3scn2v36detail17basic_scan_bufferIwE16forward_iterator8positionEv:
 4197|  10.2M|    {
 4198|  10.2M|        return m_position;
 4199|  10.2M|    }
_ZNK3scn2v36detail17basic_scan_bufferIwE13is_contiguousEv:
 4130|  8.67M|    {
 4131|  8.67M|        return m_is_contiguous;
 4132|  8.67M|    }
_ZN3scn2v36ranges14view_interfaceINS1_6detail9subrange_8subrangeIPKcS7_EEE7derivedEv:
 3179|  1.64M|    {
 3180|  1.64M|        return static_cast<D&>(*this);
 3181|  1.64M|    }
_ZN3scn2v36ranges14view_interfaceINS1_6detail9subrange_8subrangeIPKcS7_EEE4dataIS8_vEEDav:
 3220|  1.64M|    {
 3221|  1.64M|        return detail::to_address(ranges::begin(derived()));
 3222|  1.64M|    }
_ZN3scn2v36ranges14view_interfaceINS1_6detail9subrange_8subrangeIPKwS7_EEE7derivedEv:
 3179|  5.69M|    {
 3180|  5.69M|        return static_cast<D&>(*this);
 3181|  5.69M|    }
_ZN3scn2v36ranges14view_interfaceINS1_6detail9subrange_8subrangeIPKwS7_EEE4dataIS8_vEEDav:
 3220|  5.69M|    {
 3221|  5.69M|        return detail::to_address(ranges::begin(derived()));
 3222|  5.69M|    }
_ZNK3scn2v318basic_scan_contextIcE5rangeEv:
 8178|   145k|    {
 8179|   145k|        return ranges::subrange{begin(), end()};
 8180|   145k|    }
_ZNK3scn2v318basic_scan_contextIcE5beginEv:
 8162|   432k|    {
 8163|   432k|        return m_current;
 8164|   432k|    }
_ZNK3scn2v318basic_scan_contextIcE3endEv:
 8170|   145k|    {
 8171|   145k|        return ranges::default_sentinel;
 8172|   145k|    }
_ZN3scn2v36ranges6detail9subrange_8subrangeINS0_6detail17basic_scan_bufferIcE16forward_iteratorENS1_18default_sentinel_tEEC2IS8_TnPNSt3__19enable_ifIXsr3stdE16is_convertible_vIT_S8_EEvE4typeELPv0EEESE_S9_:
 3310|  5.19M|        : m_iterator(SCN_MOVE(i)), m_sentinel(SCN_MOVE(s))
  ------------------
  |  |  928|  5.19M|    static_cast<    \
  |  |  929|  5.19M|        typename ::scn::detail::remove_reference<decltype(x)>::type&&>(x)
  ------------------
                      : m_iterator(SCN_MOVE(i)), m_sentinel(SCN_MOVE(s))
  ------------------
  |  |  928|  5.19M|    static_cast<    \
  |  |  929|  5.19M|        typename ::scn::detail::remove_reference<decltype(x)>::type&&>(x)
  ------------------
 3311|  5.19M|    {
 3312|  5.19M|    }
_ZN3scn2v36detail10locale_refC2Ev:
 8000|  9.58M|    constexpr locale_ref() = default;
_ZNO3scn2v38expectedINS0_6detail17basic_scan_bufferIcE16forward_iteratorENS0_4impl9eof_errorEE15transform_errorIRFNS0_10scan_errorES7_EEEDTclsr6detailE20transform_error_impldefpTclsr3stdE7forwardIT_Efp_EEEOSD_:
 1836|   334k|    {
 1837|   334k|        return detail::transform_error_impl(std::move(*this),
 1838|   334k|                                            std::forward<F>(f));
 1839|   334k|    }
_ZN3scn2v36detail20transform_error_implINS0_8expectedINS1_17basic_scan_bufferIcE16forward_iteratorENS0_4impl9eof_errorEEERFNS0_10scan_errorES8_ETnPNSt3__19enable_ifIXntsr11is_exp_voidIT_EE5valueEvE4typeELPv0ESA_EEDaOSF_OT0_:
 1322|   334k|{
 1323|       |    if constexpr (std::is_void_v<Ret>) {
 1324|       |        using result = expected<expected_value_type<Exp>, monostate>;
 1325|       |        if (SCN_LIKELY(exp.has_value())) {
 1326|       |            return result(*std::forward<Exp>(exp));
 1327|       |        }
 1328|       |
 1329|       |        trivial_invoke(std::forward<F>(f), std::forward<Exp>(exp).error());
 1330|       |        return result(unexpect, monostate{});
 1331|       |    }
 1332|   334k|    else {
 1333|   334k|        using result = expected<expected_value_type<Exp>, remove_cvref_t<Ret>>;
 1334|   334k|        return SCN_LIKELY(exp.has_value())
  ------------------
  |  |  858|   334k|#define SCN_LIKELY(x)   __builtin_expect(!!(x), 1)
  |  |  ------------------
  |  |  |  Branch (858:25): [True: 330k, False: 4.40k]
  |  |  ------------------
  ------------------
 1335|   334k|                   ? result(*std::forward<Exp>(exp))
 1336|   334k|                   : result(unexpect,
 1337|  4.40k|                            trivial_invoke(std::forward<F>(f),
 1338|  4.40k|                                           std::forward<Exp>(exp).error()));
 1339|   334k|    }
 1340|   334k|}
_ZNK3scn2v36detail21expected_storage_baseINS1_17basic_scan_bufferIcE16forward_iteratorENS0_4impl9eof_errorELb1EE9has_valueEv:
  484|   669k|    {
  485|   669k|        return m_has_value;
  486|   669k|    }
_ZNO3scn2v38expectedINS0_6detail17basic_scan_bufferIcE16forward_iteratorENS0_4impl9eof_errorEEdeIS5_TnPNSt3__19enable_ifIXntsr3stdE9is_void_vIT_EEvE4typeELPv0EEEOSC_v:
 1662|   330k|    {
 1663|   330k|        return std::move(value());
 1664|   330k|    }
_ZNR3scn2v38expectedINS0_6detail17basic_scan_bufferIcE16forward_iteratorENS0_4impl9eof_errorEE5valueIS5_TnPNSt3__19enable_ifIXntsr3stdE9is_void_vIT_EEvE4typeELPv0EEERSC_v:
 1626|   330k|    {
 1627|   330k|        SCN_EXPECT(has_value());
  ------------------
  |  |  924|   330k|#define SCN_EXPECT(cond) SCN_ASSERT(cond, "Precondition violation")
  |  |  ------------------
  |  |  |  |  921|   330k|#define SCN_ASSERT(cond, msg) assert((cond) && msg)
  |  |  ------------------
  ------------------
 1628|   330k|        return this->get_value();
 1629|   330k|    }
_ZNR3scn2v36detail21expected_storage_baseINS1_17basic_scan_bufferIcE16forward_iteratorENS0_4impl9eof_errorELb1EE9get_valueEv:
  450|   330k|    {
  451|   330k|        return m_value;
  452|   330k|    }
_ZN3scn2v38expectedINS0_6detail17basic_scan_bufferIcE16forward_iteratorENS0_10scan_errorEEC2IS5_vEEOT_:
 1427|   786k|        : base(std::in_place, std::forward<U>(val)),
 1428|   786k|          ctor_base(detail::non_default_ctor_tag_t{})
 1429|   786k|    {
 1430|   786k|    }
_ZN3scn2v36detail21expected_storage_baseINS1_17basic_scan_bufferIcE16forward_iteratorENS0_10scan_errorELb1EEC2IJS5_EvEENSt3__110in_place_tEDpOT_:
  435|   786k|        : m_value(std::forward<Args>(args)...), m_has_value(true)
  436|   786k|    {
  437|   786k|    }
_ZN3scn2v36detail26expected_default_ctor_baseINS1_17basic_scan_bufferIcE16forward_iteratorENS0_10scan_errorELb1EEC2ENS1_22non_default_ctor_tag_tE:
 1176|   826k|    {
 1177|   826k|    }
_ZN3scn2v36detail14trivial_invokeIRFNS0_10scan_errorENS0_4impl9eof_errorEEJS5_EvEEDcOT_DpOT0_:
 1210|  26.0k|{
 1211|  26.0k|    return std::forward<F>(f)(std::forward<Args>(args)...);
 1212|  26.0k|}
_ZNO3scn2v38expectedINS0_6detail17basic_scan_bufferIcE16forward_iteratorENS0_4impl9eof_errorEE5errorEv:
 1613|  4.40k|    {
 1614|  4.40k|        SCN_EXPECT(!has_value());
  ------------------
  |  |  924|  4.40k|#define SCN_EXPECT(cond) SCN_ASSERT(cond, "Precondition violation")
  |  |  ------------------
  |  |  |  |  921|  4.40k|#define SCN_ASSERT(cond, msg) assert((cond) && msg)
  |  |  ------------------
  ------------------
 1615|  4.40k|        return std::move(this->get_unexpected().error());
 1616|  4.40k|    }
_ZNR3scn2v36detail21expected_storage_baseINS1_17basic_scan_bufferIcE16forward_iteratorENS0_4impl9eof_errorELb1EE14get_unexpectedEv:
  467|  4.40k|    {
  468|  4.40k|        return m_unexpected;
  469|  4.40k|    }
_ZNR3scn2v310unexpectedINS0_4impl9eof_errorEE5errorEv:
  360|  52.0k|    {
  361|  52.0k|        return m_unexpected;
  362|  52.0k|    }
_ZN3scn2v38expectedINS0_6detail17basic_scan_bufferIcE16forward_iteratorENS0_10scan_errorEEC2IJS6_EvEENS0_10unexpect_tEDpOT_:
 1483|  4.40k|        : base(unexpect, std::forward<Args>(args)...),
 1484|  4.40k|          ctor_base(detail::non_default_ctor_tag_t{})
 1485|  4.40k|    {
 1486|  4.40k|    }
_ZN3scn2v36detail21expected_storage_baseINS1_17basic_scan_bufferIcE16forward_iteratorENS0_10scan_errorELb1EEC2IJS6_EvEENS0_10unexpect_tEDpOT_:
  444|  37.5k|        : m_unexpected(std::in_place, std::forward<Args>(args)...),
  445|  37.5k|          m_has_value(false)
  446|  37.5k|    {
  447|  37.5k|    }
_ZNK3scn2v318basic_scan_contextIwE5rangeEv:
 8178|  1.16M|    {
 8179|  1.16M|        return ranges::subrange{begin(), end()};
 8180|  1.16M|    }
_ZNK3scn2v318basic_scan_contextIwE5beginEv:
 8162|  3.47M|    {
 8163|  3.47M|        return m_current;
 8164|  3.47M|    }
_ZNK3scn2v318basic_scan_contextIwE3endEv:
 8170|  1.16M|    {
 8171|  1.16M|        return ranges::default_sentinel;
 8172|  1.16M|    }
_ZN3scn2v36ranges6detail9subrange_8subrangeINS0_6detail17basic_scan_bufferIwE16forward_iteratorENS1_18default_sentinel_tEEC2IS8_TnPNSt3__19enable_ifIXsr3stdE16is_convertible_vIT_S8_EEvE4typeELPv0EEESE_S9_:
 3310|  84.5M|        : m_iterator(SCN_MOVE(i)), m_sentinel(SCN_MOVE(s))
  ------------------
  |  |  928|  84.5M|    static_cast<    \
  |  |  929|  84.5M|        typename ::scn::detail::remove_reference<decltype(x)>::type&&>(x)
  ------------------
                      : m_iterator(SCN_MOVE(i)), m_sentinel(SCN_MOVE(s))
  ------------------
  |  |  928|  84.5M|    static_cast<    \
  |  |  929|  84.5M|        typename ::scn::detail::remove_reference<decltype(x)>::type&&>(x)
  ------------------
 3311|  84.5M|    {
 3312|  84.5M|    }
_ZNO3scn2v38expectedINS0_6detail17basic_scan_bufferIwE16forward_iteratorENS0_4impl9eof_errorEE15transform_errorIRFNS0_10scan_errorES7_EEEDTclsr6detailE20transform_error_impldefpTclsr3stdE7forwardIT_Efp_EEEOSD_:
 1836|  2.85M|    {
 1837|  2.85M|        return detail::transform_error_impl(std::move(*this),
 1838|  2.85M|                                            std::forward<F>(f));
 1839|  2.85M|    }
_ZN3scn2v36detail20transform_error_implINS0_8expectedINS1_17basic_scan_bufferIwE16forward_iteratorENS0_4impl9eof_errorEEERFNS0_10scan_errorES8_ETnPNSt3__19enable_ifIXntsr11is_exp_voidIT_EE5valueEvE4typeELPv0ESA_EEDaOSF_OT0_:
 1322|  2.85M|{
 1323|       |    if constexpr (std::is_void_v<Ret>) {
 1324|       |        using result = expected<expected_value_type<Exp>, monostate>;
 1325|       |        if (SCN_LIKELY(exp.has_value())) {
 1326|       |            return result(*std::forward<Exp>(exp));
 1327|       |        }
 1328|       |
 1329|       |        trivial_invoke(std::forward<F>(f), std::forward<Exp>(exp).error());
 1330|       |        return result(unexpect, monostate{});
 1331|       |    }
 1332|  2.85M|    else {
 1333|  2.85M|        using result = expected<expected_value_type<Exp>, remove_cvref_t<Ret>>;
 1334|  2.85M|        return SCN_LIKELY(exp.has_value())
  ------------------
  |  |  858|  2.85M|#define SCN_LIKELY(x)   __builtin_expect(!!(x), 1)
  |  |  ------------------
  |  |  |  Branch (858:25): [True: 2.84M, False: 5.01k]
  |  |  ------------------
  ------------------
 1335|  2.85M|                   ? result(*std::forward<Exp>(exp))
 1336|  2.85M|                   : result(unexpect,
 1337|  5.01k|                            trivial_invoke(std::forward<F>(f),
 1338|  5.01k|                                           std::forward<Exp>(exp).error()));
 1339|  2.85M|    }
 1340|  2.85M|}
_ZNK3scn2v36detail21expected_storage_baseINS1_17basic_scan_bufferIwE16forward_iteratorENS0_4impl9eof_errorELb1EE9has_valueEv:
  484|  5.70M|    {
  485|  5.70M|        return m_has_value;
  486|  5.70M|    }
_ZNO3scn2v38expectedINS0_6detail17basic_scan_bufferIwE16forward_iteratorENS0_4impl9eof_errorEEdeIS5_TnPNSt3__19enable_ifIXntsr3stdE9is_void_vIT_EEvE4typeELPv0EEEOSC_v:
 1662|  2.84M|    {
 1663|  2.84M|        return std::move(value());
 1664|  2.84M|    }
_ZNR3scn2v38expectedINS0_6detail17basic_scan_bufferIwE16forward_iteratorENS0_4impl9eof_errorEE5valueIS5_TnPNSt3__19enable_ifIXntsr3stdE9is_void_vIT_EEvE4typeELPv0EEERSC_v:
 1626|  2.84M|    {
 1627|  2.84M|        SCN_EXPECT(has_value());
  ------------------
  |  |  924|  2.84M|#define SCN_EXPECT(cond) SCN_ASSERT(cond, "Precondition violation")
  |  |  ------------------
  |  |  |  |  921|  2.84M|#define SCN_ASSERT(cond, msg) assert((cond) && msg)
  |  |  ------------------
  ------------------
 1628|  2.84M|        return this->get_value();
 1629|  2.84M|    }
_ZNR3scn2v36detail21expected_storage_baseINS1_17basic_scan_bufferIwE16forward_iteratorENS0_4impl9eof_errorELb1EE9get_valueEv:
  450|  2.84M|    {
  451|  2.84M|        return m_value;
  452|  2.84M|    }
_ZN3scn2v38expectedINS0_6detail17basic_scan_bufferIwE16forward_iteratorENS0_10scan_errorEEC2IS5_vEEOT_:
 1427|  6.81M|        : base(std::in_place, std::forward<U>(val)),
 1428|  6.81M|          ctor_base(detail::non_default_ctor_tag_t{})
 1429|  6.81M|    {
 1430|  6.81M|    }
_ZN3scn2v36detail21expected_storage_baseINS1_17basic_scan_bufferIwE16forward_iteratorENS0_10scan_errorELb1EEC2IJS5_EvEENSt3__110in_place_tEDpOT_:
  435|  6.81M|        : m_value(std::forward<Args>(args)...), m_has_value(true)
  436|  6.81M|    {
  437|  6.81M|    }
_ZN3scn2v36detail26expected_default_ctor_baseINS1_17basic_scan_bufferIwE16forward_iteratorENS0_10scan_errorELb1EEC2ENS1_22non_default_ctor_tag_tE:
 1176|  6.88M|    {
 1177|  6.88M|    }
_ZNO3scn2v38expectedINS0_6detail17basic_scan_bufferIwE16forward_iteratorENS0_4impl9eof_errorEE5errorEv:
 1613|  5.01k|    {
 1614|  5.01k|        SCN_EXPECT(!has_value());
  ------------------
  |  |  924|  5.01k|#define SCN_EXPECT(cond) SCN_ASSERT(cond, "Precondition violation")
  |  |  ------------------
  |  |  |  |  921|  5.01k|#define SCN_ASSERT(cond, msg) assert((cond) && msg)
  |  |  ------------------
  ------------------
 1615|  5.01k|        return std::move(this->get_unexpected().error());
 1616|  5.01k|    }
_ZNR3scn2v36detail21expected_storage_baseINS1_17basic_scan_bufferIwE16forward_iteratorENS0_4impl9eof_errorELb1EE14get_unexpectedEv:
  467|  5.01k|    {
  468|  5.01k|        return m_unexpected;
  469|  5.01k|    }
_ZN3scn2v38expectedINS0_6detail17basic_scan_bufferIwE16forward_iteratorENS0_10scan_errorEEC2IJS6_EvEENS0_10unexpect_tEDpOT_:
 1483|  5.01k|        : base(unexpect, std::forward<Args>(args)...),
 1484|  5.01k|          ctor_base(detail::non_default_ctor_tag_t{})
 1485|  5.01k|    {
 1486|  5.01k|    }
_ZN3scn2v36detail21expected_storage_baseINS1_17basic_scan_bufferIwE16forward_iteratorENS0_10scan_errorELb1EEC2IJS6_EvEENS0_10unexpect_tEDpOT_:
  444|  73.2k|        : m_unexpected(std::in_place, std::forward<Args>(args)...),
  445|  73.2k|          m_has_value(false)
  446|  73.2k|    {
  447|  73.2k|    }
_ZN3scn2v310unexpectedINS0_10scan_errorEEC2IS2_vEEOT_:
  345|   121k|        : m_unexpected(std::forward<Err>(e))
  346|   121k|    {
  347|   121k|        SCN_UNLIKELY_ATTR SCN_UNUSED(m_unexpected);
  ------------------
  |  |  909|   121k|#define SCN_UNUSED(x) static_cast<void>(sizeof(x))
  ------------------
  348|   121k|    }
_ZN3scn2v38expectedIPKcNS0_10scan_errorEEC2IS4_TnPNSt3__19enable_ifIXsr3stdE18is_constructible_vIS4_OT_EEvE4typeELPv0ETnPNS8_IXsr3stdE16is_convertible_vISA_S4_EEvE4typeELSE_0EEEONS0_10unexpectedIS9_EE:
 1473|  67.5k|        : base(unexpect, std::move(e.error())),
 1474|  67.5k|          ctor_base(detail::non_default_ctor_tag_t{})
 1475|  67.5k|    {
 1476|  67.5k|    }
_ZN3scn2v36detail21expected_storage_baseIPKcNS0_10scan_errorELb1EEC2IJS5_EvEENS0_10unexpect_tEDpOT_:
  444|  74.1k|        : m_unexpected(std::in_place, std::forward<Args>(args)...),
  445|  74.1k|          m_has_value(false)
  446|  74.1k|    {
  447|  74.1k|    }
_ZN3scn2v36detail26expected_default_ctor_baseIPKcNS0_10scan_errorELb1EEC2ENS1_22non_default_ctor_tag_tE:
 1176|  1.37M|    {
 1177|  1.37M|    }
_ZN3scn2v38expectedIPKcNS0_10scan_errorEEC2IS3_vEEOT_:
 1427|  1.29M|        : base(std::in_place, std::forward<U>(val)),
 1428|  1.29M|          ctor_base(detail::non_default_ctor_tag_t{})
 1429|  1.29M|    {
 1430|  1.29M|    }
_ZN3scn2v36detail21expected_storage_baseIPKcNS0_10scan_errorELb1EEC2IJS4_EvEENSt3__110in_place_tEDpOT_:
  435|  1.29M|        : m_value(std::forward<Args>(args)...), m_has_value(true)
  436|  1.29M|    {
  437|  1.29M|    }
_ZNK3scn2v38expectedIPKcNS0_10scan_errorEEcvbEv:
 1597|  1.37M|    {
 1598|  1.37M|        return has_value();
 1599|  1.37M|    }
_ZNK3scn2v36detail21expected_storage_baseIPKcNS0_10scan_errorELb1EE9has_valueEv:
  484|  2.74M|    {
  485|  2.74M|        return m_has_value;
  486|  2.74M|    }
_ZNR3scn2v38expectedIPKcNS0_10scan_errorEE5errorEv:
 1603|  74.1k|    {
 1604|  74.1k|        SCN_EXPECT(!has_value());
  ------------------
  |  |  924|  74.1k|#define SCN_EXPECT(cond) SCN_ASSERT(cond, "Precondition violation")
  |  |  ------------------
  |  |  |  |  921|  74.1k|#define SCN_ASSERT(cond, msg) assert((cond) && msg)
  |  |  ------------------
  ------------------
 1605|  74.1k|        return this->get_unexpected().error();
 1606|  74.1k|    }
_ZNR3scn2v36detail21expected_storage_baseIPKcNS0_10scan_errorELb1EE14get_unexpectedEv:
  467|  74.1k|    {
  468|  74.1k|        return m_unexpected;
  469|  74.1k|    }
_ZNO3scn2v38expectedIPKcNS0_10scan_errorEEdeIS3_TnPNSt3__19enable_ifIXntsr3stdE9is_void_vIT_EEvE4typeELPv0EEEOS9_v:
 1662|  1.07M|    {
 1663|  1.07M|        return std::move(value());
 1664|  1.07M|    }
_ZNR3scn2v38expectedIPKcNS0_10scan_errorEE5valueIS3_TnPNSt3__19enable_ifIXntsr3stdE9is_void_vIT_EEvE4typeELPv0EEERS9_v:
 1626|  1.29M|    {
 1627|  1.29M|        SCN_EXPECT(has_value());
  ------------------
  |  |  924|  1.29M|#define SCN_EXPECT(cond) SCN_ASSERT(cond, "Precondition violation")
  |  |  ------------------
  |  |  |  |  921|  1.29M|#define SCN_ASSERT(cond, msg) assert((cond) && msg)
  |  |  ------------------
  ------------------
 1628|  1.29M|        return this->get_value();
 1629|  1.29M|    }
_ZNR3scn2v36detail21expected_storage_baseIPKcNS0_10scan_errorELb1EE9get_valueEv:
  450|  1.29M|    {
  451|  1.29M|        return m_value;
  452|  1.29M|    }
_ZN3scn2v38expectedIPKwNS0_10scan_errorEEC2IS4_TnPNSt3__19enable_ifIXsr3stdE18is_constructible_vIS4_OT_EEvE4typeELPv0ETnPNS8_IXsr3stdE16is_convertible_vISA_S4_EEvE4typeELSE_0EEEONS0_10unexpectedIS9_EE:
 1473|   136k|        : base(unexpect, std::move(e.error())),
 1474|   136k|          ctor_base(detail::non_default_ctor_tag_t{})
 1475|   136k|    {
 1476|   136k|    }
_ZN3scn2v36detail21expected_storage_baseIPKwNS0_10scan_errorELb1EEC2IJS5_EvEENS0_10unexpect_tEDpOT_:
  444|   146k|        : m_unexpected(std::in_place, std::forward<Args>(args)...),
  445|   146k|          m_has_value(false)
  446|   146k|    {
  447|   146k|    }
_ZN3scn2v36detail26expected_default_ctor_baseIPKwNS0_10scan_errorELb1EEC2ENS1_22non_default_ctor_tag_tE:
 1176|  13.7M|    {
 1177|  13.7M|    }
_ZN3scn2v38expectedIPKwNS0_10scan_errorEEC2IS3_vEEOT_:
 1427|  13.6M|        : base(std::in_place, std::forward<U>(val)),
 1428|  13.6M|          ctor_base(detail::non_default_ctor_tag_t{})
 1429|  13.6M|    {
 1430|  13.6M|    }
_ZN3scn2v36detail21expected_storage_baseIPKwNS0_10scan_errorELb1EEC2IJS4_EvEENSt3__110in_place_tEDpOT_:
  435|  13.6M|        : m_value(std::forward<Args>(args)...), m_has_value(true)
  436|  13.6M|    {
  437|  13.6M|    }
_ZNK3scn2v38expectedIPKwNS0_10scan_errorEEcvbEv:
 1597|  13.7M|    {
 1598|  13.7M|        return has_value();
 1599|  13.7M|    }
_ZNK3scn2v36detail21expected_storage_baseIPKwNS0_10scan_errorELb1EE9has_valueEv:
  484|  27.5M|    {
  485|  27.5M|        return m_has_value;
  486|  27.5M|    }
_ZNR3scn2v38expectedIPKwNS0_10scan_errorEE5errorEv:
 1603|   146k|    {
 1604|   146k|        SCN_EXPECT(!has_value());
  ------------------
  |  |  924|   146k|#define SCN_EXPECT(cond) SCN_ASSERT(cond, "Precondition violation")
  |  |  ------------------
  |  |  |  |  921|   146k|#define SCN_ASSERT(cond, msg) assert((cond) && msg)
  |  |  ------------------
  ------------------
 1605|   146k|        return this->get_unexpected().error();
 1606|   146k|    }
_ZNR3scn2v36detail21expected_storage_baseIPKwNS0_10scan_errorELb1EE14get_unexpectedEv:
  467|   146k|    {
  468|   146k|        return m_unexpected;
  469|   146k|    }
_ZNO3scn2v38expectedIPKwNS0_10scan_errorEEdeIS3_TnPNSt3__19enable_ifIXntsr3stdE9is_void_vIT_EEvE4typeELPv0EEEOS9_v:
 1662|  11.3M|    {
 1663|  11.3M|        return std::move(value());
 1664|  11.3M|    }
_ZNR3scn2v38expectedIPKwNS0_10scan_errorEE5valueIS3_TnPNSt3__19enable_ifIXntsr3stdE9is_void_vIT_EEvE4typeELPv0EEERS9_v:
 1626|  13.6M|    {
 1627|  13.6M|        SCN_EXPECT(has_value());
  ------------------
  |  |  924|  13.6M|#define SCN_EXPECT(cond) SCN_ASSERT(cond, "Precondition violation")
  |  |  ------------------
  |  |  |  |  921|  13.6M|#define SCN_ASSERT(cond, msg) assert((cond) && msg)
  |  |  ------------------
  ------------------
 1628|  13.6M|        return this->get_value();
 1629|  13.6M|    }
_ZNR3scn2v36detail21expected_storage_baseIPKwNS0_10scan_errorELb1EE9get_valueEv:
  450|  13.6M|    {
  451|  13.6M|        return m_value;
  452|  13.6M|    }
_ZNO3scn2v38expectedIPKcNS0_4impl9eof_errorEE15transform_errorIRFNS0_10scan_errorES5_EEEDTclsr6detailE20transform_error_impldefpTclsr3stdE7forwardIT_Efp_EEEOSB_:
 1836|   551k|    {
 1837|   551k|        return detail::transform_error_impl(std::move(*this),
 1838|   551k|                                            std::forward<F>(f));
 1839|   551k|    }
_ZN3scn2v36detail20transform_error_implINS0_8expectedIPKcNS0_4impl9eof_errorEEERFNS0_10scan_errorES7_ETnPNSt3__19enable_ifIXntsr11is_exp_voidIT_EE5valueEvE4typeELPv0ES9_EEDaOSE_OT0_:
 1322|   551k|{
 1323|       |    if constexpr (std::is_void_v<Ret>) {
 1324|       |        using result = expected<expected_value_type<Exp>, monostate>;
 1325|       |        if (SCN_LIKELY(exp.has_value())) {
 1326|       |            return result(*std::forward<Exp>(exp));
 1327|       |        }
 1328|       |
 1329|       |        trivial_invoke(std::forward<F>(f), std::forward<Exp>(exp).error());
 1330|       |        return result(unexpect, monostate{});
 1331|       |    }
 1332|   551k|    else {
 1333|   551k|        using result = expected<expected_value_type<Exp>, remove_cvref_t<Ret>>;
 1334|   551k|        return SCN_LIKELY(exp.has_value())
  ------------------
  |  |  858|   551k|#define SCN_LIKELY(x)   __builtin_expect(!!(x), 1)
  |  |  ------------------
  |  |  |  Branch (858:25): [True: 545k, False: 6.61k]
  |  |  ------------------
  ------------------
 1335|   551k|                   ? result(*std::forward<Exp>(exp))
 1336|   551k|                   : result(unexpect,
 1337|  6.61k|                            trivial_invoke(std::forward<F>(f),
 1338|  6.61k|                                           std::forward<Exp>(exp).error()));
 1339|   551k|    }
 1340|   551k|}
_ZNK3scn2v36detail21expected_storage_baseIPKcNS0_4impl9eof_errorELb1EE9has_valueEv:
  484|  1.10M|    {
  485|  1.10M|        return m_has_value;
  486|  1.10M|    }
_ZNO3scn2v38expectedIPKcNS0_4impl9eof_errorEEdeIS3_TnPNSt3__19enable_ifIXntsr3stdE9is_void_vIT_EEvE4typeELPv0EEEOSA_v:
 1662|   545k|    {
 1663|   545k|        return std::move(value());
 1664|   545k|    }
_ZNR3scn2v38expectedIPKcNS0_4impl9eof_errorEE5valueIS3_TnPNSt3__19enable_ifIXntsr3stdE9is_void_vIT_EEvE4typeELPv0EEERSA_v:
 1626|   545k|    {
 1627|   545k|        SCN_EXPECT(has_value());
  ------------------
  |  |  924|   545k|#define SCN_EXPECT(cond) SCN_ASSERT(cond, "Precondition violation")
  |  |  ------------------
  |  |  |  |  921|   545k|#define SCN_ASSERT(cond, msg) assert((cond) && msg)
  |  |  ------------------
  ------------------
 1628|   545k|        return this->get_value();
 1629|   545k|    }
_ZNR3scn2v36detail21expected_storage_baseIPKcNS0_4impl9eof_errorELb1EE9get_valueEv:
  450|   545k|    {
  451|   545k|        return m_value;
  452|   545k|    }
_ZNO3scn2v38expectedIPKcNS0_4impl9eof_errorEE5errorEv:
 1613|  6.61k|    {
 1614|  6.61k|        SCN_EXPECT(!has_value());
  ------------------
  |  |  924|  6.61k|#define SCN_EXPECT(cond) SCN_ASSERT(cond, "Precondition violation")
  |  |  ------------------
  |  |  |  |  921|  6.61k|#define SCN_ASSERT(cond, msg) assert((cond) && msg)
  |  |  ------------------
  ------------------
 1615|  6.61k|        return std::move(this->get_unexpected().error());
 1616|  6.61k|    }
_ZNR3scn2v36detail21expected_storage_baseIPKcNS0_4impl9eof_errorELb1EE14get_unexpectedEv:
  467|  6.61k|    {
  468|  6.61k|        return m_unexpected;
  469|  6.61k|    }
_ZN3scn2v38expectedIPKcNS0_10scan_errorEEC2IJS4_EvEENS0_10unexpect_tEDpOT_:
 1483|  6.61k|        : base(unexpect, std::forward<Args>(args)...),
 1484|  6.61k|          ctor_base(detail::non_default_ctor_tag_t{})
 1485|  6.61k|    {
 1486|  6.61k|    }
_ZN3scn2v310scan_errorC2Ev:
 3558|  21.8M|    constexpr scan_error() noexcept = default;
_ZN3scn2v38expectedINS0_6detail17basic_scan_bufferIcE16forward_iteratorENS0_10scan_errorEEC2IS6_TnPNSt3__19enable_ifIXsr3stdE18is_constructible_vIS6_OT_EEvE4typeELPv0ETnPNSA_IXsr3stdE16is_convertible_vISC_S6_EEvE4typeELSG_0EEEONS0_10unexpectedISB_EE:
 1473|  33.1k|        : base(unexpect, std::move(e.error())),
 1474|  33.1k|          ctor_base(detail::non_default_ctor_tag_t{})
 1475|  33.1k|    {
 1476|  33.1k|    }
_ZN3scn2v36detaileqERKNS1_17basic_scan_bufferIcE16forward_iteratorENS0_6ranges18default_sentinel_tE:
 4288|  4.05M|    {
 4289|  4.05M|        return x.is_at_end();
 4290|  4.05M|    }
_ZNK3scn2v36detail17basic_scan_bufferIcE16forward_iterator9is_at_endEv:
 4332|  8.29M|    {
 4333|  8.29M|        if (m_end) {
  ------------------
  |  Branch (4333:13): [True: 0, False: 8.29M]
  ------------------
 4334|      0|            return (static_cast<const CharT*>(m_begin) + position()) == m_end;
 4335|      0|        }
 4336|  8.29M|        if (!m_begin) {
  ------------------
  |  Branch (4336:13): [True: 0, False: 8.29M]
  ------------------
 4337|      0|            return true;
 4338|      0|        }
 4339|  8.29M|        return !read_at_position();
 4340|  8.29M|    }
_ZNK3scn2v36detail17basic_scan_bufferIcE16forward_iterator16read_at_positionEv:
 4312|  22.7M|    {
 4313|  22.7M|        SCN_EXPECT(m_begin);
  ------------------
  |  |  924|  22.7M|#define SCN_EXPECT(cond) SCN_ASSERT(cond, "Precondition violation")
  |  |  ------------------
  |  |  |  |  921|  22.7M|#define SCN_ASSERT(cond, msg) assert((cond) && msg)
  |  |  ------------------
  ------------------
 4314|       |
 4315|  22.7M|        if (!stores_parent()) {
  ------------------
  |  Branch (4315:13): [True: 0, False: 22.7M]
  ------------------
 4316|      0|            return true;
 4317|      0|        }
 4318|       |
 4319|  22.7M|        if (SCN_LIKELY(m_position < parent()->chars_available())) {
  ------------------
  |  |  858|  22.7M|#define SCN_LIKELY(x)   __builtin_expect(!!(x), 1)
  |  |  ------------------
  |  |  |  Branch (858:25): [True: 18.5M, False: 4.27M]
  |  |  ------------------
  ------------------
 4320|  18.5M|            return true;
 4321|  18.5M|        }
 4322|       |
 4323|  8.51M|        while (m_position >= parent()->chars_available()) {
  ------------------
  |  Branch (4323:16): [True: 4.27M, False: 4.24M]
  ------------------
 4324|  4.27M|            if (!const_cast<basic_scan_buffer<CharT>*>(parent())->fill()) {
  ------------------
  |  Branch (4324:17): [True: 37.1k, False: 4.24M]
  ------------------
 4325|  37.1k|                return false;
 4326|  37.1k|            }
 4327|  4.27M|        }
 4328|  4.24M|        return true;
 4329|  4.27M|    }
_ZNK3scn2v36detail17basic_scan_bufferIcE15chars_availableEv:
 4088|  31.3M|    {
 4089|  31.3M|        return m_putback_buffer.size() + m_current_view.size();
 4090|  31.3M|    }
_ZNK3scn2v36detail17basic_scan_bufferIcE16forward_iteratordeEv:
 4247|  7.61M|    {
 4248|  7.61M|        SCN_EXPECT(m_begin);
  ------------------
  |  |  924|  7.61M|#define SCN_EXPECT(cond) SCN_ASSERT(cond, "Precondition violation")
  |  |  ------------------
  |  |  |  |  921|  7.61M|#define SCN_ASSERT(cond, msg) assert((cond) && msg)
  |  |  ------------------
  ------------------
 4249|       |
 4250|  7.61M|        if (!stores_parent()) {
  ------------------
  |  Branch (4250:13): [True: 0, False: 7.61M]
  ------------------
 4251|      0|            auto ptr = static_cast<const CharT*>(m_begin) + position();
 4252|      0|            SCN_EXPECT(ptr != m_end);
  ------------------
  |  |  924|      0|#define SCN_EXPECT(cond) SCN_ASSERT(cond, "Precondition violation")
  |  |  ------------------
  |  |  |  |  921|      0|#define SCN_ASSERT(cond, msg) assert((cond) && msg)
  |  |  ------------------
  ------------------
 4253|      0|            return *ptr;
 4254|      0|        }
 4255|       |
 4256|  7.61M|        auto res = read_at_position();
 4257|  7.61M|        SCN_EXPECT(res);
  ------------------
  |  |  924|  7.61M|#define SCN_EXPECT(cond) SCN_ASSERT(cond, "Precondition violation")
  |  |  ------------------
  |  |  |  |  921|  7.61M|#define SCN_ASSERT(cond, msg) assert((cond) && msg)
  |  |  ------------------
  ------------------
 4258|  7.61M|        return parent()->get_character_at(m_position);
 4259|  7.61M|    }
_ZNK3scn2v36detail17basic_scan_bufferIcE16get_character_atEl:
 4119|  7.61M|    {
 4120|  7.61M|        if (SCN_UNLIKELY(
  ------------------
  |  |  859|  7.61M|#define SCN_UNLIKELY(x) __builtin_expect(!!(x), 0)
  |  |  ------------------
  |  |  |  Branch (859:25): [True: 4.14M, False: 3.47M]
  |  |  ------------------
  ------------------
 4121|  7.61M|                pos < static_cast<std::ptrdiff_t>(m_putback_buffer.size()))) {
 4122|  4.14M|            return m_putback_buffer[pos];
 4123|  4.14M|        }
 4124|  3.47M|        const auto start = pos - m_putback_buffer.size();
 4125|  3.47M|        SCN_EXPECT(start < m_current_view.size());
  ------------------
  |  |  924|  3.47M|#define SCN_EXPECT(cond) SCN_ASSERT(cond, "Precondition violation")
  |  |  ------------------
  |  |  |  |  921|  3.47M|#define SCN_ASSERT(cond, msg) assert((cond) && msg)
  |  |  ------------------
  ------------------
 4126|  3.47M|        return m_current_view[start];
 4127|  3.47M|    }
_ZN3scn2v38expectedINS0_6detail17basic_scan_bufferIcE16forward_iteratorENS0_4impl9eof_errorEEC2IS5_vEEOT_:
 1427|   330k|        : base(std::in_place, std::forward<U>(val)),
 1428|   330k|          ctor_base(detail::non_default_ctor_tag_t{})
 1429|   330k|    {
 1430|   330k|    }
_ZN3scn2v36detail21expected_storage_baseINS1_17basic_scan_bufferIcE16forward_iteratorENS0_4impl9eof_errorELb1EEC2IJS5_EvEENSt3__110in_place_tEDpOT_:
  435|   330k|        : m_value(std::forward<Args>(args)...), m_has_value(true)
  436|   330k|    {
  437|   330k|    }
_ZN3scn2v36detail26expected_default_ctor_baseINS1_17basic_scan_bufferIcE16forward_iteratorENS0_4impl9eof_errorELb1EEC2ENS1_22non_default_ctor_tag_tE:
 1176|   334k|    {
 1177|   334k|    }
_ZN3scn2v38expectedINS0_6detail17basic_scan_bufferIcE16forward_iteratorENS0_4impl9eof_errorEEC2IS7_TnPNSt3__19enable_ifIXsr3stdE18is_constructible_vIS7_OT_EEvE4typeELPv0ETnPNSB_IXsr3stdE16is_convertible_vISD_S7_EEvE4typeELSH_0EEEONS0_10unexpectedISC_EE:
 1473|  4.40k|        : base(unexpect, std::move(e.error())),
 1474|  4.40k|          ctor_base(detail::non_default_ctor_tag_t{})
 1475|  4.40k|    {
 1476|  4.40k|    }
_ZN3scn2v36detail21expected_storage_baseINS1_17basic_scan_bufferIcE16forward_iteratorENS0_4impl9eof_errorELb1EEC2IJS7_EvEENS0_10unexpect_tEDpOT_:
  444|  4.40k|        : m_unexpected(std::in_place, std::forward<Args>(args)...),
  445|  4.40k|          m_has_value(false)
  446|  4.40k|    {
  447|  4.40k|    }
_ZN3scn2v310unexpectedINS0_4impl9eof_errorEEC2IJS3_EvEENSt3__110in_place_tEDpOT_:
  354|  26.0k|        : m_unexpected(std::forward<Args>(args)...)
  355|  26.0k|    {
  356|  26.0k|        SCN_UNLIKELY_ATTR SCN_UNUSED(m_unexpected);
  ------------------
  |  |  909|  26.0k|#define SCN_UNUSED(x) static_cast<void>(sizeof(x))
  ------------------
  357|  26.0k|    }
_ZN3scn2v36detailneERKNS1_17basic_scan_bufferIcE16forward_iteratorES6_:
 4282|  2.91M|    {
 4283|  2.91M|        return !(lhs == rhs);
 4284|  2.91M|    }
_ZN3scn2v36detaileqERKNS1_17basic_scan_bufferIcE16forward_iteratorES6_:
 4277|  2.92M|    {
 4278|  2.92M|        return lhs.m_begin == rhs.m_begin && lhs.m_position == rhs.m_position;
  ------------------
  |  Branch (4278:16): [True: 2.92M, False: 0]
  |  Branch (4278:46): [True: 481k, False: 2.44M]
  ------------------
 4279|  2.92M|    }
_ZN3scn2v36detail17basic_scan_bufferIcE16forward_iteratorppEv:
 4233|  6.87M|    {
 4234|  6.87M|        ++m_position;
 4235|  6.87M|        (void)read_at_position();
 4236|  6.87M|        return *this;
 4237|  6.87M|    }
_ZN3scn2v310unexpectedINS0_4impl9eof_errorEEC2IRS3_vEEOT_:
  345|  26.0k|        : m_unexpected(std::forward<Err>(e))
  346|  26.0k|    {
  347|  26.0k|        SCN_UNLIKELY_ATTR SCN_UNUSED(m_unexpected);
  ------------------
  |  |  909|  26.0k|#define SCN_UNUSED(x) static_cast<void>(sizeof(x))
  ------------------
  348|  26.0k|    }
_ZN3scn2v38expectedINSt3__14pairINS0_6detail17basic_scan_bufferIcE16forward_iteratorElEENS0_10scan_errorEEC2IS9_TnPNS2_9enable_ifIXsr3stdE18is_constructible_vIS9_OT_EEvE4typeELPv0ETnPNSC_IXsr3stdE16is_convertible_vISE_S9_EEvE4typeELSI_0EEEONS0_10unexpectedISD_EE:
 1473|  1.91k|        : base(unexpect, std::move(e.error())),
 1474|  1.91k|          ctor_base(detail::non_default_ctor_tag_t{})
 1475|  1.91k|    {
 1476|  1.91k|    }
_ZN3scn2v36detail21expected_storage_baseINSt3__14pairINS1_17basic_scan_bufferIcE16forward_iteratorElEENS0_10scan_errorELb1EEC2IJS9_EvEENS0_10unexpect_tEDpOT_:
  444|  1.91k|        : m_unexpected(std::in_place, std::forward<Args>(args)...),
  445|  1.91k|          m_has_value(false)
  446|  1.91k|    {
  447|  1.91k|    }
_ZN3scn2v36detail26expected_default_ctor_baseINSt3__14pairINS1_17basic_scan_bufferIcE16forward_iteratorElEENS0_10scan_errorELb1EEC2ENS1_22non_default_ctor_tag_tE:
 1176|   271k|    {
 1177|   271k|    }
_ZN3scn2v38expectedINSt3__14pairINS0_6detail17basic_scan_bufferIcE16forward_iteratorElEENS0_10scan_errorEEC2IS8_vEEOT_:
 1427|   269k|        : base(std::in_place, std::forward<U>(val)),
 1428|   269k|          ctor_base(detail::non_default_ctor_tag_t{})
 1429|   269k|    {
 1430|   269k|    }
_ZN3scn2v36detail21expected_storage_baseINSt3__14pairINS1_17basic_scan_bufferIcE16forward_iteratorElEENS0_10scan_errorELb1EEC2IJS8_EvEENS3_10in_place_tEDpOT_:
  435|   269k|        : m_value(std::forward<Args>(args)...), m_has_value(true)
  436|   269k|    {
  437|   269k|    }
_ZNK3scn2v38expectedINSt3__14pairINS0_6detail17basic_scan_bufferIcE16forward_iteratorElEENS0_10scan_errorEEcvbEv:
 1597|   271k|    {
 1598|   271k|        return has_value();
 1599|   271k|    }
_ZNK3scn2v36detail21expected_storage_baseINSt3__14pairINS1_17basic_scan_bufferIcE16forward_iteratorElEENS0_10scan_errorELb1EE9has_valueEv:
  484|   543k|    {
  485|   543k|        return m_has_value;
  486|   543k|    }
_ZNR3scn2v38expectedINSt3__14pairINS0_6detail17basic_scan_bufferIcE16forward_iteratorElEENS0_10scan_errorEE5errorEv:
 1603|  1.91k|    {
 1604|  1.91k|        SCN_EXPECT(!has_value());
  ------------------
  |  |  924|  1.91k|#define SCN_EXPECT(cond) SCN_ASSERT(cond, "Precondition violation")
  |  |  ------------------
  |  |  |  |  921|  1.91k|#define SCN_ASSERT(cond, msg) assert((cond) && msg)
  |  |  ------------------
  ------------------
 1605|  1.91k|        return this->get_unexpected().error();
 1606|  1.91k|    }
_ZNR3scn2v36detail21expected_storage_baseINSt3__14pairINS1_17basic_scan_bufferIcE16forward_iteratorElEENS0_10scan_errorELb1EE14get_unexpectedEv:
  467|  1.91k|    {
  468|  1.91k|        return m_unexpected;
  469|  1.91k|    }
_ZNO3scn2v38expectedINSt3__14pairINS0_6detail17basic_scan_bufferIcE16forward_iteratorElEENS0_10scan_errorEEdeIS8_TnPNS2_9enable_ifIXntsr3stdE9is_void_vIT_EEvE4typeELPv0EEEOSD_v:
 1662|   269k|    {
 1663|   269k|        return std::move(value());
 1664|   269k|    }
_ZNR3scn2v38expectedINSt3__14pairINS0_6detail17basic_scan_bufferIcE16forward_iteratorElEENS0_10scan_errorEE5valueIS8_TnPNS2_9enable_ifIXntsr3stdE9is_void_vIT_EEvE4typeELPv0EEERSD_v:
 1626|   269k|    {
 1627|   269k|        SCN_EXPECT(has_value());
  ------------------
  |  |  924|   269k|#define SCN_EXPECT(cond) SCN_ASSERT(cond, "Precondition violation")
  |  |  ------------------
  |  |  |  |  921|   269k|#define SCN_ASSERT(cond, msg) assert((cond) && msg)
  |  |  ------------------
  ------------------
 1628|   269k|        return this->get_value();
 1629|   269k|    }
_ZNR3scn2v36detail21expected_storage_baseINSt3__14pairINS1_17basic_scan_bufferIcE16forward_iteratorElEENS0_10scan_errorELb1EE9get_valueEv:
  450|   269k|    {
  451|   269k|        return m_value;
  452|   269k|    }
_ZNK3scn2v36ranges6detail9subrange_8subrangeINS0_6detail17basic_scan_bufferIcE16forward_iteratorENS1_18default_sentinel_tEE3endEv:
 3329|  12.6M|    {
 3330|  12.6M|        return m_sentinel;
 3331|  12.6M|    }
_ZNK3scn2v36ranges6detail9subrange_8subrangeINS0_6detail17basic_scan_bufferIcE16forward_iteratorES8_E5beginEv:
 3325|   348k|    {
 3326|   348k|        return m_iterator;
 3327|   348k|    }
_ZNK3scn2v36ranges6detail9subrange_8subrangeINS0_6detail17basic_scan_bufferIcE16forward_iteratorES8_E3endEv:
 3329|   348k|    {
 3330|   348k|        return m_sentinel;
 3331|   348k|    }
_ZNK3scn2v38expectedINS0_6detail17basic_scan_bufferIcE16forward_iteratorENS0_10scan_errorEEcvbEv:
 1597|   826k|    {
 1598|   826k|        return has_value();
 1599|   826k|    }
_ZNK3scn2v36detail21expected_storage_baseINS1_17basic_scan_bufferIcE16forward_iteratorENS0_10scan_errorELb1EE9has_valueEv:
  484|  1.65M|    {
  485|  1.65M|        return m_has_value;
  486|  1.65M|    }
_ZNR3scn2v38expectedINS0_6detail17basic_scan_bufferIcE16forward_iteratorENS0_10scan_errorEE5errorEv:
 1603|  37.5k|    {
 1604|  37.5k|        SCN_EXPECT(!has_value());
  ------------------
  |  |  924|  37.5k|#define SCN_EXPECT(cond) SCN_ASSERT(cond, "Precondition violation")
  |  |  ------------------
  |  |  |  |  921|  37.5k|#define SCN_ASSERT(cond, msg) assert((cond) && msg)
  |  |  ------------------
  ------------------
 1605|  37.5k|        return this->get_unexpected().error();
 1606|  37.5k|    }
_ZNR3scn2v36detail21expected_storage_baseINS1_17basic_scan_bufferIcE16forward_iteratorENS0_10scan_errorELb1EE14get_unexpectedEv:
  467|  37.5k|    {
  468|  37.5k|        return m_unexpected;
  469|  37.5k|    }
_ZNO3scn2v38expectedINS0_6detail17basic_scan_bufferIcE16forward_iteratorENS0_10scan_errorEEdeIS5_TnPNSt3__19enable_ifIXntsr3stdE9is_void_vIT_EEvE4typeELPv0EEEOSB_v:
 1662|   654k|    {
 1663|   654k|        return std::move(value());
 1664|   654k|    }
_ZNR3scn2v38expectedINS0_6detail17basic_scan_bufferIcE16forward_iteratorENS0_10scan_errorEE5valueIS5_TnPNSt3__19enable_ifIXntsr3stdE9is_void_vIT_EEvE4typeELPv0EEERSB_v:
 1626|   788k|    {
 1627|   788k|        SCN_EXPECT(has_value());
  ------------------
  |  |  924|   788k|#define SCN_EXPECT(cond) SCN_ASSERT(cond, "Precondition violation")
  |  |  ------------------
  |  |  |  |  921|   788k|#define SCN_ASSERT(cond, msg) assert((cond) && msg)
  |  |  ------------------
  ------------------
 1628|   788k|        return this->get_value();
 1629|   788k|    }
_ZNR3scn2v36detail21expected_storage_baseINS1_17basic_scan_bufferIcE16forward_iteratorENS0_10scan_errorELb1EE9get_valueEv:
  450|   788k|    {
  451|   788k|        return m_value;
  452|   788k|    }
_ZN3scn2v36ranges6detail9subrange_8subrangeINS0_6detail17basic_scan_bufferIcE16forward_iteratorES8_EC2IS8_TnPNSt3__19enable_ifIXsr3stdE16is_convertible_vIT_S8_EEvE4typeELPv0EEESD_S8_:
 3310|   332k|        : m_iterator(SCN_MOVE(i)), m_sentinel(SCN_MOVE(s))
  ------------------
  |  |  928|   332k|    static_cast<    \
  |  |  929|   332k|        typename ::scn::detail::remove_reference<decltype(x)>::type&&>(x)
  ------------------
                      : m_iterator(SCN_MOVE(i)), m_sentinel(SCN_MOVE(s))
  ------------------
  |  |  928|   332k|    static_cast<    \
  |  |  929|   332k|        typename ::scn::detail::remove_reference<decltype(x)>::type&&>(x)
  ------------------
 3311|   332k|    {
 3312|   332k|    }
_ZN3scn2v36detailneERKNS1_17basic_scan_bufferIcE16forward_iteratorENS0_6ranges18default_sentinel_tE:
 4299|  4.24M|    {
 4300|  4.24M|        return !x.is_at_end();
 4301|  4.24M|    }
_ZN3scn2v38expectedIPKcNS0_4impl9eof_errorEEC2IS5_TnPNSt3__19enable_ifIXsr3stdE18is_constructible_vIS5_OT_EEvE4typeELPv0ETnPNS9_IXsr3stdE16is_convertible_vISB_S5_EEvE4typeELSF_0EEEONS0_10unexpectedISA_EE:
 1473|  6.61k|        : base(unexpect, std::move(e.error())),
 1474|  6.61k|          ctor_base(detail::non_default_ctor_tag_t{})
 1475|  6.61k|    {
 1476|  6.61k|    }
_ZN3scn2v36detail21expected_storage_baseIPKcNS0_4impl9eof_errorELb1EEC2IJS6_EvEENS0_10unexpect_tEDpOT_:
  444|  6.61k|        : m_unexpected(std::in_place, std::forward<Args>(args)...),
  445|  6.61k|          m_has_value(false)
  446|  6.61k|    {
  447|  6.61k|    }
_ZN3scn2v36detail26expected_default_ctor_baseIPKcNS0_4impl9eof_errorELb1EEC2ENS1_22non_default_ctor_tag_tE:
 1176|   551k|    {
 1177|   551k|    }
_ZN3scn2v38expectedIPKcNS0_4impl9eof_errorEEC2IS3_vEEOT_:
 1427|   545k|        : base(std::in_place, std::forward<U>(val)),
 1428|   545k|          ctor_base(detail::non_default_ctor_tag_t{})
 1429|   545k|    {
 1430|   545k|    }
_ZN3scn2v36detail21expected_storage_baseIPKcNS0_4impl9eof_errorELb1EEC2IJS4_EvEENSt3__110in_place_tEDpOT_:
  435|   545k|        : m_value(std::forward<Args>(args)...), m_has_value(true)
  436|   545k|    {
  437|   545k|    }
_ZN3scn2v38expectedINSt3__14pairIPKclEENS0_10scan_errorEEC2IS7_TnPNS2_9enable_ifIXsr3stdE18is_constructible_vIS7_OT_EEvE4typeELPv0ETnPNSA_IXsr3stdE16is_convertible_vISC_S7_EEvE4typeELSG_0EEEONS0_10unexpectedISB_EE:
 1473|  2.64k|        : base(unexpect, std::move(e.error())),
 1474|  2.64k|          ctor_base(detail::non_default_ctor_tag_t{})
 1475|  2.64k|    {
 1476|  2.64k|    }
_ZN3scn2v36detail21expected_storage_baseINSt3__14pairIPKclEENS0_10scan_errorELb1EEC2IJS8_EvEENS0_10unexpect_tEDpOT_:
  444|  2.64k|        : m_unexpected(std::in_place, std::forward<Args>(args)...),
  445|  2.64k|          m_has_value(false)
  446|  2.64k|    {
  447|  2.64k|    }
_ZN3scn2v36detail26expected_default_ctor_baseINSt3__14pairIPKclEENS0_10scan_errorELb1EEC2ENS1_22non_default_ctor_tag_tE:
 1176|   447k|    {
 1177|   447k|    }
_ZN3scn2v38expectedINSt3__14pairIPKclEENS0_10scan_errorEEC2IS6_vEEOT_:
 1427|   445k|        : base(std::in_place, std::forward<U>(val)),
 1428|   445k|          ctor_base(detail::non_default_ctor_tag_t{})
 1429|   445k|    {
 1430|   445k|    }
_ZN3scn2v36detail21expected_storage_baseINSt3__14pairIPKclEENS0_10scan_errorELb1EEC2IJS7_EvEENS3_10in_place_tEDpOT_:
  435|   445k|        : m_value(std::forward<Args>(args)...), m_has_value(true)
  436|   445k|    {
  437|   445k|    }
_ZNK3scn2v38expectedINSt3__14pairIPKclEENS0_10scan_errorEEcvbEv:
 1597|   447k|    {
 1598|   447k|        return has_value();
 1599|   447k|    }
_ZNK3scn2v36detail21expected_storage_baseINSt3__14pairIPKclEENS0_10scan_errorELb1EE9has_valueEv:
  484|   895k|    {
  485|   895k|        return m_has_value;
  486|   895k|    }
_ZNR3scn2v38expectedINSt3__14pairIPKclEENS0_10scan_errorEE5errorEv:
 1603|  2.64k|    {
 1604|  2.64k|        SCN_EXPECT(!has_value());
  ------------------
  |  |  924|  2.64k|#define SCN_EXPECT(cond) SCN_ASSERT(cond, "Precondition violation")
  |  |  ------------------
  |  |  |  |  921|  2.64k|#define SCN_ASSERT(cond, msg) assert((cond) && msg)
  |  |  ------------------
  ------------------
 1605|  2.64k|        return this->get_unexpected().error();
 1606|  2.64k|    }
_ZNR3scn2v36detail21expected_storage_baseINSt3__14pairIPKclEENS0_10scan_errorELb1EE14get_unexpectedEv:
  467|  2.64k|    {
  468|  2.64k|        return m_unexpected;
  469|  2.64k|    }
_ZNO3scn2v38expectedINSt3__14pairIPKclEENS0_10scan_errorEEdeIS6_TnPNS2_9enable_ifIXntsr3stdE9is_void_vIT_EEvE4typeELPv0EEEOSB_v:
 1662|   445k|    {
 1663|   445k|        return std::move(value());
 1664|   445k|    }
_ZNR3scn2v38expectedINSt3__14pairIPKclEENS0_10scan_errorEE5valueIS6_TnPNS2_9enable_ifIXntsr3stdE9is_void_vIT_EEvE4typeELPv0EEERSB_v:
 1626|   445k|    {
 1627|   445k|        SCN_EXPECT(has_value());
  ------------------
  |  |  924|   445k|#define SCN_EXPECT(cond) SCN_ASSERT(cond, "Precondition violation")
  |  |  ------------------
  |  |  |  |  921|   445k|#define SCN_ASSERT(cond, msg) assert((cond) && msg)
  |  |  ------------------
  ------------------
 1628|   445k|        return this->get_value();
 1629|   445k|    }
_ZNR3scn2v36detail21expected_storage_baseINSt3__14pairIPKclEENS0_10scan_errorELb1EE9get_valueEv:
  450|   445k|    {
  451|   445k|        return m_value;
  452|   445k|    }
_ZNK3scn2v36ranges6detail5data_2fnclIRNS2_9subrange_8subrangeIPKcS9_EEEEDTclsr2fnE4implscDtfp_Efp_tlNS0_6detail12priority_tagILm1EEEEEEOT_:
 2854|  1.64M|    {
 2855|  1.64M|        return fn::impl(SCN_FWD(t), priority_tag<1>{});
  ------------------
  |  |  930|  1.64M|#define SCN_FWD(x)          static_cast<decltype(x)&&>(x)
  ------------------
 2856|  1.64M|    }
_ZN3scn2v36ranges6detail5data_2fn4implINS2_9subrange_8subrangeIPKcS9_EES9_EENSt3__19enable_ifIX19is_object_pointer_vIT0_EESD_E4typeERT_NS0_6detail12priority_tagILm1EEE:
 2835|  1.64M|    {
 2836|  1.64M|        return t.data();
 2837|  1.64M|    }
_ZN3scn2v38expectedIlNS0_10scan_errorEEC2IS2_TnPNSt3__19enable_ifIXsr3stdE18is_constructible_vIS2_OT_EEvE4typeELPv0ETnPNS6_IXsr3stdE16is_convertible_vIS8_S2_EEvE4typeELSC_0EEEONS0_10unexpectedIS7_EE:
 1473|   273k|        : base(unexpect, std::move(e.error())),
 1474|   273k|          ctor_base(detail::non_default_ctor_tag_t{})
 1475|   273k|    {
 1476|   273k|    }
_ZN3scn2v36detail21expected_storage_baseIlNS0_10scan_errorELb1EEC2IJS3_EvEENS0_10unexpect_tEDpOT_:
  444|   273k|        : m_unexpected(std::in_place, std::forward<Args>(args)...),
  445|   273k|          m_has_value(false)
  446|   273k|    {
  447|   273k|    }
_ZN3scn2v36detail26expected_default_ctor_baseIlNS0_10scan_errorELb1EEC2ENS1_22non_default_ctor_tag_tE:
 1176|  9.62M|    {
 1177|  9.62M|    }
_ZN3scn2v38expectedIlNS0_10scan_errorEEC2IlvEEOT_:
 1427|  9.34M|        : base(std::in_place, std::forward<U>(val)),
 1428|  9.34M|          ctor_base(detail::non_default_ctor_tag_t{})
 1429|  9.34M|    {
 1430|  9.34M|    }
_ZN3scn2v36detail21expected_storage_baseIlNS0_10scan_errorELb1EEC2IJlEvEENSt3__110in_place_tEDpOT_:
  435|  9.34M|        : m_value(std::forward<Args>(args)...), m_has_value(true)
  436|  9.34M|    {
  437|  9.34M|    }
_ZNR3scn2v38expectedINS0_6detail17basic_scan_bufferIcE16forward_iteratorENS0_10scan_errorEEdeIS5_TnPNSt3__19enable_ifIXntsr3stdE9is_void_vIT_EEvE4typeELPv0EEERSB_v:
 1652|   133k|    {
 1653|   133k|        return value();
 1654|   133k|    }
_ZNR3scn2v38expectedIPKcNS0_10scan_errorEEdeIS3_TnPNSt3__19enable_ifIXntsr3stdE9is_void_vIT_EEvE4typeELPv0EEERS9_v:
 1652|   219k|    {
 1653|   219k|        return value();
 1654|   219k|    }
_ZN3scn2v38expectedINS0_6detail17basic_scan_bufferIcE16forward_iteratorENS0_10scan_errorEEC2IRKS5_vEEOT_:
 1427|  2.08k|        : base(std::in_place, std::forward<U>(val)),
 1428|  2.08k|          ctor_base(detail::non_default_ctor_tag_t{})
 1429|  2.08k|    {
 1430|  2.08k|    }
_ZN3scn2v36detail21expected_storage_baseINS1_17basic_scan_bufferIcE16forward_iteratorENS0_10scan_errorELb1EEC2IJRKS5_EvEENSt3__110in_place_tEDpOT_:
  435|  2.08k|        : m_value(std::forward<Args>(args)...), m_has_value(true)
  436|  2.08k|    {
  437|  2.08k|    }
_ZN3scn2v38expectedIPKcNS0_10scan_errorEEC2IRKS3_vEEOT_:
 1427|  4.16k|        : base(std::in_place, std::forward<U>(val)),
 1428|  4.16k|          ctor_base(detail::non_default_ctor_tag_t{})
 1429|  4.16k|    {
 1430|  4.16k|    }
_ZN3scn2v36detail21expected_storage_baseIPKcNS0_10scan_errorELb1EEC2IJRKS4_EvEENSt3__110in_place_tEDpOT_:
  435|  4.16k|        : m_value(std::forward<Args>(args)...), m_has_value(true)
  436|  4.16k|    {
  437|  4.16k|    }
_ZN3scn2v38expectedINS0_6detail17basic_scan_bufferIwE16forward_iteratorENS0_10scan_errorEEC2IS6_TnPNSt3__19enable_ifIXsr3stdE18is_constructible_vIS6_OT_EEvE4typeELPv0ETnPNSA_IXsr3stdE16is_convertible_vISC_S6_EEvE4typeELSG_0EEEONS0_10unexpectedISB_EE:
 1473|  68.1k|        : base(unexpect, std::move(e.error())),
 1474|  68.1k|          ctor_base(detail::non_default_ctor_tag_t{})
 1475|  68.1k|    {
 1476|  68.1k|    }
_ZN3scn2v36detaileqERKNS1_17basic_scan_bufferIwE16forward_iteratorENS0_6ranges18default_sentinel_tE:
 4288|  75.3M|    {
 4289|  75.3M|        return x.is_at_end();
 4290|  75.3M|    }
_ZNK3scn2v36detail17basic_scan_bufferIwE16forward_iterator9is_at_endEv:
 4332|   147M|    {
 4333|   147M|        if (m_end) {
  ------------------
  |  Branch (4333:13): [True: 0, False: 147M]
  ------------------
 4334|      0|            return (static_cast<const CharT*>(m_begin) + position()) == m_end;
 4335|      0|        }
 4336|   147M|        if (!m_begin) {
  ------------------
  |  Branch (4336:13): [True: 0, False: 147M]
  ------------------
 4337|      0|            return true;
 4338|      0|        }
 4339|   147M|        return !read_at_position();
 4340|   147M|    }
_ZNK3scn2v36detail17basic_scan_bufferIwE16forward_iterator16read_at_positionEv:
 4312|   388M|    {
 4313|   388M|        SCN_EXPECT(m_begin);
  ------------------
  |  |  924|   388M|#define SCN_EXPECT(cond) SCN_ASSERT(cond, "Precondition violation")
  |  |  ------------------
  |  |  |  |  921|   388M|#define SCN_ASSERT(cond, msg) assert((cond) && msg)
  |  |  ------------------
  ------------------
 4314|       |
 4315|   388M|        if (!stores_parent()) {
  ------------------
  |  Branch (4315:13): [True: 0, False: 388M]
  ------------------
 4316|      0|            return true;
 4317|      0|        }
 4318|       |
 4319|   388M|        if (SCN_LIKELY(m_position < parent()->chars_available())) {
  ------------------
  |  |  858|   388M|#define SCN_LIKELY(x)   __builtin_expect(!!(x), 1)
  |  |  ------------------
  |  |  |  Branch (858:25): [True: 317M, False: 70.8M]
  |  |  ------------------
  ------------------
 4320|   317M|            return true;
 4321|   317M|        }
 4322|       |
 4323|   141M|        while (m_position >= parent()->chars_available()) {
  ------------------
  |  Branch (4323:16): [True: 70.8M, False: 70.7M]
  ------------------
 4324|  70.8M|            if (!const_cast<basic_scan_buffer<CharT>*>(parent())->fill()) {
  ------------------
  |  Branch (4324:17): [True: 50.3k, False: 70.7M]
  ------------------
 4325|  50.3k|                return false;
 4326|  50.3k|            }
 4327|  70.8M|        }
 4328|  70.7M|        return true;
 4329|  70.8M|    }
_ZNK3scn2v36detail17basic_scan_bufferIwE15chars_availableEv:
 4088|   529M|    {
 4089|   529M|        return m_putback_buffer.size() + m_current_view.size();
 4090|   529M|    }
_ZNK3scn2v36detail17basic_scan_bufferIwE16forward_iteratordeEv:
 4247|   143M|    {
 4248|   143M|        SCN_EXPECT(m_begin);
  ------------------
  |  |  924|   143M|#define SCN_EXPECT(cond) SCN_ASSERT(cond, "Precondition violation")
  |  |  ------------------
  |  |  |  |  921|   143M|#define SCN_ASSERT(cond, msg) assert((cond) && msg)
  |  |  ------------------
  ------------------
 4249|       |
 4250|   143M|        if (!stores_parent()) {
  ------------------
  |  Branch (4250:13): [True: 0, False: 143M]
  ------------------
 4251|      0|            auto ptr = static_cast<const CharT*>(m_begin) + position();
 4252|      0|            SCN_EXPECT(ptr != m_end);
  ------------------
  |  |  924|      0|#define SCN_EXPECT(cond) SCN_ASSERT(cond, "Precondition violation")
  |  |  ------------------
  |  |  |  |  921|      0|#define SCN_ASSERT(cond, msg) assert((cond) && msg)
  |  |  ------------------
  ------------------
 4253|      0|            return *ptr;
 4254|      0|        }
 4255|       |
 4256|   143M|        auto res = read_at_position();
 4257|   143M|        SCN_EXPECT(res);
  ------------------
  |  |  924|   143M|#define SCN_EXPECT(cond) SCN_ASSERT(cond, "Precondition violation")
  |  |  ------------------
  |  |  |  |  921|   143M|#define SCN_ASSERT(cond, msg) assert((cond) && msg)
  |  |  ------------------
  ------------------
 4258|   143M|        return parent()->get_character_at(m_position);
 4259|   143M|    }
_ZNK3scn2v36detail17basic_scan_bufferIwE16get_character_atEl:
 4119|   143M|    {
 4120|   143M|        if (SCN_UNLIKELY(
  ------------------
  |  |  859|   143M|#define SCN_UNLIKELY(x) __builtin_expect(!!(x), 0)
  |  |  ------------------
  |  |  |  Branch (859:25): [True: 75.1M, False: 67.9M]
  |  |  ------------------
  ------------------
 4121|   143M|                pos < static_cast<std::ptrdiff_t>(m_putback_buffer.size()))) {
 4122|  75.1M|            return m_putback_buffer[pos];
 4123|  75.1M|        }
 4124|  67.9M|        const auto start = pos - m_putback_buffer.size();
 4125|  67.9M|        SCN_EXPECT(start < m_current_view.size());
  ------------------
  |  |  924|  67.9M|#define SCN_EXPECT(cond) SCN_ASSERT(cond, "Precondition violation")
  |  |  ------------------
  |  |  |  |  921|  67.9M|#define SCN_ASSERT(cond, msg) assert((cond) && msg)
  |  |  ------------------
  ------------------
 4126|  67.9M|        return m_current_view[start];
 4127|  67.9M|    }
_ZN3scn2v36detail39code_point_length_by_starting_code_unitIwEEmT_:
 3802|   393M|{
 3803|       |    if constexpr (sizeof(U) == 1) {
 3804|       |        return utf8_code_point_length_by_starting_code_unit(ch);
 3805|       |    }
 3806|       |    else if constexpr (sizeof(U) == 2) {
 3807|       |        return utf16_code_point_length_by_starting_code_unit(ch);
 3808|       |    }
 3809|   393M|    else {
 3810|       |        // utf-32
 3811|   393M|        static_assert(sizeof(U) == 4);
 3812|   393M|        SCN_UNUSED(ch);
  ------------------
  |  |  909|   393M|#define SCN_UNUSED(x) static_cast<void>(sizeof(x))
  ------------------
 3813|   393M|        return 1;
 3814|   393M|    }
 3815|   393M|}
_ZN3scn2v38expectedINS0_6detail17basic_scan_bufferIwE16forward_iteratorENS0_4impl9eof_errorEEC2IS5_vEEOT_:
 1427|  2.84M|        : base(std::in_place, std::forward<U>(val)),
 1428|  2.84M|          ctor_base(detail::non_default_ctor_tag_t{})
 1429|  2.84M|    {
 1430|  2.84M|    }
_ZN3scn2v36detail21expected_storage_baseINS1_17basic_scan_bufferIwE16forward_iteratorENS0_4impl9eof_errorELb1EEC2IJS5_EvEENSt3__110in_place_tEDpOT_:
  435|  2.84M|        : m_value(std::forward<Args>(args)...), m_has_value(true)
  436|  2.84M|    {
  437|  2.84M|    }
_ZN3scn2v36detail26expected_default_ctor_baseINS1_17basic_scan_bufferIwE16forward_iteratorENS0_4impl9eof_errorELb1EEC2ENS1_22non_default_ctor_tag_tE:
 1176|  2.85M|    {
 1177|  2.85M|    }
_ZN3scn2v38expectedINS0_6detail17basic_scan_bufferIwE16forward_iteratorENS0_4impl9eof_errorEEC2IS7_TnPNSt3__19enable_ifIXsr3stdE18is_constructible_vIS7_OT_EEvE4typeELPv0ETnPNSB_IXsr3stdE16is_convertible_vISD_S7_EEvE4typeELSH_0EEEONS0_10unexpectedISC_EE:
 1473|  5.01k|        : base(unexpect, std::move(e.error())),
 1474|  5.01k|          ctor_base(detail::non_default_ctor_tag_t{})
 1475|  5.01k|    {
 1476|  5.01k|    }
_ZN3scn2v36detail21expected_storage_baseINS1_17basic_scan_bufferIwE16forward_iteratorENS0_4impl9eof_errorELb1EEC2IJS7_EvEENS0_10unexpect_tEDpOT_:
  444|  5.01k|        : m_unexpected(std::in_place, std::forward<Args>(args)...),
  445|  5.01k|          m_has_value(false)
  446|  5.01k|    {
  447|  5.01k|    }
_ZN3scn2v36detailneERKNS1_17basic_scan_bufferIwE16forward_iteratorES6_:
 4282|  28.2M|    {
 4283|  28.2M|        return !(lhs == rhs);
 4284|  28.2M|    }
_ZN3scn2v36detaileqERKNS1_17basic_scan_bufferIwE16forward_iteratorES6_:
 4277|  28.2M|    {
 4278|  28.2M|        return lhs.m_begin == rhs.m_begin && lhs.m_position == rhs.m_position;
  ------------------
  |  Branch (4278:16): [True: 28.2M, False: 0]
  |  Branch (4278:46): [True: 1.15M, False: 27.0M]
  ------------------
 4279|  28.2M|    }
_ZN3scn2v36detail17basic_scan_bufferIwE16forward_iteratorppEv:
 4233|  97.8M|    {
 4234|  97.8M|        ++m_position;
 4235|  97.8M|        (void)read_at_position();
 4236|  97.8M|        return *this;
 4237|  97.8M|    }
_ZN3scn2v36detail28decode_code_point_exhaustiveIwEEDiNSt3__117basic_string_viewIT_NS3_11char_traitsIS5_EEEE:
 4008|   393M|{
 4009|       |    if constexpr (sizeof(CharT) == 1) {
 4010|       |        return decode_utf8_code_point_exhaustive(input);
 4011|       |    }
 4012|       |    else if constexpr (sizeof(CharT) == 2) {
 4013|       |        return decode_utf16_code_point_exhaustive(input);
 4014|       |    }
 4015|   393M|    else {
 4016|   393M|        SCN_EXPECT(input.size() == 1);
  ------------------
  |  |  924|   393M|#define SCN_EXPECT(cond) SCN_ASSERT(cond, "Precondition violation")
  |  |  ------------------
  |  |  |  |  921|   393M|#define SCN_ASSERT(cond, msg) assert((cond) && msg)
  |  |  ------------------
  ------------------
 4017|   393M|        auto cp = static_cast<char32_t>(input.front());
 4018|   393M|        if (SCN_UNLIKELY(cp >= invalid_code_point)) {
  ------------------
  |  |  859|   393M|#define SCN_UNLIKELY(x) __builtin_expect(!!(x), 0)
  |  |  ------------------
  |  |  |  Branch (859:25): [True: 2.47M, False: 390M]
  |  |  ------------------
  ------------------
 4019|  2.47M|            return invalid_code_point;
 4020|  2.47M|        }
 4021|   390M|        return cp;
 4022|   393M|    }
 4023|   393M|}
_ZN3scn2v38expectedINSt3__14pairINS0_6detail17basic_scan_bufferIwE16forward_iteratorElEENS0_10scan_errorEEC2IS9_TnPNS2_9enable_ifIXsr3stdE18is_constructible_vIS9_OT_EEvE4typeELPv0ETnPNSC_IXsr3stdE16is_convertible_vISE_S9_EEvE4typeELSI_0EEEONS0_10unexpectedISD_EE:
 1473|  2.00k|        : base(unexpect, std::move(e.error())),
 1474|  2.00k|          ctor_base(detail::non_default_ctor_tag_t{})
 1475|  2.00k|    {
 1476|  2.00k|    }
_ZN3scn2v36detail21expected_storage_baseINSt3__14pairINS1_17basic_scan_bufferIwE16forward_iteratorElEENS0_10scan_errorELb1EEC2IJS9_EvEENS0_10unexpect_tEDpOT_:
  444|  2.00k|        : m_unexpected(std::in_place, std::forward<Args>(args)...),
  445|  2.00k|          m_has_value(false)
  446|  2.00k|    {
  447|  2.00k|    }
_ZN3scn2v36detail26expected_default_ctor_baseINSt3__14pairINS1_17basic_scan_bufferIwE16forward_iteratorElEENS0_10scan_errorELb1EEC2ENS1_22non_default_ctor_tag_tE:
 1176|  2.28M|    {
 1177|  2.28M|    }
_ZN3scn2v38expectedINSt3__14pairINS0_6detail17basic_scan_bufferIwE16forward_iteratorElEENS0_10scan_errorEEC2IS8_vEEOT_:
 1427|  2.27M|        : base(std::in_place, std::forward<U>(val)),
 1428|  2.27M|          ctor_base(detail::non_default_ctor_tag_t{})
 1429|  2.27M|    {
 1430|  2.27M|    }
_ZN3scn2v36detail21expected_storage_baseINSt3__14pairINS1_17basic_scan_bufferIwE16forward_iteratorElEENS0_10scan_errorELb1EEC2IJS8_EvEENS3_10in_place_tEDpOT_:
  435|  2.27M|        : m_value(std::forward<Args>(args)...), m_has_value(true)
  436|  2.27M|    {
  437|  2.27M|    }
_ZNK3scn2v38expectedINSt3__14pairINS0_6detail17basic_scan_bufferIwE16forward_iteratorElEENS0_10scan_errorEEcvbEv:
 1597|  2.28M|    {
 1598|  2.28M|        return has_value();
 1599|  2.28M|    }
_ZNK3scn2v36detail21expected_storage_baseINSt3__14pairINS1_17basic_scan_bufferIwE16forward_iteratorElEENS0_10scan_errorELb1EE9has_valueEv:
  484|  4.56M|    {
  485|  4.56M|        return m_has_value;
  486|  4.56M|    }
_ZNR3scn2v38expectedINSt3__14pairINS0_6detail17basic_scan_bufferIwE16forward_iteratorElEENS0_10scan_errorEE5errorEv:
 1603|  2.00k|    {
 1604|  2.00k|        SCN_EXPECT(!has_value());
  ------------------
  |  |  924|  2.00k|#define SCN_EXPECT(cond) SCN_ASSERT(cond, "Precondition violation")
  |  |  ------------------
  |  |  |  |  921|  2.00k|#define SCN_ASSERT(cond, msg) assert((cond) && msg)
  |  |  ------------------
  ------------------
 1605|  2.00k|        return this->get_unexpected().error();
 1606|  2.00k|    }
_ZNR3scn2v36detail21expected_storage_baseINSt3__14pairINS1_17basic_scan_bufferIwE16forward_iteratorElEENS0_10scan_errorELb1EE14get_unexpectedEv:
  467|  2.00k|    {
  468|  2.00k|        return m_unexpected;
  469|  2.00k|    }
_ZNO3scn2v38expectedINSt3__14pairINS0_6detail17basic_scan_bufferIwE16forward_iteratorElEENS0_10scan_errorEEdeIS8_TnPNS2_9enable_ifIXntsr3stdE9is_void_vIT_EEvE4typeELPv0EEEOSD_v:
 1662|  2.27M|    {
 1663|  2.27M|        return std::move(value());
 1664|  2.27M|    }
_ZNR3scn2v38expectedINSt3__14pairINS0_6detail17basic_scan_bufferIwE16forward_iteratorElEENS0_10scan_errorEE5valueIS8_TnPNS2_9enable_ifIXntsr3stdE9is_void_vIT_EEvE4typeELPv0EEERSD_v:
 1626|  2.27M|    {
 1627|  2.27M|        SCN_EXPECT(has_value());
  ------------------
  |  |  924|  2.27M|#define SCN_EXPECT(cond) SCN_ASSERT(cond, "Precondition violation")
  |  |  ------------------
  |  |  |  |  921|  2.27M|#define SCN_ASSERT(cond, msg) assert((cond) && msg)
  |  |  ------------------
  ------------------
 1628|  2.27M|        return this->get_value();
 1629|  2.27M|    }
_ZNR3scn2v36detail21expected_storage_baseINSt3__14pairINS1_17basic_scan_bufferIwE16forward_iteratorElEENS0_10scan_errorELb1EE9get_valueEv:
  450|  2.27M|    {
  451|  2.27M|        return m_value;
  452|  2.27M|    }
_ZNK3scn2v36ranges6detail9subrange_8subrangeINS0_6detail17basic_scan_bufferIwE16forward_iteratorENS1_18default_sentinel_tEE3endEv:
 3329|   227M|    {
 3330|   227M|        return m_sentinel;
 3331|   227M|    }
_ZNK3scn2v36ranges6detail9subrange_8subrangeINS0_6detail17basic_scan_bufferIwE16forward_iteratorES8_E5beginEv:
 3325|  2.86M|    {
 3326|  2.86M|        return m_iterator;
 3327|  2.86M|    }
_ZNK3scn2v36ranges6detail9subrange_8subrangeINS0_6detail17basic_scan_bufferIwE16forward_iteratorES8_E3endEv:
 3329|  2.86M|    {
 3330|  2.86M|        return m_sentinel;
 3331|  2.86M|    }
_ZNK3scn2v38expectedINS0_6detail17basic_scan_bufferIwE16forward_iteratorENS0_10scan_errorEEcvbEv:
 1597|  6.88M|    {
 1598|  6.88M|        return has_value();
 1599|  6.88M|    }
_ZNK3scn2v36detail21expected_storage_baseINS1_17basic_scan_bufferIwE16forward_iteratorENS0_10scan_errorELb1EE9has_valueEv:
  484|  13.7M|    {
  485|  13.7M|        return m_has_value;
  486|  13.7M|    }
_ZNR3scn2v38expectedINS0_6detail17basic_scan_bufferIwE16forward_iteratorENS0_10scan_errorEE5errorEv:
 1603|  73.2k|    {
 1604|  73.2k|        SCN_EXPECT(!has_value());
  ------------------
  |  |  924|  73.2k|#define SCN_EXPECT(cond) SCN_ASSERT(cond, "Precondition violation")
  |  |  ------------------
  |  |  |  |  921|  73.2k|#define SCN_ASSERT(cond, msg) assert((cond) && msg)
  |  |  ------------------
  ------------------
 1605|  73.2k|        return this->get_unexpected().error();
 1606|  73.2k|    }
_ZNR3scn2v36detail21expected_storage_baseINS1_17basic_scan_bufferIwE16forward_iteratorENS0_10scan_errorELb1EE14get_unexpectedEv:
  467|  73.2k|    {
  468|  73.2k|        return m_unexpected;
  469|  73.2k|    }
_ZNO3scn2v38expectedINS0_6detail17basic_scan_bufferIwE16forward_iteratorENS0_10scan_errorEEdeIS5_TnPNSt3__19enable_ifIXntsr3stdE9is_void_vIT_EEvE4typeELPv0EEEOSB_v:
 1662|  5.67M|    {
 1663|  5.67M|        return std::move(value());
 1664|  5.67M|    }
_ZNR3scn2v38expectedINS0_6detail17basic_scan_bufferIwE16forward_iteratorENS0_10scan_errorEE5valueIS5_TnPNSt3__19enable_ifIXntsr3stdE9is_void_vIT_EEvE4typeELPv0EEERSB_v:
 1626|  6.81M|    {
 1627|  6.81M|        SCN_EXPECT(has_value());
  ------------------
  |  |  924|  6.81M|#define SCN_EXPECT(cond) SCN_ASSERT(cond, "Precondition violation")
  |  |  ------------------
  |  |  |  |  921|  6.81M|#define SCN_ASSERT(cond, msg) assert((cond) && msg)
  |  |  ------------------
  ------------------
 1628|  6.81M|        return this->get_value();
 1629|  6.81M|    }
_ZNR3scn2v36detail21expected_storage_baseINS1_17basic_scan_bufferIwE16forward_iteratorENS0_10scan_errorELb1EE9get_valueEv:
  450|  6.81M|    {
  451|  6.81M|        return m_value;
  452|  6.81M|    }
_ZN3scn2v36detail31make_string_view_from_iteratorsIwEENSt3__117basic_string_viewIT_NS3_11char_traitsIS5_EEEENS8_8iteratorES9_:
 3694|   180M|{
 3695|       |    if constexpr (std::is_constructible_v<std::basic_string_view<CharT>,
 3696|       |                                          decltype(first), decltype(last)> &&
 3697|       |                  !SCN_MSVC_DEBUG_ITERATORS) {
 3698|       |        return {first, last};
 3699|       |    }
 3700|   180M|    else {
 3701|   180M|        return {to_address(first), static_cast<size_t>(std::distance(
 3702|   180M|                                       to_address(first), to_address(last)))};
 3703|   180M|    }
 3704|   180M|}
_ZN3scn2v36detail10to_addressIRPKwEEDTclgssr3scn6detailE15to_address_implscDtfp_Efp_tlNS1_12priority_tagILm2EEEEEEOT_:
  325|   542M|{
  326|   542M|    return ::scn::detail::to_address_impl(SCN_FWD(p), priority_tag<2>{});
  ------------------
  |  |  930|   542M|#define SCN_FWD(x)          static_cast<decltype(x)&&>(x)
  ------------------
  327|   542M|}
_ZN3scn2v36ranges6detail9subrange_8subrangeINS0_6detail17basic_scan_bufferIwE16forward_iteratorES8_EC2IS8_TnPNSt3__19enable_ifIXsr3stdE16is_convertible_vIT_S8_EEvE4typeELPv0EEESD_S8_:
 3310|  2.84M|        : m_iterator(SCN_MOVE(i)), m_sentinel(SCN_MOVE(s))
  ------------------
  |  |  928|  2.84M|    static_cast<    \
  |  |  929|  2.84M|        typename ::scn::detail::remove_reference<decltype(x)>::type&&>(x)
  ------------------
                      : m_iterator(SCN_MOVE(i)), m_sentinel(SCN_MOVE(s))
  ------------------
  |  |  928|  2.84M|    static_cast<    \
  |  |  929|  2.84M|        typename ::scn::detail::remove_reference<decltype(x)>::type&&>(x)
  ------------------
 3311|  2.84M|    {
 3312|  2.84M|    }
_ZN3scn2v36detailneERKNS1_17basic_scan_bufferIwE16forward_iteratorENS0_6ranges18default_sentinel_tE:
 4299|  71.9M|    {
 4300|  71.9M|        return !x.is_at_end();
 4301|  71.9M|    }
_ZN3scn2v38expectedIPKwNS0_4impl9eof_errorEEC2IS5_TnPNSt3__19enable_ifIXsr3stdE18is_constructible_vIS5_OT_EEvE4typeELPv0ETnPNS9_IXsr3stdE16is_convertible_vISB_S5_EEvE4typeELSF_0EEEONS0_10unexpectedISA_EE:
 1473|  10.0k|        : base(unexpect, std::move(e.error())),
 1474|  10.0k|          ctor_base(detail::non_default_ctor_tag_t{})
 1475|  10.0k|    {
 1476|  10.0k|    }
_ZN3scn2v36detail21expected_storage_baseIPKwNS0_4impl9eof_errorELb1EEC2IJS6_EvEENS0_10unexpect_tEDpOT_:
  444|  10.0k|        : m_unexpected(std::in_place, std::forward<Args>(args)...),
  445|  10.0k|          m_has_value(false)
  446|  10.0k|    {
  447|  10.0k|    }
_ZN3scn2v36detail26expected_default_ctor_baseIPKwNS0_4impl9eof_errorELb1EEC2ENS1_22non_default_ctor_tag_tE:
 1176|  5.70M|    {
 1177|  5.70M|    }
_ZN3scn2v38expectedIPKwNS0_4impl9eof_errorEEC2IS3_vEEOT_:
 1427|  5.69M|        : base(std::in_place, std::forward<U>(val)),
 1428|  5.69M|          ctor_base(detail::non_default_ctor_tag_t{})
 1429|  5.69M|    {
 1430|  5.69M|    }
_ZN3scn2v36detail21expected_storage_baseIPKwNS0_4impl9eof_errorELb1EEC2IJS4_EvEENSt3__110in_place_tEDpOT_:
  435|  5.69M|        : m_value(std::forward<Args>(args)...), m_has_value(true)
  436|  5.69M|    {
  437|  5.69M|    }
_ZNK3scn2v36detail21expected_storage_baseIPKwNS0_4impl9eof_errorELb1EE9has_valueEv:
  484|  11.4M|    {
  485|  11.4M|        return m_has_value;
  486|  11.4M|    }
_ZNR3scn2v38expectedIPKwNS0_4impl9eof_errorEE5valueIS3_TnPNSt3__19enable_ifIXntsr3stdE9is_void_vIT_EEvE4typeELPv0EEERSA_v:
 1626|  5.69M|    {
 1627|  5.69M|        SCN_EXPECT(has_value());
  ------------------
  |  |  924|  5.69M|#define SCN_EXPECT(cond) SCN_ASSERT(cond, "Precondition violation")
  |  |  ------------------
  |  |  |  |  921|  5.69M|#define SCN_ASSERT(cond, msg) assert((cond) && msg)
  |  |  ------------------
  ------------------
 1628|  5.69M|        return this->get_value();
 1629|  5.69M|    }
_ZNR3scn2v36detail21expected_storage_baseIPKwNS0_4impl9eof_errorELb1EE9get_valueEv:
  450|  5.69M|    {
  451|  5.69M|        return m_value;
  452|  5.69M|    }
_ZN3scn2v38expectedINSt3__14pairIPKwlEENS0_10scan_errorEEC2IS7_TnPNS2_9enable_ifIXsr3stdE18is_constructible_vIS7_OT_EEvE4typeELPv0ETnPNSA_IXsr3stdE16is_convertible_vISC_S7_EEvE4typeELSG_0EEEONS0_10unexpectedISB_EE:
 1473|  4.00k|        : base(unexpect, std::move(e.error())),
 1474|  4.00k|          ctor_base(detail::non_default_ctor_tag_t{})
 1475|  4.00k|    {
 1476|  4.00k|    }
_ZN3scn2v36detail21expected_storage_baseINSt3__14pairIPKwlEENS0_10scan_errorELb1EEC2IJS8_EvEENS0_10unexpect_tEDpOT_:
  444|  4.00k|        : m_unexpected(std::in_place, std::forward<Args>(args)...),
  445|  4.00k|          m_has_value(false)
  446|  4.00k|    {
  447|  4.00k|    }
_ZN3scn2v36detail26expected_default_ctor_baseINSt3__14pairIPKwlEENS0_10scan_errorELb1EEC2ENS1_22non_default_ctor_tag_tE:
 1176|  4.56M|    {
 1177|  4.56M|    }
_ZN3scn2v38expectedINSt3__14pairIPKwlEENS0_10scan_errorEEC2IS6_vEEOT_:
 1427|  4.55M|        : base(std::in_place, std::forward<U>(val)),
 1428|  4.55M|          ctor_base(detail::non_default_ctor_tag_t{})
 1429|  4.55M|    {
 1430|  4.55M|    }
_ZN3scn2v36detail21expected_storage_baseINSt3__14pairIPKwlEENS0_10scan_errorELb1EEC2IJS7_EvEENS3_10in_place_tEDpOT_:
  435|  4.55M|        : m_value(std::forward<Args>(args)...), m_has_value(true)
  436|  4.55M|    {
  437|  4.55M|    }
_ZNO3scn2v38expectedIPKwNS0_4impl9eof_errorEE15transform_errorIRFNS0_10scan_errorES5_EEEDTclsr6detailE20transform_error_impldefpTclsr3stdE7forwardIT_Efp_EEEOSB_:
 1836|  5.70M|    {
 1837|  5.70M|        return detail::transform_error_impl(std::move(*this),
 1838|  5.70M|                                            std::forward<F>(f));
 1839|  5.70M|    }
_ZN3scn2v36detail20transform_error_implINS0_8expectedIPKwNS0_4impl9eof_errorEEERFNS0_10scan_errorES7_ETnPNSt3__19enable_ifIXntsr11is_exp_voidIT_EE5valueEvE4typeELPv0ES9_EEDaOSE_OT0_:
 1322|  5.70M|{
 1323|       |    if constexpr (std::is_void_v<Ret>) {
 1324|       |        using result = expected<expected_value_type<Exp>, monostate>;
 1325|       |        if (SCN_LIKELY(exp.has_value())) {
 1326|       |            return result(*std::forward<Exp>(exp));
 1327|       |        }
 1328|       |
 1329|       |        trivial_invoke(std::forward<F>(f), std::forward<Exp>(exp).error());
 1330|       |        return result(unexpect, monostate{});
 1331|       |    }
 1332|  5.70M|    else {
 1333|  5.70M|        using result = expected<expected_value_type<Exp>, remove_cvref_t<Ret>>;
 1334|  5.70M|        return SCN_LIKELY(exp.has_value())
  ------------------
  |  |  858|  5.70M|#define SCN_LIKELY(x)   __builtin_expect(!!(x), 1)
  |  |  ------------------
  |  |  |  Branch (858:25): [True: 5.69M, False: 10.0k]
  |  |  ------------------
  ------------------
 1335|  5.70M|                   ? result(*std::forward<Exp>(exp))
 1336|  5.70M|                   : result(unexpect,
 1337|  10.0k|                            trivial_invoke(std::forward<F>(f),
 1338|  10.0k|                                           std::forward<Exp>(exp).error()));
 1339|  5.70M|    }
 1340|  5.70M|}
_ZNO3scn2v38expectedIPKwNS0_4impl9eof_errorEEdeIS3_TnPNSt3__19enable_ifIXntsr3stdE9is_void_vIT_EEvE4typeELPv0EEEOSA_v:
 1662|  5.69M|    {
 1663|  5.69M|        return std::move(value());
 1664|  5.69M|    }
_ZNO3scn2v38expectedIPKwNS0_4impl9eof_errorEE5errorEv:
 1613|  10.0k|    {
 1614|  10.0k|        SCN_EXPECT(!has_value());
  ------------------
  |  |  924|  10.0k|#define SCN_EXPECT(cond) SCN_ASSERT(cond, "Precondition violation")
  |  |  ------------------
  |  |  |  |  921|  10.0k|#define SCN_ASSERT(cond, msg) assert((cond) && msg)
  |  |  ------------------
  ------------------
 1615|  10.0k|        return std::move(this->get_unexpected().error());
 1616|  10.0k|    }
_ZNR3scn2v36detail21expected_storage_baseIPKwNS0_4impl9eof_errorELb1EE14get_unexpectedEv:
  467|  10.0k|    {
  468|  10.0k|        return m_unexpected;
  469|  10.0k|    }
_ZN3scn2v38expectedIPKwNS0_10scan_errorEEC2IJS4_EvEENS0_10unexpect_tEDpOT_:
 1483|  10.0k|        : base(unexpect, std::forward<Args>(args)...),
 1484|  10.0k|          ctor_base(detail::non_default_ctor_tag_t{})
 1485|  10.0k|    {
 1486|  10.0k|    }
_ZNK3scn2v38expectedINSt3__14pairIPKwlEENS0_10scan_errorEEcvbEv:
 1597|  4.56M|    {
 1598|  4.56M|        return has_value();
 1599|  4.56M|    }
_ZNK3scn2v36detail21expected_storage_baseINSt3__14pairIPKwlEENS0_10scan_errorELb1EE9has_valueEv:
  484|  9.12M|    {
  485|  9.12M|        return m_has_value;
  486|  9.12M|    }
_ZNR3scn2v38expectedINSt3__14pairIPKwlEENS0_10scan_errorEE5errorEv:
 1603|  4.00k|    {
 1604|  4.00k|        SCN_EXPECT(!has_value());
  ------------------
  |  |  924|  4.00k|#define SCN_EXPECT(cond) SCN_ASSERT(cond, "Precondition violation")
  |  |  ------------------
  |  |  |  |  921|  4.00k|#define SCN_ASSERT(cond, msg) assert((cond) && msg)
  |  |  ------------------
  ------------------
 1605|  4.00k|        return this->get_unexpected().error();
 1606|  4.00k|    }
_ZNR3scn2v36detail21expected_storage_baseINSt3__14pairIPKwlEENS0_10scan_errorELb1EE14get_unexpectedEv:
  467|  4.00k|    {
  468|  4.00k|        return m_unexpected;
  469|  4.00k|    }
_ZNO3scn2v38expectedINSt3__14pairIPKwlEENS0_10scan_errorEEdeIS6_TnPNS2_9enable_ifIXntsr3stdE9is_void_vIT_EEvE4typeELPv0EEEOSB_v:
 1662|  4.55M|    {
 1663|  4.55M|        return std::move(value());
 1664|  4.55M|    }
_ZNR3scn2v38expectedINSt3__14pairIPKwlEENS0_10scan_errorEE5valueIS6_TnPNS2_9enable_ifIXntsr3stdE9is_void_vIT_EEvE4typeELPv0EEERSB_v:
 1626|  4.55M|    {
 1627|  4.55M|        SCN_EXPECT(has_value());
  ------------------
  |  |  924|  4.55M|#define SCN_EXPECT(cond) SCN_ASSERT(cond, "Precondition violation")
  |  |  ------------------
  |  |  |  |  921|  4.55M|#define SCN_ASSERT(cond, msg) assert((cond) && msg)
  |  |  ------------------
  ------------------
 1628|  4.55M|        return this->get_value();
 1629|  4.55M|    }
_ZNR3scn2v36detail21expected_storage_baseINSt3__14pairIPKwlEENS0_10scan_errorELb1EE9get_valueEv:
  450|  4.55M|    {
  451|  4.55M|        return m_value;
  452|  4.55M|    }
_ZNK3scn2v36ranges6detail5data_2fnclIRNS2_9subrange_8subrangeIPKwS9_EEEEDTclsr2fnE4implscDtfp_Efp_tlNS0_6detail12priority_tagILm1EEEEEEOT_:
 2854|  5.69M|    {
 2855|  5.69M|        return fn::impl(SCN_FWD(t), priority_tag<1>{});
  ------------------
  |  |  930|  5.69M|#define SCN_FWD(x)          static_cast<decltype(x)&&>(x)
  ------------------
 2856|  5.69M|    }
_ZN3scn2v36ranges6detail5data_2fn4implINS2_9subrange_8subrangeIPKwS9_EES9_EENSt3__19enable_ifIX19is_object_pointer_vIT0_EESD_E4typeERT_NS0_6detail12priority_tagILm1EEE:
 2835|  5.69M|    {
 2836|  5.69M|        return t.data();
 2837|  5.69M|    }
_ZNR3scn2v38expectedINS0_6detail17basic_scan_bufferIwE16forward_iteratorENS0_10scan_errorEEdeIS5_TnPNSt3__19enable_ifIXntsr3stdE9is_void_vIT_EEvE4typeELPv0EEERSB_v:
 1652|  1.13M|    {
 1653|  1.13M|        return value();
 1654|  1.13M|    }
_ZNR3scn2v38expectedIPKwNS0_10scan_errorEEdeIS3_TnPNSt3__19enable_ifIXntsr3stdE9is_void_vIT_EEvE4typeELPv0EEERS9_v:
 1652|  2.26M|    {
 1653|  2.26M|        return value();
 1654|  2.26M|    }
_ZN3scn2v38expectedINS0_6detail17basic_scan_bufferIwE16forward_iteratorENS0_10scan_errorEEC2IRKS5_vEEOT_:
 1427|    260|        : base(std::in_place, std::forward<U>(val)),
 1428|    260|          ctor_base(detail::non_default_ctor_tag_t{})
 1429|    260|    {
 1430|    260|    }
_ZN3scn2v36detail21expected_storage_baseINS1_17basic_scan_bufferIwE16forward_iteratorENS0_10scan_errorELb1EEC2IJRKS5_EvEENSt3__110in_place_tEDpOT_:
  435|    260|        : m_value(std::forward<Args>(args)...), m_has_value(true)
  436|    260|    {
  437|    260|    }
_ZN3scn2v38expectedIPKwNS0_10scan_errorEEC2IRKS3_vEEOT_:
 1427|    520|        : base(std::in_place, std::forward<U>(val)),
 1428|    520|          ctor_base(detail::non_default_ctor_tag_t{})
 1429|    520|    {
 1430|    520|    }
_ZN3scn2v36detail21expected_storage_baseIPKwNS0_10scan_errorELb1EEC2IJRKS4_EvEENSt3__110in_place_tEDpOT_:
  435|    520|        : m_value(std::forward<Args>(args)...), m_has_value(true)
  436|    520|    {
  437|    520|    }
_ZNK3scn2v315basic_scan_argsINS0_18basic_scan_contextIcEEE4sizeEv:
 5475|   771k|    {
 5476|   771k|        if (SCN_UNLIKELY(!is_packed())) {
  ------------------
  |  |  859|   771k|#define SCN_UNLIKELY(x) __builtin_expect(!!(x), 0)
  |  |  ------------------
  |  |  |  Branch (859:25): [True: 0, False: 771k]
  |  |  ------------------
  ------------------
 5477|      0|            return max_size();
 5478|      0|        }
 5479|       |
 5480|   771k|        return static_cast<std::size_t>(m_desc &
 5481|   771k|                                        ((1 << detail::packed_arg_bits) - 1));
 5482|   771k|    }
_ZNK3scn2v315basic_scan_argsINS0_18basic_scan_contextIcEEE9is_packedEv:
 5500|  1.54M|    {
 5501|  1.54M|        return (m_desc & detail::is_unpacked_bit) == 0;
 5502|  1.54M|    }
_ZNK3scn2v315basic_scan_argsINS0_18basic_scan_contextIcEEE3getEm:
 5443|   771k|    {
 5444|   771k|        if (SCN_UNLIKELY(!is_packed())) {
  ------------------
  |  |  859|   771k|#define SCN_UNLIKELY(x) __builtin_expect(!!(x), 0)
  |  |  ------------------
  |  |  |  Branch (859:25): [True: 0, False: 771k]
  |  |  ------------------
  ------------------
 5445|      0|            if (SCN_LIKELY(id < max_size())) {
  ------------------
  |  |  858|      0|#define SCN_LIKELY(x)   __builtin_expect(!!(x), 1)
  |  |  ------------------
  |  |  |  Branch (858:25): [True: 0, False: 0]
  |  |  ------------------
  ------------------
 5446|      0|                return m_args[id];
 5447|      0|            }
 5448|      0|            return {};
 5449|      0|        }
 5450|       |
 5451|   771k|        if (SCN_UNLIKELY(id >= detail::max_packed_args)) {
  ------------------
  |  |  859|   771k|#define SCN_UNLIKELY(x) __builtin_expect(!!(x), 0)
  |  |  ------------------
  |  |  |  Branch (859:25): [True: 0, False: 771k]
  |  |  ------------------
  ------------------
 5452|      0|            return {};
 5453|      0|        }
 5454|       |
 5455|   771k|        const auto t = type(id);
 5456|   771k|        if (SCN_UNLIKELY(t == detail::arg_type::none_type)) {
  ------------------
  |  |  859|   771k|#define SCN_UNLIKELY(x) __builtin_expect(!!(x), 0)
  |  |  ------------------
  |  |  |  Branch (859:25): [True: 0, False: 771k]
  |  |  ------------------
  ------------------
 5457|      0|            return {};
 5458|      0|        }
 5459|       |
 5460|   771k|        basic_scan_arg<Context> arg;
 5461|   771k|        arg.m_type = t;
 5462|   771k|        if (is_only_builtin()) {
  ------------------
  |  Branch (5462:13): [True: 771k, False: 0]
  ------------------
 5463|   771k|            arg.m_value.ref_value = m_builtin_values[id];
 5464|   771k|        }
 5465|      0|        else {
 5466|      0|            arg.m_value = m_values[id];
 5467|      0|        }
 5468|   771k|        return arg;
 5469|   771k|    }
_ZNK3scn2v315basic_scan_argsINS0_18basic_scan_contextIcEEE4typeEm:
 5509|   771k|    {
 5510|       |        // First (0th) index is size, types start after that
 5511|   771k|        const auto shift = (index + 1) * detail::packed_arg_bits;
 5512|   771k|        const std::size_t mask = (1 << detail::packed_arg_bits) - 1;
 5513|   771k|        return static_cast<detail::arg_type>((m_desc >> shift) & mask);
 5514|   771k|    }
_ZNK3scn2v315basic_scan_argsINS0_18basic_scan_contextIcEEE15is_only_builtinEv:
 5504|   771k|    {
 5505|   771k|        return (m_desc & detail::has_custom_types_bit) == 0;
 5506|   771k|    }
_ZNK3scn2v314basic_scan_argINS0_18basic_scan_contextIcEEEcvbEv:
 5256|  1.33M|    {
 5257|  1.33M|        return m_type != detail::arg_type::none_type;
 5258|  1.33M|    }
_ZN3scn2v314visit_scan_argINS0_4impl18default_arg_readerINS2_29basic_contiguous_scan_contextIcEEEENS0_18basic_scan_contextIcEEEEDcOT_RNS0_14basic_scan_argIT0_EE:
 8426|   331k|{
 8427|   331k|#define SCN_VISIT(Type)                                         \
 8428|   331k|    if constexpr (!detail::is_type_disabled<Type>) {            \
 8429|   331k|        return vis(*static_cast<Type*>(arg.m_value.ref_value)); \
 8430|   331k|    }                                                           \
 8431|   331k|    else {                                                      \
 8432|   331k|        return vis(monostate_val);                              \
 8433|   331k|    }
 8434|       |
 8435|   331k|    monostate monostate_val{};
 8436|       |
 8437|   331k|    switch (arg.m_type) {
 8438|      0|        case detail::arg_type::schar_type:
  ------------------
  |  Branch (8438:9): [True: 0, False: 331k]
  ------------------
 8439|      0|            SCN_VISIT(signed char);
  ------------------
  |  | 8428|      0|    if constexpr (!detail::is_type_disabled<Type>) {            \
  |  | 8429|      0|        return vis(*static_cast<Type*>(arg.m_value.ref_value)); \
  |  | 8430|      0|    }                                                           \
  |  | 8431|      0|    else {                                                      \
  |  | 8432|      0|        return vis(monostate_val);                              \
  |  | 8433|      0|    }
  ------------------
 8440|      0|        case detail::arg_type::short_type:
  ------------------
  |  Branch (8440:9): [True: 0, False: 331k]
  ------------------
 8441|      0|            SCN_VISIT(short);
  ------------------
  |  | 8428|      0|    if constexpr (!detail::is_type_disabled<Type>) {            \
  |  | 8429|      0|        return vis(*static_cast<Type*>(arg.m_value.ref_value)); \
  |  | 8430|      0|    }                                                           \
  |  | 8431|      0|    else {                                                      \
  |  | 8432|      0|        return vis(monostate_val);                              \
  |  | 8433|      0|    }
  ------------------
 8442|      0|        case detail::arg_type::int_type:
  ------------------
  |  Branch (8442:9): [True: 0, False: 331k]
  ------------------
 8443|      0|            SCN_VISIT(int);
  ------------------
  |  | 8428|      0|    if constexpr (!detail::is_type_disabled<Type>) {            \
  |  | 8429|      0|        return vis(*static_cast<Type*>(arg.m_value.ref_value)); \
  |  | 8430|      0|    }                                                           \
  |  | 8431|      0|    else {                                                      \
  |  | 8432|      0|        return vis(monostate_val);                              \
  |  | 8433|      0|    }
  ------------------
 8444|      0|        case detail::arg_type::long_type:
  ------------------
  |  Branch (8444:9): [True: 0, False: 331k]
  ------------------
 8445|      0|            SCN_VISIT(long);
  ------------------
  |  | 8428|      0|    if constexpr (!detail::is_type_disabled<Type>) {            \
  |  | 8429|      0|        return vis(*static_cast<Type*>(arg.m_value.ref_value)); \
  |  | 8430|      0|    }                                                           \
  |  | 8431|      0|    else {                                                      \
  |  | 8432|      0|        return vis(monostate_val);                              \
  |  | 8433|      0|    }
  ------------------
 8446|      0|        case detail::arg_type::llong_type:
  ------------------
  |  Branch (8446:9): [True: 0, False: 331k]
  ------------------
 8447|      0|            SCN_VISIT(long long);
  ------------------
  |  | 8428|      0|    if constexpr (!detail::is_type_disabled<Type>) {            \
  |  | 8429|      0|        return vis(*static_cast<Type*>(arg.m_value.ref_value)); \
  |  | 8430|      0|    }                                                           \
  |  | 8431|      0|    else {                                                      \
  |  | 8432|      0|        return vis(monostate_val);                              \
  |  | 8433|      0|    }
  ------------------
 8448|      0|        case detail::arg_type::uchar_type:
  ------------------
  |  Branch (8448:9): [True: 0, False: 331k]
  ------------------
 8449|      0|            SCN_VISIT(unsigned char);
  ------------------
  |  | 8428|      0|    if constexpr (!detail::is_type_disabled<Type>) {            \
  |  | 8429|      0|        return vis(*static_cast<Type*>(arg.m_value.ref_value)); \
  |  | 8430|      0|    }                                                           \
  |  | 8431|      0|    else {                                                      \
  |  | 8432|      0|        return vis(monostate_val);                              \
  |  | 8433|      0|    }
  ------------------
 8450|      0|        case detail::arg_type::ushort_type:
  ------------------
  |  Branch (8450:9): [True: 0, False: 331k]
  ------------------
 8451|      0|            SCN_VISIT(unsigned short);
  ------------------
  |  | 8428|      0|    if constexpr (!detail::is_type_disabled<Type>) {            \
  |  | 8429|      0|        return vis(*static_cast<Type*>(arg.m_value.ref_value)); \
  |  | 8430|      0|    }                                                           \
  |  | 8431|      0|    else {                                                      \
  |  | 8432|      0|        return vis(monostate_val);                              \
  |  | 8433|      0|    }
  ------------------
 8452|      0|        case detail::arg_type::uint_type:
  ------------------
  |  Branch (8452:9): [True: 0, False: 331k]
  ------------------
 8453|      0|            SCN_VISIT(unsigned);
  ------------------
  |  | 8428|      0|    if constexpr (!detail::is_type_disabled<Type>) {            \
  |  | 8429|      0|        return vis(*static_cast<Type*>(arg.m_value.ref_value)); \
  |  | 8430|      0|    }                                                           \
  |  | 8431|      0|    else {                                                      \
  |  | 8432|      0|        return vis(monostate_val);                              \
  |  | 8433|      0|    }
  ------------------
 8454|      0|        case detail::arg_type::ulong_type:
  ------------------
  |  Branch (8454:9): [True: 0, False: 331k]
  ------------------
 8455|      0|            SCN_VISIT(unsigned long);
  ------------------
  |  | 8428|      0|    if constexpr (!detail::is_type_disabled<Type>) {            \
  |  | 8429|      0|        return vis(*static_cast<Type*>(arg.m_value.ref_value)); \
  |  | 8430|      0|    }                                                           \
  |  | 8431|      0|    else {                                                      \
  |  | 8432|      0|        return vis(monostate_val);                              \
  |  | 8433|      0|    }
  ------------------
 8456|      0|        case detail::arg_type::ullong_type:
  ------------------
  |  Branch (8456:9): [True: 0, False: 331k]
  ------------------
 8457|      0|            SCN_VISIT(unsigned long long);
  ------------------
  |  | 8428|      0|    if constexpr (!detail::is_type_disabled<Type>) {            \
  |  | 8429|      0|        return vis(*static_cast<Type*>(arg.m_value.ref_value)); \
  |  | 8430|      0|    }                                                           \
  |  | 8431|      0|    else {                                                      \
  |  | 8432|      0|        return vis(monostate_val);                              \
  |  | 8433|      0|    }
  ------------------
 8458|      0|        case detail::arg_type::pointer_type:
  ------------------
  |  Branch (8458:9): [True: 0, False: 331k]
  ------------------
 8459|      0|            SCN_VISIT(void*);
  ------------------
  |  | 8428|      0|    if constexpr (!detail::is_type_disabled<Type>) {            \
  |  | 8429|      0|        return vis(*static_cast<Type*>(arg.m_value.ref_value)); \
  |  | 8430|      0|    }                                                           \
  |  | 8431|      0|    else {                                                      \
  |  | 8432|      0|        return vis(monostate_val);                              \
  |  | 8433|      0|    }
  ------------------
 8460|      0|        case detail::arg_type::bool_type:
  ------------------
  |  Branch (8460:9): [True: 0, False: 331k]
  ------------------
 8461|      0|            SCN_VISIT(bool);
  ------------------
  |  | 8428|      0|    if constexpr (!detail::is_type_disabled<Type>) {            \
  |  | 8429|      0|        return vis(*static_cast<Type*>(arg.m_value.ref_value)); \
  |  | 8430|      0|    }                                                           \
  |  | 8431|      0|    else {                                                      \
  |  | 8432|      0|        return vis(monostate_val);                              \
  |  | 8433|      0|    }
  ------------------
 8462|      0|        case detail::arg_type::narrow_character_type:
  ------------------
  |  Branch (8462:9): [True: 0, False: 331k]
  ------------------
 8463|      0|            SCN_VISIT(char);
  ------------------
  |  | 8428|      0|    if constexpr (!detail::is_type_disabled<Type>) {            \
  |  | 8429|      0|        return vis(*static_cast<Type*>(arg.m_value.ref_value)); \
  |  | 8430|      0|    }                                                           \
  |  | 8431|      0|    else {                                                      \
  |  | 8432|      0|        return vis(monostate_val);                              \
  |  | 8433|      0|    }
  ------------------
 8464|      0|        case detail::arg_type::wide_character_type:
  ------------------
  |  Branch (8464:9): [True: 0, False: 331k]
  ------------------
 8465|      0|            SCN_VISIT(wchar_t);
  ------------------
  |  | 8428|      0|    if constexpr (!detail::is_type_disabled<Type>) {            \
  |  | 8429|      0|        return vis(*static_cast<Type*>(arg.m_value.ref_value)); \
  |  | 8430|      0|    }                                                           \
  |  | 8431|      0|    else {                                                      \
  |  | 8432|      0|        return vis(monostate_val);                              \
  |  | 8433|      0|    }
  ------------------
 8466|      0|        case detail::arg_type::code_point_type:
  ------------------
  |  Branch (8466:9): [True: 0, False: 331k]
  ------------------
 8467|      0|            SCN_VISIT(char32_t);
  ------------------
  |  | 8428|      0|    if constexpr (!detail::is_type_disabled<Type>) {            \
  |  | 8429|      0|        return vis(*static_cast<Type*>(arg.m_value.ref_value)); \
  |  | 8430|      0|    }                                                           \
  |  | 8431|      0|    else {                                                      \
  |  | 8432|      0|        return vis(monostate_val);                              \
  |  | 8433|      0|    }
  ------------------
 8468|      0|        case detail::arg_type::float_type:
  ------------------
  |  Branch (8468:9): [True: 0, False: 331k]
  ------------------
 8469|      0|            SCN_VISIT(float);
  ------------------
  |  | 8428|      0|    if constexpr (!detail::is_type_disabled<Type>) {            \
  |  | 8429|      0|        return vis(*static_cast<Type*>(arg.m_value.ref_value)); \
  |  | 8430|      0|    }                                                           \
  |  | 8431|      0|    else {                                                      \
  |  | 8432|      0|        return vis(monostate_val);                              \
  |  | 8433|      0|    }
  ------------------
 8470|      0|        case detail::arg_type::double_type:
  ------------------
  |  Branch (8470:9): [True: 0, False: 331k]
  ------------------
 8471|      0|            SCN_VISIT(double);
  ------------------
  |  | 8428|      0|    if constexpr (!detail::is_type_disabled<Type>) {            \
  |  | 8429|      0|        return vis(*static_cast<Type*>(arg.m_value.ref_value)); \
  |  | 8430|      0|    }                                                           \
  |  | 8431|      0|    else {                                                      \
  |  | 8432|      0|        return vis(monostate_val);                              \
  |  | 8433|      0|    }
  ------------------
 8472|      0|        case detail::arg_type::ldouble_type:
  ------------------
  |  Branch (8472:9): [True: 0, False: 331k]
  ------------------
 8473|      0|            SCN_VISIT(long double);
  ------------------
  |  | 8428|      0|    if constexpr (!detail::is_type_disabled<Type>) {            \
  |  | 8429|      0|        return vis(*static_cast<Type*>(arg.m_value.ref_value)); \
  |  | 8430|      0|    }                                                           \
  |  | 8431|      0|    else {                                                      \
  |  | 8432|      0|        return vis(monostate_val);                              \
  |  | 8433|      0|    }
  ------------------
 8474|   165k|        case detail::arg_type::narrow_string_view_type:
  ------------------
  |  Branch (8474:9): [True: 165k, False: 165k]
  ------------------
 8475|   165k|            SCN_VISIT(std::string_view);
  ------------------
  |  | 8428|   165k|    if constexpr (!detail::is_type_disabled<Type>) {            \
  |  | 8429|   165k|        return vis(*static_cast<Type*>(arg.m_value.ref_value)); \
  |  | 8430|   165k|    }                                                           \
  |  | 8431|   165k|    else {                                                      \
  |  | 8432|   165k|        return vis(monostate_val);                              \
  |  | 8433|   165k|    }
  ------------------
 8476|   331k|        case detail::arg_type::narrow_string_type:
  ------------------
  |  Branch (8476:9): [True: 165k, False: 165k]
  ------------------
 8477|   331k|            SCN_VISIT(std::string);
  ------------------
  |  | 8428|   331k|    if constexpr (!detail::is_type_disabled<Type>) {            \
  |  | 8429|   331k|        return vis(*static_cast<Type*>(arg.m_value.ref_value)); \
  |  | 8430|   331k|    }                                                           \
  |  | 8431|   331k|    else {                                                      \
  |  | 8432|   331k|        return vis(monostate_val);                              \
  |  | 8433|   331k|    }
  ------------------
 8478|   331k|        case detail::arg_type::wide_string_view_type:
  ------------------
  |  Branch (8478:9): [True: 0, False: 331k]
  ------------------
 8479|   331k|            SCN_VISIT(std::wstring_view);
  ------------------
  |  | 8428|   331k|    if constexpr (!detail::is_type_disabled<Type>) {            \
  |  | 8429|   331k|        return vis(*static_cast<Type*>(arg.m_value.ref_value)); \
  |  | 8430|   331k|    }                                                           \
  |  | 8431|   331k|    else {                                                      \
  |  | 8432|   331k|        return vis(monostate_val);                              \
  |  | 8433|   331k|    }
  ------------------
 8480|   331k|        case detail::arg_type::wide_string_type:
  ------------------
  |  Branch (8480:9): [True: 0, False: 331k]
  ------------------
 8481|   331k|            SCN_VISIT(std::wstring);
  ------------------
  |  | 8428|   331k|    if constexpr (!detail::is_type_disabled<Type>) {            \
  |  | 8429|   331k|        return vis(*static_cast<Type*>(arg.m_value.ref_value)); \
  |  | 8430|   331k|    }                                                           \
  |  | 8431|   331k|    else {                                                      \
  |  | 8432|   331k|        return vis(monostate_val);                              \
  |  | 8433|   331k|    }
  ------------------
 8482|   331k|        case detail::arg_type::narrow_regex_matches_type:
  ------------------
  |  Branch (8482:9): [True: 0, False: 331k]
  ------------------
 8483|   331k|            SCN_VISIT(regex_matches);
  ------------------
  |  | 8428|   331k|    if constexpr (!detail::is_type_disabled<Type>) {            \
  |  | 8429|   331k|        return vis(*static_cast<Type*>(arg.m_value.ref_value)); \
  |  | 8430|   331k|    }                                                           \
  |  | 8431|   331k|    else {                                                      \
  |  | 8432|   331k|        return vis(monostate_val);                              \
  |  | 8433|   331k|    }
  ------------------
 8484|   331k|        case detail::arg_type::wide_regex_matches_type:
  ------------------
  |  Branch (8484:9): [True: 0, False: 331k]
  ------------------
 8485|   331k|            SCN_VISIT(wregex_matches);
  ------------------
  |  | 8428|   331k|    if constexpr (!detail::is_type_disabled<Type>) {            \
  |  | 8429|   331k|        return vis(*static_cast<Type*>(arg.m_value.ref_value)); \
  |  | 8430|   331k|    }                                                           \
  |  | 8431|   331k|    else {                                                      \
  |  | 8432|   331k|        return vis(monostate_val);                              \
  |  | 8433|   331k|    }
  ------------------
 8486|       |
 8487|   331k|        case detail::arg_type::custom_type:
  ------------------
  |  Branch (8487:9): [True: 0, False: 331k]
  ------------------
 8488|   331k|#if !SCN_DISABLE_TYPE_CUSTOM
 8489|   331k|            return vis(
 8490|   331k|                typename Ctx::arg_type::handle(arg.m_value.custom_value));
 8491|       |#else
 8492|       |            return vis(monostate_val);
 8493|       |#endif
 8494|       |
 8495|      0|            SCN_CLANG_PUSH
 8496|      0|            SCN_CLANG_IGNORE("-Wcovered-switch-default")
 8497|       |
 8498|      0|            SCN_UNLIKELY_ATTR
 8499|      0|        case detail::arg_type::none_type:
  ------------------
  |  Branch (8499:9): [True: 0, False: 331k]
  ------------------
 8500|      0|        default: {
  ------------------
  |  Branch (8500:9): [True: 0, False: 331k]
  ------------------
 8501|      0|            return vis(monostate_val);
 8502|      0|        }
 8503|       |
 8504|   331k|            SCN_CLANG_POP
 8505|   331k|    }
 8506|       |
 8507|      0|#undef SCN_VISIT
 8508|       |
 8509|      0|    SCN_ENSURE(false);
  ------------------
  |  |  925|      0|#define SCN_ENSURE(cond) SCN_ASSERT(cond, "Postcondition violation")
  |  |  ------------------
  |  |  |  |  921|      0|#define SCN_ASSERT(cond, msg) assert((cond) && msg)
  |  |  ------------------
  ------------------
 8510|      0|    SCN_UNREACHABLE;
  ------------------
  |  |  887|      0|#define SCN_UNREACHABLE __builtin_unreachable()
  ------------------
 8511|      0|}
_ZN3scn2v324basic_scan_parse_contextIcEC2ENSt3__117basic_string_viewIcNS3_11char_traitsIcEEEEi:
 5553|   417k|        : m_format{format}, m_next_arg_id{next_arg_id}
 5554|   417k|    {
 5555|   417k|    }
_ZN3scn2v318basic_scan_contextIcEC2ENS0_6detail17basic_scan_bufferIcE16forward_iteratorENS0_15basic_scan_argsIS2_EENS3_10locale_refE:
 8146|   155k|        : base(SCN_MOVE(a), loc), m_current(curr)
  ------------------
  |  |  928|   155k|    static_cast<    \
  |  |  929|   155k|        typename ::scn::detail::remove_reference<decltype(x)>::type&&>(x)
  ------------------
 8147|   155k|    {
 8148|   155k|    }
_ZN3scn2v36detail17scan_context_baseINS0_15basic_scan_argsINS0_18basic_scan_contextIcEEEEEC2ES6_NS1_10locale_refE:
 8064|   417k|        : m_args(SCN_MOVE(args)), m_locale(SCN_MOVE(loc))
  ------------------
  |  |  928|   417k|    static_cast<    \
  |  |  929|   417k|        typename ::scn::detail::remove_reference<decltype(x)>::type&&>(x)
  ------------------
                      : m_args(SCN_MOVE(args)), m_locale(SCN_MOVE(loc))
  ------------------
  |  |  928|   417k|    static_cast<    \
  |  |  929|   417k|        typename ::scn::detail::remove_reference<decltype(x)>::type&&>(x)
  ------------------
 8065|   417k|    {
 8066|   417k|    }
_ZN3scn2v36detail17basic_scan_bufferIcE3getEv:
 4352|   355k|{
 4353|   355k|    if (is_contiguous()) {
  ------------------
  |  Branch (4353:9): [True: 0, False: 355k]
  ------------------
 4354|      0|        return ranges::subrange{forward_iterator{m_current_view, 0},
 4355|      0|                                ranges::default_sentinel};
 4356|      0|    }
 4357|   355k|    return ranges::subrange{forward_iterator{this, 0},
 4358|   355k|                            ranges::default_sentinel};
 4359|   355k|}
_ZN3scn2v36detail17basic_scan_bufferIcE16forward_iteratorC2EPS3_l:
 4183|   355k|        : m_begin(parent), m_end(nullptr), m_position(pos)
 4184|   355k|    {
 4185|   355k|        SCN_EXPECT(parent);
  ------------------
  |  |  924|   355k|#define SCN_EXPECT(cond) SCN_ASSERT(cond, "Precondition violation")
  |  |  ------------------
  |  |  |  |  921|   355k|#define SCN_ASSERT(cond, msg) assert((cond) && msg)
  |  |  ------------------
  ------------------
 4186|   355k|        SCN_EXPECT(!parent->is_contiguous());
  ------------------
  |  |  924|   355k|#define SCN_EXPECT(cond) SCN_ASSERT(cond, "Precondition violation")
  |  |  ------------------
  |  |  |  |  921|   355k|#define SCN_ASSERT(cond, msg) assert((cond) && msg)
  |  |  ------------------
  ------------------
 4187|   355k|    }
_ZN3scn2v314visit_scan_argINS0_4impl18default_arg_readerINS0_18basic_scan_contextIcEEEES5_EEDcOT_RNS0_14basic_scan_argIT0_EE:
 8426|   200k|{
 8427|   200k|#define SCN_VISIT(Type)                                         \
 8428|   200k|    if constexpr (!detail::is_type_disabled<Type>) {            \
 8429|   200k|        return vis(*static_cast<Type*>(arg.m_value.ref_value)); \
 8430|   200k|    }                                                           \
 8431|   200k|    else {                                                      \
 8432|   200k|        return vis(monostate_val);                              \
 8433|   200k|    }
 8434|       |
 8435|   200k|    monostate monostate_val{};
 8436|       |
 8437|   200k|    switch (arg.m_type) {
 8438|      0|        case detail::arg_type::schar_type:
  ------------------
  |  Branch (8438:9): [True: 0, False: 200k]
  ------------------
 8439|      0|            SCN_VISIT(signed char);
  ------------------
  |  | 8428|      0|    if constexpr (!detail::is_type_disabled<Type>) {            \
  |  | 8429|      0|        return vis(*static_cast<Type*>(arg.m_value.ref_value)); \
  |  | 8430|      0|    }                                                           \
  |  | 8431|      0|    else {                                                      \
  |  | 8432|      0|        return vis(monostate_val);                              \
  |  | 8433|      0|    }
  ------------------
 8440|      0|        case detail::arg_type::short_type:
  ------------------
  |  Branch (8440:9): [True: 0, False: 200k]
  ------------------
 8441|      0|            SCN_VISIT(short);
  ------------------
  |  | 8428|      0|    if constexpr (!detail::is_type_disabled<Type>) {            \
  |  | 8429|      0|        return vis(*static_cast<Type*>(arg.m_value.ref_value)); \
  |  | 8430|      0|    }                                                           \
  |  | 8431|      0|    else {                                                      \
  |  | 8432|      0|        return vis(monostate_val);                              \
  |  | 8433|      0|    }
  ------------------
 8442|      0|        case detail::arg_type::int_type:
  ------------------
  |  Branch (8442:9): [True: 0, False: 200k]
  ------------------
 8443|      0|            SCN_VISIT(int);
  ------------------
  |  | 8428|      0|    if constexpr (!detail::is_type_disabled<Type>) {            \
  |  | 8429|      0|        return vis(*static_cast<Type*>(arg.m_value.ref_value)); \
  |  | 8430|      0|    }                                                           \
  |  | 8431|      0|    else {                                                      \
  |  | 8432|      0|        return vis(monostate_val);                              \
  |  | 8433|      0|    }
  ------------------
 8444|      0|        case detail::arg_type::long_type:
  ------------------
  |  Branch (8444:9): [True: 0, False: 200k]
  ------------------
 8445|      0|            SCN_VISIT(long);
  ------------------
  |  | 8428|      0|    if constexpr (!detail::is_type_disabled<Type>) {            \
  |  | 8429|      0|        return vis(*static_cast<Type*>(arg.m_value.ref_value)); \
  |  | 8430|      0|    }                                                           \
  |  | 8431|      0|    else {                                                      \
  |  | 8432|      0|        return vis(monostate_val);                              \
  |  | 8433|      0|    }
  ------------------
 8446|      0|        case detail::arg_type::llong_type:
  ------------------
  |  Branch (8446:9): [True: 0, False: 200k]
  ------------------
 8447|      0|            SCN_VISIT(long long);
  ------------------
  |  | 8428|      0|    if constexpr (!detail::is_type_disabled<Type>) {            \
  |  | 8429|      0|        return vis(*static_cast<Type*>(arg.m_value.ref_value)); \
  |  | 8430|      0|    }                                                           \
  |  | 8431|      0|    else {                                                      \
  |  | 8432|      0|        return vis(monostate_val);                              \
  |  | 8433|      0|    }
  ------------------
 8448|      0|        case detail::arg_type::uchar_type:
  ------------------
  |  Branch (8448:9): [True: 0, False: 200k]
  ------------------
 8449|      0|            SCN_VISIT(unsigned char);
  ------------------
  |  | 8428|      0|    if constexpr (!detail::is_type_disabled<Type>) {            \
  |  | 8429|      0|        return vis(*static_cast<Type*>(arg.m_value.ref_value)); \
  |  | 8430|      0|    }                                                           \
  |  | 8431|      0|    else {                                                      \
  |  | 8432|      0|        return vis(monostate_val);                              \
  |  | 8433|      0|    }
  ------------------
 8450|      0|        case detail::arg_type::ushort_type:
  ------------------
  |  Branch (8450:9): [True: 0, False: 200k]
  ------------------
 8451|      0|            SCN_VISIT(unsigned short);
  ------------------
  |  | 8428|      0|    if constexpr (!detail::is_type_disabled<Type>) {            \
  |  | 8429|      0|        return vis(*static_cast<Type*>(arg.m_value.ref_value)); \
  |  | 8430|      0|    }                                                           \
  |  | 8431|      0|    else {                                                      \
  |  | 8432|      0|        return vis(monostate_val);                              \
  |  | 8433|      0|    }
  ------------------
 8452|      0|        case detail::arg_type::uint_type:
  ------------------
  |  Branch (8452:9): [True: 0, False: 200k]
  ------------------
 8453|      0|            SCN_VISIT(unsigned);
  ------------------
  |  | 8428|      0|    if constexpr (!detail::is_type_disabled<Type>) {            \
  |  | 8429|      0|        return vis(*static_cast<Type*>(arg.m_value.ref_value)); \
  |  | 8430|      0|    }                                                           \
  |  | 8431|      0|    else {                                                      \
  |  | 8432|      0|        return vis(monostate_val);                              \
  |  | 8433|      0|    }
  ------------------
 8454|      0|        case detail::arg_type::ulong_type:
  ------------------
  |  Branch (8454:9): [True: 0, False: 200k]
  ------------------
 8455|      0|            SCN_VISIT(unsigned long);
  ------------------
  |  | 8428|      0|    if constexpr (!detail::is_type_disabled<Type>) {            \
  |  | 8429|      0|        return vis(*static_cast<Type*>(arg.m_value.ref_value)); \
  |  | 8430|      0|    }                                                           \
  |  | 8431|      0|    else {                                                      \
  |  | 8432|      0|        return vis(monostate_val);                              \
  |  | 8433|      0|    }
  ------------------
 8456|      0|        case detail::arg_type::ullong_type:
  ------------------
  |  Branch (8456:9): [True: 0, False: 200k]
  ------------------
 8457|      0|            SCN_VISIT(unsigned long long);
  ------------------
  |  | 8428|      0|    if constexpr (!detail::is_type_disabled<Type>) {            \
  |  | 8429|      0|        return vis(*static_cast<Type*>(arg.m_value.ref_value)); \
  |  | 8430|      0|    }                                                           \
  |  | 8431|      0|    else {                                                      \
  |  | 8432|      0|        return vis(monostate_val);                              \
  |  | 8433|      0|    }
  ------------------
 8458|      0|        case detail::arg_type::pointer_type:
  ------------------
  |  Branch (8458:9): [True: 0, False: 200k]
  ------------------
 8459|      0|            SCN_VISIT(void*);
  ------------------
  |  | 8428|      0|    if constexpr (!detail::is_type_disabled<Type>) {            \
  |  | 8429|      0|        return vis(*static_cast<Type*>(arg.m_value.ref_value)); \
  |  | 8430|      0|    }                                                           \
  |  | 8431|      0|    else {                                                      \
  |  | 8432|      0|        return vis(monostate_val);                              \
  |  | 8433|      0|    }
  ------------------
 8460|      0|        case detail::arg_type::bool_type:
  ------------------
  |  Branch (8460:9): [True: 0, False: 200k]
  ------------------
 8461|      0|            SCN_VISIT(bool);
  ------------------
  |  | 8428|      0|    if constexpr (!detail::is_type_disabled<Type>) {            \
  |  | 8429|      0|        return vis(*static_cast<Type*>(arg.m_value.ref_value)); \
  |  | 8430|      0|    }                                                           \
  |  | 8431|      0|    else {                                                      \
  |  | 8432|      0|        return vis(monostate_val);                              \
  |  | 8433|      0|    }
  ------------------
 8462|      0|        case detail::arg_type::narrow_character_type:
  ------------------
  |  Branch (8462:9): [True: 0, False: 200k]
  ------------------
 8463|      0|            SCN_VISIT(char);
  ------------------
  |  | 8428|      0|    if constexpr (!detail::is_type_disabled<Type>) {            \
  |  | 8429|      0|        return vis(*static_cast<Type*>(arg.m_value.ref_value)); \
  |  | 8430|      0|    }                                                           \
  |  | 8431|      0|    else {                                                      \
  |  | 8432|      0|        return vis(monostate_val);                              \
  |  | 8433|      0|    }
  ------------------
 8464|      0|        case detail::arg_type::wide_character_type:
  ------------------
  |  Branch (8464:9): [True: 0, False: 200k]
  ------------------
 8465|      0|            SCN_VISIT(wchar_t);
  ------------------
  |  | 8428|      0|    if constexpr (!detail::is_type_disabled<Type>) {            \
  |  | 8429|      0|        return vis(*static_cast<Type*>(arg.m_value.ref_value)); \
  |  | 8430|      0|    }                                                           \
  |  | 8431|      0|    else {                                                      \
  |  | 8432|      0|        return vis(monostate_val);                              \
  |  | 8433|      0|    }
  ------------------
 8466|      0|        case detail::arg_type::code_point_type:
  ------------------
  |  Branch (8466:9): [True: 0, False: 200k]
  ------------------
 8467|      0|            SCN_VISIT(char32_t);
  ------------------
  |  | 8428|      0|    if constexpr (!detail::is_type_disabled<Type>) {            \
  |  | 8429|      0|        return vis(*static_cast<Type*>(arg.m_value.ref_value)); \
  |  | 8430|      0|    }                                                           \
  |  | 8431|      0|    else {                                                      \
  |  | 8432|      0|        return vis(monostate_val);                              \
  |  | 8433|      0|    }
  ------------------
 8468|      0|        case detail::arg_type::float_type:
  ------------------
  |  Branch (8468:9): [True: 0, False: 200k]
  ------------------
 8469|      0|            SCN_VISIT(float);
  ------------------
  |  | 8428|      0|    if constexpr (!detail::is_type_disabled<Type>) {            \
  |  | 8429|      0|        return vis(*static_cast<Type*>(arg.m_value.ref_value)); \
  |  | 8430|      0|    }                                                           \
  |  | 8431|      0|    else {                                                      \
  |  | 8432|      0|        return vis(monostate_val);                              \
  |  | 8433|      0|    }
  ------------------
 8470|      0|        case detail::arg_type::double_type:
  ------------------
  |  Branch (8470:9): [True: 0, False: 200k]
  ------------------
 8471|      0|            SCN_VISIT(double);
  ------------------
  |  | 8428|      0|    if constexpr (!detail::is_type_disabled<Type>) {            \
  |  | 8429|      0|        return vis(*static_cast<Type*>(arg.m_value.ref_value)); \
  |  | 8430|      0|    }                                                           \
  |  | 8431|      0|    else {                                                      \
  |  | 8432|      0|        return vis(monostate_val);                              \
  |  | 8433|      0|    }
  ------------------
 8472|      0|        case detail::arg_type::ldouble_type:
  ------------------
  |  Branch (8472:9): [True: 0, False: 200k]
  ------------------
 8473|      0|            SCN_VISIT(long double);
  ------------------
  |  | 8428|      0|    if constexpr (!detail::is_type_disabled<Type>) {            \
  |  | 8429|      0|        return vis(*static_cast<Type*>(arg.m_value.ref_value)); \
  |  | 8430|      0|    }                                                           \
  |  | 8431|      0|    else {                                                      \
  |  | 8432|      0|        return vis(monostate_val);                              \
  |  | 8433|      0|    }
  ------------------
 8474|      0|        case detail::arg_type::narrow_string_view_type:
  ------------------
  |  Branch (8474:9): [True: 0, False: 200k]
  ------------------
 8475|      0|            SCN_VISIT(std::string_view);
  ------------------
  |  | 8428|      0|    if constexpr (!detail::is_type_disabled<Type>) {            \
  |  | 8429|      0|        return vis(*static_cast<Type*>(arg.m_value.ref_value)); \
  |  | 8430|      0|    }                                                           \
  |  | 8431|      0|    else {                                                      \
  |  | 8432|      0|        return vis(monostate_val);                              \
  |  | 8433|      0|    }
  ------------------
 8476|   200k|        case detail::arg_type::narrow_string_type:
  ------------------
  |  Branch (8476:9): [True: 200k, False: 0]
  ------------------
 8477|   200k|            SCN_VISIT(std::string);
  ------------------
  |  | 8428|   200k|    if constexpr (!detail::is_type_disabled<Type>) {            \
  |  | 8429|   200k|        return vis(*static_cast<Type*>(arg.m_value.ref_value)); \
  |  | 8430|   200k|    }                                                           \
  |  | 8431|   200k|    else {                                                      \
  |  | 8432|   200k|        return vis(monostate_val);                              \
  |  | 8433|   200k|    }
  ------------------
 8478|   200k|        case detail::arg_type::wide_string_view_type:
  ------------------
  |  Branch (8478:9): [True: 0, False: 200k]
  ------------------
 8479|   200k|            SCN_VISIT(std::wstring_view);
  ------------------
  |  | 8428|   200k|    if constexpr (!detail::is_type_disabled<Type>) {            \
  |  | 8429|   200k|        return vis(*static_cast<Type*>(arg.m_value.ref_value)); \
  |  | 8430|   200k|    }                                                           \
  |  | 8431|   200k|    else {                                                      \
  |  | 8432|   200k|        return vis(monostate_val);                              \
  |  | 8433|   200k|    }
  ------------------
 8480|   200k|        case detail::arg_type::wide_string_type:
  ------------------
  |  Branch (8480:9): [True: 0, False: 200k]
  ------------------
 8481|   200k|            SCN_VISIT(std::wstring);
  ------------------
  |  | 8428|   200k|    if constexpr (!detail::is_type_disabled<Type>) {            \
  |  | 8429|   200k|        return vis(*static_cast<Type*>(arg.m_value.ref_value)); \
  |  | 8430|   200k|    }                                                           \
  |  | 8431|   200k|    else {                                                      \
  |  | 8432|   200k|        return vis(monostate_val);                              \
  |  | 8433|   200k|    }
  ------------------
 8482|   200k|        case detail::arg_type::narrow_regex_matches_type:
  ------------------
  |  Branch (8482:9): [True: 0, False: 200k]
  ------------------
 8483|   200k|            SCN_VISIT(regex_matches);
  ------------------
  |  | 8428|   200k|    if constexpr (!detail::is_type_disabled<Type>) {            \
  |  | 8429|   200k|        return vis(*static_cast<Type*>(arg.m_value.ref_value)); \
  |  | 8430|   200k|    }                                                           \
  |  | 8431|   200k|    else {                                                      \
  |  | 8432|   200k|        return vis(monostate_val);                              \
  |  | 8433|   200k|    }
  ------------------
 8484|   200k|        case detail::arg_type::wide_regex_matches_type:
  ------------------
  |  Branch (8484:9): [True: 0, False: 200k]
  ------------------
 8485|   200k|            SCN_VISIT(wregex_matches);
  ------------------
  |  | 8428|   200k|    if constexpr (!detail::is_type_disabled<Type>) {            \
  |  | 8429|   200k|        return vis(*static_cast<Type*>(arg.m_value.ref_value)); \
  |  | 8430|   200k|    }                                                           \
  |  | 8431|   200k|    else {                                                      \
  |  | 8432|   200k|        return vis(monostate_val);                              \
  |  | 8433|   200k|    }
  ------------------
 8486|       |
 8487|   200k|        case detail::arg_type::custom_type:
  ------------------
  |  Branch (8487:9): [True: 0, False: 200k]
  ------------------
 8488|   200k|#if !SCN_DISABLE_TYPE_CUSTOM
 8489|   200k|            return vis(
 8490|   200k|                typename Ctx::arg_type::handle(arg.m_value.custom_value));
 8491|       |#else
 8492|       |            return vis(monostate_val);
 8493|       |#endif
 8494|       |
 8495|      0|            SCN_CLANG_PUSH
 8496|      0|            SCN_CLANG_IGNORE("-Wcovered-switch-default")
 8497|       |
 8498|      0|            SCN_UNLIKELY_ATTR
 8499|      0|        case detail::arg_type::none_type:
  ------------------
  |  Branch (8499:9): [True: 0, False: 200k]
  ------------------
 8500|      0|        default: {
  ------------------
  |  Branch (8500:9): [True: 0, False: 200k]
  ------------------
 8501|      0|            return vis(monostate_val);
 8502|      0|        }
 8503|       |
 8504|   200k|            SCN_CLANG_POP
 8505|   200k|    }
 8506|       |
 8507|      0|#undef SCN_VISIT
 8508|       |
 8509|      0|    SCN_ENSURE(false);
  ------------------
  |  |  925|      0|#define SCN_ENSURE(cond) SCN_ASSERT(cond, "Postcondition violation")
  |  |  ------------------
  |  |  |  |  921|      0|#define SCN_ASSERT(cond, msg) assert((cond) && msg)
  |  |  ------------------
  ------------------
 8510|      0|    SCN_UNREACHABLE;
  ------------------
  |  |  887|      0|#define SCN_UNREACHABLE __builtin_unreachable()
  ------------------
 8511|      0|}
impl.cpp:_ZN3scn2v36detail19parse_format_stringILb0EcRNS0_12_GLOBAL__N_114format_handlerILb1EcEEEENS0_10scan_errorENSt3__117basic_string_viewIT0_NS8_11char_traitsISA_EEEEOT1_:
 7053|   262k|{
 7054|   262k|    parse_format_string_impl<IsConstexpr>(format, handler);
 7055|   262k|    handler.check_args_exhausted();
 7056|   262k|    return handler.get_error();
 7057|   262k|}
impl.cpp:_ZN3scn2v36detail24parse_format_string_implILb0EcRNS0_12_GLOBAL__N_114format_handlerILb1EcEEEEvNSt3__117basic_string_viewIT0_NS7_11char_traitsIS9_EEEEOT1_:
 7019|   262k|{
 7020|       |    // TODO: memchr fast path with a larger (> 32) format string
 7021|       |
 7022|   262k|    auto begin = format.data();
 7023|   262k|    auto it = begin;
 7024|   262k|    const auto end = format.data() + format.size();
 7025|       |
 7026|   477k|    while (it != end) {
  ------------------
  |  Branch (7026:12): [True: 262k, False: 215k]
  ------------------
 7027|   262k|        const auto ch = *it++;
 7028|   262k|        if (ch == CharT{'{'}) {
  ------------------
  |  Branch (7028:13): [True: 262k, False: 0]
  ------------------
 7029|   262k|            handler.on_literal_text(begin, it - 1);
 7030|       |
 7031|   262k|            begin = it = parse_replacement_field(it - 1, end, handler);
 7032|   262k|            if (!handler) {
  ------------------
  |  Branch (7032:17): [True: 46.8k, False: 215k]
  ------------------
 7033|  46.8k|                return;
 7034|  46.8k|            }
 7035|   262k|        }
 7036|      0|        else if (ch == CharT{'}'}) {
  ------------------
  |  Branch (7036:18): [True: 0, False: 0]
  ------------------
 7037|      0|            if (SCN_UNLIKELY(it == end || *it != CharT{'}'})) {
  ------------------
  |  |  859|      0|#define SCN_UNLIKELY(x) __builtin_expect(!!(x), 0)
  |  |  ------------------
  |  |  |  Branch (859:25): [True: 0, False: 0]
  |  |  |  Branch (859:45): [True: 0, False: 0]
  |  |  |  Branch (859:45): [True: 0, False: 0]
  |  |  ------------------
  ------------------
 7038|      0|                handler.on_error("Unmatched '}' in format string");
 7039|      0|                return;
 7040|      0|            }
 7041|       |
 7042|      0|            handler.on_literal_text(begin, it);
 7043|      0|            begin = ++it;
 7044|      0|        }
 7045|   262k|    }
 7046|       |
 7047|   215k|    handler.on_literal_text(begin, end);
 7048|   215k|}
impl.cpp:_ZN3scn2v36detail23parse_replacement_fieldIcNS0_12_GLOBAL__N_114format_handlerILb1EcEEEEPKT_S8_S8_RT0_:
 6951|   262k|{
 6952|   262k|    struct id_adapter {
 6953|   262k|        constexpr void operator()()
 6954|   262k|        {
 6955|   262k|            arg_id = handler.on_arg_id();
 6956|   262k|        }
 6957|   262k|        constexpr void operator()(std::size_t id)
 6958|   262k|        {
 6959|   262k|            arg_id = handler.on_arg_id(id);
 6960|   262k|        }
 6961|       |
 6962|   262k|        constexpr void on_error(const char* msg)
 6963|   262k|        {
 6964|   262k|            SCN_UNLIKELY_ATTR
 6965|   262k|            handler.on_error(msg);
 6966|   262k|        }
 6967|       |
 6968|   262k|        Handler& handler;
 6969|   262k|        std::size_t arg_id;
 6970|   262k|    };
 6971|       |
 6972|   262k|    ++begin;
 6973|   262k|    if (SCN_UNLIKELY(begin == end)) {
  ------------------
  |  |  859|   262k|#define SCN_UNLIKELY(x) __builtin_expect(!!(x), 0)
  |  |  ------------------
  |  |  |  Branch (859:25): [True: 0, False: 262k]
  |  |  ------------------
  ------------------
 6974|      0|        handler.on_error("Unexpected end of replacement field");
 6975|      0|        return begin;
 6976|      0|    }
 6977|       |
 6978|   262k|    if (*begin == CharT{'}'}) {
  ------------------
  |  Branch (6978:9): [True: 0, False: 262k]
  ------------------
 6979|      0|        handler.on_replacement_field(handler.on_arg_id(), begin);
 6980|      0|    }
 6981|   262k|    else if (*begin == CharT{'{'}) {
  ------------------
  |  Branch (6981:14): [True: 0, False: 262k]
  ------------------
 6982|      0|        handler.on_literal_text(begin, begin + 1);
 6983|      0|    }
 6984|   262k|    else {
 6985|   262k|        auto adapter = id_adapter{handler, 0};
 6986|   262k|        begin = parse_arg_id(begin, end, adapter);
 6987|       |
 6988|   262k|        if (SCN_UNLIKELY(begin == end)) {
  ------------------
  |  |  859|   262k|#define SCN_UNLIKELY(x) __builtin_expect(!!(x), 0)
  |  |  ------------------
  |  |  |  Branch (859:25): [True: 0, False: 262k]
  |  |  ------------------
  ------------------
 6989|      0|            handler.on_error("Missing '}' in format string");
 6990|      0|            return begin;
 6991|      0|        }
 6992|       |
 6993|   262k|        if (*begin == CharT{'}'}) {
  ------------------
  |  Branch (6993:13): [True: 0, False: 262k]
  ------------------
 6994|      0|            handler.on_replacement_field(adapter.arg_id, begin);
 6995|      0|        }
 6996|   262k|        else if (*begin == CharT{':'}) {
  ------------------
  |  Branch (6996:18): [True: 262k, False: 0]
  ------------------
 6997|   262k|            if (SCN_UNLIKELY(begin + 1 == end)) {
  ------------------
  |  |  859|   262k|#define SCN_UNLIKELY(x) __builtin_expect(!!(x), 0)
  |  |  ------------------
  |  |  |  Branch (859:25): [True: 0, False: 262k]
  |  |  ------------------
  ------------------
 6998|      0|                handler.on_error("Unexpected end of replacement field");
 6999|      0|                return begin;
 7000|      0|            }
 7001|   262k|            begin = handler.on_format_specs(adapter.arg_id, begin + 1, end);
 7002|   262k|            if (SCN_UNLIKELY(begin == end || *begin != '}')) {
  ------------------
  |  |  859|   524k|#define SCN_UNLIKELY(x) __builtin_expect(!!(x), 0)
  |  |  ------------------
  |  |  |  Branch (859:25): [True: 18.7k, False: 243k]
  |  |  |  Branch (859:45): [True: 0, False: 262k]
  |  |  |  Branch (859:45): [True: 18.7k, False: 243k]
  |  |  ------------------
  ------------------
 7003|  18.7k|                handler.on_error("Unknown format specifier");
 7004|  18.7k|                return begin;
 7005|  18.7k|            }
 7006|   262k|        }
 7007|      0|        else {
 7008|      0|            SCN_UNLIKELY_ATTR
 7009|      0|            handler.on_error("Missing '}' in format string");
 7010|      0|            return begin;
 7011|      0|        }
 7012|   262k|    }
 7013|   243k|    return begin + 1;
 7014|   262k|}
_ZNK3scn2v36detail17scan_context_baseINS0_15basic_scan_argsINS0_18basic_scan_contextIcEEEEE3argEm:
 8048|   417k|    {
 8049|   417k|        return m_args.get(id);
 8050|   417k|    }
_ZNK3scn2v36detail17scan_context_baseINS0_15basic_scan_argsINS0_18basic_scan_contextIcEEEEE6localeEv:
 8058|   389k|    {
 8059|   389k|        return m_locale;
 8060|   389k|    }
_ZN3scn2v324basic_scan_parse_contextIcE11next_arg_idEv:
 5575|   417k|    {
 5576|   417k|        if (SCN_UNLIKELY(m_next_arg_id < 0)) {
  ------------------
  |  |  859|   417k|#define SCN_UNLIKELY(x) __builtin_expect(!!(x), 0)
  |  |  ------------------
  |  |  |  Branch (859:25): [True: 0, False: 417k]
  |  |  ------------------
  ------------------
 5577|      0|            on_error(
 5578|      0|                "Cannot switch from manual to automatic argument indexing");
 5579|      0|            return 0;
 5580|      0|        }
 5581|       |
 5582|   417k|        auto id = static_cast<size_t>(m_next_arg_id++);
 5583|   417k|        do_check_arg_id(id);
 5584|   417k|        return id;
 5585|   417k|    }
_ZN3scn2v324basic_scan_parse_contextIcE15do_check_arg_idEm:
 6063|   417k|{
 6064|   417k|    if (detail::is_constant_evaluated() &&
  ------------------
  |  Branch (6064:9): [Folded - Ignored]
  ------------------
 6065|   417k|        (!SCN_GCC || SCN_GCC >= SCN_COMPILER(12, 0, 0))) {
  ------------------
  |  |  236|      0|#define SCN_GCC 0
  ------------------
                      (!SCN_GCC || SCN_GCC >= SCN_COMPILER(12, 0, 0))) {
  ------------------
  |  |  236|      0|#define SCN_GCC 0
  ------------------
                      (!SCN_GCC || SCN_GCC >= SCN_COMPILER(12, 0, 0))) {
  ------------------
  |  |   25|      0|    ((major) * 10000000 + (minor) * 10000 + (patch))
  ------------------
  |  Branch (6065:10): [Folded - Ignored]
  |  Branch (6065:22): [Folded - Ignored]
  ------------------
 6066|       |        // The cast below will cause an error on gcc pre-12
 6067|      0|        using parse_context_type = detail::compile_parse_context<CharT>;
 6068|      0|        if (static_cast<int>(id) >=
  ------------------
  |  Branch (6068:13): [True: 0, False: 0]
  ------------------
 6069|      0|            static_cast<parse_context_type*>(this)->get_num_args()) {
 6070|      0|            SCN_UNLIKELY_ATTR
 6071|      0|            on_error("Argument not found");
 6072|      0|        }
 6073|      0|    }
 6074|   417k|}
impl.cpp:_ZN3scn2v36detail12parse_arg_idIcRZNS1_23parse_replacement_fieldIcNS0_12_GLOBAL__N_114format_handlerILb1EcEEEEPKT_S9_S9_RT0_E10id_adapterEES9_S9_S9_OSA_:
 6452|   262k|{
 6453|   262k|    SCN_EXPECT(begin != end);
  ------------------
  |  |  924|   262k|#define SCN_EXPECT(cond) SCN_ASSERT(cond, "Precondition violation")
  |  |  ------------------
  |  |  |  |  921|   262k|#define SCN_ASSERT(cond, msg) assert((cond) && msg)
  |  |  ------------------
  ------------------
 6454|   262k|    if (*begin != '}' && *begin != ':') {
  ------------------
  |  Branch (6454:9): [True: 262k, False: 0]
  |  Branch (6454:26): [True: 0, False: 262k]
  ------------------
 6455|      0|        return do_parse_arg_id(begin, end, SCN_FWD(handler));
  ------------------
  |  |  930|      0|#define SCN_FWD(x)          static_cast<decltype(x)&&>(x)
  ------------------
 6456|      0|    }
 6457|       |
 6458|   262k|    handler();
 6459|   262k|    return begin;
 6460|   262k|}
_ZN3scn2v36detail16parse_simple_intIcEEiRPKT_S5_:
 6401|  28.0k|{
 6402|  28.0k|    SCN_EXPECT(begin != end);
  ------------------
  |  |  924|  28.0k|#define SCN_EXPECT(cond) SCN_ASSERT(cond, "Precondition violation")
  |  |  ------------------
  |  |  |  |  921|  28.0k|#define SCN_ASSERT(cond, msg) assert((cond) && msg)
  |  |  ------------------
  ------------------
 6403|  28.0k|    SCN_EXPECT(*begin >= '0' && *begin <= '9');
  ------------------
  |  |  924|  28.0k|#define SCN_EXPECT(cond) SCN_ASSERT(cond, "Precondition violation")
  |  |  ------------------
  |  |  |  |  921|  28.0k|#define SCN_ASSERT(cond, msg) assert((cond) && msg)
  |  |  ------------------
  ------------------
 6404|       |
 6405|  28.0k|    unsigned long long value = 0;
 6406|  56.1k|    do {
 6407|  56.1k|        value *= 10;
 6408|  56.1k|        value += static_cast<unsigned long long>(*begin - '0');
 6409|  56.1k|        if (value >
  ------------------
  |  Branch (6409:13): [True: 0, False: 56.1k]
  ------------------
 6410|  56.1k|            static_cast<unsigned long long>(std::numeric_limits<int>::max())) {
 6411|      0|            return -1;
 6412|      0|        }
 6413|  56.1k|        ++begin;
 6414|  56.1k|    } while (begin != end && *begin >= '0' && *begin <= '9');
  ------------------
  |  Branch (6414:14): [True: 56.1k, False: 0]
  |  Branch (6414:30): [True: 56.1k, False: 0]
  |  Branch (6414:47): [True: 28.0k, False: 28.0k]
  ------------------
 6415|  28.0k|    return static_cast<int>(value);
 6416|  28.0k|}
impl.cpp:_ZZN3scn2v36detail23parse_replacement_fieldIcNS0_12_GLOBAL__N_114format_handlerILb1EcEEEEPKT_S8_S8_RT0_EN10id_adapterclEv:
 6954|   262k|        {
 6955|   262k|            arg_id = handler.on_arg_id();
 6956|   262k|        }
_ZNK3scn2v314basic_scan_argINS0_18basic_scan_contextIcEEE4typeEv:
 5261|   835k|    {
 5262|   835k|        return m_type;
 5263|   835k|    }
_ZN3scn2v324basic_scan_parse_contextIcE10advance_toEPKc:
 5570|   389k|    {
 5571|   389k|        m_format.remove_prefix(static_cast<std::size_t>(it - begin()));
 5572|   389k|    }
_ZNK3scn2v324basic_scan_parse_contextIcE5beginEv:
 5559|   807k|    {
 5560|   807k|        return m_format.data();
 5561|   807k|    }
impl.cpp:_ZN3scn2v36detail13specs_checkerINS0_12_GLOBAL__N_113specs_handlerINS0_4impl29basic_contiguous_scan_contextIcEEEEEC2IS8_EEOT_NS1_8arg_typeE:
 7130|   262k|        : Handler(SCN_FWD(handler)), m_arg_type(type)
  ------------------
  |  |  930|   262k|#define SCN_FWD(x)          static_cast<decltype(x)&&>(x)
  ------------------
 7131|   262k|    {
 7132|   262k|        SCN_EXPECT(m_arg_type != arg_type::custom_type);
  ------------------
  |  |  924|   262k|#define SCN_EXPECT(cond) SCN_ASSERT(cond, "Precondition violation")
  |  |  ------------------
  |  |  |  |  921|   262k|#define SCN_ASSERT(cond, msg) assert((cond) && msg)
  |  |  ------------------
  ------------------
 7133|   262k|    }
impl.cpp:_ZN3scn2v36detail18parse_format_specsIcRNS1_13specs_checkerINS0_12_GLOBAL__N_113specs_handlerINS0_4impl29basic_contiguous_scan_contextIcEEEEEEEEPKT_SE_SE_OT0_:
 6867|   262k|{
 6868|   262k|    auto do_presentation = [&]() -> const CharT* {
 6869|   262k|        if (*begin == CharT{'['}) {
 6870|   262k|            auto set = parse_presentation_set(begin, end, handler);
 6871|   262k|            if (SCN_UNLIKELY(set.size() <= 2)) {
 6872|       |                // clang-format off
 6873|   262k|                handler.on_error("Invalid (empty) [character set] specifier in format string");
 6874|       |                // clang-format on
 6875|   262k|                return begin;
 6876|   262k|            }
 6877|   262k|            handler.on_character_set_string(set);
 6878|   262k|            return begin;
 6879|   262k|        }
 6880|   262k|        if (*begin == CharT{'/'}) {
 6881|   262k|            return parse_presentation_regex(begin, end, handler);
 6882|   262k|        }
 6883|   262k|        presentation_type type = parse_presentation_type(*begin++);
 6884|   262k|        if (SCN_UNLIKELY(type == presentation_type::none)) {
 6885|   262k|            handler.on_error("Invalid type specifier in format string");
 6886|   262k|            return begin;
 6887|   262k|        }
 6888|   262k|        handler.on_type(type);
 6889|   262k|        return begin;
 6890|   262k|    };
 6891|       |
 6892|   262k|    if (end - begin > 1 && *(begin + 1) == CharT{'}'} &&
  ------------------
  |  Branch (6892:9): [True: 262k, False: 0]
  |  Branch (6892:28): [True: 230k, False: 32.2k]
  ------------------
 6893|   262k|        is_ascii_letter(*begin) && *begin != CharT{'L'}) {
  ------------------
  |  Branch (6893:9): [True: 230k, False: 0]
  |  Branch (6893:36): [True: 220k, False: 9.36k]
  ------------------
 6894|   220k|        return do_presentation();
 6895|   220k|    }
 6896|       |
 6897|  41.6k|    if (SCN_UNLIKELY(begin == end)) {
  ------------------
  |  |  859|  41.6k|#define SCN_UNLIKELY(x) __builtin_expect(!!(x), 0)
  |  |  ------------------
  |  |  |  Branch (859:25): [True: 0, False: 41.6k]
  |  |  ------------------
  ------------------
 6898|      0|        handler.on_error("Unexpected end of format string");
 6899|      0|        return begin;
 6900|      0|    }
 6901|       |
 6902|  41.6k|    begin = parse_align(begin, end, handler);
 6903|  41.6k|    if (SCN_UNLIKELY(begin == end)) {
  ------------------
  |  |  859|  41.6k|#define SCN_UNLIKELY(x) __builtin_expect(!!(x), 0)
  |  |  ------------------
  |  |  |  Branch (859:25): [True: 0, False: 41.6k]
  |  |  ------------------
  ------------------
 6904|      0|        handler.on_error("Unexpected end of format string");
 6905|      0|        return begin;
 6906|      0|    }
 6907|       |
 6908|  41.6k|    begin = parse_width(begin, end, handler);
 6909|  41.6k|    if (SCN_UNLIKELY(begin == end)) {
  ------------------
  |  |  859|  41.6k|#define SCN_UNLIKELY(x) __builtin_expect(!!(x), 0)
  |  |  ------------------
  |  |  |  Branch (859:25): [True: 0, False: 41.6k]
  |  |  ------------------
  ------------------
 6910|      0|        handler.on_error("Unexpected end of format string");
 6911|      0|        return begin;
 6912|      0|    }
 6913|       |
 6914|  41.6k|    if (*begin == CharT{'.'}) {
  ------------------
  |  Branch (6914:9): [True: 0, False: 41.6k]
  ------------------
 6915|      0|        ++begin;
 6916|      0|        if (SCN_UNLIKELY(begin == end)) {
  ------------------
  |  |  859|      0|#define SCN_UNLIKELY(x) __builtin_expect(!!(x), 0)
  |  |  ------------------
  |  |  |  Branch (859:25): [True: 0, False: 0]
  |  |  ------------------
  ------------------
 6917|      0|            handler.on_error("Unexpected end of format string");
 6918|      0|            return begin;
 6919|      0|        }
 6920|      0|        begin = parse_precision(begin, end, handler);
 6921|      0|        if (SCN_UNLIKELY(begin == end)) {
  ------------------
  |  |  859|      0|#define SCN_UNLIKELY(x) __builtin_expect(!!(x), 0)
  |  |  ------------------
  |  |  |  Branch (859:25): [True: 0, False: 0]
  |  |  ------------------
  ------------------
 6922|      0|            handler.on_error("Unexpected end of format string");
 6923|      0|            return begin;
 6924|      0|        }
 6925|      0|    }
 6926|       |
 6927|  41.6k|    if (*begin == CharT{'L'}) {
  ------------------
  |  Branch (6927:9): [True: 9.36k, False: 32.2k]
  ------------------
 6928|  9.36k|        handler.on_localized();
 6929|  9.36k|        ++begin;
 6930|  9.36k|    }
 6931|  41.6k|    if (SCN_UNLIKELY(begin == end)) {
  ------------------
  |  |  859|  41.6k|#define SCN_UNLIKELY(x) __builtin_expect(!!(x), 0)
  |  |  ------------------
  |  |  |  Branch (859:25): [True: 0, False: 41.6k]
  |  |  ------------------
  ------------------
 6932|      0|        handler.on_error("Unexpected end of format string");
 6933|      0|        return begin;
 6934|      0|    }
 6935|       |
 6936|  41.6k|    if (begin != end && *begin != CharT{'}'}) {
  ------------------
  |  Branch (6936:9): [True: 41.6k, False: 0]
  |  Branch (6936:25): [True: 32.2k, False: 9.36k]
  ------------------
 6937|  32.2k|        do_presentation();
 6938|  32.2k|    }
 6939|  41.6k|    if (SCN_UNLIKELY(begin == end)) {
  ------------------
  |  |  859|  41.6k|#define SCN_UNLIKELY(x) __builtin_expect(!!(x), 0)
  |  |  ------------------
  |  |  |  Branch (859:25): [True: 0, False: 41.6k]
  |  |  ------------------
  ------------------
 6940|      0|        handler.on_error("Unexpected end of format string");
 6941|      0|        return begin;
 6942|      0|    }
 6943|       |
 6944|  41.6k|    return begin;
 6945|  41.6k|}
_ZN3scn2v36detail15is_ascii_letterIcEEbT_:
 6516|   369k|{
 6517|   369k|    return (ch >= CharT{'a'} && ch <= CharT{'z'}) ||
  ------------------
  |  Branch (6517:13): [True: 355k, False: 14.0k]
  |  Branch (6517:33): [True: 355k, False: 0]
  ------------------
 6518|   369k|           (ch >= CharT{'A'} && ch <= CharT{'Z'});
  ------------------
  |  Branch (6518:13): [True: 14.0k, False: 0]
  |  Branch (6518:33): [True: 14.0k, False: 0]
  ------------------
 6519|   369k|}
impl.cpp:_ZZN3scn2v36detail18parse_format_specsIcRNS1_13specs_checkerINS0_12_GLOBAL__N_113specs_handlerINS0_4impl29basic_contiguous_scan_contextIcEEEEEEEEPKT_SE_SE_OT0_ENKUlvE_clEv:
 6868|   253k|    auto do_presentation = [&]() -> const CharT* {
 6869|   253k|        if (*begin == CharT{'['}) {
  ------------------
  |  Branch (6869:13): [True: 13.5k, False: 239k]
  ------------------
 6870|  13.5k|            auto set = parse_presentation_set(begin, end, handler);
 6871|  13.5k|            if (SCN_UNLIKELY(set.size() <= 2)) {
  ------------------
  |  |  859|  13.5k|#define SCN_UNLIKELY(x) __builtin_expect(!!(x), 0)
  |  |  ------------------
  |  |  |  Branch (859:25): [True: 0, False: 13.5k]
  |  |  ------------------
  ------------------
 6872|       |                // clang-format off
 6873|      0|                handler.on_error("Invalid (empty) [character set] specifier in format string");
 6874|       |                // clang-format on
 6875|      0|                return begin;
 6876|      0|            }
 6877|  13.5k|            handler.on_character_set_string(set);
 6878|  13.5k|            return begin;
 6879|  13.5k|        }
 6880|   239k|        if (*begin == CharT{'/'}) {
  ------------------
  |  Branch (6880:13): [True: 0, False: 239k]
  ------------------
 6881|      0|            return parse_presentation_regex(begin, end, handler);
 6882|      0|        }
 6883|   239k|        presentation_type type = parse_presentation_type(*begin++);
 6884|   239k|        if (SCN_UNLIKELY(type == presentation_type::none)) {
  ------------------
  |  |  859|   239k|#define SCN_UNLIKELY(x) __builtin_expect(!!(x), 0)
  |  |  ------------------
  |  |  |  Branch (859:25): [True: 9.36k, False: 230k]
  |  |  ------------------
  ------------------
 6885|  9.36k|            handler.on_error("Invalid type specifier in format string");
 6886|  9.36k|            return begin;
 6887|  9.36k|        }
 6888|   230k|        handler.on_type(type);
 6889|   230k|        return begin;
 6890|   239k|    };
impl.cpp:_ZN3scn2v36detail22parse_presentation_setIcRNS1_13specs_checkerINS0_12_GLOBAL__N_113specs_handlerINS0_4impl29basic_contiguous_scan_contextIcEEEEEEEENSt3__117basic_string_viewIT_NSC_11char_traitsISE_EEEERPKSE_SJ_OT0_:
 6706|  13.5k|{
 6707|  13.5k|    SCN_EXPECT(begin != end);
  ------------------
  |  |  924|  13.5k|#define SCN_EXPECT(cond) SCN_ASSERT(cond, "Precondition violation")
  |  |  ------------------
  |  |  |  |  921|  13.5k|#define SCN_ASSERT(cond, msg) assert((cond) && msg)
  |  |  ------------------
  ------------------
 6708|  13.5k|    SCN_EXPECT(*begin == CharT{'['});
  ------------------
  |  |  924|  13.5k|#define SCN_EXPECT(cond) SCN_ASSERT(cond, "Precondition violation")
  |  |  ------------------
  |  |  |  |  921|  13.5k|#define SCN_ASSERT(cond, msg) assert((cond) && msg)
  |  |  ------------------
  ------------------
 6709|       |
 6710|  13.5k|    auto start = begin;
 6711|  13.5k|    ++begin;
 6712|       |
 6713|  13.5k|    if (SCN_UNLIKELY(begin == end)) {
  ------------------
  |  |  859|  13.5k|#define SCN_UNLIKELY(x) __builtin_expect(!!(x), 0)
  |  |  ------------------
  |  |  |  Branch (859:25): [True: 0, False: 13.5k]
  |  |  ------------------
  ------------------
 6714|       |        // clang-format off
 6715|      0|        handler.on_error("Unexpected end of [character set] specifier in format string");
 6716|       |        // clang-format on
 6717|      0|        return {};
 6718|      0|    }
 6719|  13.5k|    if (*begin == CharT{'^'}) {
  ------------------
  |  Branch (6719:9): [True: 0, False: 13.5k]
  ------------------
 6720|      0|        handler.on_charset_inverted();
 6721|      0|        ++begin;
 6722|      0|        if (SCN_UNLIKELY(begin == end)) {
  ------------------
  |  |  859|      0|#define SCN_UNLIKELY(x) __builtin_expect(!!(x), 0)
  |  |  ------------------
  |  |  |  Branch (859:25): [True: 0, False: 0]
  |  |  ------------------
  ------------------
 6723|       |            // clang-format off
 6724|      0|            handler.on_error("Unexpected end of [character set] specifier in format string");
 6725|       |            // clang-format on
 6726|      0|            return {};
 6727|      0|        }
 6728|      0|        if (*begin == CharT{']'}) {
  ------------------
  |  Branch (6728:13): [True: 0, False: 0]
  ------------------
 6729|      0|            handler.on_charset_single(char32_t{']'});
 6730|      0|            ++begin;
 6731|      0|        }
 6732|      0|    }
 6733|  13.5k|    else if (*begin == CharT{']'}) {
  ------------------
  |  Branch (6733:14): [True: 0, False: 13.5k]
  ------------------
 6734|      0|        return {start, static_cast<size_t>(std::distance(start, ++begin))};
 6735|      0|    }
 6736|       |
 6737|  40.5k|    while (begin != end) {
  ------------------
  |  Branch (6737:12): [True: 40.5k, False: 0]
  ------------------
 6738|  40.5k|        if (SCN_UNLIKELY(!handler)) {
  ------------------
  |  |  859|  40.5k|#define SCN_UNLIKELY(x) __builtin_expect(!!(x), 0)
  |  |  ------------------
  |  |  |  Branch (859:25): [True: 0, False: 40.5k]
  |  |  ------------------
  ------------------
 6739|      0|            break;
 6740|      0|        }
 6741|       |
 6742|  40.5k|        if (*begin == CharT{']'}) {
  ------------------
  |  Branch (6742:13): [True: 13.5k, False: 27.0k]
  ------------------
 6743|  13.5k|            return {start, static_cast<size_t>(std::distance(start, ++begin))};
 6744|  13.5k|        }
 6745|       |
 6746|  27.0k|        parse_presentation_set_literal(begin, end, handler);
 6747|  27.0k|    }
 6748|       |
 6749|      0|    SCN_UNLIKELY_ATTR
 6750|      0|    handler.on_error("Invalid [character set] specifier in format string");
 6751|      0|    return {};
 6752|  13.5k|}
impl.cpp:_ZN3scn2v36detail30parse_presentation_set_literalIcRNS1_13specs_checkerINS0_12_GLOBAL__N_113specs_handlerINS0_4impl29basic_contiguous_scan_contextIcEEEEEEEEvRPKT_SE_OT0_:
 6670|  27.0k|{
 6671|  27.0k|    SCN_EXPECT(begin != end);
  ------------------
  |  |  924|  27.0k|#define SCN_EXPECT(cond) SCN_ASSERT(cond, "Precondition violation")
  |  |  ------------------
  |  |  |  |  921|  27.0k|#define SCN_ASSERT(cond, msg) assert((cond) && msg)
  |  |  ------------------
  ------------------
 6672|       |
 6673|  27.0k|    auto cp_first = parse_presentation_set_code_point(begin, end, handler);
 6674|  27.0k|    if (SCN_UNLIKELY(cp_first >= invalid_code_point)) {
  ------------------
  |  |  859|  27.0k|#define SCN_UNLIKELY(x) __builtin_expect(!!(x), 0)
  |  |  ------------------
  |  |  |  Branch (859:25): [True: 0, False: 27.0k]
  |  |  ------------------
  ------------------
 6675|      0|        return;
 6676|      0|    }
 6677|       |
 6678|  27.0k|    if (begin != end && *begin == CharT{'-'} && (begin + 1) != end &&
  ------------------
  |  Branch (6678:9): [True: 27.0k, False: 0]
  |  Branch (6678:25): [True: 27.0k, False: 0]
  |  Branch (6678:49): [True: 27.0k, False: 0]
  ------------------
 6679|  27.0k|        *(begin + 1) != CharT{']'}) {
  ------------------
  |  Branch (6679:9): [True: 27.0k, False: 0]
  ------------------
 6680|  27.0k|        ++begin;
 6681|       |
 6682|  27.0k|        auto cp_second = parse_presentation_set_code_point(begin, end, handler);
 6683|  27.0k|        if (SCN_UNLIKELY(cp_second >= invalid_code_point)) {
  ------------------
  |  |  859|  27.0k|#define SCN_UNLIKELY(x) __builtin_expect(!!(x), 0)
  |  |  ------------------
  |  |  |  Branch (859:25): [True: 0, False: 27.0k]
  |  |  ------------------
  ------------------
 6684|      0|            return;
 6685|      0|        }
 6686|       |
 6687|  27.0k|        if (SCN_UNLIKELY(cp_second < cp_first)) {
  ------------------
  |  |  859|  27.0k|#define SCN_UNLIKELY(x) __builtin_expect(!!(x), 0)
  |  |  ------------------
  |  |  |  Branch (859:25): [True: 0, False: 27.0k]
  |  |  ------------------
  ------------------
 6688|       |            // clang-format off
 6689|      0|            handler.on_error("Invalid range in [character set] format string argument: Range end before the beginning");
 6690|       |            // clang-format on
 6691|      0|            return;
 6692|      0|        }
 6693|       |
 6694|  27.0k|        handler.on_charset_range(cp_first, cp_second + 1);
 6695|  27.0k|        return;
 6696|  27.0k|    }
 6697|       |
 6698|      0|    handler.on_charset_single(cp_first);
 6699|      0|}
impl.cpp:_ZN3scn2v36detail33parse_presentation_set_code_pointIcRNS1_13specs_checkerINS0_12_GLOBAL__N_113specs_handlerINS0_4impl29basic_contiguous_scan_contextIcEEEEEEEEDiRPKT_SE_OT0_:
 6646|  54.0k|{
 6647|  54.0k|    SCN_EXPECT(begin != end);
  ------------------
  |  |  924|  54.0k|#define SCN_EXPECT(cond) SCN_ASSERT(cond, "Precondition violation")
  |  |  ------------------
  |  |  |  |  921|  54.0k|#define SCN_ASSERT(cond, msg) assert((cond) && msg)
  |  |  ------------------
  ------------------
 6648|       |
 6649|  54.0k|    auto len = code_point_length_by_starting_code_unit(*begin);
 6650|  54.0k|    if (SCN_UNLIKELY(len == 0 || static_cast<size_t>(end - begin) < len)) {
  ------------------
  |  |  859|   108k|#define SCN_UNLIKELY(x) __builtin_expect(!!(x), 0)
  |  |  ------------------
  |  |  |  Branch (859:25): [True: 0, False: 54.0k]
  |  |  |  Branch (859:45): [True: 0, False: 54.0k]
  |  |  |  Branch (859:45): [True: 0, False: 54.0k]
  |  |  ------------------
  ------------------
 6651|      0|        handler.on_error("Invalid encoding in format string");
 6652|      0|        return invalid_code_point;
 6653|      0|    }
 6654|       |
 6655|  54.0k|    const auto cp =
 6656|  54.0k|        decode_code_point_exhaustive(std::basic_string_view<CharT>{begin, len});
 6657|  54.0k|    if (SCN_UNLIKELY(cp >= invalid_code_point)) {
  ------------------
  |  |  859|  54.0k|#define SCN_UNLIKELY(x) __builtin_expect(!!(x), 0)
  |  |  ------------------
  |  |  |  Branch (859:25): [True: 0, False: 54.0k]
  |  |  ------------------
  ------------------
 6658|      0|        handler.on_error("Invalid encoding in format string");
 6659|      0|        return invalid_code_point;
 6660|      0|    }
 6661|       |
 6662|  54.0k|    begin += len;
 6663|  54.0k|    return cp;
 6664|  54.0k|}
_ZN3scn2v36detail12specs_setter23on_character_set_stringIcEEvNSt3__117basic_string_viewIT_NS4_11char_traitsIS6_EEEE:
 6355|  20.2k|    {
 6356|  20.2k|        m_specs.charset_string_data = fmt.data();
 6357|  20.2k|        m_specs.charset_string_size = fmt.size();
 6358|  20.2k|        on_type(presentation_type::string_set);
 6359|  20.2k|    }
_ZN3scn2v36detail23parse_presentation_typeIcEENS1_17presentation_typeET_:
 6464|   383k|{
 6465|   383k|    switch (type) {
 6466|      0|        case 'b':
  ------------------
  |  Branch (6466:9): [True: 0, False: 383k]
  ------------------
 6467|      0|        case 'B':
  ------------------
  |  Branch (6467:9): [True: 0, False: 383k]
  ------------------
 6468|      0|            return presentation_type::int_binary;
 6469|      0|        case 'd':
  ------------------
  |  Branch (6469:9): [True: 0, False: 383k]
  ------------------
 6470|      0|            return presentation_type::int_decimal;
 6471|      0|        case 'i':
  ------------------
  |  Branch (6471:9): [True: 0, False: 383k]
  ------------------
 6472|      0|            return presentation_type::int_generic;
 6473|      0|        case 'u':
  ------------------
  |  Branch (6473:9): [True: 0, False: 383k]
  ------------------
 6474|      0|            return presentation_type::int_unsigned_decimal;
 6475|      0|        case 'o':
  ------------------
  |  Branch (6475:9): [True: 0, False: 383k]
  ------------------
 6476|      0|            return presentation_type::int_octal;
 6477|      0|        case 'x':
  ------------------
  |  Branch (6477:9): [True: 0, False: 383k]
  ------------------
 6478|      0|        case 'X':
  ------------------
  |  Branch (6478:9): [True: 0, False: 383k]
  ------------------
 6479|      0|            return presentation_type::int_hex;
 6480|      0|        case 'r':
  ------------------
  |  Branch (6480:9): [True: 0, False: 383k]
  ------------------
 6481|      0|        case 'R':
  ------------------
  |  Branch (6481:9): [True: 0, False: 383k]
  ------------------
 6482|      0|            return presentation_type::int_arbitrary_base;
 6483|      0|        case 'a':
  ------------------
  |  Branch (6483:9): [True: 0, False: 383k]
  ------------------
 6484|      0|        case 'A':
  ------------------
  |  Branch (6484:9): [True: 0, False: 383k]
  ------------------
 6485|      0|            return presentation_type::float_hex;
 6486|      0|        case 'e':
  ------------------
  |  Branch (6486:9): [True: 0, False: 383k]
  ------------------
 6487|      0|        case 'E':
  ------------------
  |  Branch (6487:9): [True: 0, False: 383k]
  ------------------
 6488|      0|            return presentation_type::float_scientific;
 6489|      0|        case 'f':
  ------------------
  |  Branch (6489:9): [True: 0, False: 383k]
  ------------------
 6490|      0|        case 'F':
  ------------------
  |  Branch (6490:9): [True: 0, False: 383k]
  ------------------
 6491|      0|            return presentation_type::float_fixed;
 6492|      0|        case 'g':
  ------------------
  |  Branch (6492:9): [True: 0, False: 383k]
  ------------------
 6493|      0|        case 'G':
  ------------------
  |  Branch (6493:9): [True: 0, False: 383k]
  ------------------
 6494|      0|            return presentation_type::float_general;
 6495|   355k|        case 's':
  ------------------
  |  Branch (6495:9): [True: 355k, False: 28.0k]
  ------------------
 6496|   355k|            return presentation_type::string;
 6497|  14.0k|        case 'c':
  ------------------
  |  Branch (6497:9): [True: 14.0k, False: 369k]
  ------------------
 6498|  14.0k|            return presentation_type::character;
 6499|      0|        case '?':
  ------------------
  |  Branch (6499:9): [True: 0, False: 383k]
  ------------------
 6500|      0|            return presentation_type::escaped_character;
 6501|      0|        case 'p':
  ------------------
  |  Branch (6501:9): [True: 0, False: 383k]
  ------------------
 6502|      0|            return presentation_type::pointer;
 6503|      0|        case '[':
  ------------------
  |  Branch (6503:9): [True: 0, False: 383k]
  ------------------
 6504|      0|        case '/':
  ------------------
  |  Branch (6504:9): [True: 0, False: 383k]
  ------------------
 6505|       |            // Should be handled by parse_presentation_set and
 6506|       |            // parse_presentation_regex
 6507|      0|            SCN_EXPECT(false);
  ------------------
  |  |  924|      0|#define SCN_EXPECT(cond) SCN_ASSERT(cond, "Precondition violation")
  |  |  ------------------
  |  |  |  |  921|      0|#define SCN_ASSERT(cond, msg) assert((cond) && msg)
  |  |  ------------------
  ------------------
 6508|      0|            SCN_UNREACHABLE;
  ------------------
  |  |  887|      0|#define SCN_UNREACHABLE __builtin_unreachable()
  ------------------
 6509|  14.0k|        default:
  ------------------
  |  Branch (6509:9): [True: 14.0k, False: 369k]
  ------------------
 6510|  14.0k|            return presentation_type::none;
 6511|   383k|    }
 6512|   383k|}
impl.cpp:_ZN3scn2v36detail11parse_alignIcRNS1_13specs_checkerINS0_12_GLOBAL__N_113specs_handlerINS0_4impl29basic_contiguous_scan_contextIcEEEEEEEEPKT_SE_SE_OT0_:
 6541|  41.6k|{
 6542|  41.6k|    SCN_EXPECT(begin != end);
  ------------------
  |  |  924|  41.6k|#define SCN_EXPECT(cond) SCN_ASSERT(cond, "Precondition violation")
  |  |  ------------------
  |  |  |  |  921|  41.6k|#define SCN_ASSERT(cond, msg) assert((cond) && msg)
  |  |  ------------------
  ------------------
 6543|       |
 6544|  41.6k|    auto check_align = [](wchar_t ch) {
 6545|  41.6k|        switch (ch) {
 6546|  41.6k|            case L'<':
 6547|  41.6k|                return align_type::left;
 6548|  41.6k|            case L'>':
 6549|  41.6k|                return align_type::right;
 6550|  41.6k|            case L'^':
 6551|  41.6k|                return align_type::center;
 6552|  41.6k|            default:
 6553|  41.6k|                return align_type::none;
 6554|  41.6k|        }
 6555|  41.6k|    };
 6556|       |
 6557|  41.6k|    auto potential_fill_len = code_point_length(begin, end);
 6558|  41.6k|    if (SCN_UNLIKELY(potential_fill_len == 0 ||
  ------------------
  |  |  859|  83.2k|#define SCN_UNLIKELY(x) __builtin_expect(!!(x), 0)
  |  |  ------------------
  |  |  |  Branch (859:25): [True: 0, False: 41.6k]
  |  |  |  Branch (859:45): [True: 0, False: 41.6k]
  |  |  |  Branch (859:45): [True: 0, False: 41.6k]
  |  |  ------------------
  ------------------
 6559|  41.6k|                     std::distance(begin, end) < potential_fill_len)) {
 6560|      0|        handler.on_error("Invalid encoding in fill character");
 6561|      0|        return begin;
 6562|      0|    }
 6563|       |
 6564|  41.6k|    auto potential_align_on_fill = check_align(static_cast<wchar_t>(*begin));
 6565|       |
 6566|  41.6k|    auto potential_fill = std::basic_string_view<CharT>{
 6567|  41.6k|        begin, static_cast<size_t>(potential_fill_len)};
 6568|  41.6k|    const auto begin_before_fill = begin;
 6569|  41.6k|    begin += potential_fill_len;
 6570|       |
 6571|  41.6k|    if (begin == end) {
  ------------------
  |  Branch (6571:9): [True: 0, False: 41.6k]
  ------------------
 6572|      0|        return begin_before_fill;
 6573|      0|    }
 6574|       |
 6575|  41.6k|    auto potential_align_after_fill = check_align(static_cast<wchar_t>(*begin));
 6576|  41.6k|    const auto begin_after_fill = begin;
 6577|  41.6k|    ++begin;
 6578|       |
 6579|  41.6k|    if (potential_fill_len == 1) {
  ------------------
  |  Branch (6579:9): [True: 41.6k, False: 0]
  ------------------
 6580|  41.6k|        if (SCN_UNLIKELY(potential_fill[0] == '{')) {
  ------------------
  |  |  859|  41.6k|#define SCN_UNLIKELY(x) __builtin_expect(!!(x), 0)
  |  |  ------------------
  |  |  |  Branch (859:25): [True: 0, False: 41.6k]
  |  |  ------------------
  ------------------
 6581|      0|            handler.on_error("Invalid fill character '{' in format string");
 6582|      0|            return begin;
 6583|      0|        }
 6584|  41.6k|        if (potential_fill[0] == '[') {
  ------------------
  |  Branch (6584:13): [True: 13.5k, False: 28.0k]
  ------------------
 6585|  13.5k|            return begin_before_fill;
 6586|  13.5k|        }
 6587|  41.6k|    }
 6588|       |
 6589|  28.0k|    if (potential_align_after_fill == align_type::none) {
  ------------------
  |  Branch (6589:9): [True: 28.0k, False: 0]
  ------------------
 6590|  28.0k|        if (potential_align_on_fill != align_type::none) {
  ------------------
  |  Branch (6590:13): [True: 0, False: 28.0k]
  ------------------
 6591|      0|            handler.on_align(potential_align_on_fill);
 6592|      0|            return begin_after_fill;
 6593|      0|        }
 6594|  28.0k|        return begin_before_fill;
 6595|  28.0k|    }
 6596|       |
 6597|      0|    handler.on_fill(potential_fill);
 6598|      0|    handler.on_align(potential_align_after_fill);
 6599|      0|    return begin;
 6600|  28.0k|}
_ZN3scn2v36detail17code_point_lengthIcEEiPKT_S5_:
 6523|  62.4k|{
 6524|  62.4k|    SCN_EXPECT(begin != end);
  ------------------
  |  |  924|  62.4k|#define SCN_EXPECT(cond) SCN_ASSERT(cond, "Precondition violation")
  |  |  ------------------
  |  |  |  |  921|  62.4k|#define SCN_ASSERT(cond, msg) assert((cond) && msg)
  |  |  ------------------
  ------------------
 6525|       |    if constexpr (sizeof(CharT) != 1) {
 6526|       |        return 1;
 6527|       |    }
 6528|  62.4k|    else {
 6529|  62.4k|        const auto lengths =
 6530|  62.4k|            "\1\1\1\1\1\1\1\1\1\1\1\1\1\1\1\1\0\0\0\0\0\0\0\0\2\2\2\2\3"
 6531|  62.4k|            "\3\4";
 6532|  62.4k|        const int len = lengths[static_cast<unsigned char>(*begin) >> 3];
 6533|  62.4k|        return len;
 6534|  62.4k|    }
 6535|  62.4k|}
impl.cpp:_ZZN3scn2v36detail11parse_alignIcRNS1_13specs_checkerINS0_12_GLOBAL__N_113specs_handlerINS0_4impl29basic_contiguous_scan_contextIcEEEEEEEEPKT_SE_SE_OT0_ENKUlwE_clEw:
 6544|  83.2k|    auto check_align = [](wchar_t ch) {
 6545|  83.2k|        switch (ch) {
 6546|      0|            case L'<':
  ------------------
  |  Branch (6546:13): [True: 0, False: 83.2k]
  ------------------
 6547|      0|                return align_type::left;
 6548|      0|            case L'>':
  ------------------
  |  Branch (6548:13): [True: 0, False: 83.2k]
  ------------------
 6549|      0|                return align_type::right;
 6550|      0|            case L'^':
  ------------------
  |  Branch (6550:13): [True: 0, False: 83.2k]
  ------------------
 6551|      0|                return align_type::center;
 6552|  83.2k|            default:
  ------------------
  |  Branch (6552:13): [True: 83.2k, False: 0]
  ------------------
 6553|  83.2k|                return align_type::none;
 6554|  83.2k|        }
 6555|  83.2k|    };
impl.cpp:_ZN3scn2v36detail11parse_widthIcRNS1_13specs_checkerINS0_12_GLOBAL__N_113specs_handlerINS0_4impl29basic_contiguous_scan_contextIcEEEEEEEEPKT_SE_SE_OT0_:
 6606|  41.6k|{
 6607|  41.6k|    SCN_EXPECT(begin != end);
  ------------------
  |  |  924|  41.6k|#define SCN_EXPECT(cond) SCN_ASSERT(cond, "Precondition violation")
  |  |  ------------------
  |  |  |  |  921|  41.6k|#define SCN_ASSERT(cond, msg) assert((cond) && msg)
  |  |  ------------------
  ------------------
 6608|       |
 6609|  41.6k|    if (*begin >= CharT{'0'} && *begin <= CharT{'9'}) {
  ------------------
  |  Branch (6609:9): [True: 41.6k, False: 0]
  |  Branch (6609:33): [True: 18.7k, False: 22.8k]
  ------------------
 6610|  18.7k|        int width = parse_simple_int(begin, end);
 6611|  18.7k|        if (SCN_LIKELY(width != -1)) {
  ------------------
  |  |  858|  18.7k|#define SCN_LIKELY(x)   __builtin_expect(!!(x), 1)
  |  |  ------------------
  |  |  |  Branch (858:25): [True: 18.7k, False: 0]
  |  |  ------------------
  ------------------
 6612|  18.7k|            handler.on_width(width);
 6613|  18.7k|        }
 6614|      0|        else {
 6615|      0|            handler.on_error("Invalid field width");
 6616|      0|            return begin;
 6617|      0|        }
 6618|  18.7k|    }
 6619|  41.6k|    return begin;
 6620|  41.6k|}
impl.cpp:_ZN3scn2v36detail13specs_checkerINS0_12_GLOBAL__N_113specs_handlerINS0_4impl29basic_contiguous_scan_contextIcEEEEE12on_localizedEv:
 7136|  9.36k|    {
 7137|  9.36k|        const auto cat = get_category_for_arg_type(m_arg_type);
 7138|  9.36k|        if (cat != arg_type_category::integer &&
  ------------------
  |  Branch (7138:13): [True: 9.36k, False: 0]
  ------------------
 7139|  9.36k|            cat != arg_type_category::unsigned_integer &&
  ------------------
  |  Branch (7139:13): [True: 9.36k, False: 0]
  ------------------
 7140|  9.36k|            cat != arg_type_category::floating &&
  ------------------
  |  Branch (7140:13): [True: 9.36k, False: 0]
  ------------------
 7141|  9.36k|            cat != arg_type_category::boolean) {
  ------------------
  |  Branch (7141:13): [True: 9.36k, False: 0]
  ------------------
 7142|  9.36k|            SCN_UNLIKELY_ATTR
 7143|       |            // clang-format off
 7144|  9.36k|            return this->on_error("'L' specifier can only be used with arguments of integer, floating-point, or boolean types");
 7145|       |            // clang-format on
 7146|  9.36k|        }
 7147|       |
 7148|      0|        Handler::on_localized();
 7149|      0|    }
_ZN3scn2v314visit_scan_argINS0_4impl10arg_readerINS2_29basic_contiguous_scan_contextIcEEEENS0_18basic_scan_contextIcEEEEDcOT_RNS0_14basic_scan_argIT0_EE:
 8426|   243k|{
 8427|   243k|#define SCN_VISIT(Type)                                         \
 8428|   243k|    if constexpr (!detail::is_type_disabled<Type>) {            \
 8429|   243k|        return vis(*static_cast<Type*>(arg.m_value.ref_value)); \
 8430|   243k|    }                                                           \
 8431|   243k|    else {                                                      \
 8432|   243k|        return vis(monostate_val);                              \
 8433|   243k|    }
 8434|       |
 8435|   243k|    monostate monostate_val{};
 8436|       |
 8437|   243k|    switch (arg.m_type) {
 8438|      0|        case detail::arg_type::schar_type:
  ------------------
  |  Branch (8438:9): [True: 0, False: 243k]
  ------------------
 8439|      0|            SCN_VISIT(signed char);
  ------------------
  |  | 8428|      0|    if constexpr (!detail::is_type_disabled<Type>) {            \
  |  | 8429|      0|        return vis(*static_cast<Type*>(arg.m_value.ref_value)); \
  |  | 8430|      0|    }                                                           \
  |  | 8431|      0|    else {                                                      \
  |  | 8432|      0|        return vis(monostate_val);                              \
  |  | 8433|      0|    }
  ------------------
 8440|      0|        case detail::arg_type::short_type:
  ------------------
  |  Branch (8440:9): [True: 0, False: 243k]
  ------------------
 8441|      0|            SCN_VISIT(short);
  ------------------
  |  | 8428|      0|    if constexpr (!detail::is_type_disabled<Type>) {            \
  |  | 8429|      0|        return vis(*static_cast<Type*>(arg.m_value.ref_value)); \
  |  | 8430|      0|    }                                                           \
  |  | 8431|      0|    else {                                                      \
  |  | 8432|      0|        return vis(monostate_val);                              \
  |  | 8433|      0|    }
  ------------------
 8442|      0|        case detail::arg_type::int_type:
  ------------------
  |  Branch (8442:9): [True: 0, False: 243k]
  ------------------
 8443|      0|            SCN_VISIT(int);
  ------------------
  |  | 8428|      0|    if constexpr (!detail::is_type_disabled<Type>) {            \
  |  | 8429|      0|        return vis(*static_cast<Type*>(arg.m_value.ref_value)); \
  |  | 8430|      0|    }                                                           \
  |  | 8431|      0|    else {                                                      \
  |  | 8432|      0|        return vis(monostate_val);                              \
  |  | 8433|      0|    }
  ------------------
 8444|      0|        case detail::arg_type::long_type:
  ------------------
  |  Branch (8444:9): [True: 0, False: 243k]
  ------------------
 8445|      0|            SCN_VISIT(long);
  ------------------
  |  | 8428|      0|    if constexpr (!detail::is_type_disabled<Type>) {            \
  |  | 8429|      0|        return vis(*static_cast<Type*>(arg.m_value.ref_value)); \
  |  | 8430|      0|    }                                                           \
  |  | 8431|      0|    else {                                                      \
  |  | 8432|      0|        return vis(monostate_val);                              \
  |  | 8433|      0|    }
  ------------------
 8446|      0|        case detail::arg_type::llong_type:
  ------------------
  |  Branch (8446:9): [True: 0, False: 243k]
  ------------------
 8447|      0|            SCN_VISIT(long long);
  ------------------
  |  | 8428|      0|    if constexpr (!detail::is_type_disabled<Type>) {            \
  |  | 8429|      0|        return vis(*static_cast<Type*>(arg.m_value.ref_value)); \
  |  | 8430|      0|    }                                                           \
  |  | 8431|      0|    else {                                                      \
  |  | 8432|      0|        return vis(monostate_val);                              \
  |  | 8433|      0|    }
  ------------------
 8448|      0|        case detail::arg_type::uchar_type:
  ------------------
  |  Branch (8448:9): [True: 0, False: 243k]
  ------------------
 8449|      0|            SCN_VISIT(unsigned char);
  ------------------
  |  | 8428|      0|    if constexpr (!detail::is_type_disabled<Type>) {            \
  |  | 8429|      0|        return vis(*static_cast<Type*>(arg.m_value.ref_value)); \
  |  | 8430|      0|    }                                                           \
  |  | 8431|      0|    else {                                                      \
  |  | 8432|      0|        return vis(monostate_val);                              \
  |  | 8433|      0|    }
  ------------------
 8450|      0|        case detail::arg_type::ushort_type:
  ------------------
  |  Branch (8450:9): [True: 0, False: 243k]
  ------------------
 8451|      0|            SCN_VISIT(unsigned short);
  ------------------
  |  | 8428|      0|    if constexpr (!detail::is_type_disabled<Type>) {            \
  |  | 8429|      0|        return vis(*static_cast<Type*>(arg.m_value.ref_value)); \
  |  | 8430|      0|    }                                                           \
  |  | 8431|      0|    else {                                                      \
  |  | 8432|      0|        return vis(monostate_val);                              \
  |  | 8433|      0|    }
  ------------------
 8452|      0|        case detail::arg_type::uint_type:
  ------------------
  |  Branch (8452:9): [True: 0, False: 243k]
  ------------------
 8453|      0|            SCN_VISIT(unsigned);
  ------------------
  |  | 8428|      0|    if constexpr (!detail::is_type_disabled<Type>) {            \
  |  | 8429|      0|        return vis(*static_cast<Type*>(arg.m_value.ref_value)); \
  |  | 8430|      0|    }                                                           \
  |  | 8431|      0|    else {                                                      \
  |  | 8432|      0|        return vis(monostate_val);                              \
  |  | 8433|      0|    }
  ------------------
 8454|      0|        case detail::arg_type::ulong_type:
  ------------------
  |  Branch (8454:9): [True: 0, False: 243k]
  ------------------
 8455|      0|            SCN_VISIT(unsigned long);
  ------------------
  |  | 8428|      0|    if constexpr (!detail::is_type_disabled<Type>) {            \
  |  | 8429|      0|        return vis(*static_cast<Type*>(arg.m_value.ref_value)); \
  |  | 8430|      0|    }                                                           \
  |  | 8431|      0|    else {                                                      \
  |  | 8432|      0|        return vis(monostate_val);                              \
  |  | 8433|      0|    }
  ------------------
 8456|      0|        case detail::arg_type::ullong_type:
  ------------------
  |  Branch (8456:9): [True: 0, False: 243k]
  ------------------
 8457|      0|            SCN_VISIT(unsigned long long);
  ------------------
  |  | 8428|      0|    if constexpr (!detail::is_type_disabled<Type>) {            \
  |  | 8429|      0|        return vis(*static_cast<Type*>(arg.m_value.ref_value)); \
  |  | 8430|      0|    }                                                           \
  |  | 8431|      0|    else {                                                      \
  |  | 8432|      0|        return vis(monostate_val);                              \
  |  | 8433|      0|    }
  ------------------
 8458|      0|        case detail::arg_type::pointer_type:
  ------------------
  |  Branch (8458:9): [True: 0, False: 243k]
  ------------------
 8459|      0|            SCN_VISIT(void*);
  ------------------
  |  | 8428|      0|    if constexpr (!detail::is_type_disabled<Type>) {            \
  |  | 8429|      0|        return vis(*static_cast<Type*>(arg.m_value.ref_value)); \
  |  | 8430|      0|    }                                                           \
  |  | 8431|      0|    else {                                                      \
  |  | 8432|      0|        return vis(monostate_val);                              \
  |  | 8433|      0|    }
  ------------------
 8460|      0|        case detail::arg_type::bool_type:
  ------------------
  |  Branch (8460:9): [True: 0, False: 243k]
  ------------------
 8461|      0|            SCN_VISIT(bool);
  ------------------
  |  | 8428|      0|    if constexpr (!detail::is_type_disabled<Type>) {            \
  |  | 8429|      0|        return vis(*static_cast<Type*>(arg.m_value.ref_value)); \
  |  | 8430|      0|    }                                                           \
  |  | 8431|      0|    else {                                                      \
  |  | 8432|      0|        return vis(monostate_val);                              \
  |  | 8433|      0|    }
  ------------------
 8462|      0|        case detail::arg_type::narrow_character_type:
  ------------------
  |  Branch (8462:9): [True: 0, False: 243k]
  ------------------
 8463|      0|            SCN_VISIT(char);
  ------------------
  |  | 8428|      0|    if constexpr (!detail::is_type_disabled<Type>) {            \
  |  | 8429|      0|        return vis(*static_cast<Type*>(arg.m_value.ref_value)); \
  |  | 8430|      0|    }                                                           \
  |  | 8431|      0|    else {                                                      \
  |  | 8432|      0|        return vis(monostate_val);                              \
  |  | 8433|      0|    }
  ------------------
 8464|      0|        case detail::arg_type::wide_character_type:
  ------------------
  |  Branch (8464:9): [True: 0, False: 243k]
  ------------------
 8465|      0|            SCN_VISIT(wchar_t);
  ------------------
  |  | 8428|      0|    if constexpr (!detail::is_type_disabled<Type>) {            \
  |  | 8429|      0|        return vis(*static_cast<Type*>(arg.m_value.ref_value)); \
  |  | 8430|      0|    }                                                           \
  |  | 8431|      0|    else {                                                      \
  |  | 8432|      0|        return vis(monostate_val);                              \
  |  | 8433|      0|    }
  ------------------
 8466|      0|        case detail::arg_type::code_point_type:
  ------------------
  |  Branch (8466:9): [True: 0, False: 243k]
  ------------------
 8467|      0|            SCN_VISIT(char32_t);
  ------------------
  |  | 8428|      0|    if constexpr (!detail::is_type_disabled<Type>) {            \
  |  | 8429|      0|        return vis(*static_cast<Type*>(arg.m_value.ref_value)); \
  |  | 8430|      0|    }                                                           \
  |  | 8431|      0|    else {                                                      \
  |  | 8432|      0|        return vis(monostate_val);                              \
  |  | 8433|      0|    }
  ------------------
 8468|      0|        case detail::arg_type::float_type:
  ------------------
  |  Branch (8468:9): [True: 0, False: 243k]
  ------------------
 8469|      0|            SCN_VISIT(float);
  ------------------
  |  | 8428|      0|    if constexpr (!detail::is_type_disabled<Type>) {            \
  |  | 8429|      0|        return vis(*static_cast<Type*>(arg.m_value.ref_value)); \
  |  | 8430|      0|    }                                                           \
  |  | 8431|      0|    else {                                                      \
  |  | 8432|      0|        return vis(monostate_val);                              \
  |  | 8433|      0|    }
  ------------------
 8470|      0|        case detail::arg_type::double_type:
  ------------------
  |  Branch (8470:9): [True: 0, False: 243k]
  ------------------
 8471|      0|            SCN_VISIT(double);
  ------------------
  |  | 8428|      0|    if constexpr (!detail::is_type_disabled<Type>) {            \
  |  | 8429|      0|        return vis(*static_cast<Type*>(arg.m_value.ref_value)); \
  |  | 8430|      0|    }                                                           \
  |  | 8431|      0|    else {                                                      \
  |  | 8432|      0|        return vis(monostate_val);                              \
  |  | 8433|      0|    }
  ------------------
 8472|      0|        case detail::arg_type::ldouble_type:
  ------------------
  |  Branch (8472:9): [True: 0, False: 243k]
  ------------------
 8473|      0|            SCN_VISIT(long double);
  ------------------
  |  | 8428|      0|    if constexpr (!detail::is_type_disabled<Type>) {            \
  |  | 8429|      0|        return vis(*static_cast<Type*>(arg.m_value.ref_value)); \
  |  | 8430|      0|    }                                                           \
  |  | 8431|      0|    else {                                                      \
  |  | 8432|      0|        return vis(monostate_val);                              \
  |  | 8433|      0|    }
  ------------------
 8474|   121k|        case detail::arg_type::narrow_string_view_type:
  ------------------
  |  Branch (8474:9): [True: 121k, False: 121k]
  ------------------
 8475|   121k|            SCN_VISIT(std::string_view);
  ------------------
  |  | 8428|   121k|    if constexpr (!detail::is_type_disabled<Type>) {            \
  |  | 8429|   121k|        return vis(*static_cast<Type*>(arg.m_value.ref_value)); \
  |  | 8430|   121k|    }                                                           \
  |  | 8431|   121k|    else {                                                      \
  |  | 8432|   121k|        return vis(monostate_val);                              \
  |  | 8433|   121k|    }
  ------------------
 8476|   243k|        case detail::arg_type::narrow_string_type:
  ------------------
  |  Branch (8476:9): [True: 121k, False: 121k]
  ------------------
 8477|   243k|            SCN_VISIT(std::string);
  ------------------
  |  | 8428|   243k|    if constexpr (!detail::is_type_disabled<Type>) {            \
  |  | 8429|   243k|        return vis(*static_cast<Type*>(arg.m_value.ref_value)); \
  |  | 8430|   243k|    }                                                           \
  |  | 8431|   243k|    else {                                                      \
  |  | 8432|   243k|        return vis(monostate_val);                              \
  |  | 8433|   243k|    }
  ------------------
 8478|   243k|        case detail::arg_type::wide_string_view_type:
  ------------------
  |  Branch (8478:9): [True: 0, False: 243k]
  ------------------
 8479|   243k|            SCN_VISIT(std::wstring_view);
  ------------------
  |  | 8428|   243k|    if constexpr (!detail::is_type_disabled<Type>) {            \
  |  | 8429|   243k|        return vis(*static_cast<Type*>(arg.m_value.ref_value)); \
  |  | 8430|   243k|    }                                                           \
  |  | 8431|   243k|    else {                                                      \
  |  | 8432|   243k|        return vis(monostate_val);                              \
  |  | 8433|   243k|    }
  ------------------
 8480|   243k|        case detail::arg_type::wide_string_type:
  ------------------
  |  Branch (8480:9): [True: 0, False: 243k]
  ------------------
 8481|   243k|            SCN_VISIT(std::wstring);
  ------------------
  |  | 8428|   243k|    if constexpr (!detail::is_type_disabled<Type>) {            \
  |  | 8429|   243k|        return vis(*static_cast<Type*>(arg.m_value.ref_value)); \
  |  | 8430|   243k|    }                                                           \
  |  | 8431|   243k|    else {                                                      \
  |  | 8432|   243k|        return vis(monostate_val);                              \
  |  | 8433|   243k|    }
  ------------------
 8482|   243k|        case detail::arg_type::narrow_regex_matches_type:
  ------------------
  |  Branch (8482:9): [True: 0, False: 243k]
  ------------------
 8483|   243k|            SCN_VISIT(regex_matches);
  ------------------
  |  | 8428|   243k|    if constexpr (!detail::is_type_disabled<Type>) {            \
  |  | 8429|   243k|        return vis(*static_cast<Type*>(arg.m_value.ref_value)); \
  |  | 8430|   243k|    }                                                           \
  |  | 8431|   243k|    else {                                                      \
  |  | 8432|   243k|        return vis(monostate_val);                              \
  |  | 8433|   243k|    }
  ------------------
 8484|   243k|        case detail::arg_type::wide_regex_matches_type:
  ------------------
  |  Branch (8484:9): [True: 0, False: 243k]
  ------------------
 8485|   243k|            SCN_VISIT(wregex_matches);
  ------------------
  |  | 8428|   243k|    if constexpr (!detail::is_type_disabled<Type>) {            \
  |  | 8429|   243k|        return vis(*static_cast<Type*>(arg.m_value.ref_value)); \
  |  | 8430|   243k|    }                                                           \
  |  | 8431|   243k|    else {                                                      \
  |  | 8432|   243k|        return vis(monostate_val);                              \
  |  | 8433|   243k|    }
  ------------------
 8486|       |
 8487|   243k|        case detail::arg_type::custom_type:
  ------------------
  |  Branch (8487:9): [True: 0, False: 243k]
  ------------------
 8488|   243k|#if !SCN_DISABLE_TYPE_CUSTOM
 8489|   243k|            return vis(
 8490|   243k|                typename Ctx::arg_type::handle(arg.m_value.custom_value));
 8491|       |#else
 8492|       |            return vis(monostate_val);
 8493|       |#endif
 8494|       |
 8495|      0|            SCN_CLANG_PUSH
 8496|      0|            SCN_CLANG_IGNORE("-Wcovered-switch-default")
 8497|       |
 8498|      0|            SCN_UNLIKELY_ATTR
 8499|      0|        case detail::arg_type::none_type:
  ------------------
  |  Branch (8499:9): [True: 0, False: 243k]
  ------------------
 8500|      0|        default: {
  ------------------
  |  Branch (8500:9): [True: 0, False: 243k]
  ------------------
 8501|      0|            return vis(monostate_val);
 8502|      0|        }
 8503|       |
 8504|   243k|            SCN_CLANG_POP
 8505|   243k|    }
 8506|       |
 8507|      0|#undef SCN_VISIT
 8508|       |
 8509|      0|    SCN_ENSURE(false);
  ------------------
  |  |  925|      0|#define SCN_ENSURE(cond) SCN_ASSERT(cond, "Postcondition violation")
  |  |  ------------------
  |  |  |  |  921|      0|#define SCN_ASSERT(cond, msg) assert((cond) && msg)
  |  |  ------------------
  ------------------
 8510|      0|    SCN_UNREACHABLE;
  ------------------
  |  |  887|      0|#define SCN_UNREACHABLE __builtin_unreachable()
  ------------------
 8511|      0|}
impl.cpp:_ZN3scn2v36detail19parse_format_stringILb0EcRNS0_12_GLOBAL__N_114format_handlerILb0EcEEEENS0_10scan_errorENSt3__117basic_string_viewIT0_NS8_11char_traitsISA_EEEEOT1_:
 7053|   155k|{
 7054|   155k|    parse_format_string_impl<IsConstexpr>(format, handler);
 7055|   155k|    handler.check_args_exhausted();
 7056|   155k|    return handler.get_error();
 7057|   155k|}
impl.cpp:_ZN3scn2v36detail24parse_format_string_implILb0EcRNS0_12_GLOBAL__N_114format_handlerILb0EcEEEEvNSt3__117basic_string_viewIT0_NS7_11char_traitsIS9_EEEEOT1_:
 7019|   155k|{
 7020|       |    // TODO: memchr fast path with a larger (> 32) format string
 7021|       |
 7022|   155k|    auto begin = format.data();
 7023|   155k|    auto it = begin;
 7024|   155k|    const auto end = format.data() + format.size();
 7025|       |
 7026|   287k|    while (it != end) {
  ------------------
  |  Branch (7026:12): [True: 155k, False: 131k]
  ------------------
 7027|   155k|        const auto ch = *it++;
 7028|   155k|        if (ch == CharT{'{'}) {
  ------------------
  |  Branch (7028:13): [True: 155k, False: 0]
  ------------------
 7029|   155k|            handler.on_literal_text(begin, it - 1);
 7030|       |
 7031|   155k|            begin = it = parse_replacement_field(it - 1, end, handler);
 7032|   155k|            if (!handler) {
  ------------------
  |  Branch (7032:17): [True: 23.4k, False: 131k]
  ------------------
 7033|  23.4k|                return;
 7034|  23.4k|            }
 7035|   155k|        }
 7036|      0|        else if (ch == CharT{'}'}) {
  ------------------
  |  Branch (7036:18): [True: 0, False: 0]
  ------------------
 7037|      0|            if (SCN_UNLIKELY(it == end || *it != CharT{'}'})) {
  ------------------
  |  |  859|      0|#define SCN_UNLIKELY(x) __builtin_expect(!!(x), 0)
  |  |  ------------------
  |  |  |  Branch (859:25): [True: 0, False: 0]
  |  |  |  Branch (859:45): [True: 0, False: 0]
  |  |  |  Branch (859:45): [True: 0, False: 0]
  |  |  ------------------
  ------------------
 7038|      0|                handler.on_error("Unmatched '}' in format string");
 7039|      0|                return;
 7040|      0|            }
 7041|       |
 7042|      0|            handler.on_literal_text(begin, it);
 7043|      0|            begin = ++it;
 7044|      0|        }
 7045|   155k|    }
 7046|       |
 7047|   131k|    handler.on_literal_text(begin, end);
 7048|   131k|}
_ZN3scn2v318basic_scan_contextIcE10advance_toENS0_6detail17basic_scan_bufferIcE16forward_iteratorE:
 8184|   131k|    {
 8185|   131k|        m_current = SCN_MOVE(it);
  ------------------
  |  |  928|   131k|    static_cast<    \
  |  |  929|   131k|        typename ::scn::detail::remove_reference<decltype(x)>::type&&>(x)
  ------------------
 8186|   131k|    }
impl.cpp:_ZN3scn2v36detail23parse_replacement_fieldIcNS0_12_GLOBAL__N_114format_handlerILb0EcEEEEPKT_S8_S8_RT0_:
 6951|   155k|{
 6952|   155k|    struct id_adapter {
 6953|   155k|        constexpr void operator()()
 6954|   155k|        {
 6955|   155k|            arg_id = handler.on_arg_id();
 6956|   155k|        }
 6957|   155k|        constexpr void operator()(std::size_t id)
 6958|   155k|        {
 6959|   155k|            arg_id = handler.on_arg_id(id);
 6960|   155k|        }
 6961|       |
 6962|   155k|        constexpr void on_error(const char* msg)
 6963|   155k|        {
 6964|   155k|            SCN_UNLIKELY_ATTR
 6965|   155k|            handler.on_error(msg);
 6966|   155k|        }
 6967|       |
 6968|   155k|        Handler& handler;
 6969|   155k|        std::size_t arg_id;
 6970|   155k|    };
 6971|       |
 6972|   155k|    ++begin;
 6973|   155k|    if (SCN_UNLIKELY(begin == end)) {
  ------------------
  |  |  859|   155k|#define SCN_UNLIKELY(x) __builtin_expect(!!(x), 0)
  |  |  ------------------
  |  |  |  Branch (859:25): [True: 0, False: 155k]
  |  |  ------------------
  ------------------
 6974|      0|        handler.on_error("Unexpected end of replacement field");
 6975|      0|        return begin;
 6976|      0|    }
 6977|       |
 6978|   155k|    if (*begin == CharT{'}'}) {
  ------------------
  |  Branch (6978:9): [True: 0, False: 155k]
  ------------------
 6979|      0|        handler.on_replacement_field(handler.on_arg_id(), begin);
 6980|      0|    }
 6981|   155k|    else if (*begin == CharT{'{'}) {
  ------------------
  |  Branch (6981:14): [True: 0, False: 155k]
  ------------------
 6982|      0|        handler.on_literal_text(begin, begin + 1);
 6983|      0|    }
 6984|   155k|    else {
 6985|   155k|        auto adapter = id_adapter{handler, 0};
 6986|   155k|        begin = parse_arg_id(begin, end, adapter);
 6987|       |
 6988|   155k|        if (SCN_UNLIKELY(begin == end)) {
  ------------------
  |  |  859|   155k|#define SCN_UNLIKELY(x) __builtin_expect(!!(x), 0)
  |  |  ------------------
  |  |  |  Branch (859:25): [True: 0, False: 155k]
  |  |  ------------------
  ------------------
 6989|      0|            handler.on_error("Missing '}' in format string");
 6990|      0|            return begin;
 6991|      0|        }
 6992|       |
 6993|   155k|        if (*begin == CharT{'}'}) {
  ------------------
  |  Branch (6993:13): [True: 0, False: 155k]
  ------------------
 6994|      0|            handler.on_replacement_field(adapter.arg_id, begin);
 6995|      0|        }
 6996|   155k|        else if (*begin == CharT{':'}) {
  ------------------
  |  Branch (6996:18): [True: 155k, False: 0]
  ------------------
 6997|   155k|            if (SCN_UNLIKELY(begin + 1 == end)) {
  ------------------
  |  |  859|   155k|#define SCN_UNLIKELY(x) __builtin_expect(!!(x), 0)
  |  |  ------------------
  |  |  |  Branch (859:25): [True: 0, False: 155k]
  |  |  ------------------
  ------------------
 6998|      0|                handler.on_error("Unexpected end of replacement field");
 6999|      0|                return begin;
 7000|      0|            }
 7001|   155k|            begin = handler.on_format_specs(adapter.arg_id, begin + 1, end);
 7002|   155k|            if (SCN_UNLIKELY(begin == end || *begin != '}')) {
  ------------------
  |  |  859|   310k|#define SCN_UNLIKELY(x) __builtin_expect(!!(x), 0)
  |  |  ------------------
  |  |  |  Branch (859:25): [True: 9.36k, False: 145k]
  |  |  |  Branch (859:45): [True: 0, False: 155k]
  |  |  |  Branch (859:45): [True: 9.36k, False: 145k]
  |  |  ------------------
  ------------------
 7003|  9.36k|                handler.on_error("Unknown format specifier");
 7004|  9.36k|                return begin;
 7005|  9.36k|            }
 7006|   155k|        }
 7007|      0|        else {
 7008|      0|            SCN_UNLIKELY_ATTR
 7009|      0|            handler.on_error("Missing '}' in format string");
 7010|      0|            return begin;
 7011|      0|        }
 7012|   155k|    }
 7013|   145k|    return begin + 1;
 7014|   155k|}
impl.cpp:_ZN3scn2v36detail12parse_arg_idIcRZNS1_23parse_replacement_fieldIcNS0_12_GLOBAL__N_114format_handlerILb0EcEEEEPKT_S9_S9_RT0_E10id_adapterEES9_S9_S9_OSA_:
 6452|   155k|{
 6453|   155k|    SCN_EXPECT(begin != end);
  ------------------
  |  |  924|   155k|#define SCN_EXPECT(cond) SCN_ASSERT(cond, "Precondition violation")
  |  |  ------------------
  |  |  |  |  921|   155k|#define SCN_ASSERT(cond, msg) assert((cond) && msg)
  |  |  ------------------
  ------------------
 6454|   155k|    if (*begin != '}' && *begin != ':') {
  ------------------
  |  Branch (6454:9): [True: 155k, False: 0]
  |  Branch (6454:26): [True: 0, False: 155k]
  ------------------
 6455|      0|        return do_parse_arg_id(begin, end, SCN_FWD(handler));
  ------------------
  |  |  930|      0|#define SCN_FWD(x)          static_cast<decltype(x)&&>(x)
  ------------------
 6456|      0|    }
 6457|       |
 6458|   155k|    handler();
 6459|   155k|    return begin;
 6460|   155k|}
impl.cpp:_ZZN3scn2v36detail23parse_replacement_fieldIcNS0_12_GLOBAL__N_114format_handlerILb0EcEEEEPKT_S8_S8_RT0_EN10id_adapterclEv:
 6954|   155k|        {
 6955|   155k|            arg_id = handler.on_arg_id();
 6956|   155k|        }
impl.cpp:_ZN3scn2v36detail13specs_checkerINS0_12_GLOBAL__N_113specs_handlerINS0_18basic_scan_contextIcEEEEEC2IS7_EEOT_NS1_8arg_typeE:
 7130|   155k|        : Handler(SCN_FWD(handler)), m_arg_type(type)
  ------------------
  |  |  930|   155k|#define SCN_FWD(x)          static_cast<decltype(x)&&>(x)
  ------------------
 7131|   155k|    {
 7132|   155k|        SCN_EXPECT(m_arg_type != arg_type::custom_type);
  ------------------
  |  |  924|   155k|#define SCN_EXPECT(cond) SCN_ASSERT(cond, "Precondition violation")
  |  |  ------------------
  |  |  |  |  921|   155k|#define SCN_ASSERT(cond, msg) assert((cond) && msg)
  |  |  ------------------
  ------------------
 7133|   155k|    }
impl.cpp:_ZN3scn2v36detail18parse_format_specsIcRNS1_13specs_checkerINS0_12_GLOBAL__N_113specs_handlerINS0_18basic_scan_contextIcEEEEEEEEPKT_SD_SD_OT0_:
 6867|   155k|{
 6868|   155k|    auto do_presentation = [&]() -> const CharT* {
 6869|   155k|        if (*begin == CharT{'['}) {
 6870|   155k|            auto set = parse_presentation_set(begin, end, handler);
 6871|   155k|            if (SCN_UNLIKELY(set.size() <= 2)) {
 6872|       |                // clang-format off
 6873|   155k|                handler.on_error("Invalid (empty) [character set] specifier in format string");
 6874|       |                // clang-format on
 6875|   155k|                return begin;
 6876|   155k|            }
 6877|   155k|            handler.on_character_set_string(set);
 6878|   155k|            return begin;
 6879|   155k|        }
 6880|   155k|        if (*begin == CharT{'/'}) {
 6881|   155k|            return parse_presentation_regex(begin, end, handler);
 6882|   155k|        }
 6883|   155k|        presentation_type type = parse_presentation_type(*begin++);
 6884|   155k|        if (SCN_UNLIKELY(type == presentation_type::none)) {
 6885|   155k|            handler.on_error("Invalid type specifier in format string");
 6886|   155k|            return begin;
 6887|   155k|        }
 6888|   155k|        handler.on_type(type);
 6889|   155k|        return begin;
 6890|   155k|    };
 6891|       |
 6892|   155k|    if (end - begin > 1 && *(begin + 1) == CharT{'}'} &&
  ------------------
  |  Branch (6892:9): [True: 155k, False: 0]
  |  Branch (6892:28): [True: 139k, False: 16.1k]
  ------------------
 6893|   155k|        is_ascii_letter(*begin) && *begin != CharT{'L'}) {
  ------------------
  |  Branch (6893:9): [True: 139k, False: 0]
  |  Branch (6893:36): [True: 134k, False: 4.68k]
  ------------------
 6894|   134k|        return do_presentation();
 6895|   134k|    }
 6896|       |
 6897|  20.8k|    if (SCN_UNLIKELY(begin == end)) {
  ------------------
  |  |  859|  20.8k|#define SCN_UNLIKELY(x) __builtin_expect(!!(x), 0)
  |  |  ------------------
  |  |  |  Branch (859:25): [True: 0, False: 20.8k]
  |  |  ------------------
  ------------------
 6898|      0|        handler.on_error("Unexpected end of format string");
 6899|      0|        return begin;
 6900|      0|    }
 6901|       |
 6902|  20.8k|    begin = parse_align(begin, end, handler);
 6903|  20.8k|    if (SCN_UNLIKELY(begin == end)) {
  ------------------
  |  |  859|  20.8k|#define SCN_UNLIKELY(x) __builtin_expect(!!(x), 0)
  |  |  ------------------
  |  |  |  Branch (859:25): [True: 0, False: 20.8k]
  |  |  ------------------
  ------------------
 6904|      0|        handler.on_error("Unexpected end of format string");
 6905|      0|        return begin;
 6906|      0|    }
 6907|       |
 6908|  20.8k|    begin = parse_width(begin, end, handler);
 6909|  20.8k|    if (SCN_UNLIKELY(begin == end)) {
  ------------------
  |  |  859|  20.8k|#define SCN_UNLIKELY(x) __builtin_expect(!!(x), 0)
  |  |  ------------------
  |  |  |  Branch (859:25): [True: 0, False: 20.8k]
  |  |  ------------------
  ------------------
 6910|      0|        handler.on_error("Unexpected end of format string");
 6911|      0|        return begin;
 6912|      0|    }
 6913|       |
 6914|  20.8k|    if (*begin == CharT{'.'}) {
  ------------------
  |  Branch (6914:9): [True: 0, False: 20.8k]
  ------------------
 6915|      0|        ++begin;
 6916|      0|        if (SCN_UNLIKELY(begin == end)) {
  ------------------
  |  |  859|      0|#define SCN_UNLIKELY(x) __builtin_expect(!!(x), 0)
  |  |  ------------------
  |  |  |  Branch (859:25): [True: 0, False: 0]
  |  |  ------------------
  ------------------
 6917|      0|            handler.on_error("Unexpected end of format string");
 6918|      0|            return begin;
 6919|      0|        }
 6920|      0|        begin = parse_precision(begin, end, handler);
 6921|      0|        if (SCN_UNLIKELY(begin == end)) {
  ------------------
  |  |  859|      0|#define SCN_UNLIKELY(x) __builtin_expect(!!(x), 0)
  |  |  ------------------
  |  |  |  Branch (859:25): [True: 0, False: 0]
  |  |  ------------------
  ------------------
 6922|      0|            handler.on_error("Unexpected end of format string");
 6923|      0|            return begin;
 6924|      0|        }
 6925|      0|    }
 6926|       |
 6927|  20.8k|    if (*begin == CharT{'L'}) {
  ------------------
  |  Branch (6927:9): [True: 4.68k, False: 16.1k]
  ------------------
 6928|  4.68k|        handler.on_localized();
 6929|  4.68k|        ++begin;
 6930|  4.68k|    }
 6931|  20.8k|    if (SCN_UNLIKELY(begin == end)) {
  ------------------
  |  |  859|  20.8k|#define SCN_UNLIKELY(x) __builtin_expect(!!(x), 0)
  |  |  ------------------
  |  |  |  Branch (859:25): [True: 0, False: 20.8k]
  |  |  ------------------
  ------------------
 6932|      0|        handler.on_error("Unexpected end of format string");
 6933|      0|        return begin;
 6934|      0|    }
 6935|       |
 6936|  20.8k|    if (begin != end && *begin != CharT{'}'}) {
  ------------------
  |  Branch (6936:9): [True: 20.8k, False: 0]
  |  Branch (6936:25): [True: 16.1k, False: 4.68k]
  ------------------
 6937|  16.1k|        do_presentation();
 6938|  16.1k|    }
 6939|  20.8k|    if (SCN_UNLIKELY(begin == end)) {
  ------------------
  |  |  859|  20.8k|#define SCN_UNLIKELY(x) __builtin_expect(!!(x), 0)
  |  |  ------------------
  |  |  |  Branch (859:25): [True: 0, False: 20.8k]
  |  |  ------------------
  ------------------
 6940|      0|        handler.on_error("Unexpected end of format string");
 6941|      0|        return begin;
 6942|      0|    }
 6943|       |
 6944|  20.8k|    return begin;
 6945|  20.8k|}
impl.cpp:_ZZN3scn2v36detail18parse_format_specsIcRNS1_13specs_checkerINS0_12_GLOBAL__N_113specs_handlerINS0_18basic_scan_contextIcEEEEEEEEPKT_SD_SD_OT0_ENKUlvE_clEv:
 6868|   150k|    auto do_presentation = [&]() -> const CharT* {
 6869|   150k|        if (*begin == CharT{'['}) {
  ------------------
  |  Branch (6869:13): [True: 6.76k, False: 143k]
  ------------------
 6870|  6.76k|            auto set = parse_presentation_set(begin, end, handler);
 6871|  6.76k|            if (SCN_UNLIKELY(set.size() <= 2)) {
  ------------------
  |  |  859|  6.76k|#define SCN_UNLIKELY(x) __builtin_expect(!!(x), 0)
  |  |  ------------------
  |  |  |  Branch (859:25): [True: 0, False: 6.76k]
  |  |  ------------------
  ------------------
 6872|       |                // clang-format off
 6873|      0|                handler.on_error("Invalid (empty) [character set] specifier in format string");
 6874|       |                // clang-format on
 6875|      0|                return begin;
 6876|      0|            }
 6877|  6.76k|            handler.on_character_set_string(set);
 6878|  6.76k|            return begin;
 6879|  6.76k|        }
 6880|   143k|        if (*begin == CharT{'/'}) {
  ------------------
  |  Branch (6880:13): [True: 0, False: 143k]
  ------------------
 6881|      0|            return parse_presentation_regex(begin, end, handler);
 6882|      0|        }
 6883|   143k|        presentation_type type = parse_presentation_type(*begin++);
 6884|   143k|        if (SCN_UNLIKELY(type == presentation_type::none)) {
  ------------------
  |  |  859|   143k|#define SCN_UNLIKELY(x) __builtin_expect(!!(x), 0)
  |  |  ------------------
  |  |  |  Branch (859:25): [True: 4.68k, False: 139k]
  |  |  ------------------
  ------------------
 6885|  4.68k|            handler.on_error("Invalid type specifier in format string");
 6886|  4.68k|            return begin;
 6887|  4.68k|        }
 6888|   139k|        handler.on_type(type);
 6889|   139k|        return begin;
 6890|   143k|    };
impl.cpp:_ZN3scn2v36detail22parse_presentation_setIcRNS1_13specs_checkerINS0_12_GLOBAL__N_113specs_handlerINS0_18basic_scan_contextIcEEEEEEEENSt3__117basic_string_viewIT_NSB_11char_traitsISD_EEEERPKSD_SI_OT0_:
 6706|  6.76k|{
 6707|  6.76k|    SCN_EXPECT(begin != end);
  ------------------
  |  |  924|  6.76k|#define SCN_EXPECT(cond) SCN_ASSERT(cond, "Precondition violation")
  |  |  ------------------
  |  |  |  |  921|  6.76k|#define SCN_ASSERT(cond, msg) assert((cond) && msg)
  |  |  ------------------
  ------------------
 6708|  6.76k|    SCN_EXPECT(*begin == CharT{'['});
  ------------------
  |  |  924|  6.76k|#define SCN_EXPECT(cond) SCN_ASSERT(cond, "Precondition violation")
  |  |  ------------------
  |  |  |  |  921|  6.76k|#define SCN_ASSERT(cond, msg) assert((cond) && msg)
  |  |  ------------------
  ------------------
 6709|       |
 6710|  6.76k|    auto start = begin;
 6711|  6.76k|    ++begin;
 6712|       |
 6713|  6.76k|    if (SCN_UNLIKELY(begin == end)) {
  ------------------
  |  |  859|  6.76k|#define SCN_UNLIKELY(x) __builtin_expect(!!(x), 0)
  |  |  ------------------
  |  |  |  Branch (859:25): [True: 0, False: 6.76k]
  |  |  ------------------
  ------------------
 6714|       |        // clang-format off
 6715|      0|        handler.on_error("Unexpected end of [character set] specifier in format string");
 6716|       |        // clang-format on
 6717|      0|        return {};
 6718|      0|    }
 6719|  6.76k|    if (*begin == CharT{'^'}) {
  ------------------
  |  Branch (6719:9): [True: 0, False: 6.76k]
  ------------------
 6720|      0|        handler.on_charset_inverted();
 6721|      0|        ++begin;
 6722|      0|        if (SCN_UNLIKELY(begin == end)) {
  ------------------
  |  |  859|      0|#define SCN_UNLIKELY(x) __builtin_expect(!!(x), 0)
  |  |  ------------------
  |  |  |  Branch (859:25): [True: 0, False: 0]
  |  |  ------------------
  ------------------
 6723|       |            // clang-format off
 6724|      0|            handler.on_error("Unexpected end of [character set] specifier in format string");
 6725|       |            // clang-format on
 6726|      0|            return {};
 6727|      0|        }
 6728|      0|        if (*begin == CharT{']'}) {
  ------------------
  |  Branch (6728:13): [True: 0, False: 0]
  ------------------
 6729|      0|            handler.on_charset_single(char32_t{']'});
 6730|      0|            ++begin;
 6731|      0|        }
 6732|      0|    }
 6733|  6.76k|    else if (*begin == CharT{']'}) {
  ------------------
  |  Branch (6733:14): [True: 0, False: 6.76k]
  ------------------
 6734|      0|        return {start, static_cast<size_t>(std::distance(start, ++begin))};
 6735|      0|    }
 6736|       |
 6737|  20.2k|    while (begin != end) {
  ------------------
  |  Branch (6737:12): [True: 20.2k, False: 0]
  ------------------
 6738|  20.2k|        if (SCN_UNLIKELY(!handler)) {
  ------------------
  |  |  859|  20.2k|#define SCN_UNLIKELY(x) __builtin_expect(!!(x), 0)
  |  |  ------------------
  |  |  |  Branch (859:25): [True: 0, False: 20.2k]
  |  |  ------------------
  ------------------
 6739|      0|            break;
 6740|      0|        }
 6741|       |
 6742|  20.2k|        if (*begin == CharT{']'}) {
  ------------------
  |  Branch (6742:13): [True: 6.76k, False: 13.5k]
  ------------------
 6743|  6.76k|            return {start, static_cast<size_t>(std::distance(start, ++begin))};
 6744|  6.76k|        }
 6745|       |
 6746|  13.5k|        parse_presentation_set_literal(begin, end, handler);
 6747|  13.5k|    }
 6748|       |
 6749|      0|    SCN_UNLIKELY_ATTR
 6750|      0|    handler.on_error("Invalid [character set] specifier in format string");
 6751|      0|    return {};
 6752|  6.76k|}
impl.cpp:_ZN3scn2v36detail30parse_presentation_set_literalIcRNS1_13specs_checkerINS0_12_GLOBAL__N_113specs_handlerINS0_18basic_scan_contextIcEEEEEEEEvRPKT_SD_OT0_:
 6670|  13.5k|{
 6671|  13.5k|    SCN_EXPECT(begin != end);
  ------------------
  |  |  924|  13.5k|#define SCN_EXPECT(cond) SCN_ASSERT(cond, "Precondition violation")
  |  |  ------------------
  |  |  |  |  921|  13.5k|#define SCN_ASSERT(cond, msg) assert((cond) && msg)
  |  |  ------------------
  ------------------
 6672|       |
 6673|  13.5k|    auto cp_first = parse_presentation_set_code_point(begin, end, handler);
 6674|  13.5k|    if (SCN_UNLIKELY(cp_first >= invalid_code_point)) {
  ------------------
  |  |  859|  13.5k|#define SCN_UNLIKELY(x) __builtin_expect(!!(x), 0)
  |  |  ------------------
  |  |  |  Branch (859:25): [True: 0, False: 13.5k]
  |  |  ------------------
  ------------------
 6675|      0|        return;
 6676|      0|    }
 6677|       |
 6678|  13.5k|    if (begin != end && *begin == CharT{'-'} && (begin + 1) != end &&
  ------------------
  |  Branch (6678:9): [True: 13.5k, False: 0]
  |  Branch (6678:25): [True: 13.5k, False: 0]
  |  Branch (6678:49): [True: 13.5k, False: 0]
  ------------------
 6679|  13.5k|        *(begin + 1) != CharT{']'}) {
  ------------------
  |  Branch (6679:9): [True: 13.5k, False: 0]
  ------------------
 6680|  13.5k|        ++begin;
 6681|       |
 6682|  13.5k|        auto cp_second = parse_presentation_set_code_point(begin, end, handler);
 6683|  13.5k|        if (SCN_UNLIKELY(cp_second >= invalid_code_point)) {
  ------------------
  |  |  859|  13.5k|#define SCN_UNLIKELY(x) __builtin_expect(!!(x), 0)
  |  |  ------------------
  |  |  |  Branch (859:25): [True: 0, False: 13.5k]
  |  |  ------------------
  ------------------
 6684|      0|            return;
 6685|      0|        }
 6686|       |
 6687|  13.5k|        if (SCN_UNLIKELY(cp_second < cp_first)) {
  ------------------
  |  |  859|  13.5k|#define SCN_UNLIKELY(x) __builtin_expect(!!(x), 0)
  |  |  ------------------
  |  |  |  Branch (859:25): [True: 0, False: 13.5k]
  |  |  ------------------
  ------------------
 6688|       |            // clang-format off
 6689|      0|            handler.on_error("Invalid range in [character set] format string argument: Range end before the beginning");
 6690|       |            // clang-format on
 6691|      0|            return;
 6692|      0|        }
 6693|       |
 6694|  13.5k|        handler.on_charset_range(cp_first, cp_second + 1);
 6695|  13.5k|        return;
 6696|  13.5k|    }
 6697|       |
 6698|      0|    handler.on_charset_single(cp_first);
 6699|      0|}
impl.cpp:_ZN3scn2v36detail33parse_presentation_set_code_pointIcRNS1_13specs_checkerINS0_12_GLOBAL__N_113specs_handlerINS0_18basic_scan_contextIcEEEEEEEEDiRPKT_SD_OT0_:
 6646|  27.0k|{
 6647|  27.0k|    SCN_EXPECT(begin != end);
  ------------------
  |  |  924|  27.0k|#define SCN_EXPECT(cond) SCN_ASSERT(cond, "Precondition violation")
  |  |  ------------------
  |  |  |  |  921|  27.0k|#define SCN_ASSERT(cond, msg) assert((cond) && msg)
  |  |  ------------------
  ------------------
 6648|       |
 6649|  27.0k|    auto len = code_point_length_by_starting_code_unit(*begin);
 6650|  27.0k|    if (SCN_UNLIKELY(len == 0 || static_cast<size_t>(end - begin) < len)) {
  ------------------
  |  |  859|  54.0k|#define SCN_UNLIKELY(x) __builtin_expect(!!(x), 0)
  |  |  ------------------
  |  |  |  Branch (859:25): [True: 0, False: 27.0k]
  |  |  |  Branch (859:45): [True: 0, False: 27.0k]
  |  |  |  Branch (859:45): [True: 0, False: 27.0k]
  |  |  ------------------
  ------------------
 6651|      0|        handler.on_error("Invalid encoding in format string");
 6652|      0|        return invalid_code_point;
 6653|      0|    }
 6654|       |
 6655|  27.0k|    const auto cp =
 6656|  27.0k|        decode_code_point_exhaustive(std::basic_string_view<CharT>{begin, len});
 6657|  27.0k|    if (SCN_UNLIKELY(cp >= invalid_code_point)) {
  ------------------
  |  |  859|  27.0k|#define SCN_UNLIKELY(x) __builtin_expect(!!(x), 0)
  |  |  ------------------
  |  |  |  Branch (859:25): [True: 0, False: 27.0k]
  |  |  ------------------
  ------------------
 6658|      0|        handler.on_error("Invalid encoding in format string");
 6659|      0|        return invalid_code_point;
 6660|      0|    }
 6661|       |
 6662|  27.0k|    begin += len;
 6663|  27.0k|    return cp;
 6664|  27.0k|}
impl.cpp:_ZN3scn2v36detail11parse_alignIcRNS1_13specs_checkerINS0_12_GLOBAL__N_113specs_handlerINS0_18basic_scan_contextIcEEEEEEEEPKT_SD_SD_OT0_:
 6541|  20.8k|{
 6542|  20.8k|    SCN_EXPECT(begin != end);
  ------------------
  |  |  924|  20.8k|#define SCN_EXPECT(cond) SCN_ASSERT(cond, "Precondition violation")
  |  |  ------------------
  |  |  |  |  921|  20.8k|#define SCN_ASSERT(cond, msg) assert((cond) && msg)
  |  |  ------------------
  ------------------
 6543|       |
 6544|  20.8k|    auto check_align = [](wchar_t ch) {
 6545|  20.8k|        switch (ch) {
 6546|  20.8k|            case L'<':
 6547|  20.8k|                return align_type::left;
 6548|  20.8k|            case L'>':
 6549|  20.8k|                return align_type::right;
 6550|  20.8k|            case L'^':
 6551|  20.8k|                return align_type::center;
 6552|  20.8k|            default:
 6553|  20.8k|                return align_type::none;
 6554|  20.8k|        }
 6555|  20.8k|    };
 6556|       |
 6557|  20.8k|    auto potential_fill_len = code_point_length(begin, end);
 6558|  20.8k|    if (SCN_UNLIKELY(potential_fill_len == 0 ||
  ------------------
  |  |  859|  41.6k|#define SCN_UNLIKELY(x) __builtin_expect(!!(x), 0)
  |  |  ------------------
  |  |  |  Branch (859:25): [True: 0, False: 20.8k]
  |  |  |  Branch (859:45): [True: 0, False: 20.8k]
  |  |  |  Branch (859:45): [True: 0, False: 20.8k]
  |  |  ------------------
  ------------------
 6559|  20.8k|                     std::distance(begin, end) < potential_fill_len)) {
 6560|      0|        handler.on_error("Invalid encoding in fill character");
 6561|      0|        return begin;
 6562|      0|    }
 6563|       |
 6564|  20.8k|    auto potential_align_on_fill = check_align(static_cast<wchar_t>(*begin));
 6565|       |
 6566|  20.8k|    auto potential_fill = std::basic_string_view<CharT>{
 6567|  20.8k|        begin, static_cast<size_t>(potential_fill_len)};
 6568|  20.8k|    const auto begin_before_fill = begin;
 6569|  20.8k|    begin += potential_fill_len;
 6570|       |
 6571|  20.8k|    if (begin == end) {
  ------------------
  |  Branch (6571:9): [True: 0, False: 20.8k]
  ------------------
 6572|      0|        return begin_before_fill;
 6573|      0|    }
 6574|       |
 6575|  20.8k|    auto potential_align_after_fill = check_align(static_cast<wchar_t>(*begin));
 6576|  20.8k|    const auto begin_after_fill = begin;
 6577|  20.8k|    ++begin;
 6578|       |
 6579|  20.8k|    if (potential_fill_len == 1) {
  ------------------
  |  Branch (6579:9): [True: 20.8k, False: 0]
  ------------------
 6580|  20.8k|        if (SCN_UNLIKELY(potential_fill[0] == '{')) {
  ------------------
  |  |  859|  20.8k|#define SCN_UNLIKELY(x) __builtin_expect(!!(x), 0)
  |  |  ------------------
  |  |  |  Branch (859:25): [True: 0, False: 20.8k]
  |  |  ------------------
  ------------------
 6581|      0|            handler.on_error("Invalid fill character '{' in format string");
 6582|      0|            return begin;
 6583|      0|        }
 6584|  20.8k|        if (potential_fill[0] == '[') {
  ------------------
  |  Branch (6584:13): [True: 6.76k, False: 14.0k]
  ------------------
 6585|  6.76k|            return begin_before_fill;
 6586|  6.76k|        }
 6587|  20.8k|    }
 6588|       |
 6589|  14.0k|    if (potential_align_after_fill == align_type::none) {
  ------------------
  |  Branch (6589:9): [True: 14.0k, False: 0]
  ------------------
 6590|  14.0k|        if (potential_align_on_fill != align_type::none) {
  ------------------
  |  Branch (6590:13): [True: 0, False: 14.0k]
  ------------------
 6591|      0|            handler.on_align(potential_align_on_fill);
 6592|      0|            return begin_after_fill;
 6593|      0|        }
 6594|  14.0k|        return begin_before_fill;
 6595|  14.0k|    }
 6596|       |
 6597|      0|    handler.on_fill(potential_fill);
 6598|      0|    handler.on_align(potential_align_after_fill);
 6599|      0|    return begin;
 6600|  14.0k|}
impl.cpp:_ZZN3scn2v36detail11parse_alignIcRNS1_13specs_checkerINS0_12_GLOBAL__N_113specs_handlerINS0_18basic_scan_contextIcEEEEEEEEPKT_SD_SD_OT0_ENKUlwE_clEw:
 6544|  41.6k|    auto check_align = [](wchar_t ch) {
 6545|  41.6k|        switch (ch) {
 6546|      0|            case L'<':
  ------------------
  |  Branch (6546:13): [True: 0, False: 41.6k]
  ------------------
 6547|      0|                return align_type::left;
 6548|      0|            case L'>':
  ------------------
  |  Branch (6548:13): [True: 0, False: 41.6k]
  ------------------
 6549|      0|                return align_type::right;
 6550|      0|            case L'^':
  ------------------
  |  Branch (6550:13): [True: 0, False: 41.6k]
  ------------------
 6551|      0|                return align_type::center;
 6552|  41.6k|            default:
  ------------------
  |  Branch (6552:13): [True: 41.6k, False: 0]
  ------------------
 6553|  41.6k|                return align_type::none;
 6554|  41.6k|        }
 6555|  41.6k|    };
impl.cpp:_ZN3scn2v36detail11parse_widthIcRNS1_13specs_checkerINS0_12_GLOBAL__N_113specs_handlerINS0_18basic_scan_contextIcEEEEEEEEPKT_SD_SD_OT0_:
 6606|  20.8k|{
 6607|  20.8k|    SCN_EXPECT(begin != end);
  ------------------
  |  |  924|  20.8k|#define SCN_EXPECT(cond) SCN_ASSERT(cond, "Precondition violation")
  |  |  ------------------
  |  |  |  |  921|  20.8k|#define SCN_ASSERT(cond, msg) assert((cond) && msg)
  |  |  ------------------
  ------------------
 6608|       |
 6609|  20.8k|    if (*begin >= CharT{'0'} && *begin <= CharT{'9'}) {
  ------------------
  |  Branch (6609:9): [True: 20.8k, False: 0]
  |  Branch (6609:33): [True: 9.36k, False: 11.4k]
  ------------------
 6610|  9.36k|        int width = parse_simple_int(begin, end);
 6611|  9.36k|        if (SCN_LIKELY(width != -1)) {
  ------------------
  |  |  858|  9.36k|#define SCN_LIKELY(x)   __builtin_expect(!!(x), 1)
  |  |  ------------------
  |  |  |  Branch (858:25): [True: 9.36k, False: 0]
  |  |  ------------------
  ------------------
 6612|  9.36k|            handler.on_width(width);
 6613|  9.36k|        }
 6614|      0|        else {
 6615|      0|            handler.on_error("Invalid field width");
 6616|      0|            return begin;
 6617|      0|        }
 6618|  9.36k|    }
 6619|  20.8k|    return begin;
 6620|  20.8k|}
impl.cpp:_ZN3scn2v36detail13specs_checkerINS0_12_GLOBAL__N_113specs_handlerINS0_18basic_scan_contextIcEEEEE12on_localizedEv:
 7136|  4.68k|    {
 7137|  4.68k|        const auto cat = get_category_for_arg_type(m_arg_type);
 7138|  4.68k|        if (cat != arg_type_category::integer &&
  ------------------
  |  Branch (7138:13): [True: 4.68k, False: 0]
  ------------------
 7139|  4.68k|            cat != arg_type_category::unsigned_integer &&
  ------------------
  |  Branch (7139:13): [True: 4.68k, False: 0]
  ------------------
 7140|  4.68k|            cat != arg_type_category::floating &&
  ------------------
  |  Branch (7140:13): [True: 4.68k, False: 0]
  ------------------
 7141|  4.68k|            cat != arg_type_category::boolean) {
  ------------------
  |  Branch (7141:13): [True: 4.68k, False: 0]
  ------------------
 7142|  4.68k|            SCN_UNLIKELY_ATTR
 7143|       |            // clang-format off
 7144|  4.68k|            return this->on_error("'L' specifier can only be used with arguments of integer, floating-point, or boolean types");
 7145|       |            // clang-format on
 7146|  4.68k|        }
 7147|       |
 7148|      0|        Handler::on_localized();
 7149|      0|    }
_ZN3scn2v314visit_scan_argINS0_4impl10arg_readerINS0_18basic_scan_contextIcEEEES5_EEDcOT_RNS0_14basic_scan_argIT0_EE:
 8426|   145k|{
 8427|   145k|#define SCN_VISIT(Type)                                         \
 8428|   145k|    if constexpr (!detail::is_type_disabled<Type>) {            \
 8429|   145k|        return vis(*static_cast<Type*>(arg.m_value.ref_value)); \
 8430|   145k|    }                                                           \
 8431|   145k|    else {                                                      \
 8432|   145k|        return vis(monostate_val);                              \
 8433|   145k|    }
 8434|       |
 8435|   145k|    monostate monostate_val{};
 8436|       |
 8437|   145k|    switch (arg.m_type) {
 8438|      0|        case detail::arg_type::schar_type:
  ------------------
  |  Branch (8438:9): [True: 0, False: 145k]
  ------------------
 8439|      0|            SCN_VISIT(signed char);
  ------------------
  |  | 8428|      0|    if constexpr (!detail::is_type_disabled<Type>) {            \
  |  | 8429|      0|        return vis(*static_cast<Type*>(arg.m_value.ref_value)); \
  |  | 8430|      0|    }                                                           \
  |  | 8431|      0|    else {                                                      \
  |  | 8432|      0|        return vis(monostate_val);                              \
  |  | 8433|      0|    }
  ------------------
 8440|      0|        case detail::arg_type::short_type:
  ------------------
  |  Branch (8440:9): [True: 0, False: 145k]
  ------------------
 8441|      0|            SCN_VISIT(short);
  ------------------
  |  | 8428|      0|    if constexpr (!detail::is_type_disabled<Type>) {            \
  |  | 8429|      0|        return vis(*static_cast<Type*>(arg.m_value.ref_value)); \
  |  | 8430|      0|    }                                                           \
  |  | 8431|      0|    else {                                                      \
  |  | 8432|      0|        return vis(monostate_val);                              \
  |  | 8433|      0|    }
  ------------------
 8442|      0|        case detail::arg_type::int_type:
  ------------------
  |  Branch (8442:9): [True: 0, False: 145k]
  ------------------
 8443|      0|            SCN_VISIT(int);
  ------------------
  |  | 8428|      0|    if constexpr (!detail::is_type_disabled<Type>) {            \
  |  | 8429|      0|        return vis(*static_cast<Type*>(arg.m_value.ref_value)); \
  |  | 8430|      0|    }                                                           \
  |  | 8431|      0|    else {                                                      \
  |  | 8432|      0|        return vis(monostate_val);                              \
  |  | 8433|      0|    }
  ------------------
 8444|      0|        case detail::arg_type::long_type:
  ------------------
  |  Branch (8444:9): [True: 0, False: 145k]
  ------------------
 8445|      0|            SCN_VISIT(long);
  ------------------
  |  | 8428|      0|    if constexpr (!detail::is_type_disabled<Type>) {            \
  |  | 8429|      0|        return vis(*static_cast<Type*>(arg.m_value.ref_value)); \
  |  | 8430|      0|    }                                                           \
  |  | 8431|      0|    else {                                                      \
  |  | 8432|      0|        return vis(monostate_val);                              \
  |  | 8433|      0|    }
  ------------------
 8446|      0|        case detail::arg_type::llong_type:
  ------------------
  |  Branch (8446:9): [True: 0, False: 145k]
  ------------------
 8447|      0|            SCN_VISIT(long long);
  ------------------
  |  | 8428|      0|    if constexpr (!detail::is_type_disabled<Type>) {            \
  |  | 8429|      0|        return vis(*static_cast<Type*>(arg.m_value.ref_value)); \
  |  | 8430|      0|    }                                                           \
  |  | 8431|      0|    else {                                                      \
  |  | 8432|      0|        return vis(monostate_val);                              \
  |  | 8433|      0|    }
  ------------------
 8448|      0|        case detail::arg_type::uchar_type:
  ------------------
  |  Branch (8448:9): [True: 0, False: 145k]
  ------------------
 8449|      0|            SCN_VISIT(unsigned char);
  ------------------
  |  | 8428|      0|    if constexpr (!detail::is_type_disabled<Type>) {            \
  |  | 8429|      0|        return vis(*static_cast<Type*>(arg.m_value.ref_value)); \
  |  | 8430|      0|    }                                                           \
  |  | 8431|      0|    else {                                                      \
  |  | 8432|      0|        return vis(monostate_val);                              \
  |  | 8433|      0|    }
  ------------------
 8450|      0|        case detail::arg_type::ushort_type:
  ------------------
  |  Branch (8450:9): [True: 0, False: 145k]
  ------------------
 8451|      0|            SCN_VISIT(unsigned short);
  ------------------
  |  | 8428|      0|    if constexpr (!detail::is_type_disabled<Type>) {            \
  |  | 8429|      0|        return vis(*static_cast<Type*>(arg.m_value.ref_value)); \
  |  | 8430|      0|    }                                                           \
  |  | 8431|      0|    else {                                                      \
  |  | 8432|      0|        return vis(monostate_val);                              \
  |  | 8433|      0|    }
  ------------------
 8452|      0|        case detail::arg_type::uint_type:
  ------------------
  |  Branch (8452:9): [True: 0, False: 145k]
  ------------------
 8453|      0|            SCN_VISIT(unsigned);
  ------------------
  |  | 8428|      0|    if constexpr (!detail::is_type_disabled<Type>) {            \
  |  | 8429|      0|        return vis(*static_cast<Type*>(arg.m_value.ref_value)); \
  |  | 8430|      0|    }                                                           \
  |  | 8431|      0|    else {                                                      \
  |  | 8432|      0|        return vis(monostate_val);                              \
  |  | 8433|      0|    }
  ------------------
 8454|      0|        case detail::arg_type::ulong_type:
  ------------------
  |  Branch (8454:9): [True: 0, False: 145k]
  ------------------
 8455|      0|            SCN_VISIT(unsigned long);
  ------------------
  |  | 8428|      0|    if constexpr (!detail::is_type_disabled<Type>) {            \
  |  | 8429|      0|        return vis(*static_cast<Type*>(arg.m_value.ref_value)); \
  |  | 8430|      0|    }                                                           \
  |  | 8431|      0|    else {                                                      \
  |  | 8432|      0|        return vis(monostate_val);                              \
  |  | 8433|      0|    }
  ------------------
 8456|      0|        case detail::arg_type::ullong_type:
  ------------------
  |  Branch (8456:9): [True: 0, False: 145k]
  ------------------
 8457|      0|            SCN_VISIT(unsigned long long);
  ------------------
  |  | 8428|      0|    if constexpr (!detail::is_type_disabled<Type>) {            \
  |  | 8429|      0|        return vis(*static_cast<Type*>(arg.m_value.ref_value)); \
  |  | 8430|      0|    }                                                           \
  |  | 8431|      0|    else {                                                      \
  |  | 8432|      0|        return vis(monostate_val);                              \
  |  | 8433|      0|    }
  ------------------
 8458|      0|        case detail::arg_type::pointer_type:
  ------------------
  |  Branch (8458:9): [True: 0, False: 145k]
  ------------------
 8459|      0|            SCN_VISIT(void*);
  ------------------
  |  | 8428|      0|    if constexpr (!detail::is_type_disabled<Type>) {            \
  |  | 8429|      0|        return vis(*static_cast<Type*>(arg.m_value.ref_value)); \
  |  | 8430|      0|    }                                                           \
  |  | 8431|      0|    else {                                                      \
  |  | 8432|      0|        return vis(monostate_val);                              \
  |  | 8433|      0|    }
  ------------------
 8460|      0|        case detail::arg_type::bool_type:
  ------------------
  |  Branch (8460:9): [True: 0, False: 145k]
  ------------------
 8461|      0|            SCN_VISIT(bool);
  ------------------
  |  | 8428|      0|    if constexpr (!detail::is_type_disabled<Type>) {            \
  |  | 8429|      0|        return vis(*static_cast<Type*>(arg.m_value.ref_value)); \
  |  | 8430|      0|    }                                                           \
  |  | 8431|      0|    else {                                                      \
  |  | 8432|      0|        return vis(monostate_val);                              \
  |  | 8433|      0|    }
  ------------------
 8462|      0|        case detail::arg_type::narrow_character_type:
  ------------------
  |  Branch (8462:9): [True: 0, False: 145k]
  ------------------
 8463|      0|            SCN_VISIT(char);
  ------------------
  |  | 8428|      0|    if constexpr (!detail::is_type_disabled<Type>) {            \
  |  | 8429|      0|        return vis(*static_cast<Type*>(arg.m_value.ref_value)); \
  |  | 8430|      0|    }                                                           \
  |  | 8431|      0|    else {                                                      \
  |  | 8432|      0|        return vis(monostate_val);                              \
  |  | 8433|      0|    }
  ------------------
 8464|      0|        case detail::arg_type::wide_character_type:
  ------------------
  |  Branch (8464:9): [True: 0, False: 145k]
  ------------------
 8465|      0|            SCN_VISIT(wchar_t);
  ------------------
  |  | 8428|      0|    if constexpr (!detail::is_type_disabled<Type>) {            \
  |  | 8429|      0|        return vis(*static_cast<Type*>(arg.m_value.ref_value)); \
  |  | 8430|      0|    }                                                           \
  |  | 8431|      0|    else {                                                      \
  |  | 8432|      0|        return vis(monostate_val);                              \
  |  | 8433|      0|    }
  ------------------
 8466|      0|        case detail::arg_type::code_point_type:
  ------------------
  |  Branch (8466:9): [True: 0, False: 145k]
  ------------------
 8467|      0|            SCN_VISIT(char32_t);
  ------------------
  |  | 8428|      0|    if constexpr (!detail::is_type_disabled<Type>) {            \
  |  | 8429|      0|        return vis(*static_cast<Type*>(arg.m_value.ref_value)); \
  |  | 8430|      0|    }                                                           \
  |  | 8431|      0|    else {                                                      \
  |  | 8432|      0|        return vis(monostate_val);                              \
  |  | 8433|      0|    }
  ------------------
 8468|      0|        case detail::arg_type::float_type:
  ------------------
  |  Branch (8468:9): [True: 0, False: 145k]
  ------------------
 8469|      0|            SCN_VISIT(float);
  ------------------
  |  | 8428|      0|    if constexpr (!detail::is_type_disabled<Type>) {            \
  |  | 8429|      0|        return vis(*static_cast<Type*>(arg.m_value.ref_value)); \
  |  | 8430|      0|    }                                                           \
  |  | 8431|      0|    else {                                                      \
  |  | 8432|      0|        return vis(monostate_val);                              \
  |  | 8433|      0|    }
  ------------------
 8470|      0|        case detail::arg_type::double_type:
  ------------------
  |  Branch (8470:9): [True: 0, False: 145k]
  ------------------
 8471|      0|            SCN_VISIT(double);
  ------------------
  |  | 8428|      0|    if constexpr (!detail::is_type_disabled<Type>) {            \
  |  | 8429|      0|        return vis(*static_cast<Type*>(arg.m_value.ref_value)); \
  |  | 8430|      0|    }                                                           \
  |  | 8431|      0|    else {                                                      \
  |  | 8432|      0|        return vis(monostate_val);                              \
  |  | 8433|      0|    }
  ------------------
 8472|      0|        case detail::arg_type::ldouble_type:
  ------------------
  |  Branch (8472:9): [True: 0, False: 145k]
  ------------------
 8473|      0|            SCN_VISIT(long double);
  ------------------
  |  | 8428|      0|    if constexpr (!detail::is_type_disabled<Type>) {            \
  |  | 8429|      0|        return vis(*static_cast<Type*>(arg.m_value.ref_value)); \
  |  | 8430|      0|    }                                                           \
  |  | 8431|      0|    else {                                                      \
  |  | 8432|      0|        return vis(monostate_val);                              \
  |  | 8433|      0|    }
  ------------------
 8474|      0|        case detail::arg_type::narrow_string_view_type:
  ------------------
  |  Branch (8474:9): [True: 0, False: 145k]
  ------------------
 8475|      0|            SCN_VISIT(std::string_view);
  ------------------
  |  | 8428|      0|    if constexpr (!detail::is_type_disabled<Type>) {            \
  |  | 8429|      0|        return vis(*static_cast<Type*>(arg.m_value.ref_value)); \
  |  | 8430|      0|    }                                                           \
  |  | 8431|      0|    else {                                                      \
  |  | 8432|      0|        return vis(monostate_val);                              \
  |  | 8433|      0|    }
  ------------------
 8476|   145k|        case detail::arg_type::narrow_string_type:
  ------------------
  |  Branch (8476:9): [True: 145k, False: 0]
  ------------------
 8477|   145k|            SCN_VISIT(std::string);
  ------------------
  |  | 8428|   145k|    if constexpr (!detail::is_type_disabled<Type>) {            \
  |  | 8429|   145k|        return vis(*static_cast<Type*>(arg.m_value.ref_value)); \
  |  | 8430|   145k|    }                                                           \
  |  | 8431|   145k|    else {                                                      \
  |  | 8432|   145k|        return vis(monostate_val);                              \
  |  | 8433|   145k|    }
  ------------------
 8478|   145k|        case detail::arg_type::wide_string_view_type:
  ------------------
  |  Branch (8478:9): [True: 0, False: 145k]
  ------------------
 8479|   145k|            SCN_VISIT(std::wstring_view);
  ------------------
  |  | 8428|   145k|    if constexpr (!detail::is_type_disabled<Type>) {            \
  |  | 8429|   145k|        return vis(*static_cast<Type*>(arg.m_value.ref_value)); \
  |  | 8430|   145k|    }                                                           \
  |  | 8431|   145k|    else {                                                      \
  |  | 8432|   145k|        return vis(monostate_val);                              \
  |  | 8433|   145k|    }
  ------------------
 8480|   145k|        case detail::arg_type::wide_string_type:
  ------------------
  |  Branch (8480:9): [True: 0, False: 145k]
  ------------------
 8481|   145k|            SCN_VISIT(std::wstring);
  ------------------
  |  | 8428|   145k|    if constexpr (!detail::is_type_disabled<Type>) {            \
  |  | 8429|   145k|        return vis(*static_cast<Type*>(arg.m_value.ref_value)); \
  |  | 8430|   145k|    }                                                           \
  |  | 8431|   145k|    else {                                                      \
  |  | 8432|   145k|        return vis(monostate_val);                              \
  |  | 8433|   145k|    }
  ------------------
 8482|   145k|        case detail::arg_type::narrow_regex_matches_type:
  ------------------
  |  Branch (8482:9): [True: 0, False: 145k]
  ------------------
 8483|   145k|            SCN_VISIT(regex_matches);
  ------------------
  |  | 8428|   145k|    if constexpr (!detail::is_type_disabled<Type>) {            \
  |  | 8429|   145k|        return vis(*static_cast<Type*>(arg.m_value.ref_value)); \
  |  | 8430|   145k|    }                                                           \
  |  | 8431|   145k|    else {                                                      \
  |  | 8432|   145k|        return vis(monostate_val);                              \
  |  | 8433|   145k|    }
  ------------------
 8484|   145k|        case detail::arg_type::wide_regex_matches_type:
  ------------------
  |  Branch (8484:9): [True: 0, False: 145k]
  ------------------
 8485|   145k|            SCN_VISIT(wregex_matches);
  ------------------
  |  | 8428|   145k|    if constexpr (!detail::is_type_disabled<Type>) {            \
  |  | 8429|   145k|        return vis(*static_cast<Type*>(arg.m_value.ref_value)); \
  |  | 8430|   145k|    }                                                           \
  |  | 8431|   145k|    else {                                                      \
  |  | 8432|   145k|        return vis(monostate_val);                              \
  |  | 8433|   145k|    }
  ------------------
 8486|       |
 8487|   145k|        case detail::arg_type::custom_type:
  ------------------
  |  Branch (8487:9): [True: 0, False: 145k]
  ------------------
 8488|   145k|#if !SCN_DISABLE_TYPE_CUSTOM
 8489|   145k|            return vis(
 8490|   145k|                typename Ctx::arg_type::handle(arg.m_value.custom_value));
 8491|       |#else
 8492|       |            return vis(monostate_val);
 8493|       |#endif
 8494|       |
 8495|      0|            SCN_CLANG_PUSH
 8496|      0|            SCN_CLANG_IGNORE("-Wcovered-switch-default")
 8497|       |
 8498|      0|            SCN_UNLIKELY_ATTR
 8499|      0|        case detail::arg_type::none_type:
  ------------------
  |  Branch (8499:9): [True: 0, False: 145k]
  ------------------
 8500|      0|        default: {
  ------------------
  |  Branch (8500:9): [True: 0, False: 145k]
  ------------------
 8501|      0|            return vis(monostate_val);
 8502|      0|        }
 8503|       |
 8504|   145k|            SCN_CLANG_POP
 8505|   145k|    }
 8506|       |
 8507|      0|#undef SCN_VISIT
 8508|       |
 8509|      0|    SCN_ENSURE(false);
  ------------------
  |  |  925|      0|#define SCN_ENSURE(cond) SCN_ASSERT(cond, "Postcondition violation")
  |  |  ------------------
  |  |  |  |  921|      0|#define SCN_ASSERT(cond, msg) assert((cond) && msg)
  |  |  ------------------
  ------------------
 8510|      0|    SCN_UNREACHABLE;
  ------------------
  |  |  887|      0|#define SCN_UNREACHABLE __builtin_unreachable()
  ------------------
 8511|      0|}
_ZN3scn2v36detail17basic_scan_bufferIcE8sync_allEv:
 4083|  30.4k|    {
 4084|  30.4k|        sync(0);
 4085|  30.4k|    }
_ZNK3scn2v315basic_scan_argsINS0_18basic_scan_contextIwEEE4sizeEv:
 5475|  6.96M|    {
 5476|  6.96M|        if (SCN_UNLIKELY(!is_packed())) {
  ------------------
  |  |  859|  6.96M|#define SCN_UNLIKELY(x) __builtin_expect(!!(x), 0)
  |  |  ------------------
  |  |  |  Branch (859:25): [True: 0, False: 6.96M]
  |  |  ------------------
  ------------------
 5477|      0|            return max_size();
 5478|      0|        }
 5479|       |
 5480|  6.96M|        return static_cast<std::size_t>(m_desc &
 5481|  6.96M|                                        ((1 << detail::packed_arg_bits) - 1));
 5482|  6.96M|    }
_ZNK3scn2v315basic_scan_argsINS0_18basic_scan_contextIwEEE9is_packedEv:
 5500|  13.9M|    {
 5501|  13.9M|        return (m_desc & detail::is_unpacked_bit) == 0;
 5502|  13.9M|    }
_ZNK3scn2v315basic_scan_argsINS0_18basic_scan_contextIwEEE3getEm:
 5443|  6.96M|    {
 5444|  6.96M|        if (SCN_UNLIKELY(!is_packed())) {
  ------------------
  |  |  859|  6.96M|#define SCN_UNLIKELY(x) __builtin_expect(!!(x), 0)
  |  |  ------------------
  |  |  |  Branch (859:25): [True: 0, False: 6.96M]
  |  |  ------------------
  ------------------
 5445|      0|            if (SCN_LIKELY(id < max_size())) {
  ------------------
  |  |  858|      0|#define SCN_LIKELY(x)   __builtin_expect(!!(x), 1)
  |  |  ------------------
  |  |  |  Branch (858:25): [True: 0, False: 0]
  |  |  ------------------
  ------------------
 5446|      0|                return m_args[id];
 5447|      0|            }
 5448|      0|            return {};
 5449|      0|        }
 5450|       |
 5451|  6.96M|        if (SCN_UNLIKELY(id >= detail::max_packed_args)) {
  ------------------
  |  |  859|  6.96M|#define SCN_UNLIKELY(x) __builtin_expect(!!(x), 0)
  |  |  ------------------
  |  |  |  Branch (859:25): [True: 0, False: 6.96M]
  |  |  ------------------
  ------------------
 5452|      0|            return {};
 5453|      0|        }
 5454|       |
 5455|  6.96M|        const auto t = type(id);
 5456|  6.96M|        if (SCN_UNLIKELY(t == detail::arg_type::none_type)) {
  ------------------
  |  |  859|  6.96M|#define SCN_UNLIKELY(x) __builtin_expect(!!(x), 0)
  |  |  ------------------
  |  |  |  Branch (859:25): [True: 0, False: 6.96M]
  |  |  ------------------
  ------------------
 5457|      0|            return {};
 5458|      0|        }
 5459|       |
 5460|  6.96M|        basic_scan_arg<Context> arg;
 5461|  6.96M|        arg.m_type = t;
 5462|  6.96M|        if (is_only_builtin()) {
  ------------------
  |  Branch (5462:13): [True: 6.96M, False: 0]
  ------------------
 5463|  6.96M|            arg.m_value.ref_value = m_builtin_values[id];
 5464|  6.96M|        }
 5465|      0|        else {
 5466|      0|            arg.m_value = m_values[id];
 5467|      0|        }
 5468|  6.96M|        return arg;
 5469|  6.96M|    }
_ZNK3scn2v315basic_scan_argsINS0_18basic_scan_contextIwEEE4typeEm:
 5509|  6.96M|    {
 5510|       |        // First (0th) index is size, types start after that
 5511|  6.96M|        const auto shift = (index + 1) * detail::packed_arg_bits;
 5512|  6.96M|        const std::size_t mask = (1 << detail::packed_arg_bits) - 1;
 5513|  6.96M|        return static_cast<detail::arg_type>((m_desc >> shift) & mask);
 5514|  6.96M|    }
_ZNK3scn2v315basic_scan_argsINS0_18basic_scan_contextIwEEE15is_only_builtinEv:
 5504|  6.96M|    {
 5505|  6.96M|        return (m_desc & detail::has_custom_types_bit) == 0;
 5506|  6.96M|    }
_ZNK3scn2v314basic_scan_argINS0_18basic_scan_contextIwEEEcvbEv:
 5256|  12.1M|    {
 5257|  12.1M|        return m_type != detail::arg_type::none_type;
 5258|  12.1M|    }
_ZN3scn2v314visit_scan_argINS0_4impl18default_arg_readerINS2_29basic_contiguous_scan_contextIwEEEENS0_18basic_scan_contextIwEEEEDcOT_RNS0_14basic_scan_argIT0_EE:
 8426|  3.42M|{
 8427|  3.42M|#define SCN_VISIT(Type)                                         \
 8428|  3.42M|    if constexpr (!detail::is_type_disabled<Type>) {            \
 8429|  3.42M|        return vis(*static_cast<Type*>(arg.m_value.ref_value)); \
 8430|  3.42M|    }                                                           \
 8431|  3.42M|    else {                                                      \
 8432|  3.42M|        return vis(monostate_val);                              \
 8433|  3.42M|    }
 8434|       |
 8435|  3.42M|    monostate monostate_val{};
 8436|       |
 8437|  3.42M|    switch (arg.m_type) {
 8438|      0|        case detail::arg_type::schar_type:
  ------------------
  |  Branch (8438:9): [True: 0, False: 3.42M]
  ------------------
 8439|      0|            SCN_VISIT(signed char);
  ------------------
  |  | 8428|      0|    if constexpr (!detail::is_type_disabled<Type>) {            \
  |  | 8429|      0|        return vis(*static_cast<Type*>(arg.m_value.ref_value)); \
  |  | 8430|      0|    }                                                           \
  |  | 8431|      0|    else {                                                      \
  |  | 8432|      0|        return vis(monostate_val);                              \
  |  | 8433|      0|    }
  ------------------
 8440|      0|        case detail::arg_type::short_type:
  ------------------
  |  Branch (8440:9): [True: 0, False: 3.42M]
  ------------------
 8441|      0|            SCN_VISIT(short);
  ------------------
  |  | 8428|      0|    if constexpr (!detail::is_type_disabled<Type>) {            \
  |  | 8429|      0|        return vis(*static_cast<Type*>(arg.m_value.ref_value)); \
  |  | 8430|      0|    }                                                           \
  |  | 8431|      0|    else {                                                      \
  |  | 8432|      0|        return vis(monostate_val);                              \
  |  | 8433|      0|    }
  ------------------
 8442|      0|        case detail::arg_type::int_type:
  ------------------
  |  Branch (8442:9): [True: 0, False: 3.42M]
  ------------------
 8443|      0|            SCN_VISIT(int);
  ------------------
  |  | 8428|      0|    if constexpr (!detail::is_type_disabled<Type>) {            \
  |  | 8429|      0|        return vis(*static_cast<Type*>(arg.m_value.ref_value)); \
  |  | 8430|      0|    }                                                           \
  |  | 8431|      0|    else {                                                      \
  |  | 8432|      0|        return vis(monostate_val);                              \
  |  | 8433|      0|    }
  ------------------
 8444|      0|        case detail::arg_type::long_type:
  ------------------
  |  Branch (8444:9): [True: 0, False: 3.42M]
  ------------------
 8445|      0|            SCN_VISIT(long);
  ------------------
  |  | 8428|      0|    if constexpr (!detail::is_type_disabled<Type>) {            \
  |  | 8429|      0|        return vis(*static_cast<Type*>(arg.m_value.ref_value)); \
  |  | 8430|      0|    }                                                           \
  |  | 8431|      0|    else {                                                      \
  |  | 8432|      0|        return vis(monostate_val);                              \
  |  | 8433|      0|    }
  ------------------
 8446|      0|        case detail::arg_type::llong_type:
  ------------------
  |  Branch (8446:9): [True: 0, False: 3.42M]
  ------------------
 8447|      0|            SCN_VISIT(long long);
  ------------------
  |  | 8428|      0|    if constexpr (!detail::is_type_disabled<Type>) {            \
  |  | 8429|      0|        return vis(*static_cast<Type*>(arg.m_value.ref_value)); \
  |  | 8430|      0|    }                                                           \
  |  | 8431|      0|    else {                                                      \
  |  | 8432|      0|        return vis(monostate_val);                              \
  |  | 8433|      0|    }
  ------------------
 8448|      0|        case detail::arg_type::uchar_type:
  ------------------
  |  Branch (8448:9): [True: 0, False: 3.42M]
  ------------------
 8449|      0|            SCN_VISIT(unsigned char);
  ------------------
  |  | 8428|      0|    if constexpr (!detail::is_type_disabled<Type>) {            \
  |  | 8429|      0|        return vis(*static_cast<Type*>(arg.m_value.ref_value)); \
  |  | 8430|      0|    }                                                           \
  |  | 8431|      0|    else {                                                      \
  |  | 8432|      0|        return vis(monostate_val);                              \
  |  | 8433|      0|    }
  ------------------
 8450|      0|        case detail::arg_type::ushort_type:
  ------------------
  |  Branch (8450:9): [True: 0, False: 3.42M]
  ------------------
 8451|      0|            SCN_VISIT(unsigned short);
  ------------------
  |  | 8428|      0|    if constexpr (!detail::is_type_disabled<Type>) {            \
  |  | 8429|      0|        return vis(*static_cast<Type*>(arg.m_value.ref_value)); \
  |  | 8430|      0|    }                                                           \
  |  | 8431|      0|    else {                                                      \
  |  | 8432|      0|        return vis(monostate_val);                              \
  |  | 8433|      0|    }
  ------------------
 8452|      0|        case detail::arg_type::uint_type:
  ------------------
  |  Branch (8452:9): [True: 0, False: 3.42M]
  ------------------
 8453|      0|            SCN_VISIT(unsigned);
  ------------------
  |  | 8428|      0|    if constexpr (!detail::is_type_disabled<Type>) {            \
  |  | 8429|      0|        return vis(*static_cast<Type*>(arg.m_value.ref_value)); \
  |  | 8430|      0|    }                                                           \
  |  | 8431|      0|    else {                                                      \
  |  | 8432|      0|        return vis(monostate_val);                              \
  |  | 8433|      0|    }
  ------------------
 8454|      0|        case detail::arg_type::ulong_type:
  ------------------
  |  Branch (8454:9): [True: 0, False: 3.42M]
  ------------------
 8455|      0|            SCN_VISIT(unsigned long);
  ------------------
  |  | 8428|      0|    if constexpr (!detail::is_type_disabled<Type>) {            \
  |  | 8429|      0|        return vis(*static_cast<Type*>(arg.m_value.ref_value)); \
  |  | 8430|      0|    }                                                           \
  |  | 8431|      0|    else {                                                      \
  |  | 8432|      0|        return vis(monostate_val);                              \
  |  | 8433|      0|    }
  ------------------
 8456|      0|        case detail::arg_type::ullong_type:
  ------------------
  |  Branch (8456:9): [True: 0, False: 3.42M]
  ------------------
 8457|      0|            SCN_VISIT(unsigned long long);
  ------------------
  |  | 8428|      0|    if constexpr (!detail::is_type_disabled<Type>) {            \
  |  | 8429|      0|        return vis(*static_cast<Type*>(arg.m_value.ref_value)); \
  |  | 8430|      0|    }                                                           \
  |  | 8431|      0|    else {                                                      \
  |  | 8432|      0|        return vis(monostate_val);                              \
  |  | 8433|      0|    }
  ------------------
 8458|      0|        case detail::arg_type::pointer_type:
  ------------------
  |  Branch (8458:9): [True: 0, False: 3.42M]
  ------------------
 8459|      0|            SCN_VISIT(void*);
  ------------------
  |  | 8428|      0|    if constexpr (!detail::is_type_disabled<Type>) {            \
  |  | 8429|      0|        return vis(*static_cast<Type*>(arg.m_value.ref_value)); \
  |  | 8430|      0|    }                                                           \
  |  | 8431|      0|    else {                                                      \
  |  | 8432|      0|        return vis(monostate_val);                              \
  |  | 8433|      0|    }
  ------------------
 8460|      0|        case detail::arg_type::bool_type:
  ------------------
  |  Branch (8460:9): [True: 0, False: 3.42M]
  ------------------
 8461|      0|            SCN_VISIT(bool);
  ------------------
  |  | 8428|      0|    if constexpr (!detail::is_type_disabled<Type>) {            \
  |  | 8429|      0|        return vis(*static_cast<Type*>(arg.m_value.ref_value)); \
  |  | 8430|      0|    }                                                           \
  |  | 8431|      0|    else {                                                      \
  |  | 8432|      0|        return vis(monostate_val);                              \
  |  | 8433|      0|    }
  ------------------
 8462|      0|        case detail::arg_type::narrow_character_type:
  ------------------
  |  Branch (8462:9): [True: 0, False: 3.42M]
  ------------------
 8463|      0|            SCN_VISIT(char);
  ------------------
  |  | 8428|      0|    if constexpr (!detail::is_type_disabled<Type>) {            \
  |  | 8429|      0|        return vis(*static_cast<Type*>(arg.m_value.ref_value)); \
  |  | 8430|      0|    }                                                           \
  |  | 8431|      0|    else {                                                      \
  |  | 8432|      0|        return vis(monostate_val);                              \
  |  | 8433|      0|    }
  ------------------
 8464|      0|        case detail::arg_type::wide_character_type:
  ------------------
  |  Branch (8464:9): [True: 0, False: 3.42M]
  ------------------
 8465|      0|            SCN_VISIT(wchar_t);
  ------------------
  |  | 8428|      0|    if constexpr (!detail::is_type_disabled<Type>) {            \
  |  | 8429|      0|        return vis(*static_cast<Type*>(arg.m_value.ref_value)); \
  |  | 8430|      0|    }                                                           \
  |  | 8431|      0|    else {                                                      \
  |  | 8432|      0|        return vis(monostate_val);                              \
  |  | 8433|      0|    }
  ------------------
 8466|      0|        case detail::arg_type::code_point_type:
  ------------------
  |  Branch (8466:9): [True: 0, False: 3.42M]
  ------------------
 8467|      0|            SCN_VISIT(char32_t);
  ------------------
  |  | 8428|      0|    if constexpr (!detail::is_type_disabled<Type>) {            \
  |  | 8429|      0|        return vis(*static_cast<Type*>(arg.m_value.ref_value)); \
  |  | 8430|      0|    }                                                           \
  |  | 8431|      0|    else {                                                      \
  |  | 8432|      0|        return vis(monostate_val);                              \
  |  | 8433|      0|    }
  ------------------
 8468|      0|        case detail::arg_type::float_type:
  ------------------
  |  Branch (8468:9): [True: 0, False: 3.42M]
  ------------------
 8469|      0|            SCN_VISIT(float);
  ------------------
  |  | 8428|      0|    if constexpr (!detail::is_type_disabled<Type>) {            \
  |  | 8429|      0|        return vis(*static_cast<Type*>(arg.m_value.ref_value)); \
  |  | 8430|      0|    }                                                           \
  |  | 8431|      0|    else {                                                      \
  |  | 8432|      0|        return vis(monostate_val);                              \
  |  | 8433|      0|    }
  ------------------
 8470|      0|        case detail::arg_type::double_type:
  ------------------
  |  Branch (8470:9): [True: 0, False: 3.42M]
  ------------------
 8471|      0|            SCN_VISIT(double);
  ------------------
  |  | 8428|      0|    if constexpr (!detail::is_type_disabled<Type>) {            \
  |  | 8429|      0|        return vis(*static_cast<Type*>(arg.m_value.ref_value)); \
  |  | 8430|      0|    }                                                           \
  |  | 8431|      0|    else {                                                      \
  |  | 8432|      0|        return vis(monostate_val);                              \
  |  | 8433|      0|    }
  ------------------
 8472|      0|        case detail::arg_type::ldouble_type:
  ------------------
  |  Branch (8472:9): [True: 0, False: 3.42M]
  ------------------
 8473|      0|            SCN_VISIT(long double);
  ------------------
  |  | 8428|      0|    if constexpr (!detail::is_type_disabled<Type>) {            \
  |  | 8429|      0|        return vis(*static_cast<Type*>(arg.m_value.ref_value)); \
  |  | 8430|      0|    }                                                           \
  |  | 8431|      0|    else {                                                      \
  |  | 8432|      0|        return vis(monostate_val);                              \
  |  | 8433|      0|    }
  ------------------
 8474|      0|        case detail::arg_type::narrow_string_view_type:
  ------------------
  |  Branch (8474:9): [True: 0, False: 3.42M]
  ------------------
 8475|      0|            SCN_VISIT(std::string_view);
  ------------------
  |  | 8428|      0|    if constexpr (!detail::is_type_disabled<Type>) {            \
  |  | 8429|      0|        return vis(*static_cast<Type*>(arg.m_value.ref_value)); \
  |  | 8430|      0|    }                                                           \
  |  | 8431|      0|    else {                                                      \
  |  | 8432|      0|        return vis(monostate_val);                              \
  |  | 8433|      0|    }
  ------------------
 8476|      0|        case detail::arg_type::narrow_string_type:
  ------------------
  |  Branch (8476:9): [True: 0, False: 3.42M]
  ------------------
 8477|      0|            SCN_VISIT(std::string);
  ------------------
  |  | 8428|      0|    if constexpr (!detail::is_type_disabled<Type>) {            \
  |  | 8429|      0|        return vis(*static_cast<Type*>(arg.m_value.ref_value)); \
  |  | 8430|      0|    }                                                           \
  |  | 8431|      0|    else {                                                      \
  |  | 8432|      0|        return vis(monostate_val);                              \
  |  | 8433|      0|    }
  ------------------
 8478|  1.71M|        case detail::arg_type::wide_string_view_type:
  ------------------
  |  Branch (8478:9): [True: 1.71M, False: 1.71M]
  ------------------
 8479|  1.71M|            SCN_VISIT(std::wstring_view);
  ------------------
  |  | 8428|  1.71M|    if constexpr (!detail::is_type_disabled<Type>) {            \
  |  | 8429|  1.71M|        return vis(*static_cast<Type*>(arg.m_value.ref_value)); \
  |  | 8430|  1.71M|    }                                                           \
  |  | 8431|  1.71M|    else {                                                      \
  |  | 8432|  1.71M|        return vis(monostate_val);                              \
  |  | 8433|  1.71M|    }
  ------------------
 8480|  3.42M|        case detail::arg_type::wide_string_type:
  ------------------
  |  Branch (8480:9): [True: 1.71M, False: 1.71M]
  ------------------
 8481|  3.42M|            SCN_VISIT(std::wstring);
  ------------------
  |  | 8428|  3.42M|    if constexpr (!detail::is_type_disabled<Type>) {            \
  |  | 8429|  3.42M|        return vis(*static_cast<Type*>(arg.m_value.ref_value)); \
  |  | 8430|  3.42M|    }                                                           \
  |  | 8431|  3.42M|    else {                                                      \
  |  | 8432|  3.42M|        return vis(monostate_val);                              \
  |  | 8433|  3.42M|    }
  ------------------
 8482|  3.42M|        case detail::arg_type::narrow_regex_matches_type:
  ------------------
  |  Branch (8482:9): [True: 0, False: 3.42M]
  ------------------
 8483|  3.42M|            SCN_VISIT(regex_matches);
  ------------------
  |  | 8428|  3.42M|    if constexpr (!detail::is_type_disabled<Type>) {            \
  |  | 8429|  3.42M|        return vis(*static_cast<Type*>(arg.m_value.ref_value)); \
  |  | 8430|  3.42M|    }                                                           \
  |  | 8431|  3.42M|    else {                                                      \
  |  | 8432|  3.42M|        return vis(monostate_val);                              \
  |  | 8433|  3.42M|    }
  ------------------
 8484|  3.42M|        case detail::arg_type::wide_regex_matches_type:
  ------------------
  |  Branch (8484:9): [True: 0, False: 3.42M]
  ------------------
 8485|  3.42M|            SCN_VISIT(wregex_matches);
  ------------------
  |  | 8428|  3.42M|    if constexpr (!detail::is_type_disabled<Type>) {            \
  |  | 8429|  3.42M|        return vis(*static_cast<Type*>(arg.m_value.ref_value)); \
  |  | 8430|  3.42M|    }                                                           \
  |  | 8431|  3.42M|    else {                                                      \
  |  | 8432|  3.42M|        return vis(monostate_val);                              \
  |  | 8433|  3.42M|    }
  ------------------
 8486|       |
 8487|  3.42M|        case detail::arg_type::custom_type:
  ------------------
  |  Branch (8487:9): [True: 0, False: 3.42M]
  ------------------
 8488|  3.42M|#if !SCN_DISABLE_TYPE_CUSTOM
 8489|  3.42M|            return vis(
 8490|  3.42M|                typename Ctx::arg_type::handle(arg.m_value.custom_value));
 8491|       |#else
 8492|       |            return vis(monostate_val);
 8493|       |#endif
 8494|       |
 8495|      0|            SCN_CLANG_PUSH
 8496|      0|            SCN_CLANG_IGNORE("-Wcovered-switch-default")
 8497|       |
 8498|      0|            SCN_UNLIKELY_ATTR
 8499|      0|        case detail::arg_type::none_type:
  ------------------
  |  Branch (8499:9): [True: 0, False: 3.42M]
  ------------------
 8500|      0|        default: {
  ------------------
  |  Branch (8500:9): [True: 0, False: 3.42M]
  ------------------
 8501|      0|            return vis(monostate_val);
 8502|      0|        }
 8503|       |
 8504|  3.42M|            SCN_CLANG_POP
 8505|  3.42M|    }
 8506|       |
 8507|      0|#undef SCN_VISIT
 8508|       |
 8509|      0|    SCN_ENSURE(false);
  ------------------
  |  |  925|      0|#define SCN_ENSURE(cond) SCN_ASSERT(cond, "Postcondition violation")
  |  |  ------------------
  |  |  |  |  921|      0|#define SCN_ASSERT(cond, msg) assert((cond) && msg)
  |  |  ------------------
  ------------------
 8510|      0|    SCN_UNREACHABLE;
  ------------------
  |  |  887|      0|#define SCN_UNREACHABLE __builtin_unreachable()
  ------------------
 8511|      0|}
_ZN3scn2v324basic_scan_parse_contextIwEC2ENSt3__117basic_string_viewIwNS3_11char_traitsIwEEEEi:
 5553|  3.53M|        : m_format{format}, m_next_arg_id{next_arg_id}
 5554|  3.53M|    {
 5555|  3.53M|    }
_ZN3scn2v318basic_scan_contextIwEC2ENS0_6detail17basic_scan_bufferIwE16forward_iteratorENS0_15basic_scan_argsIS2_EENS3_10locale_refE:
 8146|  1.17M|        : base(SCN_MOVE(a), loc), m_current(curr)
  ------------------
  |  |  928|  1.17M|    static_cast<    \
  |  |  929|  1.17M|        typename ::scn::detail::remove_reference<decltype(x)>::type&&>(x)
  ------------------
 8147|  1.17M|    {
 8148|  1.17M|    }
_ZN3scn2v36detail17scan_context_baseINS0_15basic_scan_argsINS0_18basic_scan_contextIwEEEEEC2ES6_NS1_10locale_refE:
 8064|  3.53M|        : m_args(SCN_MOVE(args)), m_locale(SCN_MOVE(loc))
  ------------------
  |  |  928|  3.53M|    static_cast<    \
  |  |  929|  3.53M|        typename ::scn::detail::remove_reference<decltype(x)>::type&&>(x)
  ------------------
                      : m_args(SCN_MOVE(args)), m_locale(SCN_MOVE(loc))
  ------------------
  |  |  928|  3.53M|    static_cast<    \
  |  |  929|  3.53M|        typename ::scn::detail::remove_reference<decltype(x)>::type&&>(x)
  ------------------
 8065|  3.53M|    {
 8066|  3.53M|    }
impl.cpp:_ZN3scn2v36detail19parse_format_stringILb0EwRNS0_12_GLOBAL__N_114format_handlerILb1EwEEEENS0_10scan_errorENSt3__117basic_string_viewIT0_NS8_11char_traitsISA_EEEEOT1_:
 7053|  2.35M|{
 7054|  2.35M|    parse_format_string_impl<IsConstexpr>(format, handler);
 7055|  2.35M|    handler.check_args_exhausted();
 7056|  2.35M|    return handler.get_error();
 7057|  2.35M|}
impl.cpp:_ZN3scn2v36detail24parse_format_string_implILb0EwRNS0_12_GLOBAL__N_114format_handlerILb1EwEEEEvNSt3__117basic_string_viewIT0_NS7_11char_traitsIS9_EEEEOT1_:
 7019|  2.35M|{
 7020|       |    // TODO: memchr fast path with a larger (> 32) format string
 7021|       |
 7022|  2.35M|    auto begin = format.data();
 7023|  2.35M|    auto it = begin;
 7024|  2.35M|    const auto end = format.data() + format.size();
 7025|       |
 7026|  4.62M|    while (it != end) {
  ------------------
  |  Branch (7026:12): [True: 2.35M, False: 2.26M]
  ------------------
 7027|  2.35M|        const auto ch = *it++;
 7028|  2.35M|        if (ch == CharT{'{'}) {
  ------------------
  |  Branch (7028:13): [True: 2.35M, False: 0]
  ------------------
 7029|  2.35M|            handler.on_literal_text(begin, it - 1);
 7030|       |
 7031|  2.35M|            begin = it = parse_replacement_field(it - 1, end, handler);
 7032|  2.35M|            if (!handler) {
  ------------------
  |  Branch (7032:17): [True: 93.6k, False: 2.26M]
  ------------------
 7033|  93.6k|                return;
 7034|  93.6k|            }
 7035|  2.35M|        }
 7036|      0|        else if (ch == CharT{'}'}) {
  ------------------
  |  Branch (7036:18): [True: 0, False: 0]
  ------------------
 7037|      0|            if (SCN_UNLIKELY(it == end || *it != CharT{'}'})) {
  ------------------
  |  |  859|      0|#define SCN_UNLIKELY(x) __builtin_expect(!!(x), 0)
  |  |  ------------------
  |  |  |  Branch (859:25): [True: 0, False: 0]
  |  |  |  Branch (859:45): [True: 0, False: 0]
  |  |  |  Branch (859:45): [True: 0, False: 0]
  |  |  ------------------
  ------------------
 7038|      0|                handler.on_error("Unmatched '}' in format string");
 7039|      0|                return;
 7040|      0|            }
 7041|       |
 7042|      0|            handler.on_literal_text(begin, it);
 7043|      0|            begin = ++it;
 7044|      0|        }
 7045|  2.35M|    }
 7046|       |
 7047|  2.26M|    handler.on_literal_text(begin, end);
 7048|  2.26M|}
impl.cpp:_ZN3scn2v36detail23parse_replacement_fieldIwNS0_12_GLOBAL__N_114format_handlerILb1EwEEEEPKT_S8_S8_RT0_:
 6951|  2.35M|{
 6952|  2.35M|    struct id_adapter {
 6953|  2.35M|        constexpr void operator()()
 6954|  2.35M|        {
 6955|  2.35M|            arg_id = handler.on_arg_id();
 6956|  2.35M|        }
 6957|  2.35M|        constexpr void operator()(std::size_t id)
 6958|  2.35M|        {
 6959|  2.35M|            arg_id = handler.on_arg_id(id);
 6960|  2.35M|        }
 6961|       |
 6962|  2.35M|        constexpr void on_error(const char* msg)
 6963|  2.35M|        {
 6964|  2.35M|            SCN_UNLIKELY_ATTR
 6965|  2.35M|            handler.on_error(msg);
 6966|  2.35M|        }
 6967|       |
 6968|  2.35M|        Handler& handler;
 6969|  2.35M|        std::size_t arg_id;
 6970|  2.35M|    };
 6971|       |
 6972|  2.35M|    ++begin;
 6973|  2.35M|    if (SCN_UNLIKELY(begin == end)) {
  ------------------
  |  |  859|  2.35M|#define SCN_UNLIKELY(x) __builtin_expect(!!(x), 0)
  |  |  ------------------
  |  |  |  Branch (859:25): [True: 0, False: 2.35M]
  |  |  ------------------
  ------------------
 6974|      0|        handler.on_error("Unexpected end of replacement field");
 6975|      0|        return begin;
 6976|      0|    }
 6977|       |
 6978|  2.35M|    if (*begin == CharT{'}'}) {
  ------------------
  |  Branch (6978:9): [True: 0, False: 2.35M]
  ------------------
 6979|      0|        handler.on_replacement_field(handler.on_arg_id(), begin);
 6980|      0|    }
 6981|  2.35M|    else if (*begin == CharT{'{'}) {
  ------------------
  |  Branch (6981:14): [True: 0, False: 2.35M]
  ------------------
 6982|      0|        handler.on_literal_text(begin, begin + 1);
 6983|      0|    }
 6984|  2.35M|    else {
 6985|  2.35M|        auto adapter = id_adapter{handler, 0};
 6986|  2.35M|        begin = parse_arg_id(begin, end, adapter);
 6987|       |
 6988|  2.35M|        if (SCN_UNLIKELY(begin == end)) {
  ------------------
  |  |  859|  2.35M|#define SCN_UNLIKELY(x) __builtin_expect(!!(x), 0)
  |  |  ------------------
  |  |  |  Branch (859:25): [True: 0, False: 2.35M]
  |  |  ------------------
  ------------------
 6989|      0|            handler.on_error("Missing '}' in format string");
 6990|      0|            return begin;
 6991|      0|        }
 6992|       |
 6993|  2.35M|        if (*begin == CharT{'}'}) {
  ------------------
  |  Branch (6993:13): [True: 0, False: 2.35M]
  ------------------
 6994|      0|            handler.on_replacement_field(adapter.arg_id, begin);
 6995|      0|        }
 6996|  2.35M|        else if (*begin == CharT{':'}) {
  ------------------
  |  Branch (6996:18): [True: 2.35M, False: 0]
  ------------------
 6997|  2.35M|            if (SCN_UNLIKELY(begin + 1 == end)) {
  ------------------
  |  |  859|  2.35M|#define SCN_UNLIKELY(x) __builtin_expect(!!(x), 0)
  |  |  ------------------
  |  |  |  Branch (859:25): [True: 0, False: 2.35M]
  |  |  ------------------
  ------------------
 6998|      0|                handler.on_error("Unexpected end of replacement field");
 6999|      0|                return begin;
 7000|      0|            }
 7001|  2.35M|            begin = handler.on_format_specs(adapter.arg_id, begin + 1, end);
 7002|  2.35M|            if (SCN_UNLIKELY(begin == end || *begin != '}')) {
  ------------------
  |  |  859|  4.71M|#define SCN_UNLIKELY(x) __builtin_expect(!!(x), 0)
  |  |  ------------------
  |  |  |  Branch (859:25): [True: 37.4k, False: 2.32M]
  |  |  |  Branch (859:45): [True: 0, False: 2.35M]
  |  |  |  Branch (859:45): [True: 37.4k, False: 2.32M]
  |  |  ------------------
  ------------------
 7003|  37.4k|                handler.on_error("Unknown format specifier");
 7004|  37.4k|                return begin;
 7005|  37.4k|            }
 7006|  2.35M|        }
 7007|      0|        else {
 7008|      0|            SCN_UNLIKELY_ATTR
 7009|      0|            handler.on_error("Missing '}' in format string");
 7010|      0|            return begin;
 7011|      0|        }
 7012|  2.35M|    }
 7013|  2.32M|    return begin + 1;
 7014|  2.35M|}
_ZNK3scn2v36detail17scan_context_baseINS0_15basic_scan_argsINS0_18basic_scan_contextIwEEEEE3argEm:
 8048|  3.53M|    {
 8049|  3.53M|        return m_args.get(id);
 8050|  3.53M|    }
_ZNK3scn2v36detail17scan_context_baseINS0_15basic_scan_argsINS0_18basic_scan_contextIwEEEEE6localeEv:
 8058|  3.48M|    {
 8059|  3.48M|        return m_locale;
 8060|  3.48M|    }
_ZN3scn2v324basic_scan_parse_contextIwE11next_arg_idEv:
 5575|  3.53M|    {
 5576|  3.53M|        if (SCN_UNLIKELY(m_next_arg_id < 0)) {
  ------------------
  |  |  859|  3.53M|#define SCN_UNLIKELY(x) __builtin_expect(!!(x), 0)
  |  |  ------------------
  |  |  |  Branch (859:25): [True: 0, False: 3.53M]
  |  |  ------------------
  ------------------
 5577|      0|            on_error(
 5578|      0|                "Cannot switch from manual to automatic argument indexing");
 5579|      0|            return 0;
 5580|      0|        }
 5581|       |
 5582|  3.53M|        auto id = static_cast<size_t>(m_next_arg_id++);
 5583|  3.53M|        do_check_arg_id(id);
 5584|  3.53M|        return id;
 5585|  3.53M|    }
_ZN3scn2v324basic_scan_parse_contextIwE15do_check_arg_idEm:
 6063|  3.53M|{
 6064|  3.53M|    if (detail::is_constant_evaluated() &&
  ------------------
  |  Branch (6064:9): [Folded - Ignored]
  ------------------
 6065|  3.53M|        (!SCN_GCC || SCN_GCC >= SCN_COMPILER(12, 0, 0))) {
  ------------------
  |  |  236|      0|#define SCN_GCC 0
  ------------------
                      (!SCN_GCC || SCN_GCC >= SCN_COMPILER(12, 0, 0))) {
  ------------------
  |  |  236|      0|#define SCN_GCC 0
  ------------------
                      (!SCN_GCC || SCN_GCC >= SCN_COMPILER(12, 0, 0))) {
  ------------------
  |  |   25|      0|    ((major) * 10000000 + (minor) * 10000 + (patch))
  ------------------
  |  Branch (6065:10): [Folded - Ignored]
  |  Branch (6065:22): [Folded - Ignored]
  ------------------
 6066|       |        // The cast below will cause an error on gcc pre-12
 6067|      0|        using parse_context_type = detail::compile_parse_context<CharT>;
 6068|      0|        if (static_cast<int>(id) >=
  ------------------
  |  Branch (6068:13): [True: 0, False: 0]
  ------------------
 6069|      0|            static_cast<parse_context_type*>(this)->get_num_args()) {
 6070|      0|            SCN_UNLIKELY_ATTR
 6071|      0|            on_error("Argument not found");
 6072|      0|        }
 6073|      0|    }
 6074|  3.53M|}
impl.cpp:_ZN3scn2v36detail12parse_arg_idIwRZNS1_23parse_replacement_fieldIwNS0_12_GLOBAL__N_114format_handlerILb1EwEEEEPKT_S9_S9_RT0_E10id_adapterEES9_S9_S9_OSA_:
 6452|  2.35M|{
 6453|  2.35M|    SCN_EXPECT(begin != end);
  ------------------
  |  |  924|  2.35M|#define SCN_EXPECT(cond) SCN_ASSERT(cond, "Precondition violation")
  |  |  ------------------
  |  |  |  |  921|  2.35M|#define SCN_ASSERT(cond, msg) assert((cond) && msg)
  |  |  ------------------
  ------------------
 6454|  2.35M|    if (*begin != '}' && *begin != ':') {
  ------------------
  |  Branch (6454:9): [True: 2.35M, False: 0]
  |  Branch (6454:26): [True: 0, False: 2.35M]
  ------------------
 6455|      0|        return do_parse_arg_id(begin, end, SCN_FWD(handler));
  ------------------
  |  |  930|      0|#define SCN_FWD(x)          static_cast<decltype(x)&&>(x)
  ------------------
 6456|      0|    }
 6457|       |
 6458|  2.35M|    handler();
 6459|  2.35M|    return begin;
 6460|  2.35M|}
_ZN3scn2v36detail16parse_simple_intIwEEiRPKT_S5_:
 6401|  56.1k|{
 6402|  56.1k|    SCN_EXPECT(begin != end);
  ------------------
  |  |  924|  56.1k|#define SCN_EXPECT(cond) SCN_ASSERT(cond, "Precondition violation")
  |  |  ------------------
  |  |  |  |  921|  56.1k|#define SCN_ASSERT(cond, msg) assert((cond) && msg)
  |  |  ------------------
  ------------------
 6403|  56.1k|    SCN_EXPECT(*begin >= '0' && *begin <= '9');
  ------------------
  |  |  924|  56.1k|#define SCN_EXPECT(cond) SCN_ASSERT(cond, "Precondition violation")
  |  |  ------------------
  |  |  |  |  921|  56.1k|#define SCN_ASSERT(cond, msg) assert((cond) && msg)
  |  |  ------------------
  ------------------
 6404|       |
 6405|  56.1k|    unsigned long long value = 0;
 6406|   112k|    do {
 6407|   112k|        value *= 10;
 6408|   112k|        value += static_cast<unsigned long long>(*begin - '0');
 6409|   112k|        if (value >
  ------------------
  |  Branch (6409:13): [True: 0, False: 112k]
  ------------------
 6410|   112k|            static_cast<unsigned long long>(std::numeric_limits<int>::max())) {
 6411|      0|            return -1;
 6412|      0|        }
 6413|   112k|        ++begin;
 6414|   112k|    } while (begin != end && *begin >= '0' && *begin <= '9');
  ------------------
  |  Branch (6414:14): [True: 112k, False: 0]
  |  Branch (6414:30): [True: 112k, False: 0]
  |  Branch (6414:47): [True: 56.1k, False: 56.1k]
  ------------------
 6415|  56.1k|    return static_cast<int>(value);
 6416|  56.1k|}
impl.cpp:_ZZN3scn2v36detail23parse_replacement_fieldIwNS0_12_GLOBAL__N_114format_handlerILb1EwEEEEPKT_S8_S8_RT0_EN10id_adapterclEv:
 6954|  2.35M|        {
 6955|  2.35M|            arg_id = handler.on_arg_id();
 6956|  2.35M|        }
_ZNK3scn2v314basic_scan_argINS0_18basic_scan_contextIwEEE4typeEv:
 5261|  7.07M|    {
 5262|  7.07M|        return m_type;
 5263|  7.07M|    }
_ZN3scn2v324basic_scan_parse_contextIwE10advance_toEPKw:
 5570|  3.48M|    {
 5571|  3.48M|        m_format.remove_prefix(static_cast<std::size_t>(it - begin()));
 5572|  3.48M|    }
_ZN3scn2v36detail17basic_scan_bufferIwE3getEv:
 4352|  2.89M|{
 4353|  2.89M|    if (is_contiguous()) {
  ------------------
  |  Branch (4353:9): [True: 0, False: 2.89M]
  ------------------
 4354|      0|        return ranges::subrange{forward_iterator{m_current_view, 0},
 4355|      0|                                ranges::default_sentinel};
 4356|      0|    }
 4357|  2.89M|    return ranges::subrange{forward_iterator{this, 0},
 4358|  2.89M|                            ranges::default_sentinel};
 4359|  2.89M|}
_ZN3scn2v36detail17basic_scan_bufferIwE16forward_iteratorC2EPS3_l:
 4183|  2.89M|        : m_begin(parent), m_end(nullptr), m_position(pos)
 4184|  2.89M|    {
 4185|  2.89M|        SCN_EXPECT(parent);
  ------------------
  |  |  924|  2.89M|#define SCN_EXPECT(cond) SCN_ASSERT(cond, "Precondition violation")
  |  |  ------------------
  |  |  |  |  921|  2.89M|#define SCN_ASSERT(cond, msg) assert((cond) && msg)
  |  |  ------------------
  ------------------
 4186|  2.89M|        SCN_EXPECT(!parent->is_contiguous());
  ------------------
  |  |  924|  2.89M|#define SCN_EXPECT(cond) SCN_ASSERT(cond, "Precondition violation")
  |  |  ------------------
  |  |  |  |  921|  2.89M|#define SCN_ASSERT(cond, msg) assert((cond) && msg)
  |  |  ------------------
  ------------------
 4187|  2.89M|    }
_ZNK3scn2v324basic_scan_parse_contextIwE5beginEv:
 5559|  7.01M|    {
 5560|  7.01M|        return m_format.data();
 5561|  7.01M|    }
impl.cpp:_ZN3scn2v36detail13specs_checkerINS0_12_GLOBAL__N_113specs_handlerINS0_4impl29basic_contiguous_scan_contextIwEEEEEC2IS8_EEOT_NS1_8arg_typeE:
 7130|  2.35M|        : Handler(SCN_FWD(handler)), m_arg_type(type)
  ------------------
  |  |  930|  2.35M|#define SCN_FWD(x)          static_cast<decltype(x)&&>(x)
  ------------------
 7131|  2.35M|    {
 7132|  2.35M|        SCN_EXPECT(m_arg_type != arg_type::custom_type);
  ------------------
  |  |  924|  2.35M|#define SCN_EXPECT(cond) SCN_ASSERT(cond, "Precondition violation")
  |  |  ------------------
  |  |  |  |  921|  2.35M|#define SCN_ASSERT(cond, msg) assert((cond) && msg)
  |  |  ------------------
  ------------------
 7133|  2.35M|    }
impl.cpp:_ZN3scn2v36detail18parse_format_specsIwRNS1_13specs_checkerINS0_12_GLOBAL__N_113specs_handlerINS0_4impl29basic_contiguous_scan_contextIwEEEEEEEEPKT_SE_SE_OT0_:
 6867|  2.35M|{
 6868|  2.35M|    auto do_presentation = [&]() -> const CharT* {
 6869|  2.35M|        if (*begin == CharT{'['}) {
 6870|  2.35M|            auto set = parse_presentation_set(begin, end, handler);
 6871|  2.35M|            if (SCN_UNLIKELY(set.size() <= 2)) {
 6872|       |                // clang-format off
 6873|  2.35M|                handler.on_error("Invalid (empty) [character set] specifier in format string");
 6874|       |                // clang-format on
 6875|  2.35M|                return begin;
 6876|  2.35M|            }
 6877|  2.35M|            handler.on_character_set_string(set);
 6878|  2.35M|            return begin;
 6879|  2.35M|        }
 6880|  2.35M|        if (*begin == CharT{'/'}) {
 6881|  2.35M|            return parse_presentation_regex(begin, end, handler);
 6882|  2.35M|        }
 6883|  2.35M|        presentation_type type = parse_presentation_type(*begin++);
 6884|  2.35M|        if (SCN_UNLIKELY(type == presentation_type::none)) {
 6885|  2.35M|            handler.on_error("Invalid type specifier in format string");
 6886|  2.35M|            return begin;
 6887|  2.35M|        }
 6888|  2.35M|        handler.on_type(type);
 6889|  2.35M|        return begin;
 6890|  2.35M|    };
 6891|       |
 6892|  2.35M|    if (end - begin > 1 && *(begin + 1) == CharT{'}'} &&
  ------------------
  |  Branch (6892:9): [True: 2.35M, False: 0]
  |  Branch (6892:28): [True: 2.30M, False: 56.6k]
  ------------------
 6893|  2.35M|        is_ascii_letter(*begin) && *begin != CharT{'L'}) {
  ------------------
  |  Branch (6893:9): [True: 2.30M, False: 0]
  |  Branch (6893:36): [True: 2.28M, False: 18.7k]
  ------------------
 6894|  2.28M|        return do_presentation();
 6895|  2.28M|    }
 6896|       |
 6897|  75.4k|    if (SCN_UNLIKELY(begin == end)) {
  ------------------
  |  |  859|  75.4k|#define SCN_UNLIKELY(x) __builtin_expect(!!(x), 0)
  |  |  ------------------
  |  |  |  Branch (859:25): [True: 0, False: 75.4k]
  |  |  ------------------
  ------------------
 6898|      0|        handler.on_error("Unexpected end of format string");
 6899|      0|        return begin;
 6900|      0|    }
 6901|       |
 6902|  75.4k|    begin = parse_align(begin, end, handler);
 6903|  75.4k|    if (SCN_UNLIKELY(begin == end)) {
  ------------------
  |  |  859|  75.4k|#define SCN_UNLIKELY(x) __builtin_expect(!!(x), 0)
  |  |  ------------------
  |  |  |  Branch (859:25): [True: 0, False: 75.4k]
  |  |  ------------------
  ------------------
 6904|      0|        handler.on_error("Unexpected end of format string");
 6905|      0|        return begin;
 6906|      0|    }
 6907|       |
 6908|  75.4k|    begin = parse_width(begin, end, handler);
 6909|  75.4k|    if (SCN_UNLIKELY(begin == end)) {
  ------------------
  |  |  859|  75.4k|#define SCN_UNLIKELY(x) __builtin_expect(!!(x), 0)
  |  |  ------------------
  |  |  |  Branch (859:25): [True: 0, False: 75.4k]
  |  |  ------------------
  ------------------
 6910|      0|        handler.on_error("Unexpected end of format string");
 6911|      0|        return begin;
 6912|      0|    }
 6913|       |
 6914|  75.4k|    if (*begin == CharT{'.'}) {
  ------------------
  |  Branch (6914:9): [True: 0, False: 75.4k]
  ------------------
 6915|      0|        ++begin;
 6916|      0|        if (SCN_UNLIKELY(begin == end)) {
  ------------------
  |  |  859|      0|#define SCN_UNLIKELY(x) __builtin_expect(!!(x), 0)
  |  |  ------------------
  |  |  |  Branch (859:25): [True: 0, False: 0]
  |  |  ------------------
  ------------------
 6917|      0|            handler.on_error("Unexpected end of format string");
 6918|      0|            return begin;
 6919|      0|        }
 6920|      0|        begin = parse_precision(begin, end, handler);
 6921|      0|        if (SCN_UNLIKELY(begin == end)) {
  ------------------
  |  |  859|      0|#define SCN_UNLIKELY(x) __builtin_expect(!!(x), 0)
  |  |  ------------------
  |  |  |  Branch (859:25): [True: 0, False: 0]
  |  |  ------------------
  ------------------
 6922|      0|            handler.on_error("Unexpected end of format string");
 6923|      0|            return begin;
 6924|      0|        }
 6925|      0|    }
 6926|       |
 6927|  75.4k|    if (*begin == CharT{'L'}) {
  ------------------
  |  Branch (6927:9): [True: 18.7k, False: 56.6k]
  ------------------
 6928|  18.7k|        handler.on_localized();
 6929|  18.7k|        ++begin;
 6930|  18.7k|    }
 6931|  75.4k|    if (SCN_UNLIKELY(begin == end)) {
  ------------------
  |  |  859|  75.4k|#define SCN_UNLIKELY(x) __builtin_expect(!!(x), 0)
  |  |  ------------------
  |  |  |  Branch (859:25): [True: 0, False: 75.4k]
  |  |  ------------------
  ------------------
 6932|      0|        handler.on_error("Unexpected end of format string");
 6933|      0|        return begin;
 6934|      0|    }
 6935|       |
 6936|  75.4k|    if (begin != end && *begin != CharT{'}'}) {
  ------------------
  |  Branch (6936:9): [True: 75.4k, False: 0]
  |  Branch (6936:25): [True: 56.6k, False: 18.7k]
  ------------------
 6937|  56.6k|        do_presentation();
 6938|  56.6k|    }
 6939|  75.4k|    if (SCN_UNLIKELY(begin == end)) {
  ------------------
  |  |  859|  75.4k|#define SCN_UNLIKELY(x) __builtin_expect(!!(x), 0)
  |  |  ------------------
  |  |  |  Branch (859:25): [True: 0, False: 75.4k]
  |  |  ------------------
  ------------------
