_ZZN3scn2v44impl35read_matching_string_classic_nocaseINS0_6ranges6detail9subrange_8subrangeINS1_27counted_width_iterator_impl22counted_width_iteratorIPKcSA_EENS1_15take_width_viewINS6_ISA_SA_EEE8sentinelILb1EEEEEEENS1_14parse_expectedIDTclL_ZNS3_5beginEEclsr3stdE7declvalIRNSt3__19add_constIT_E4typeEEEEEEESL_NSJ_17basic_string_viewIcNSJ_11char_traitsIcEEEEENKUlSL_T0_E_clIccEEDaSL_SV_:
  865|  1.22k|#define SCN_UNLIKELY(x) __builtin_expect(!!(x), 0)
_ZZN3scn2v44impl35read_matching_string_classic_nocaseINS0_6ranges6detail9subrange_8subrangeINS1_27counted_width_iterator_impl22counted_width_iteratorIPKwSA_EENS1_15take_width_viewINS6_ISA_SA_EEE8sentinelILb1EEEEEEENS1_14parse_expectedIDTclL_ZNS3_5beginEEclsr3stdE7declvalIRNSt3__19add_constIT_E4typeEEEEEEESL_NSJ_17basic_string_viewIcNSJ_11char_traitsIcEEEEENKUlSL_T0_E_clIwcEEDaSL_SV_:
  865|    434|#define SCN_UNLIKELY(x) __builtin_expect(!!(x), 0)
_ZZN3scn2v44impl35read_matching_string_classic_nocaseINS0_6ranges6detail9subrange_8subrangeIPKwS8_EEEENS1_14parse_expectedIDTclL_ZNS3_5beginEEclsr3stdE7declvalIRNSt3__19add_constIT_E4typeEEEEEEESD_NSB_17basic_string_viewIcNSB_11char_traitsIcEEEEENKUlSD_T0_E_clIwcEEDaSD_SN_:
  865|  3.24k|#define SCN_UNLIKELY(x) __builtin_expect(!!(x), 0)

_ZN3scn2v46detail39code_point_length_by_starting_code_unitIcEEmT_:
 4067|  2.74M|{
 4068|  2.74M|    if constexpr (sizeof(U) == 1) {
 4069|  2.74M|        return utf8_code_point_length_by_starting_code_unit(ch);
 4070|       |    }
 4071|       |    else if constexpr (sizeof(U) == 2) {
 4072|       |        return utf16_code_point_length_by_starting_code_unit(ch);
 4073|       |    }
 4074|       |    else {
 4075|       |        // utf-32
 4076|       |        static_assert(sizeof(U) == 4);
 4077|       |        SCN_UNUSED(ch);
 4078|       |        return 1;
 4079|       |    }
 4080|  2.74M|}
_ZN3scn2v46detail44utf8_code_point_length_by_starting_code_unitIcEEmT_:
 4031|  2.74M|{
 4032|  2.74M|    static_assert(sizeof(U8) == 1);
 4033|       |
 4034|  2.74M|    SCN_GCC_COMPAT_PUSH
 4035|  2.74M|    SCN_GCC_COMPAT_IGNORE("-Wsign-conversion")
 4036|  2.74M|    constexpr char lengths[] =
 4037|  2.74M|        "\1\1\1\1\1\1\1\1"  // highest bit is 0 -> single-byte
 4038|  2.74M|        "\1\1\1\1\1\1\1\1"
 4039|  2.74M|        "\0\0\0\0\0\0\0\0"  // highest bits 10 -> error, non-initial
 4040|       |                            // byte
 4041|  2.74M|        "\2\2\2\2"          // highest bits 110 -> 2-byte cp
 4042|  2.74M|        "\3\3"              // highest bits 1110 -> 3-byte cp
 4043|  2.74M|        "\4";               // highest bits 11110 -> 4-byte cp
 4044|  2.74M|    return lengths[static_cast<unsigned char>(ch) >> 3];
 4045|  2.74M|    SCN_GCC_COMPAT_POP
 4046|  2.74M|}
_ZN3scn2v46detail28decode_code_point_exhaustiveIcEEDiNSt3__117basic_string_viewIT_NS3_11char_traitsIS5_EEEE:
 4273|  2.50M|{
 4274|  2.50M|    if constexpr (sizeof(CharT) == 1) {
 4275|  2.50M|        return decode_utf8_code_point_exhaustive(input);
 4276|       |    }
 4277|       |    else if constexpr (sizeof(CharT) == 2) {
 4278|       |        return decode_utf16_code_point_exhaustive(input);
 4279|       |    }
 4280|       |    else {
 4281|       |        SCN_EXPECT(input.size() == 1);
 4282|       |        auto cp = static_cast<char32_t>(input.front());
 4283|       |        if (SCN_UNLIKELY(cp >= invalid_code_point)) {
 4284|       |            return invalid_code_point;
 4285|       |        }
 4286|       |        return cp;
 4287|       |    }
 4288|  2.50M|}
_ZN3scn2v46detail33decode_utf8_code_point_exhaustiveENSt3__117basic_string_viewIcNS2_11char_traitsIcEEEE:
 4086|  2.50M|{
 4087|  2.50M|    SCN_EXPECT(!input.empty() && input.size() <= 4);
  ------------------
  |  |  930|  2.50M|#define SCN_EXPECT(cond) SCN_ASSERT(cond, "Precondition violation")
  |  |  ------------------
  |  |  |  |  927|  2.50M|#define SCN_ASSERT(cond, msg) assert((cond) && msg)
  |  |  ------------------
  ------------------
 4088|       |
 4089|  2.50M|    const auto is_trailing_code_unit = [](char ch) {
 4090|  2.50M|        return static_cast<unsigned char>(ch) >> 6 == 0x2;
 4091|  2.50M|    };
 4092|       |
 4093|  2.50M|    if (input.size() == 1) {
  ------------------
  |  Branch (4093:9): [True: 2.12M, False: 378k]
  ------------------
 4094|  2.12M|        if (static_cast<unsigned char>(input[0]) >= 0x80) {
  ------------------
  |  Branch (4094:13): [True: 108, False: 2.12M]
  ------------------
 4095|    108|            SCN_UNLIKELY_ATTR
 4096|    108|            return invalid_code_point;
 4097|    108|        }
 4098|  2.12M|        return static_cast<char32_t>(input[0]);
 4099|  2.12M|    }
 4100|       |
 4101|   378k|    if (input.size() == 2) {
  ------------------
  |  Branch (4101:9): [True: 342k, False: 36.7k]
  ------------------
 4102|   342k|        if ((static_cast<unsigned char>(input[0]) & 0xe0) != 0xc0) {
  ------------------
  |  Branch (4102:13): [True: 24, False: 342k]
  ------------------
 4103|     24|            SCN_UNLIKELY_ATTR
 4104|     24|            return invalid_code_point;
 4105|     24|        }
 4106|   342k|        if (!is_trailing_code_unit(input[1])) {
  ------------------
  |  Branch (4106:13): [True: 3.43k, False: 338k]
  ------------------
 4107|  3.43k|            SCN_UNLIKELY_ATTR
 4108|  3.43k|            return invalid_code_point;
 4109|  3.43k|        }
 4110|       |
 4111|   338k|        char32_t cp{};
 4112|   338k|        cp |= (static_cast<char32_t>(input[0]) & 0x1f) << 6;
 4113|   338k|        cp |= (static_cast<char32_t>(input[1]) & 0x3f) << 0;
 4114|   338k|        return cp;
 4115|   342k|    }
 4116|       |
 4117|  36.7k|    if (input.size() == 3) {
  ------------------
  |  Branch (4117:9): [True: 31.4k, False: 5.34k]
  ------------------
 4118|  31.4k|        if ((static_cast<unsigned char>(input[0]) & 0xf0) != 0xe0) {
  ------------------
  |  Branch (4118:13): [True: 18, False: 31.4k]
  ------------------
 4119|     18|            SCN_UNLIKELY_ATTR
 4120|     18|            return invalid_code_point;
 4121|     18|        }
 4122|  31.4k|        if (!is_trailing_code_unit(input[1]) ||
  ------------------
  |  Branch (4122:13): [True: 1.25k, False: 30.1k]
  ------------------
 4123|  31.4k|            !is_trailing_code_unit(input[2])) {
  ------------------
  |  Branch (4123:13): [True: 273, False: 29.8k]
  ------------------
 4124|  1.52k|            SCN_UNLIKELY_ATTR
 4125|  1.52k|            return invalid_code_point;
 4126|  1.52k|        }
 4127|       |
 4128|  29.8k|        char32_t cp{};
 4129|  29.8k|        cp |= (static_cast<char32_t>(input[0]) & 0x0f) << 12;
 4130|  29.8k|        cp |= (static_cast<char32_t>(input[1]) & 0x3f) << 6;
 4131|  29.8k|        cp |= (static_cast<char32_t>(input[2]) & 0x3f) << 0;
 4132|  29.8k|        return cp;
 4133|  31.4k|    }
 4134|       |
 4135|  5.34k|    if (input.size() == 4) {
  ------------------
  |  Branch (4135:9): [True: 5.34k, False: 0]
  ------------------
 4136|  5.34k|        if ((static_cast<unsigned char>(input[0]) & 0xf8) != 0xf0) {
  ------------------
  |  Branch (4136:13): [True: 0, False: 5.34k]
  ------------------
 4137|      0|            SCN_UNLIKELY_ATTR
 4138|      0|            return invalid_code_point;
 4139|      0|        }
 4140|  5.34k|        if (static_cast<unsigned char>(input[0]) > 0xf4) {
  ------------------
  |  Branch (4140:13): [True: 265, False: 5.07k]
  ------------------
 4141|    265|            SCN_UNLIKELY_ATTR
 4142|    265|            return invalid_code_point;
 4143|    265|        }
 4144|  5.07k|        if (!is_trailing_code_unit(input[1]) ||
  ------------------
  |  Branch (4144:13): [True: 1.00k, False: 4.07k]
  ------------------
 4145|  5.07k|            !is_trailing_code_unit(input[2]) ||
  ------------------
  |  Branch (4145:13): [True: 392, False: 3.68k]
  ------------------
 4146|  5.07k|            !is_trailing_code_unit(input[3])) {
  ------------------
  |  Branch (4146:13): [True: 552, False: 3.12k]
  ------------------
 4147|  1.94k|            SCN_UNLIKELY_ATTR
 4148|  1.94k|            return invalid_code_point;
 4149|  1.94k|        }
 4150|       |
 4151|  3.12k|        char32_t cp{};
 4152|  3.12k|        cp |= (static_cast<char32_t>(input[0]) & 0x07) << 18;
 4153|  3.12k|        cp |= (static_cast<char32_t>(input[1]) & 0x3f) << 12;
 4154|  3.12k|        cp |= (static_cast<char32_t>(input[2]) & 0x3f) << 6;
 4155|  3.12k|        cp |= (static_cast<char32_t>(input[3]) & 0x3f) << 0;
 4156|  3.12k|        return cp;
 4157|  5.07k|    }
 4158|       |
 4159|      0|#if !SCN_GCC || SCN_GCC >= SCN_COMPILER(8, 0, 0)
 4160|       |    // gcc 7 thinks we'll get here, even when we won't
 4161|      0|    SCN_EXPECT(false);
  ------------------
  |  |  930|      0|#define SCN_EXPECT(cond) SCN_ASSERT(cond, "Precondition violation")
  |  |  ------------------
  |  |  |  |  927|      0|#define SCN_ASSERT(cond, msg) assert((cond) && msg)
  |  |  ------------------
  ------------------
 4162|      0|#endif
 4163|      0|    SCN_UNREACHABLE;
  ------------------
  |  |  893|      0|#define SCN_UNREACHABLE __builtin_unreachable()
  ------------------
 4164|      0|}
_ZZN3scn2v46detail33decode_utf8_code_point_exhaustiveENSt3__117basic_string_viewIcNS2_11char_traitsIcEEEEENKUlcE_clEc:
 4089|   416k|    const auto is_trailing_code_unit = [](char ch) {
 4090|   416k|        return static_cast<unsigned char>(ch) >> 6 == 0x2;
 4091|   416k|    };
_ZN3scn2v46detail31make_string_view_from_iteratorsIcEENSt3__117basic_string_viewIT_NS3_11char_traitsIS5_EEEENS8_8iteratorES9_:
 3959|   779k|{
 3960|       |    if constexpr (std::is_constructible_v<std::basic_string_view<CharT>,
 3961|       |                                          decltype(first), decltype(last)> &&
 3962|       |                  !SCN_MSVC_DEBUG_ITERATORS) {
 3963|       |        return {first, last};
 3964|       |    }
 3965|   779k|    else {
 3966|   779k|        return {to_address(first), static_cast<size_t>(std::distance(
 3967|   779k|                                       to_address(first), to_address(last)))};
 3968|   779k|    }
 3969|   779k|}
_ZN3scn2v46detail10to_addressIRPKcEEDTclgssr3scn6detailE15to_address_implscDtfp_Efp_tlNS1_12priority_tagILm2EEEEEEOT_:
  315|  2.38M|{
  316|  2.38M|    return ::scn::detail::to_address_impl(SCN_FWD(p), priority_tag<2>{});
  ------------------
  |  |  936|  2.38M|#define SCN_FWD(x)          static_cast<decltype(x)&&>(x)
  ------------------
  317|  2.38M|}
_ZN3scn2v46detail15to_address_implIKcEEPT_S5_NS1_12priority_tagILm2EEE:
  293|  2.52M|{
  294|  2.52M|    return p;
  295|  2.52M|}
_ZN3scn2v46detail25make_string_view_iteratorIcEENSt3__117basic_string_viewIT_NS3_11char_traitsIS5_EEE8iteratorES8_S9_:
 3990|   344k|{
 3991|       |    if constexpr (std::is_constructible_v<
 3992|       |                      typename std::basic_string_view<CharT>::iterator,
 3993|       |                      decltype(it)> &&
 3994|   344k|                  !SCN_MSVC_DEBUG_ITERATORS) {
 3995|   344k|        SCN_UNUSED(sv);
  ------------------
  |  |  915|   344k|#define SCN_UNUSED(x) static_cast<void>(sizeof(x))
  ------------------
 3996|   344k|        return it;
 3997|       |    }
 3998|       |    else {
 3999|       |        return sv.begin() + std::distance(sv.data(), detail::to_address(it));
 4000|       |    }
 4001|   344k|}
_ZN3scn2v44scanIJcERNSt3__117basic_string_viewIcNS2_11char_traitsIcEEEEvEENS0_13scan_expectedINS0_11scan_resultINS2_11conditionalIXsr3stdE9is_same_vIu11__remove_cvIu20__remove_reference_tIT0_EEP8_IO_FILEEESF_NS0_6detail22borrowed_tail_subrangeISB_Xsr6rangesE14borrowed_rangeISB_EEE4typeEE4typeEJDpT_EEEEEOSB_NS0_24basic_scan_format_stringIcNSG_13type_identityISB_E4typeEJDpNSS_ISM_E4typeEEEE:
 9680|  2.56k|{
 9681|  2.56k|    auto result = make_scan_result<Source, Args...>();
 9682|  2.56k|    fill_scan_result(result, vscan(SCN_FWD(source), format,
  ------------------
  |  |  936|  2.56k|#define SCN_FWD(x)          static_cast<decltype(x)&&>(x)
  ------------------
 9683|  2.56k|                                   make_scan_args(result->values())));
 9684|  2.56k|    return result;
 9685|  2.56k|}
_ZN3scn2v416make_scan_resultIRNSt3__117basic_string_viewIcNS2_11char_traitsIcEEEEJcEEEDav:
 9636|  5.13k|{
 9637|  5.13k|    return scan_result_type<Source, Args...>();
 9638|  5.13k|}
_ZN3scn2v48expectedINS0_11scan_resultINS0_6ranges6detail9subrange_8subrangeIPKcS8_EEJcEEENS0_10scan_errorEEC2Ev:
 1551|  5.13k|    constexpr expected() = default;
_ZN3scn2v46detail21expected_storage_baseINS0_11scan_resultINS0_6ranges6detail9subrange_8subrangeIPKcS9_EEJcEEENS0_10scan_errorELb1EEC2Ev:
  426|  5.13k|        : m_value(T{}), m_has_value(true)
  427|  5.13k|    {
  428|  5.13k|    }
_ZN3scn2v411scan_resultINS0_6ranges6detail9subrange_8subrangeIPKcS7_EEJcEEC2Ev:
 6570|  5.13k|    constexpr scan_result() = default;
_ZN3scn2v46detail25scan_result_range_storageINS0_6ranges6detail9subrange_8subrangeIPKcS8_EEEC2Ev:
 6413|  46.2k|    constexpr scan_result_range_storage() = default;
_ZN3scn2v46ranges6detail9subrange_8subrangeIPKcS6_EC2Ev:
 3459|  46.2k|    subrange() = default;
_ZN3scn2v46detail25scan_result_value_storageIJcEEC2Ev:
 6344|  5.13k|    constexpr scan_result_value_storage() = default;
_ZN3scn2v416fill_scan_resultINS0_11scan_resultINS0_6ranges6detail9subrange_8subrangeIPKcS8_EEJcEEES9_TnPNSt3__19enable_ifIXsr3stdE13conjunction_vINS0_6detail25is_specialization_of_implIu11__remove_cvIu20__remove_reference_tIT_EES2_EENSB_7is_sameINSF_10range_typeET0_EEEEvE4typeELPv0EEEvRNS0_13scan_expectedISF_EEONSR_ISL_EE:
 9621|  5.13k|{
 9622|  5.13k|    if (SCN_UNLIKELY(!in)) {
  ------------------
  |  |  865|  5.13k|#define SCN_UNLIKELY(x) __builtin_expect(!!(x), 0)
  |  |  ------------------
  |  |  |  Branch (865:25): [True: 4.89k, False: 244]
  |  |  ------------------
  ------------------
 9623|  4.89k|        out = unexpected(in.error());
 9624|  4.89k|    }
 9625|    244|    else {
 9626|    244|        out->set_range(SCN_MOVE(*in));
  ------------------
  |  |  934|    244|    static_cast<    \
  |  |  935|    244|        typename ::scn::detail::remove_reference<decltype(x)>::type&&>(x)
  ------------------
 9627|    244|    }
 9628|  5.13k|}
_ZNK3scn2v48expectedINS0_6ranges6detail9subrange_8subrangeIPKcS7_EENS0_10scan_errorEEcvbEv:
 1739|  46.2k|    {
 1740|  46.2k|        return has_value();
 1741|  46.2k|    }
_ZNK3scn2v46detail21expected_storage_baseINS0_6ranges6detail9subrange_8subrangeIPKcS8_EENS0_10scan_errorELb1EE9has_valueEv:
  489|  92.4k|    {
  490|  92.4k|        return m_has_value;
  491|  92.4k|    }
_ZNR3scn2v48expectedINS0_6ranges6detail9subrange_8subrangeIPKcS7_EENS0_10scan_errorEE5errorEv:
 1745|  44.2k|    {
 1746|  44.2k|        SCN_EXPECT(!has_value());
  ------------------
  |  |  930|  44.2k|#define SCN_EXPECT(cond) SCN_ASSERT(cond, "Precondition violation")
  |  |  ------------------
  |  |  |  |  927|  44.2k|#define SCN_ASSERT(cond, msg) assert((cond) && msg)
  |  |  ------------------
  ------------------
 1747|  44.2k|        return this->get_unexpected().error();
 1748|  44.2k|    }
_ZNR3scn2v46detail21expected_storage_baseINS0_6ranges6detail9subrange_8subrangeIPKcS8_EENS0_10scan_errorELb1EE14get_unexpectedEv:
  472|  44.2k|    {
  473|  44.2k|        return m_unexpected;
  474|  44.2k|    }
_ZNR3scn2v410unexpectedINS0_10scan_errorEE5errorEv:
  364|  1.27M|    {
  365|  1.27M|        return m_unexpected;
  366|  1.27M|    }
_ZN3scn2v410unexpectedINS0_10scan_errorEEC2IRS2_vEEOT_:
  349|   618k|        : m_unexpected(std::forward<Err>(e))
  350|   618k|    {
  351|   618k|        SCN_UNLIKELY_ATTR SCN_UNUSED(m_unexpected);
  ------------------
  |  |  915|   618k|#define SCN_UNUSED(x) static_cast<void>(sizeof(x))
  ------------------
  352|   618k|    }
_ZN3scn2v48expectedINS0_11scan_resultINS0_6ranges6detail9subrange_8subrangeIPKcS8_EEJcEEENS0_10scan_errorEEC2ISB_TnPNSt3__19enable_ifIXsr3stdE18is_constructible_vISB_OT_EEvE4typeELPv0ETnPNSF_IXsr3stdE16is_convertible_vISH_SB_EEvE4typeELSL_0EEEONS0_10unexpectedISG_EE:
 1615|  4.89k|        : base(unexpect, std::move(e.error())),
 1616|  4.89k|          ctor_base(detail::non_default_ctor_tag_t{})
 1617|  4.89k|    {
 1618|  4.89k|    }
_ZN3scn2v46detail21expected_storage_baseINS0_11scan_resultINS0_6ranges6detail9subrange_8subrangeIPKcS9_EEJcEEENS0_10scan_errorELb1EEC2IJSC_EvEENS0_10unexpect_tEDpOT_:
  449|  4.89k|        : m_unexpected(std::in_place, std::forward<Args>(args)...),
  450|  4.89k|          m_has_value(false)
  451|  4.89k|    {
  452|  4.89k|    }
_ZN3scn2v410unexpectedINS0_10scan_errorEEC2IJS2_EvEENSt3__110in_place_tEDpOT_:
  358|   797k|        : m_unexpected(std::forward<Args>(args)...)
  359|   797k|    {
  360|   797k|        SCN_UNLIKELY_ATTR SCN_UNUSED(m_unexpected);
  ------------------
  |  |  915|   797k|#define SCN_UNUSED(x) static_cast<void>(sizeof(x))
  ------------------
  361|   797k|    }
_ZN3scn2v46detail26expected_default_ctor_baseINS0_11scan_resultINS0_6ranges6detail9subrange_8subrangeIPKcS9_EEJcEEENS0_10scan_errorELb1EEC2ENS1_22non_default_ctor_tag_tE:
 1315|  4.89k|    {
 1316|  4.89k|    }
_ZN3scn2v48expectedINS0_11scan_resultINS0_6ranges6detail9subrange_8subrangeIPKcS8_EEJcEEENS0_10scan_errorEEaSEOSC_:
 1556|  4.89k|    constexpr expected& operator=(expected&&) = default;
_ZN3scn2v46detail24expected_operations_baseINS0_11scan_resultINS0_6ranges6detail9subrange_8subrangeIPKcS9_EEJcEEENS0_10scan_errorEvEaSEOSD_:
  902|  4.89k|    {
  903|  4.89k|        assign_common(std::move(other));
  904|  4.89k|        return *this;
  905|  4.89k|    }
_ZN3scn2v46detail24expected_operations_baseINS0_11scan_resultINS0_6ranges6detail9subrange_8subrangeIPKcS9_EEJcEEENS0_10scan_errorEvE13assign_commonISD_EEvOT_:
  949|  4.89k|    {
  950|  4.89k|        if (this->has_value()) {
  ------------------
  |  Branch (950:13): [True: 4.89k, False: 0]
  ------------------
  951|  4.89k|            if (other.has_value()) {
  ------------------
  |  Branch (951:17): [True: 0, False: 4.89k]
  ------------------
  952|      0|                return reassign_value(std::forward<Other>(other));
  953|      0|            }
  954|  4.89k|            return assign_unexpected_over_value(std::forward<Other>(other));
  955|  4.89k|        }
  956|       |
  957|      0|        if (other.has_value()) {
  ------------------
  |  Branch (957:13): [True: 0, False: 0]
  ------------------
  958|      0|            return assign_value_over_unexpected(std::forward<Other>(other));
  959|      0|        }
  960|      0|        return reassign_unexpected(std::forward<Other>(other));
  961|      0|    }
_ZNK3scn2v46detail21expected_storage_baseINS0_11scan_resultINS0_6ranges6detail9subrange_8subrangeIPKcS9_EEJcEEENS0_10scan_errorELb1EE9has_valueEv:
  489|  15.1k|    {
  490|  15.1k|        return m_has_value;
  491|  15.1k|    }
_ZNR3scn2v46detail21expected_storage_baseINS0_11scan_resultINS0_6ranges6detail9subrange_8subrangeIPKcS9_EEJcEEENS0_10scan_errorELb1EE9get_valueEv:
  455|  5.37k|    {
  456|  5.37k|        return m_value;
  457|  5.37k|    }
_ZN3scn2v46detail24expected_operations_baseINS0_11scan_resultINS0_6ranges6detail9subrange_8subrangeIPKcS9_EEJcEEENS0_10scan_errorEvE28assign_unexpected_over_valueISD_EEvOT_:
 1045|  4.89k|    {
 1046|  4.89k|        this->destroy_value();
 1047|  4.89k|        this->construct_unexpected(std::forward<Other>(other).get_unexpected());
 1048|  4.89k|    }
_ZN3scn2v46detail21expected_storage_baseINS0_11scan_resultINS0_6ranges6detail9subrange_8subrangeIPKcS9_EEJcEEENS0_10scan_errorELb1EE13destroy_valueEv:
  510|  4.89k|    static constexpr void destroy_value() noexcept {}
_ZN3scn2v46detail21expected_storage_baseINS0_11scan_resultINS0_6ranges6detail9subrange_8subrangeIPKcS9_EEJcEEENS0_10scan_errorELb1EE20construct_unexpectedIJNS0_10unexpectedISC_EEEEEvDpOT_:
  503|  4.89k|    {
  504|  4.89k|        scn::detail::construct_at(&get_unexpected(),
  505|  4.89k|                                  std::forward<Args>(args)...);
  506|  4.89k|        m_has_value = false;
  507|  4.89k|    }
_ZN3scn2v46detail12construct_atINS0_10unexpectedINS0_10scan_errorEEEJS5_EEEPT_S7_DpOT0_:
  395|   135k|{
  396|   135k|    return ::new (const_cast<void*>(static_cast<const volatile void*>(p)))
  397|   135k|        T(std::forward<Args>(args)...);
  398|   135k|}
_ZNR3scn2v46detail21expected_storage_baseINS0_11scan_resultINS0_6ranges6detail9subrange_8subrangeIPKcS9_EEJcEEENS0_10scan_errorELb1EE14get_unexpectedEv:
  472|  4.89k|    {
  473|  4.89k|        return m_unexpected;
  474|  4.89k|    }
_ZNO3scn2v46detail21expected_storage_baseINS0_11scan_resultINS0_6ranges6detail9subrange_8subrangeIPKcS9_EEJcEEENS0_10scan_errorELb1EE14get_unexpectedEv:
  480|  4.89k|    {
  481|  4.89k|        return std::move(m_unexpected);
  482|  4.89k|    }
_ZN3scn2v46detail25scan_result_range_storageINS0_6ranges6detail9subrange_8subrangeIPKcS8_EEE9set_rangeIS9_EEvOT_:
 6444|  1.94k|    {
 6445|  1.94k|        m_range = std::forward<Other>(r);
 6446|  1.94k|    }
_ZNR3scn2v48expectedINS0_6ranges6detail9subrange_8subrangeIPKcS7_EENS0_10scan_errorEEdeIS8_TnPNSt3__19enable_ifIXntsr3stdE9is_void_vIT_EEvE4typeELPv0EEERSE_v:
 1794|  1.94k|    {
 1795|  1.94k|        return value();
 1796|  1.94k|    }
_ZNR3scn2v48expectedINS0_6ranges6detail9subrange_8subrangeIPKcS7_EENS0_10scan_errorEE5valueIS8_TnPNSt3__19enable_ifIXntsr3stdE9is_void_vIT_EEvE4typeELPv0EEERSE_v:
 1768|  1.94k|    {
 1769|  1.94k|        SCN_EXPECT(has_value());
  ------------------
  |  |  930|  1.94k|#define SCN_EXPECT(cond) SCN_ASSERT(cond, "Precondition violation")
  |  |  ------------------
  |  |  |  |  927|  1.94k|#define SCN_ASSERT(cond, msg) assert((cond) && msg)
  |  |  ------------------
  ------------------
 1770|  1.94k|        return this->get_value();
 1771|  1.94k|    }
_ZNR3scn2v46detail21expected_storage_baseINS0_6ranges6detail9subrange_8subrangeIPKcS8_EENS0_10scan_errorELb1EE9get_valueEv:
  455|  1.94k|    {
  456|  1.94k|        return m_value;
  457|  1.94k|    }
_ZN3scn2v45vscanIRNSt3__117basic_string_viewIcNS2_11char_traitsIcEEEEEENS0_13scan_expectedINS2_11conditionalIXsr3stdE9is_same_vIu11__remove_cvIu20__remove_reference_tIT_EEP8_IO_FILEEESE_NS0_6detail22borrowed_tail_subrangeISA_Xsr6rangesE14borrowed_rangeISA_EEE4typeEE4typeEEEOSA_S6_NS0_15basic_scan_argsINS0_18basic_scan_contextINSF_16buffer_range_tagEcEEEE:
 9460|  23.1k|{
 9461|  23.1k|    return detail::vscan_generic(SCN_FWD(source), format, args);
  ------------------
  |  |  936|  23.1k|#define SCN_FWD(x)          static_cast<decltype(x)&&>(x)
  ------------------
 9462|  23.1k|}
_ZN3scn2v46detail13vscan_genericIRNSt3__117basic_string_viewIcNS3_11char_traitsIcEEEEcEENS0_13scan_expectedINS3_11conditionalIXsr3stdE9is_same_vIu11__remove_cvIu20__remove_reference_tIT_EEP8_IO_FILEEESF_NS1_22borrowed_tail_subrangeISB_Xsr6rangesE14borrowed_rangeISB_EEE4typeEE4typeEEEOSB_NS4_IT0_NS5_ISN_EEEENS0_15basic_scan_argsINS0_18basic_scan_contextINS1_16buffer_range_tagESN_EEEE:
 9397|  23.1k|{
 9398|  23.1k|    auto buffer = make_scan_buffer(range);
 9399|       |
 9400|  23.1k|    auto result = vscan_impl(buffer, format, args);
 9401|  23.1k|    if (SCN_UNLIKELY(!result)) {
  ------------------
  |  |  865|  23.1k|#define SCN_UNLIKELY(x) __builtin_expect(!!(x), 0)
  |  |  ------------------
  |  |  |  Branch (865:25): [True: 22.1k, False: 974]
  |  |  ------------------
  ------------------
 9402|  22.1k|        return unexpected(result.error());
 9403|  22.1k|    }
 9404|    974|    return make_vscan_result_range(SCN_FWD(range), *result);
  ------------------
  |  |  936|    974|#define SCN_FWD(x)          static_cast<decltype(x)&&>(x)
  ------------------
 9405|  23.1k|}
_ZN3scn2v46detail16make_scan_bufferINSt3__117basic_string_viewIcNS3_11char_traitsIcEEEEEEDaRKT_:
 5380|  46.2k|{
 5381|  46.2k|    using T = decltype(_make_scan_buffer::impl(range, priority_tag<4>{}));
 5382|       |
 5383|  46.2k|    static_assert(!std::is_same_v<T, invalid_char_type>,
 5384|  46.2k|                  "\n"
 5385|  46.2k|                  "Unsupported range type given as input to a scanning "
 5386|  46.2k|                  "function.\n"
 5387|  46.2k|                  "A range needs to have a character type (value type) "
 5388|  46.2k|                  "of either `char` or `wchar_t` to be scannable.\n"
 5389|  46.2k|                  "For proper `wchar_t` support, <scn/xchar.h> needs "
 5390|  46.2k|                  "to be included.\n"
 5391|  46.2k|                  "See the scnlib documentation for more details.");
 5392|  46.2k|    static_assert(
 5393|  46.2k|        !std::is_same_v<T, custom_char_traits>,
 5394|  46.2k|        "\n"
 5395|  46.2k|        "Unsupported range type given as input to a scanning "
 5396|  46.2k|        "function.\n"
 5397|  46.2k|        "String types (std::basic_string, and std::basic_string_view) "
 5398|  46.2k|        "need to use std::char_traits. Strings with custom Traits are "
 5399|  46.2k|        "not supported.");
 5400|  46.2k|    static_assert(!std::is_same_v<T, file_marker_found>,
 5401|  46.2k|                  "\n"
 5402|  46.2k|                  "Unsupported range type given as input to a scanning "
 5403|  46.2k|                  "function.\n"
 5404|  46.2k|                  "file_marker_found cannot be used as an "
 5405|  46.2k|                  "source range type to scn::scan.\n"
 5406|  46.2k|                  "To read from stdin, use scn::input or scn::prompt, "
 5407|  46.2k|                  "and do not provide an explicit source range, "
 5408|  46.2k|                  "or use scn::scan with a FILE* directly.");
 5409|  46.2k|    static_assert(!std::is_same_v<T, insufficient_range>,
 5410|  46.2k|                  "\n"
 5411|  46.2k|                  "Unsupported range type given as input to a scanning "
 5412|  46.2k|                  "function.\n"
 5413|  46.2k|                  "In order to be scannable, a range needs to satisfy "
 5414|  46.2k|                  "`forward_range`. `input_range` is not sufficient.");
 5415|  46.2k|    static_assert(!std::is_same_v<T, invalid_input_range>,
 5416|  46.2k|                  "\n"
 5417|  46.2k|                  "Unsupported range type given as input to a scanning "
 5418|  46.2k|                  "function.\n"
 5419|  46.2k|                  "A range needs to model forward_range and have a valid "
 5420|  46.2k|                  "character type (char or wchar_t) to be scannable.\n"
 5421|  46.2k|                  "Examples of scannable ranges are std::string, "
 5422|  46.2k|                  "std::string_view, "
 5423|  46.2k|                  "std::vector<char>, and scn::istreambuf_view.\n"
 5424|  46.2k|                  "See the scnlib documentation for more details.");
 5425|       |
 5426|  46.2k|    return _make_scan_buffer::impl(range, priority_tag<4>{});
 5427|  46.2k|}
_ZN3scn2v46detail17_make_scan_buffer4implIcEEDaNSt3__117basic_string_viewIT_NS4_11char_traitsIS6_EEEENS1_12priority_tagILm3EEE:
 5272|  46.2k|{
 5273|  46.2k|    if constexpr (is_valid_char_type<CharT>) {
 5274|  46.2k|        return r;
 5275|       |        // return make_string_scan_buffer(r);
 5276|       |    }
 5277|       |    else {
 5278|       |        return invalid_char_type{};
 5279|       |    }
 5280|  46.2k|}
_ZNK3scn2v48expectedIlNS0_10scan_errorEEcvbEv:
 1739|   143k|    {
 1740|   143k|        return has_value();
 1741|   143k|    }
_ZNK3scn2v46detail21expected_storage_baseIlNS0_10scan_errorELb1EE9has_valueEv:
  489|   288k|    {
  490|   288k|        return m_has_value;
  491|   288k|    }
_ZNR3scn2v48expectedIlNS0_10scan_errorEE5errorEv:
 1745|   142k|    {
 1746|   142k|        SCN_EXPECT(!has_value());
  ------------------
  |  |  930|   142k|#define SCN_EXPECT(cond) SCN_ASSERT(cond, "Precondition violation")
  |  |  ------------------
  |  |  |  |  927|   142k|#define SCN_ASSERT(cond, msg) assert((cond) && msg)
  |  |  ------------------
  ------------------
 1747|   142k|        return this->get_unexpected().error();
 1748|   142k|    }
_ZNR3scn2v46detail21expected_storage_baseIlNS0_10scan_errorELb1EE14get_unexpectedEv:
  472|   142k|    {
  473|   142k|        return m_unexpected;
  474|   142k|    }
_ZN3scn2v48expectedINS0_6ranges6detail9subrange_8subrangeIPKcS7_EENS0_10scan_errorEEC2IS9_TnPNSt3__19enable_ifIXsr3stdE18is_constructible_vIS9_OT_EEvE4typeELPv0ETnPNSD_IXsr3stdE16is_convertible_vISF_S9_EEvE4typeELSJ_0EEEONS0_10unexpectedISE_EE:
 1615|  44.2k|        : base(unexpect, std::move(e.error())),
 1616|  44.2k|          ctor_base(detail::non_default_ctor_tag_t{})
 1617|  44.2k|    {
 1618|  44.2k|    }
_ZN3scn2v46detail21expected_storage_baseINS0_6ranges6detail9subrange_8subrangeIPKcS8_EENS0_10scan_errorELb1EEC2IJSA_EvEENS0_10unexpect_tEDpOT_:
  449|  44.2k|        : m_unexpected(std::in_place, std::forward<Args>(args)...),
  450|  44.2k|          m_has_value(false)
  451|  44.2k|    {
  452|  44.2k|    }
_ZN3scn2v46detail26expected_default_ctor_baseINS0_6ranges6detail9subrange_8subrangeIPKcS8_EENS0_10scan_errorELb1EEC2ENS1_22non_default_ctor_tag_tE:
 1315|  46.2k|    {
 1316|  46.2k|    }
_ZN3scn2v46detail23make_vscan_result_rangeIRNSt3__117basic_string_viewIcNS3_11char_traitsIcEEEEEENS1_22borrowed_tail_subrangeIT_Xsr6rangesE14borrowed_rangeISA_EEE4typeEOSA_l:
 6674|  1.94k|{
 6675|       |    if constexpr (ranges::random_access_iterator<
 6676|  1.94k|                      ranges::iterator_t<SourceRange>>) {
 6677|  1.94k|        return {ranges::begin(source) + n, make_vscan_result_range_end(source)};
 6678|       |    }
 6679|       |    else {
 6680|       |        auto it = ranges::begin(source);
 6681|       |        while (n > 0) {
 6682|       |            --n;
 6683|       |            ++it;
 6684|       |        }
 6685|       |        return {SCN_MOVE(it), make_vscan_result_range_end(source)};
 6686|       |    }
 6687|  1.94k|}
_ZNK3scn2v46ranges6detail6begin_2fnclIRNSt3__117basic_string_viewIcNS6_11char_traitsIcEEEEEEDTclsr2fnE4implscDtfp_Efp_tlNS0_6detail12priority_tagILm3EEEEEEOT_:
 2868|  1.94k|    {
 2869|  1.94k|        return fn::impl(SCN_FWD(t), priority_tag<3>{});
  ------------------
  |  |  936|  1.94k|#define SCN_FWD(x)          static_cast<decltype(x)&&>(x)
  ------------------
 2870|  1.94k|    }
_ZN3scn2v46ranges6detail6begin_2fn4implIRNSt3__117basic_string_viewIcNS6_11char_traitsIcEEEEEENS6_9enable_ifIX24input_or_output_iteratorIDTcl10decay_copycldtscDtfp_Efp_5beginEEEEESE_E4typeEOT_NS0_6detail12priority_tagILm1EEE:
 2849|  1.94k|    {
 2850|  1.94k|        return decay_copy(t.begin());
 2851|  1.94k|    }
_ZN3scn2v46ranges6detail10decay_copyIPKcEEu7__decayIT_EOS6_:
 2093|   130k|{
 2094|   130k|    return SCN_FWD(t);
  ------------------
  |  |  936|   130k|#define SCN_FWD(x)          static_cast<decltype(x)&&>(x)
  ------------------
 2095|   130k|}
_ZN3scn2v46detail27make_vscan_result_range_endINSt3__117basic_string_viewIcNS3_11char_traitsIcEEEEEEDaRT_:
 6661|  1.94k|{
 6662|  1.94k|    return ranges::end(source);
 6663|  1.94k|}
_ZNK3scn2v46ranges6detail4end_2fnclIRNSt3__117basic_string_viewIcNS6_11char_traitsIcEEEEEEDTclsr2fnE4implscDtfp_Efp_tlNS0_6detail12priority_tagILm3EEEEEEOT_:
 2925|  1.94k|    {
 2926|  1.94k|        return fn::impl(SCN_FWD(t), priority_tag<3>{});
  ------------------
  |  |  936|  1.94k|#define SCN_FWD(x)          static_cast<decltype(x)&&>(x)
  ------------------
 2927|  1.94k|    }
_ZN3scn2v46ranges6detail4end_2fn4implIRNSt3__117basic_string_viewIcNS6_11char_traitsIcEEEEPKcSD_EENS6_9enable_ifIX12sentinel_forIT0_T1_EEDTcl10decay_copycldtscDtfp_Efp_3endEEEE4typeEOT_NS0_6detail12priority_tagILm1EEE:
 2907|  1.94k|    {
 2908|  1.94k|        return decay_copy(SCN_FWD(t).end());
  ------------------
  |  |  936|  1.94k|#define SCN_FWD(x)          static_cast<decltype(x)&&>(x)
  ------------------
 2909|  1.94k|    }
_ZN3scn2v46ranges6detail9subrange_8subrangeIPKcS6_EC2IS6_TnPNSt3__19enable_ifIXsr3stdE16is_convertible_vIT_S6_EEvE4typeELPv0EEESB_S6_:
 3464|   480k|        : m_iterator(SCN_MOVE(i)), m_sentinel(SCN_MOVE(s))
  ------------------
  |  |  934|   480k|    static_cast<    \
  |  |  935|   480k|        typename ::scn::detail::remove_reference<decltype(x)>::type&&>(x)
  ------------------
                      : m_iterator(SCN_MOVE(i)), m_sentinel(SCN_MOVE(s))
  ------------------
  |  |  934|   480k|    static_cast<    \
  |  |  935|   480k|        typename ::scn::detail::remove_reference<decltype(x)>::type&&>(x)
  ------------------
 3465|   480k|    {
 3466|   480k|    }
_ZNR3scn2v48expectedIlNS0_10scan_errorEEdeIlTnPNSt3__19enable_ifIXntsr3stdE9is_void_vIT_EEvE4typeELPv0EEERS7_v:
 1794|  3.15k|    {
 1795|  3.15k|        return value();
 1796|  3.15k|    }
_ZNR3scn2v48expectedIlNS0_10scan_errorEE5valueIlTnPNSt3__19enable_ifIXntsr3stdE9is_void_vIT_EEvE4typeELPv0EEERS7_v:
 1768|  3.15k|    {
 1769|  3.15k|        SCN_EXPECT(has_value());
  ------------------
  |  |  930|  3.15k|#define SCN_EXPECT(cond) SCN_ASSERT(cond, "Precondition violation")
  |  |  ------------------
  |  |  |  |  927|  3.15k|#define SCN_ASSERT(cond, msg) assert((cond) && msg)
  |  |  ------------------
  ------------------
 1770|  3.15k|        return this->get_value();
 1771|  3.15k|    }
_ZNR3scn2v46detail21expected_storage_baseIlNS0_10scan_errorELb1EE9get_valueEv:
  455|  3.15k|    {
  456|  3.15k|        return m_value;
  457|  3.15k|    }
_ZN3scn2v48expectedINS0_6ranges6detail9subrange_8subrangeIPKcS7_EENS0_10scan_errorEEC2IS8_vEEOT_:
 1569|  1.94k|        : base(std::in_place, std::forward<U>(val)),
 1570|  1.94k|          ctor_base(detail::non_default_ctor_tag_t{})
 1571|  1.94k|    {
 1572|  1.94k|    }
_ZN3scn2v46detail21expected_storage_baseINS0_6ranges6detail9subrange_8subrangeIPKcS8_EENS0_10scan_errorELb1EEC2IJS9_EvEENSt3__110in_place_tEDpOT_:
  440|  1.94k|        : m_value(std::forward<Args>(args)...), m_has_value(true)
  441|  1.94k|    {
  442|  1.94k|    }
_ZNK3scn2v424basic_scan_format_stringIcRNSt3__117basic_string_viewIcNS2_11char_traitsIcEEEEJcEEcvS6_Ev:
 8767|  5.13k|    {
 8768|  5.13k|        return m_str;
 8769|  5.13k|    }
_ZN3scn2v414make_scan_argsINS0_18basic_scan_contextINS0_6detail16buffer_range_tagEcEEJcEEEDaRNSt3__15tupleIJDpT0_EEE:
 6109|  5.13k|{
 6110|  5.13k|    detail::check_scan_arg_types<Args...>();
 6111|  5.13k|    return detail::scan_arg_store<Context, Args...>(values);
 6112|  5.13k|}
_ZN3scn2v46detail20check_scan_arg_typesIJcEEEbv:
 5824|  5.13k|{
 5825|  5.13k|    constexpr bool default_constructible_constraint =
 5826|  5.13k|        std::conjunction_v<std::is_default_constructible<Args>...>;
 5827|  5.13k|    static_assert(default_constructible_constraint,
 5828|  5.13k|                  "Scan argument types must be default constructible");
 5829|       |
 5830|  5.13k|    constexpr bool destructible_constraint =
 5831|  5.13k|        std::conjunction_v<std::is_destructible<Args>...>;
 5832|  5.13k|    static_assert(destructible_constraint,
 5833|  5.13k|                  "Scan argument types must be Destructible");
 5834|       |
 5835|  5.13k|    constexpr bool non_reference_constraint =
 5836|  5.13k|        !std::conjunction_v<std::false_type, std::is_reference<Args>...>;
 5837|  5.13k|    static_assert(non_reference_constraint,
 5838|  5.13k|                  "Scan argument types must not be references");
 5839|       |
 5840|  5.13k|    constexpr bool movable_constraint =
 5841|  5.13k|        std::conjunction_v<std::is_move_constructible<Args>...>;
 5842|  5.13k|    static_assert(movable_constraint,
 5843|  5.13k|                  "Scan argument types must be move constructible");
 5844|       |
 5845|  5.13k|    return default_constructible_constraint && destructible_constraint &&
  ------------------
  |  Branch (5845:12): [Folded - Ignored]
  |  Branch (5845:48): [Folded - Ignored]
  ------------------
 5846|  5.13k|           non_reference_constraint && movable_constraint;
  ------------------
  |  Branch (5846:12): [Folded - Ignored]
  |  Branch (5846:40): [Folded - Ignored]
  ------------------
 5847|  5.13k|}
_ZN3scn2v46detail14scan_arg_storeINS0_18basic_scan_contextINS1_16buffer_range_tagEcEEJcEEC2ERNSt3__15tupleIJcEEE:
 6085|  5.13k|        : args(std::apply(make_argptrs<Args...>, args))
 6086|  5.13k|    {
 6087|  5.13k|    }
_ZN3scn2v46detail14scan_arg_storeINS0_18basic_scan_contextINS1_16buffer_range_tagEcEEJcEE12make_argptrsIJcEEENSt3__15arrayIPvLm1EEEDpRT_:
 6094|  5.13k|    {
 6095|  5.13k|        return {detail::make_arg<
 6096|  5.13k|            kind, Context,
 6097|  5.13k|            mapped_type_constant<remove_cvref_t<A>,
 6098|  5.13k|                                 typename Context::char_type>::value>(args)...};
 6099|  5.13k|    }
_ZN3scn2v46detail8make_argILNS1_19scan_arg_store_kindE0ENS0_18basic_scan_contextINS1_16buffer_range_tagEcEELNS1_8arg_typeE12EcvEEPvRT2_:
 5874|  5.13k|{
 5875|  5.13k|    return make_value<Context>(value).ref_value;
 5876|  5.13k|}
_ZN3scn2v46detail10make_valueINS0_18basic_scan_contextINS1_16buffer_range_tagEcEEcEEDaRT0_:
 5809|  5.13k|{
 5810|  5.13k|    auto&& arg = arg_mapper<typename Context::char_type>().map(value);
 5811|       |
 5812|       |    if constexpr (!std::is_same_v<remove_cvref_t<decltype(arg)>,
 5813|  5.13k|                                  needs_context_tag>) {
 5814|  5.13k|        return make_value_impl<T>(SCN_FWD(arg));
  ------------------
  |  |  936|  5.13k|#define SCN_FWD(x)          static_cast<decltype(x)&&>(x)
  ------------------
 5815|       |    }
 5816|       |    else {
 5817|       |        return make_value_impl<T>(arg_mapper<typename Context::char_type>().map(
 5818|       |            value, context_tag<Context>{}));
 5819|       |    }
 5820|  5.13k|}
_ZN3scn2v46detail10arg_mapperIcE3mapERc:
 5678|  5.13k|    {
 5679|       |        if constexpr (std::is_same_v<char_type, char> &&
 5680|  5.13k|                      !is_type_disabled<char_type>) {
 5681|  5.13k|            return val;
 5682|       |        }
 5683|       |        else if constexpr (is_type_disabled<char_type>) {
 5684|       |            return unscannable_disabled{val};
 5685|       |        }
 5686|       |        else {
 5687|       |            SCN_UNUSED(val);
 5688|       |            return unscannable_char{};
 5689|       |        }
 5690|  5.13k|    }
_ZN3scn2v46detail15make_value_implIcRcEEDaOT0_:
 5778|  5.13k|{
 5779|  5.13k|    using arg_nocvref_t = remove_cvref_t<Arg>;
 5780|  5.13k|    static_assert(!std::is_same_v<arg_nocvref_t, needs_context_tag>);
 5781|       |
 5782|  5.13k|    constexpr bool scannable_char =
 5783|  5.13k|        !std::is_same_v<arg_nocvref_t, unscannable_char>;
 5784|  5.13k|    static_assert(scannable_char,
 5785|  5.13k|                  "Cannot scan an argument of an unsupported character "
 5786|  5.13k|                  "type (i.e. char from a wchar_t source)");
 5787|       |
 5788|  5.13k|    constexpr bool scannable_const =
 5789|  5.13k|        !std::is_same_v<arg_nocvref_t, unscannable_const>;
 5790|  5.13k|    static_assert(scannable_const, "Cannot scan a const argument");
 5791|       |
 5792|  5.13k|    constexpr bool scannable_disabled =
 5793|  5.13k|        !std::is_same_v<arg_nocvref_t, unscannable_disabled>;
 5794|  5.13k|    static_assert(scannable_disabled,
 5795|  5.13k|                  "Cannot scan an argument that has been disabled by "
 5796|  5.13k|                  "flag (SCN_DISABLE_TYPE_*)");
 5797|       |
 5798|  5.13k|    constexpr bool scannable = !std::is_same_v<arg_nocvref_t, unscannable>;
 5799|  5.13k|    static_assert(
 5800|  5.13k|        scannable,
 5801|  5.13k|        "Cannot scan an argument. To make a type T scannable, provide "
 5802|  5.13k|        "a scn::scanner<T, CharT> specialization.");
 5803|       |
 5804|  5.13k|    return arg_value{arg};
 5805|  5.13k|}
_ZN3scn2v46detail9arg_valueC2IcEERT_:
 5562|  5.13k|    explicit constexpr arg_value(T& val) : ref_value{std::addressof(val)}
 5563|  5.13k|    {
 5564|  5.13k|    }
_ZN3scn2v48expectedINS0_11scan_resultINS0_6ranges6detail9subrange_8subrangeIPKcS8_EEJcEEENS0_10scan_errorEEptEv:
 1814|  5.37k|    {
 1815|  5.37k|        return &value();
 1816|  5.37k|    }
_ZNR3scn2v48expectedINS0_11scan_resultINS0_6ranges6detail9subrange_8subrangeIPKcS8_EEJcEEENS0_10scan_errorEE5valueISA_TnPNSt3__19enable_ifIXntsr3stdE9is_void_vIT_EEvE4typeELPv0EEERSG_v:
 1768|  5.37k|    {
 1769|  5.37k|        SCN_EXPECT(has_value());
  ------------------
  |  |  930|  5.37k|#define SCN_EXPECT(cond) SCN_ASSERT(cond, "Precondition violation")
  |  |  ------------------
  |  |  |  |  927|  5.37k|#define SCN_ASSERT(cond, msg) assert((cond) && msg)
  |  |  ------------------
  ------------------
 1770|  5.37k|        return this->get_value();
 1771|  5.37k|    }
_ZNR3scn2v46detail25scan_result_value_storageIJcEE6valuesEv:
 6353|  5.13k|    {
 6354|  5.13k|        return m_values;
 6355|  5.13k|    }
_ZN3scn2v415basic_scan_argsINS0_18basic_scan_contextINS0_6detail16buffer_range_tagEcEEEC2IJcEEERKNS3_14scan_arg_storeIS5_JDpT_EEE:
 6135|  5.13k|        : basic_scan_args(store.desc, store.args.data())
 6136|  5.13k|    {
 6137|  5.13k|    }
_ZN3scn2v415basic_scan_argsINS0_18basic_scan_contextINS0_6detail16buffer_range_tagEcEEEC2EmPKPv:
 6187|  46.2k|        : m_desc(desc), m_builtin_values(data)
 6188|  46.2k|    {
 6189|  46.2k|    }
_ZN3scn2v414runtime_formatENSt3__117basic_string_viewIcNS1_11char_traitsIcEEEE:
 8440|  46.2k|{
 8441|  46.2k|    return s;
 8442|  46.2k|}
_ZN3scn2v46detail27basic_runtime_format_stringIcEC2ENSt3__117basic_string_viewIcNS4_11char_traitsIcEEEE:
 8417|  46.2k|    basic_runtime_format_string(std::basic_string_view<CharT> s) : str(s) {}
_ZN3scn2v424basic_scan_format_stringIcRNSt3__117basic_string_viewIcNS2_11char_traitsIcEEEEJcEEC2ENS0_6detail27basic_runtime_format_stringIcEE:
 8762|  5.13k|        : m_str(r.str)
 8763|  5.13k|    {
 8764|  5.13k|    }
_ZN3scn2v44scanIJcENSt3__16localeERNS2_17basic_string_viewIcNS2_11char_traitsIcEEEEvvEENS0_13scan_expectedINS0_11scan_resultINS2_11conditionalIXsr3stdE9is_same_vIu11__remove_cvIu20__remove_reference_tIT1_EEP8_IO_FILEEESG_NS0_6detail22borrowed_tail_subrangeISC_Xsr6rangesE14borrowed_rangeISC_EEE4typeEE4typeEJDpT_EEEEERKT0_OSC_NS0_24basic_scan_format_stringIcNSH_13type_identityISC_E4typeEJDpNSW_ISN_E4typeEEEE:
 9749|  2.56k|{
 9750|  2.56k|    auto result = make_scan_result<Source, Args...>();
 9751|  2.56k|    fill_scan_result(result, vscan(loc, SCN_FWD(source), format,
  ------------------
  |  |  936|  2.56k|#define SCN_FWD(x)          static_cast<decltype(x)&&>(x)
  ------------------
 9752|  2.56k|                                   make_scan_args(result->values())));
 9753|  2.56k|    return result;
 9754|  2.56k|}
_ZN3scn2v45vscanIRNSt3__117basic_string_viewIcNS2_11char_traitsIcEEEENS2_6localeEvEENS0_13scan_expectedINS2_11conditionalIXsr3stdE9is_same_vIu11__remove_cvIu20__remove_reference_tIT_EEP8_IO_FILEEESF_NS0_6detail22borrowed_tail_subrangeISB_Xsr6rangesE14borrowed_rangeISB_EEE4typeEE4typeEEERKT0_OSB_S6_NS0_15basic_scan_argsINS0_18basic_scan_contextINSG_16buffer_range_tagEcEEEE:
 9478|  23.1k|{
 9479|  23.1k|    return detail::vscan_localized_generic(loc, SCN_FWD(source), format, args);
  ------------------
  |  |  936|  23.1k|#define SCN_FWD(x)          static_cast<decltype(x)&&>(x)
  ------------------
 9480|  23.1k|}
_ZN3scn2v46detail23vscan_localized_genericINSt3__16localeERNS3_17basic_string_viewIcNS3_11char_traitsIcEEEEcEENS0_13scan_expectedINS3_11conditionalIXsr3stdE9is_same_vIu11__remove_cvIu20__remove_reference_tIT0_EEP8_IO_FILEEESG_NS1_22borrowed_tail_subrangeISC_Xsr6rangesE14borrowed_rangeISC_EEE4typeEE4typeEEERKT_OSC_NS5_IT1_NS6_ISR_EEEENS0_15basic_scan_argsINS0_18basic_scan_contextINS1_16buffer_range_tagESR_EEEE:
 9413|  23.1k|{
 9414|  23.1k|#if !SCN_DISABLE_LOCALE
 9415|  23.1k|    auto buffer = detail::make_scan_buffer(range);
 9416|       |
 9417|  23.1k|    SCN_CLANG_PUSH_IGNORE_UNDEFINED_TEMPLATE
 9418|  23.1k|    auto result = detail::vscan_localized_impl(loc, buffer, format, args);
 9419|  23.1k|    SCN_CLANG_POP_IGNORE_UNDEFINED_TEMPLATE
 9420|       |
 9421|  23.1k|    if (SCN_UNLIKELY(!result)) {
  ------------------
  |  |  865|  23.1k|#define SCN_UNLIKELY(x) __builtin_expect(!!(x), 0)
  |  |  ------------------
  |  |  |  Branch (865:25): [True: 22.1k, False: 974]
  |  |  ------------------
  ------------------
 9422|  22.1k|        return unexpected(result.error());
 9423|  22.1k|    }
 9424|    974|    return detail::make_vscan_result_range(SCN_FWD(range), *result);
  ------------------
  |  |  936|    974|#define SCN_FWD(x)          static_cast<decltype(x)&&>(x)
  ------------------
 9425|       |#else
 9426|       |    static_assert(dependent_false<Locale>::value,
 9427|       |                  "Can't use scan(locale, ...) with SCN_DISABLE_LOCALE on");
 9428|       |
 9429|       |    return {};
 9430|       |#endif
 9431|  23.1k|}
_ZN3scn2v44scanIJiERNSt3__117basic_string_viewIcNS2_11char_traitsIcEEEEvEENS0_13scan_expectedINS0_11scan_resultINS2_11conditionalIXsr3stdE9is_same_vIu11__remove_cvIu20__remove_reference_tIT0_EEP8_IO_FILEEESF_NS0_6detail22borrowed_tail_subrangeISB_Xsr6rangesE14borrowed_rangeISB_EEE4typeEE4typeEJDpT_EEEEEOSB_NS0_24basic_scan_format_stringIcNSG_13type_identityISB_E4typeEJDpNSS_ISM_E4typeEEEE:
 9680|  2.56k|{
 9681|  2.56k|    auto result = make_scan_result<Source, Args...>();
 9682|  2.56k|    fill_scan_result(result, vscan(SCN_FWD(source), format,
  ------------------
  |  |  936|  2.56k|#define SCN_FWD(x)          static_cast<decltype(x)&&>(x)
  ------------------
 9683|  2.56k|                                   make_scan_args(result->values())));
 9684|  2.56k|    return result;
 9685|  2.56k|}
_ZN3scn2v416make_scan_resultIRNSt3__117basic_string_viewIcNS2_11char_traitsIcEEEEJiEEEDav:
 9636|  5.13k|{
 9637|  5.13k|    return scan_result_type<Source, Args...>();
 9638|  5.13k|}
_ZN3scn2v48expectedINS0_11scan_resultINS0_6ranges6detail9subrange_8subrangeIPKcS8_EEJiEEENS0_10scan_errorEEC2Ev:
 1551|  5.13k|    constexpr expected() = default;
_ZN3scn2v46detail21expected_storage_baseINS0_11scan_resultINS0_6ranges6detail9subrange_8subrangeIPKcS9_EEJiEEENS0_10scan_errorELb1EEC2Ev:
  426|  5.13k|        : m_value(T{}), m_has_value(true)
  427|  5.13k|    {
  428|  5.13k|    }
_ZN3scn2v411scan_resultINS0_6ranges6detail9subrange_8subrangeIPKcS7_EEJiEEC2Ev:
 6570|  5.13k|    constexpr scan_result() = default;
_ZN3scn2v46detail25scan_result_value_storageIJiEEC2Ev:
 6344|  15.4k|    constexpr scan_result_value_storage() = default;
_ZN3scn2v416fill_scan_resultINS0_11scan_resultINS0_6ranges6detail9subrange_8subrangeIPKcS8_EEJiEEES9_TnPNSt3__19enable_ifIXsr3stdE13conjunction_vINS0_6detail25is_specialization_of_implIu11__remove_cvIu20__remove_reference_tIT_EES2_EENSB_7is_sameINSF_10range_typeET0_EEEEvE4typeELPv0EEEvRNS0_13scan_expectedISF_EEONSR_ISL_EE:
 9621|  5.13k|{
 9622|  5.13k|    if (SCN_UNLIKELY(!in)) {
  ------------------
  |  |  865|  5.13k|#define SCN_UNLIKELY(x) __builtin_expect(!!(x), 0)
  |  |  ------------------
  |  |  |  Branch (865:25): [True: 5.13k, False: 0]
  |  |  ------------------
  ------------------
 9623|  5.13k|        out = unexpected(in.error());
 9624|  5.13k|    }
 9625|      0|    else {
 9626|      0|        out->set_range(SCN_MOVE(*in));
  ------------------
  |  |  934|      0|    static_cast<    \
  |  |  935|      0|        typename ::scn::detail::remove_reference<decltype(x)>::type&&>(x)
  ------------------
 9627|      0|    }
 9628|  5.13k|}
_ZN3scn2v48expectedINS0_11scan_resultINS0_6ranges6detail9subrange_8subrangeIPKcS8_EEJiEEENS0_10scan_errorEEC2ISB_TnPNSt3__19enable_ifIXsr3stdE18is_constructible_vISB_OT_EEvE4typeELPv0ETnPNSF_IXsr3stdE16is_convertible_vISH_SB_EEvE4typeELSL_0EEEONS0_10unexpectedISG_EE:
 1615|  5.13k|        : base(unexpect, std::move(e.error())),
 1616|  5.13k|          ctor_base(detail::non_default_ctor_tag_t{})
 1617|  5.13k|    {
 1618|  5.13k|    }
_ZN3scn2v46detail21expected_storage_baseINS0_11scan_resultINS0_6ranges6detail9subrange_8subrangeIPKcS9_EEJiEEENS0_10scan_errorELb1EEC2IJSC_EvEENS0_10unexpect_tEDpOT_:
  449|  5.13k|        : m_unexpected(std::in_place, std::forward<Args>(args)...),
  450|  5.13k|          m_has_value(false)
  451|  5.13k|    {
  452|  5.13k|    }
_ZN3scn2v46detail26expected_default_ctor_baseINS0_11scan_resultINS0_6ranges6detail9subrange_8subrangeIPKcS9_EEJiEEENS0_10scan_errorELb1EEC2ENS1_22non_default_ctor_tag_tE:
 1315|  5.13k|    {
 1316|  5.13k|    }
_ZN3scn2v48expectedINS0_11scan_resultINS0_6ranges6detail9subrange_8subrangeIPKcS8_EEJiEEENS0_10scan_errorEEaSEOSC_:
 1556|  5.13k|    constexpr expected& operator=(expected&&) = default;
_ZN3scn2v46detail24expected_operations_baseINS0_11scan_resultINS0_6ranges6detail9subrange_8subrangeIPKcS9_EEJiEEENS0_10scan_errorEvEaSEOSD_:
  902|  5.13k|    {
  903|  5.13k|        assign_common(std::move(other));
  904|  5.13k|        return *this;
  905|  5.13k|    }
_ZN3scn2v46detail24expected_operations_baseINS0_11scan_resultINS0_6ranges6detail9subrange_8subrangeIPKcS9_EEJiEEENS0_10scan_errorEvE13assign_commonISD_EEvOT_:
  949|  5.13k|    {
  950|  5.13k|        if (this->has_value()) {
  ------------------
  |  Branch (950:13): [True: 5.13k, False: 0]
  ------------------
  951|  5.13k|            if (other.has_value()) {
  ------------------
  |  Branch (951:17): [True: 0, False: 5.13k]
  ------------------
  952|      0|                return reassign_value(std::forward<Other>(other));
  953|      0|            }
  954|  5.13k|            return assign_unexpected_over_value(std::forward<Other>(other));
  955|  5.13k|        }
  956|       |
  957|      0|        if (other.has_value()) {
  ------------------
  |  Branch (957:13): [True: 0, False: 0]
  ------------------
  958|      0|            return assign_value_over_unexpected(std::forward<Other>(other));
  959|      0|        }
  960|      0|        return reassign_unexpected(std::forward<Other>(other));
  961|      0|    }
_ZNK3scn2v46detail21expected_storage_baseINS0_11scan_resultINS0_6ranges6detail9subrange_8subrangeIPKcS9_EEJiEEENS0_10scan_errorELb1EE9has_valueEv:
  489|  15.4k|    {
  490|  15.4k|        return m_has_value;
  491|  15.4k|    }
_ZNR3scn2v46detail21expected_storage_baseINS0_11scan_resultINS0_6ranges6detail9subrange_8subrangeIPKcS9_EEJiEEENS0_10scan_errorELb1EE9get_valueEv:
  455|  5.13k|    {
  456|  5.13k|        return m_value;
  457|  5.13k|    }
_ZN3scn2v46detail24expected_operations_baseINS0_11scan_resultINS0_6ranges6detail9subrange_8subrangeIPKcS9_EEJiEEENS0_10scan_errorEvE28assign_unexpected_over_valueISD_EEvOT_:
 1045|  5.13k|    {
 1046|  5.13k|        this->destroy_value();
 1047|  5.13k|        this->construct_unexpected(std::forward<Other>(other).get_unexpected());
 1048|  5.13k|    }
_ZN3scn2v46detail21expected_storage_baseINS0_11scan_resultINS0_6ranges6detail9subrange_8subrangeIPKcS9_EEJiEEENS0_10scan_errorELb1EE13destroy_valueEv:
  510|  5.13k|    static constexpr void destroy_value() noexcept {}
_ZN3scn2v46detail21expected_storage_baseINS0_11scan_resultINS0_6ranges6detail9subrange_8subrangeIPKcS9_EEJiEEENS0_10scan_errorELb1EE20construct_unexpectedIJNS0_10unexpectedISC_EEEEEvDpOT_:
  503|  5.13k|    {
  504|  5.13k|        scn::detail::construct_at(&get_unexpected(),
  505|  5.13k|                                  std::forward<Args>(args)...);
  506|  5.13k|        m_has_value = false;
  507|  5.13k|    }
_ZNR3scn2v46detail21expected_storage_baseINS0_11scan_resultINS0_6ranges6detail9subrange_8subrangeIPKcS9_EEJiEEENS0_10scan_errorELb1EE14get_unexpectedEv:
  472|  5.13k|    {
  473|  5.13k|        return m_unexpected;
  474|  5.13k|    }
_ZNO3scn2v46detail21expected_storage_baseINS0_11scan_resultINS0_6ranges6detail9subrange_8subrangeIPKcS9_EEJiEEENS0_10scan_errorELb1EE14get_unexpectedEv:
  480|  5.13k|    {
  481|  5.13k|        return std::move(m_unexpected);
  482|  5.13k|    }
_ZNK3scn2v424basic_scan_format_stringIcRNSt3__117basic_string_viewIcNS2_11char_traitsIcEEEEJiEEcvS6_Ev:
 8767|  5.13k|    {
 8768|  5.13k|        return m_str;
 8769|  5.13k|    }
_ZN3scn2v414make_scan_argsINS0_18basic_scan_contextINS0_6detail16buffer_range_tagEcEEJiEEEDaRNSt3__15tupleIJDpT0_EEE:
 6109|  5.13k|{
 6110|  5.13k|    detail::check_scan_arg_types<Args...>();
 6111|  5.13k|    return detail::scan_arg_store<Context, Args...>(values);
 6112|  5.13k|}
_ZN3scn2v46detail20check_scan_arg_typesIJiEEEbv:
 5824|  15.4k|{
 5825|  15.4k|    constexpr bool default_constructible_constraint =
 5826|  15.4k|        std::conjunction_v<std::is_default_constructible<Args>...>;
 5827|  15.4k|    static_assert(default_constructible_constraint,
 5828|  15.4k|                  "Scan argument types must be default constructible");
 5829|       |
 5830|  15.4k|    constexpr bool destructible_constraint =
 5831|  15.4k|        std::conjunction_v<std::is_destructible<Args>...>;
 5832|  15.4k|    static_assert(destructible_constraint,
 5833|  15.4k|                  "Scan argument types must be Destructible");
 5834|       |
 5835|  15.4k|    constexpr bool non_reference_constraint =
 5836|  15.4k|        !std::conjunction_v<std::false_type, std::is_reference<Args>...>;
 5837|  15.4k|    static_assert(non_reference_constraint,
 5838|  15.4k|                  "Scan argument types must not be references");
 5839|       |
 5840|  15.4k|    constexpr bool movable_constraint =
 5841|  15.4k|        std::conjunction_v<std::is_move_constructible<Args>...>;
 5842|  15.4k|    static_assert(movable_constraint,
 5843|  15.4k|                  "Scan argument types must be move constructible");
 5844|       |
 5845|  15.4k|    return default_constructible_constraint && destructible_constraint &&
  ------------------
  |  Branch (5845:12): [Folded - Ignored]
  |  Branch (5845:48): [Folded - Ignored]
  ------------------
 5846|  15.4k|           non_reference_constraint && movable_constraint;
  ------------------
  |  Branch (5846:12): [Folded - Ignored]
  |  Branch (5846:40): [Folded - Ignored]
  ------------------
 5847|  15.4k|}
_ZN3scn2v46detail14scan_arg_storeINS0_18basic_scan_contextINS1_16buffer_range_tagEcEEJiEEC2ERNSt3__15tupleIJiEEE:
 6085|  5.13k|        : args(std::apply(make_argptrs<Args...>, args))
 6086|  5.13k|    {
 6087|  5.13k|    }
_ZN3scn2v46detail14scan_arg_storeINS0_18basic_scan_contextINS1_16buffer_range_tagEcEEJiEE12make_argptrsIJiEEENSt3__15arrayIPvLm1EEEDpRT_:
 6094|  5.13k|    {
 6095|  5.13k|        return {detail::make_arg<
 6096|  5.13k|            kind, Context,
 6097|  5.13k|            mapped_type_constant<remove_cvref_t<A>,
 6098|  5.13k|                                 typename Context::char_type>::value>(args)...};
 6099|  5.13k|    }
_ZN3scn2v46detail8make_argILNS1_19scan_arg_store_kindE0ENS0_18basic_scan_contextINS1_16buffer_range_tagEcEELNS1_8arg_typeE3EivEEPvRT2_:
 5874|  5.13k|{
 5875|  5.13k|    return make_value<Context>(value).ref_value;
 5876|  5.13k|}
_ZN3scn2v46detail10make_valueINS0_18basic_scan_contextINS1_16buffer_range_tagEcEEiEEDaRT0_:
 5809|  5.13k|{
 5810|  5.13k|    auto&& arg = arg_mapper<typename Context::char_type>().map(value);
 5811|       |
 5812|       |    if constexpr (!std::is_same_v<remove_cvref_t<decltype(arg)>,
 5813|  5.13k|                                  needs_context_tag>) {
 5814|  5.13k|        return make_value_impl<T>(SCN_FWD(arg));
  ------------------
  |  |  936|  5.13k|#define SCN_FWD(x)          static_cast<decltype(x)&&>(x)
  ------------------
 5815|       |    }
 5816|       |    else {
 5817|       |        return make_value_impl<T>(arg_mapper<typename Context::char_type>().map(
 5818|       |            value, context_tag<Context>{}));
 5819|       |    }
 5820|  5.13k|}
_ZN3scn2v46detail10arg_mapperIcE3mapERi:
 5648|  5.13k|    {                                                                        \
 5649|  5.13k|        return val;                                                          \
 5650|  5.13k|    }
_ZN3scn2v46detail15make_value_implIiRiEEDaOT0_:
 5778|  15.4k|{
 5779|  15.4k|    using arg_nocvref_t = remove_cvref_t<Arg>;
 5780|  15.4k|    static_assert(!std::is_same_v<arg_nocvref_t, needs_context_tag>);
 5781|       |
 5782|  15.4k|    constexpr bool scannable_char =
 5783|  15.4k|        !std::is_same_v<arg_nocvref_t, unscannable_char>;
 5784|  15.4k|    static_assert(scannable_char,
 5785|  15.4k|                  "Cannot scan an argument of an unsupported character "
 5786|  15.4k|                  "type (i.e. char from a wchar_t source)");
 5787|       |
 5788|  15.4k|    constexpr bool scannable_const =
 5789|  15.4k|        !std::is_same_v<arg_nocvref_t, unscannable_const>;
 5790|  15.4k|    static_assert(scannable_const, "Cannot scan a const argument");
 5791|       |
 5792|  15.4k|    constexpr bool scannable_disabled =
 5793|  15.4k|        !std::is_same_v<arg_nocvref_t, unscannable_disabled>;
 5794|  15.4k|    static_assert(scannable_disabled,
 5795|  15.4k|                  "Cannot scan an argument that has been disabled by "
 5796|  15.4k|                  "flag (SCN_DISABLE_TYPE_*)");
 5797|       |
 5798|  15.4k|    constexpr bool scannable = !std::is_same_v<arg_nocvref_t, unscannable>;
 5799|  15.4k|    static_assert(
 5800|  15.4k|        scannable,
 5801|  15.4k|        "Cannot scan an argument. To make a type T scannable, provide "
 5802|  15.4k|        "a scn::scanner<T, CharT> specialization.");
 5803|       |
 5804|  15.4k|    return arg_value{arg};
 5805|  15.4k|}
_ZN3scn2v46detail9arg_valueC2IiEERT_:
 5562|  15.4k|    explicit constexpr arg_value(T& val) : ref_value{std::addressof(val)}
 5563|  15.4k|    {
 5564|  15.4k|    }
_ZN3scn2v48expectedINS0_11scan_resultINS0_6ranges6detail9subrange_8subrangeIPKcS8_EEJiEEENS0_10scan_errorEEptEv:
 1814|  5.13k|    {
 1815|  5.13k|        return &value();
 1816|  5.13k|    }
_ZNR3scn2v48expectedINS0_11scan_resultINS0_6ranges6detail9subrange_8subrangeIPKcS8_EEJiEEENS0_10scan_errorEE5valueISA_TnPNSt3__19enable_ifIXntsr3stdE9is_void_vIT_EEvE4typeELPv0EEERSG_v:
 1768|  5.13k|    {
 1769|  5.13k|        SCN_EXPECT(has_value());
  ------------------
  |  |  930|  5.13k|#define SCN_EXPECT(cond) SCN_ASSERT(cond, "Precondition violation")
  |  |  ------------------
  |  |  |  |  927|  5.13k|#define SCN_ASSERT(cond, msg) assert((cond) && msg)
  |  |  ------------------
  ------------------
 1770|  5.13k|        return this->get_value();
 1771|  5.13k|    }
_ZNR3scn2v46detail25scan_result_value_storageIJiEE6valuesEv:
 6353|  15.4k|    {
 6354|  15.4k|        return m_values;
 6355|  15.4k|    }
_ZN3scn2v415basic_scan_argsINS0_18basic_scan_contextINS0_6detail16buffer_range_tagEcEEEC2IJiEEERKNS3_14scan_arg_storeIS5_JDpT_EEE:
 6135|  5.13k|        : basic_scan_args(store.desc, store.args.data())
 6136|  5.13k|    {
 6137|  5.13k|    }
_ZN3scn2v424basic_scan_format_stringIcRNSt3__117basic_string_viewIcNS2_11char_traitsIcEEEEJiEEC2ENS0_6detail27basic_runtime_format_stringIcEE:
 8762|  5.13k|        : m_str(r.str)
 8763|  5.13k|    {
 8764|  5.13k|    }
_ZN3scn2v44scanIJiENSt3__16localeERNS2_17basic_string_viewIcNS2_11char_traitsIcEEEEvvEENS0_13scan_expectedINS0_11scan_resultINS2_11conditionalIXsr3stdE9is_same_vIu11__remove_cvIu20__remove_reference_tIT1_EEP8_IO_FILEEESG_NS0_6detail22borrowed_tail_subrangeISC_Xsr6rangesE14borrowed_rangeISC_EEE4typeEE4typeEJDpT_EEEEERKT0_OSC_NS0_24basic_scan_format_stringIcNSH_13type_identityISC_E4typeEJDpNSW_ISN_E4typeEEEE:
 9749|  2.56k|{
 9750|  2.56k|    auto result = make_scan_result<Source, Args...>();
 9751|  2.56k|    fill_scan_result(result, vscan(loc, SCN_FWD(source), format,
  ------------------
  |  |  936|  2.56k|#define SCN_FWD(x)          static_cast<decltype(x)&&>(x)
  ------------------
 9752|  2.56k|                                   make_scan_args(result->values())));
 9753|  2.56k|    return result;
 9754|  2.56k|}
_ZN3scn2v44scanIJjERNSt3__117basic_string_viewIcNS2_11char_traitsIcEEEEvEENS0_13scan_expectedINS0_11scan_resultINS2_11conditionalIXsr3stdE9is_same_vIu11__remove_cvIu20__remove_reference_tIT0_EEP8_IO_FILEEESF_NS0_6detail22borrowed_tail_subrangeISB_Xsr6rangesE14borrowed_rangeISB_EEE4typeEE4typeEJDpT_EEEEEOSB_NS0_24basic_scan_format_stringIcNSG_13type_identityISB_E4typeEJDpNSS_ISM_E4typeEEEE:
 9680|  2.56k|{
 9681|  2.56k|    auto result = make_scan_result<Source, Args...>();
 9682|  2.56k|    fill_scan_result(result, vscan(SCN_FWD(source), format,
  ------------------
  |  |  936|  2.56k|#define SCN_FWD(x)          static_cast<decltype(x)&&>(x)
  ------------------
 9683|  2.56k|                                   make_scan_args(result->values())));
 9684|  2.56k|    return result;
 9685|  2.56k|}
_ZN3scn2v416make_scan_resultIRNSt3__117basic_string_viewIcNS2_11char_traitsIcEEEEJjEEEDav:
 9636|  5.13k|{
 9637|  5.13k|    return scan_result_type<Source, Args...>();
 9638|  5.13k|}
_ZN3scn2v48expectedINS0_11scan_resultINS0_6ranges6detail9subrange_8subrangeIPKcS8_EEJjEEENS0_10scan_errorEEC2Ev:
 1551|  5.13k|    constexpr expected() = default;
_ZN3scn2v46detail21expected_storage_baseINS0_11scan_resultINS0_6ranges6detail9subrange_8subrangeIPKcS9_EEJjEEENS0_10scan_errorELb1EEC2Ev:
  426|  5.13k|        : m_value(T{}), m_has_value(true)
  427|  5.13k|    {
  428|  5.13k|    }
_ZN3scn2v411scan_resultINS0_6ranges6detail9subrange_8subrangeIPKcS7_EEJjEEC2Ev:
 6570|  5.13k|    constexpr scan_result() = default;
_ZN3scn2v46detail25scan_result_value_storageIJjEEC2Ev:
 6344|  15.4k|    constexpr scan_result_value_storage() = default;
_ZN3scn2v416fill_scan_resultINS0_11scan_resultINS0_6ranges6detail9subrange_8subrangeIPKcS8_EEJjEEES9_TnPNSt3__19enable_ifIXsr3stdE13conjunction_vINS0_6detail25is_specialization_of_implIu11__remove_cvIu20__remove_reference_tIT_EES2_EENSB_7is_sameINSF_10range_typeET0_EEEEvE4typeELPv0EEEvRNS0_13scan_expectedISF_EEONSR_ISL_EE:
 9621|  5.13k|{
 9622|  5.13k|    if (SCN_UNLIKELY(!in)) {
  ------------------
  |  |  865|  5.13k|#define SCN_UNLIKELY(x) __builtin_expect(!!(x), 0)
  |  |  ------------------
  |  |  |  Branch (865:25): [True: 5.13k, False: 0]
  |  |  ------------------
  ------------------
 9623|  5.13k|        out = unexpected(in.error());
 9624|  5.13k|    }
 9625|      0|    else {
 9626|      0|        out->set_range(SCN_MOVE(*in));
  ------------------
  |  |  934|      0|    static_cast<    \
  |  |  935|      0|        typename ::scn::detail::remove_reference<decltype(x)>::type&&>(x)
  ------------------
 9627|      0|    }
 9628|  5.13k|}
_ZN3scn2v48expectedINS0_11scan_resultINS0_6ranges6detail9subrange_8subrangeIPKcS8_EEJjEEENS0_10scan_errorEEC2ISB_TnPNSt3__19enable_ifIXsr3stdE18is_constructible_vISB_OT_EEvE4typeELPv0ETnPNSF_IXsr3stdE16is_convertible_vISH_SB_EEvE4typeELSL_0EEEONS0_10unexpectedISG_EE:
 1615|  5.13k|        : base(unexpect, std::move(e.error())),
 1616|  5.13k|          ctor_base(detail::non_default_ctor_tag_t{})
 1617|  5.13k|    {
 1618|  5.13k|    }
_ZN3scn2v46detail21expected_storage_baseINS0_11scan_resultINS0_6ranges6detail9subrange_8subrangeIPKcS9_EEJjEEENS0_10scan_errorELb1EEC2IJSC_EvEENS0_10unexpect_tEDpOT_:
  449|  5.13k|        : m_unexpected(std::in_place, std::forward<Args>(args)...),
  450|  5.13k|          m_has_value(false)
  451|  5.13k|    {
  452|  5.13k|    }
_ZN3scn2v46detail26expected_default_ctor_baseINS0_11scan_resultINS0_6ranges6detail9subrange_8subrangeIPKcS9_EEJjEEENS0_10scan_errorELb1EEC2ENS1_22non_default_ctor_tag_tE:
 1315|  5.13k|    {
 1316|  5.13k|    }
_ZN3scn2v48expectedINS0_11scan_resultINS0_6ranges6detail9subrange_8subrangeIPKcS8_EEJjEEENS0_10scan_errorEEaSEOSC_:
 1556|  5.13k|    constexpr expected& operator=(expected&&) = default;
_ZN3scn2v46detail24expected_operations_baseINS0_11scan_resultINS0_6ranges6detail9subrange_8subrangeIPKcS9_EEJjEEENS0_10scan_errorEvEaSEOSD_:
  902|  5.13k|    {
  903|  5.13k|        assign_common(std::move(other));
  904|  5.13k|        return *this;
  905|  5.13k|    }
_ZN3scn2v46detail24expected_operations_baseINS0_11scan_resultINS0_6ranges6detail9subrange_8subrangeIPKcS9_EEJjEEENS0_10scan_errorEvE13assign_commonISD_EEvOT_:
  949|  5.13k|    {
  950|  5.13k|        if (this->has_value()) {
  ------------------
  |  Branch (950:13): [True: 5.13k, False: 0]
  ------------------
  951|  5.13k|            if (other.has_value()) {
  ------------------
  |  Branch (951:17): [True: 0, False: 5.13k]
  ------------------
  952|      0|                return reassign_value(std::forward<Other>(other));
  953|      0|            }
  954|  5.13k|            return assign_unexpected_over_value(std::forward<Other>(other));
  955|  5.13k|        }
  956|       |
  957|      0|        if (other.has_value()) {
  ------------------
  |  Branch (957:13): [True: 0, False: 0]
  ------------------
  958|      0|            return assign_value_over_unexpected(std::forward<Other>(other));
  959|      0|        }
  960|      0|        return reassign_unexpected(std::forward<Other>(other));
  961|      0|    }
_ZNK3scn2v46detail21expected_storage_baseINS0_11scan_resultINS0_6ranges6detail9subrange_8subrangeIPKcS9_EEJjEEENS0_10scan_errorELb1EE9has_valueEv:
  489|  15.4k|    {
  490|  15.4k|        return m_has_value;
  491|  15.4k|    }
_ZNR3scn2v46detail21expected_storage_baseINS0_11scan_resultINS0_6ranges6detail9subrange_8subrangeIPKcS9_EEJjEEENS0_10scan_errorELb1EE9get_valueEv:
  455|  5.13k|    {
  456|  5.13k|        return m_value;
  457|  5.13k|    }
_ZN3scn2v46detail24expected_operations_baseINS0_11scan_resultINS0_6ranges6detail9subrange_8subrangeIPKcS9_EEJjEEENS0_10scan_errorEvE28assign_unexpected_over_valueISD_EEvOT_:
 1045|  5.13k|    {
 1046|  5.13k|        this->destroy_value();
 1047|  5.13k|        this->construct_unexpected(std::forward<Other>(other).get_unexpected());
 1048|  5.13k|    }
_ZN3scn2v46detail21expected_storage_baseINS0_11scan_resultINS0_6ranges6detail9subrange_8subrangeIPKcS9_EEJjEEENS0_10scan_errorELb1EE13destroy_valueEv:
  510|  5.13k|    static constexpr void destroy_value() noexcept {}
_ZN3scn2v46detail21expected_storage_baseINS0_11scan_resultINS0_6ranges6detail9subrange_8subrangeIPKcS9_EEJjEEENS0_10scan_errorELb1EE20construct_unexpectedIJNS0_10unexpectedISC_EEEEEvDpOT_:
  503|  5.13k|    {
  504|  5.13k|        scn::detail::construct_at(&get_unexpected(),
  505|  5.13k|                                  std::forward<Args>(args)...);
  506|  5.13k|        m_has_value = false;
  507|  5.13k|    }
_ZNR3scn2v46detail21expected_storage_baseINS0_11scan_resultINS0_6ranges6detail9subrange_8subrangeIPKcS9_EEJjEEENS0_10scan_errorELb1EE14get_unexpectedEv:
  472|  5.13k|    {
  473|  5.13k|        return m_unexpected;
  474|  5.13k|    }
_ZNO3scn2v46detail21expected_storage_baseINS0_11scan_resultINS0_6ranges6detail9subrange_8subrangeIPKcS9_EEJjEEENS0_10scan_errorELb1EE14get_unexpectedEv:
  480|  5.13k|    {
  481|  5.13k|        return std::move(m_unexpected);
  482|  5.13k|    }
_ZNK3scn2v424basic_scan_format_stringIcRNSt3__117basic_string_viewIcNS2_11char_traitsIcEEEEJjEEcvS6_Ev:
 8767|  5.13k|    {
 8768|  5.13k|        return m_str;
 8769|  5.13k|    }
_ZN3scn2v414make_scan_argsINS0_18basic_scan_contextINS0_6detail16buffer_range_tagEcEEJjEEEDaRNSt3__15tupleIJDpT0_EEE:
 6109|  5.13k|{
 6110|  5.13k|    detail::check_scan_arg_types<Args...>();
 6111|  5.13k|    return detail::scan_arg_store<Context, Args...>(values);
 6112|  5.13k|}
_ZN3scn2v46detail20check_scan_arg_typesIJjEEEbv:
 5824|  15.4k|{
 5825|  15.4k|    constexpr bool default_constructible_constraint =
 5826|  15.4k|        std::conjunction_v<std::is_default_constructible<Args>...>;
 5827|  15.4k|    static_assert(default_constructible_constraint,
 5828|  15.4k|                  "Scan argument types must be default constructible");
 5829|       |
 5830|  15.4k|    constexpr bool destructible_constraint =
 5831|  15.4k|        std::conjunction_v<std::is_destructible<Args>...>;
 5832|  15.4k|    static_assert(destructible_constraint,
 5833|  15.4k|                  "Scan argument types must be Destructible");
 5834|       |
 5835|  15.4k|    constexpr bool non_reference_constraint =
 5836|  15.4k|        !std::conjunction_v<std::false_type, std::is_reference<Args>...>;
 5837|  15.4k|    static_assert(non_reference_constraint,
 5838|  15.4k|                  "Scan argument types must not be references");
 5839|       |
 5840|  15.4k|    constexpr bool movable_constraint =
 5841|  15.4k|        std::conjunction_v<std::is_move_constructible<Args>...>;
 5842|  15.4k|    static_assert(movable_constraint,
 5843|  15.4k|                  "Scan argument types must be move constructible");
 5844|       |
 5845|  15.4k|    return default_constructible_constraint && destructible_constraint &&
  ------------------
  |  Branch (5845:12): [Folded - Ignored]
  |  Branch (5845:48): [Folded - Ignored]
  ------------------
 5846|  15.4k|           non_reference_constraint && movable_constraint;
  ------------------
  |  Branch (5846:12): [Folded - Ignored]
  |  Branch (5846:40): [Folded - Ignored]
  ------------------
 5847|  15.4k|}
_ZN3scn2v46detail14scan_arg_storeINS0_18basic_scan_contextINS1_16buffer_range_tagEcEEJjEEC2ERNSt3__15tupleIJjEEE:
 6085|  5.13k|        : args(std::apply(make_argptrs<Args...>, args))
 6086|  5.13k|    {
 6087|  5.13k|    }
_ZN3scn2v46detail14scan_arg_storeINS0_18basic_scan_contextINS1_16buffer_range_tagEcEEJjEE12make_argptrsIJjEEENSt3__15arrayIPvLm1EEEDpRT_:
 6094|  5.13k|    {
 6095|  5.13k|        return {detail::make_arg<
 6096|  5.13k|            kind, Context,
 6097|  5.13k|            mapped_type_constant<remove_cvref_t<A>,
 6098|  5.13k|                                 typename Context::char_type>::value>(args)...};
 6099|  5.13k|    }
_ZN3scn2v46detail8make_argILNS1_19scan_arg_store_kindE0ENS0_18basic_scan_contextINS1_16buffer_range_tagEcEELNS1_8arg_typeE8EjvEEPvRT2_:
 5874|  5.13k|{
 5875|  5.13k|    return make_value<Context>(value).ref_value;
 5876|  5.13k|}
_ZN3scn2v46detail10make_valueINS0_18basic_scan_contextINS1_16buffer_range_tagEcEEjEEDaRT0_:
 5809|  5.13k|{
 5810|  5.13k|    auto&& arg = arg_mapper<typename Context::char_type>().map(value);
 5811|       |
 5812|       |    if constexpr (!std::is_same_v<remove_cvref_t<decltype(arg)>,
 5813|  5.13k|                                  needs_context_tag>) {
 5814|  5.13k|        return make_value_impl<T>(SCN_FWD(arg));
  ------------------
  |  |  936|  5.13k|#define SCN_FWD(x)          static_cast<decltype(x)&&>(x)
  ------------------
 5815|       |    }
 5816|       |    else {
 5817|       |        return make_value_impl<T>(arg_mapper<typename Context::char_type>().map(
 5818|       |            value, context_tag<Context>{}));
 5819|       |    }
 5820|  5.13k|}
_ZN3scn2v46detail10arg_mapperIcE3mapERj:
 5648|  5.13k|    {                                                                        \
 5649|  5.13k|        return val;                                                          \
 5650|  5.13k|    }
_ZN3scn2v46detail15make_value_implIjRjEEDaOT0_:
 5778|  15.4k|{
 5779|  15.4k|    using arg_nocvref_t = remove_cvref_t<Arg>;
 5780|  15.4k|    static_assert(!std::is_same_v<arg_nocvref_t, needs_context_tag>);
 5781|       |
 5782|  15.4k|    constexpr bool scannable_char =
 5783|  15.4k|        !std::is_same_v<arg_nocvref_t, unscannable_char>;
 5784|  15.4k|    static_assert(scannable_char,
 5785|  15.4k|                  "Cannot scan an argument of an unsupported character "
 5786|  15.4k|                  "type (i.e. char from a wchar_t source)");
 5787|       |
 5788|  15.4k|    constexpr bool scannable_const =
 5789|  15.4k|        !std::is_same_v<arg_nocvref_t, unscannable_const>;
 5790|  15.4k|    static_assert(scannable_const, "Cannot scan a const argument");
 5791|       |
 5792|  15.4k|    constexpr bool scannable_disabled =
 5793|  15.4k|        !std::is_same_v<arg_nocvref_t, unscannable_disabled>;
 5794|  15.4k|    static_assert(scannable_disabled,
 5795|  15.4k|                  "Cannot scan an argument that has been disabled by "
 5796|  15.4k|                  "flag (SCN_DISABLE_TYPE_*)");
 5797|       |
 5798|  15.4k|    constexpr bool scannable = !std::is_same_v<arg_nocvref_t, unscannable>;
 5799|  15.4k|    static_assert(
 5800|  15.4k|        scannable,
 5801|  15.4k|        "Cannot scan an argument. To make a type T scannable, provide "
 5802|  15.4k|        "a scn::scanner<T, CharT> specialization.");
 5803|       |
 5804|  15.4k|    return arg_value{arg};
 5805|  15.4k|}
_ZN3scn2v46detail9arg_valueC2IjEERT_:
 5562|  15.4k|    explicit constexpr arg_value(T& val) : ref_value{std::addressof(val)}
 5563|  15.4k|    {
 5564|  15.4k|    }
_ZN3scn2v48expectedINS0_11scan_resultINS0_6ranges6detail9subrange_8subrangeIPKcS8_EEJjEEENS0_10scan_errorEEptEv:
 1814|  5.13k|    {
 1815|  5.13k|        return &value();
 1816|  5.13k|    }
_ZNR3scn2v48expectedINS0_11scan_resultINS0_6ranges6detail9subrange_8subrangeIPKcS8_EEJjEEENS0_10scan_errorEE5valueISA_TnPNSt3__19enable_ifIXntsr3stdE9is_void_vIT_EEvE4typeELPv0EEERSG_v:
 1768|  5.13k|    {
 1769|  5.13k|        SCN_EXPECT(has_value());
  ------------------
  |  |  930|  5.13k|#define SCN_EXPECT(cond) SCN_ASSERT(cond, "Precondition violation")
  |  |  ------------------
  |  |  |  |  927|  5.13k|#define SCN_ASSERT(cond, msg) assert((cond) && msg)
  |  |  ------------------
  ------------------
 1770|  5.13k|        return this->get_value();
 1771|  5.13k|    }
_ZNR3scn2v46detail25scan_result_value_storageIJjEE6valuesEv:
 6353|  15.4k|    {
 6354|  15.4k|        return m_values;
 6355|  15.4k|    }
_ZN3scn2v415basic_scan_argsINS0_18basic_scan_contextINS0_6detail16buffer_range_tagEcEEEC2IJjEEERKNS3_14scan_arg_storeIS5_JDpT_EEE:
 6135|  5.13k|        : basic_scan_args(store.desc, store.args.data())
 6136|  5.13k|    {
 6137|  5.13k|    }
_ZN3scn2v424basic_scan_format_stringIcRNSt3__117basic_string_viewIcNS2_11char_traitsIcEEEEJjEEC2ENS0_6detail27basic_runtime_format_stringIcEE:
 8762|  5.13k|        : m_str(r.str)
 8763|  5.13k|    {
 8764|  5.13k|    }
_ZN3scn2v44scanIJjENSt3__16localeERNS2_17basic_string_viewIcNS2_11char_traitsIcEEEEvvEENS0_13scan_expectedINS0_11scan_resultINS2_11conditionalIXsr3stdE9is_same_vIu11__remove_cvIu20__remove_reference_tIT1_EEP8_IO_FILEEESG_NS0_6detail22borrowed_tail_subrangeISC_Xsr6rangesE14borrowed_rangeISC_EEE4typeEE4typeEJDpT_EEEEERKT0_OSC_NS0_24basic_scan_format_stringIcNSH_13type_identityISC_E4typeEJDpNSW_ISN_E4typeEEEE:
 9749|  2.56k|{
 9750|  2.56k|    auto result = make_scan_result<Source, Args...>();
 9751|  2.56k|    fill_scan_result(result, vscan(loc, SCN_FWD(source), format,
  ------------------
  |  |  936|  2.56k|#define SCN_FWD(x)          static_cast<decltype(x)&&>(x)
  ------------------
 9752|  2.56k|                                   make_scan_args(result->values())));
 9753|  2.56k|    return result;
 9754|  2.56k|}
_ZN3scn2v44scanIJdERNSt3__117basic_string_viewIcNS2_11char_traitsIcEEEEvEENS0_13scan_expectedINS0_11scan_resultINS2_11conditionalIXsr3stdE9is_same_vIu11__remove_cvIu20__remove_reference_tIT0_EEP8_IO_FILEEESF_NS0_6detail22borrowed_tail_subrangeISB_Xsr6rangesE14borrowed_rangeISB_EEE4typeEE4typeEJDpT_EEEEEOSB_NS0_24basic_scan_format_stringIcNSG_13type_identityISB_E4typeEJDpNSS_ISM_E4typeEEEE:
 9680|  2.56k|{
 9681|  2.56k|    auto result = make_scan_result<Source, Args...>();
 9682|  2.56k|    fill_scan_result(result, vscan(SCN_FWD(source), format,
  ------------------
  |  |  936|  2.56k|#define SCN_FWD(x)          static_cast<decltype(x)&&>(x)
  ------------------
 9683|  2.56k|                                   make_scan_args(result->values())));
 9684|  2.56k|    return result;
 9685|  2.56k|}
_ZN3scn2v416make_scan_resultIRNSt3__117basic_string_viewIcNS2_11char_traitsIcEEEEJdEEEDav:
 9636|  5.13k|{
 9637|  5.13k|    return scan_result_type<Source, Args...>();
 9638|  5.13k|}
_ZN3scn2v48expectedINS0_11scan_resultINS0_6ranges6detail9subrange_8subrangeIPKcS8_EEJdEEENS0_10scan_errorEEC2Ev:
 1551|  5.13k|    constexpr expected() = default;
_ZN3scn2v46detail21expected_storage_baseINS0_11scan_resultINS0_6ranges6detail9subrange_8subrangeIPKcS9_EEJdEEENS0_10scan_errorELb1EEC2Ev:
  426|  5.13k|        : m_value(T{}), m_has_value(true)
  427|  5.13k|    {
  428|  5.13k|    }
_ZN3scn2v411scan_resultINS0_6ranges6detail9subrange_8subrangeIPKcS7_EEJdEEC2Ev:
 6570|  5.13k|    constexpr scan_result() = default;
_ZN3scn2v46detail25scan_result_value_storageIJdEEC2Ev:
 6344|  15.4k|    constexpr scan_result_value_storage() = default;
_ZN3scn2v416fill_scan_resultINS0_11scan_resultINS0_6ranges6detail9subrange_8subrangeIPKcS8_EEJdEEES9_TnPNSt3__19enable_ifIXsr3stdE13conjunction_vINS0_6detail25is_specialization_of_implIu11__remove_cvIu20__remove_reference_tIT_EES2_EENSB_7is_sameINSF_10range_typeET0_EEEEvE4typeELPv0EEEvRNS0_13scan_expectedISF_EEONSR_ISL_EE:
 9621|  5.13k|{
 9622|  5.13k|    if (SCN_UNLIKELY(!in)) {
  ------------------
  |  |  865|  5.13k|#define SCN_UNLIKELY(x) __builtin_expect(!!(x), 0)
  |  |  ------------------
  |  |  |  Branch (865:25): [True: 5.13k, False: 0]
  |  |  ------------------
  ------------------
 9623|  5.13k|        out = unexpected(in.error());
 9624|  5.13k|    }
 9625|      0|    else {
 9626|      0|        out->set_range(SCN_MOVE(*in));
  ------------------
  |  |  934|      0|    static_cast<    \
  |  |  935|      0|        typename ::scn::detail::remove_reference<decltype(x)>::type&&>(x)
  ------------------
 9627|      0|    }
 9628|  5.13k|}
_ZN3scn2v48expectedINS0_11scan_resultINS0_6ranges6detail9subrange_8subrangeIPKcS8_EEJdEEENS0_10scan_errorEEC2ISB_TnPNSt3__19enable_ifIXsr3stdE18is_constructible_vISB_OT_EEvE4typeELPv0ETnPNSF_IXsr3stdE16is_convertible_vISH_SB_EEvE4typeELSL_0EEEONS0_10unexpectedISG_EE:
 1615|  5.13k|        : base(unexpect, std::move(e.error())),
 1616|  5.13k|          ctor_base(detail::non_default_ctor_tag_t{})
 1617|  5.13k|    {
 1618|  5.13k|    }
_ZN3scn2v46detail21expected_storage_baseINS0_11scan_resultINS0_6ranges6detail9subrange_8subrangeIPKcS9_EEJdEEENS0_10scan_errorELb1EEC2IJSC_EvEENS0_10unexpect_tEDpOT_:
  449|  5.13k|        : m_unexpected(std::in_place, std::forward<Args>(args)...),
  450|  5.13k|          m_has_value(false)
  451|  5.13k|    {
  452|  5.13k|    }
_ZN3scn2v46detail26expected_default_ctor_baseINS0_11scan_resultINS0_6ranges6detail9subrange_8subrangeIPKcS9_EEJdEEENS0_10scan_errorELb1EEC2ENS1_22non_default_ctor_tag_tE:
 1315|  5.13k|    {
 1316|  5.13k|    }
_ZN3scn2v48expectedINS0_11scan_resultINS0_6ranges6detail9subrange_8subrangeIPKcS8_EEJdEEENS0_10scan_errorEEaSEOSC_:
 1556|  5.13k|    constexpr expected& operator=(expected&&) = default;
_ZN3scn2v46detail24expected_operations_baseINS0_11scan_resultINS0_6ranges6detail9subrange_8subrangeIPKcS9_EEJdEEENS0_10scan_errorEvEaSEOSD_:
  902|  5.13k|    {
  903|  5.13k|        assign_common(std::move(other));
  904|  5.13k|        return *this;
  905|  5.13k|    }
_ZN3scn2v46detail24expected_operations_baseINS0_11scan_resultINS0_6ranges6detail9subrange_8subrangeIPKcS9_EEJdEEENS0_10scan_errorEvE13assign_commonISD_EEvOT_:
  949|  5.13k|    {
  950|  5.13k|        if (this->has_value()) {
  ------------------
  |  Branch (950:13): [True: 5.13k, False: 0]
  ------------------
  951|  5.13k|            if (other.has_value()) {
  ------------------
  |  Branch (951:17): [True: 0, False: 5.13k]
  ------------------
  952|      0|                return reassign_value(std::forward<Other>(other));
  953|      0|            }
  954|  5.13k|            return assign_unexpected_over_value(std::forward<Other>(other));
  955|  5.13k|        }
  956|       |
  957|      0|        if (other.has_value()) {
  ------------------
  |  Branch (957:13): [True: 0, False: 0]
  ------------------
  958|      0|            return assign_value_over_unexpected(std::forward<Other>(other));
  959|      0|        }
  960|      0|        return reassign_unexpected(std::forward<Other>(other));
  961|      0|    }
_ZNK3scn2v46detail21expected_storage_baseINS0_11scan_resultINS0_6ranges6detail9subrange_8subrangeIPKcS9_EEJdEEENS0_10scan_errorELb1EE9has_valueEv:
  489|  15.4k|    {
  490|  15.4k|        return m_has_value;
  491|  15.4k|    }
_ZNR3scn2v46detail21expected_storage_baseINS0_11scan_resultINS0_6ranges6detail9subrange_8subrangeIPKcS9_EEJdEEENS0_10scan_errorELb1EE9get_valueEv:
  455|  5.13k|    {
  456|  5.13k|        return m_value;
  457|  5.13k|    }
_ZN3scn2v46detail24expected_operations_baseINS0_11scan_resultINS0_6ranges6detail9subrange_8subrangeIPKcS9_EEJdEEENS0_10scan_errorEvE28assign_unexpected_over_valueISD_EEvOT_:
 1045|  5.13k|    {
 1046|  5.13k|        this->destroy_value();
 1047|  5.13k|        this->construct_unexpected(std::forward<Other>(other).get_unexpected());
 1048|  5.13k|    }
_ZN3scn2v46detail21expected_storage_baseINS0_11scan_resultINS0_6ranges6detail9subrange_8subrangeIPKcS9_EEJdEEENS0_10scan_errorELb1EE13destroy_valueEv:
  510|  5.13k|    static constexpr void destroy_value() noexcept {}
_ZN3scn2v46detail21expected_storage_baseINS0_11scan_resultINS0_6ranges6detail9subrange_8subrangeIPKcS9_EEJdEEENS0_10scan_errorELb1EE20construct_unexpectedIJNS0_10unexpectedISC_EEEEEvDpOT_:
  503|  5.13k|    {
  504|  5.13k|        scn::detail::construct_at(&get_unexpected(),
  505|  5.13k|                                  std::forward<Args>(args)...);
  506|  5.13k|        m_has_value = false;
  507|  5.13k|    }
_ZNR3scn2v46detail21expected_storage_baseINS0_11scan_resultINS0_6ranges6detail9subrange_8subrangeIPKcS9_EEJdEEENS0_10scan_errorELb1EE14get_unexpectedEv:
  472|  5.13k|    {
  473|  5.13k|        return m_unexpected;
  474|  5.13k|    }
_ZNO3scn2v46detail21expected_storage_baseINS0_11scan_resultINS0_6ranges6detail9subrange_8subrangeIPKcS9_EEJdEEENS0_10scan_errorELb1EE14get_unexpectedEv:
  480|  5.13k|    {
  481|  5.13k|        return std::move(m_unexpected);
  482|  5.13k|    }
_ZNK3scn2v424basic_scan_format_stringIcRNSt3__117basic_string_viewIcNS2_11char_traitsIcEEEEJdEEcvS6_Ev:
 8767|  5.13k|    {
 8768|  5.13k|        return m_str;
 8769|  5.13k|    }
_ZN3scn2v414make_scan_argsINS0_18basic_scan_contextINS0_6detail16buffer_range_tagEcEEJdEEEDaRNSt3__15tupleIJDpT0_EEE:
 6109|  5.13k|{
 6110|  5.13k|    detail::check_scan_arg_types<Args...>();
 6111|  5.13k|    return detail::scan_arg_store<Context, Args...>(values);
 6112|  5.13k|}
_ZN3scn2v46detail20check_scan_arg_typesIJdEEEbv:
 5824|  15.4k|{
 5825|  15.4k|    constexpr bool default_constructible_constraint =
 5826|  15.4k|        std::conjunction_v<std::is_default_constructible<Args>...>;
 5827|  15.4k|    static_assert(default_constructible_constraint,
 5828|  15.4k|                  "Scan argument types must be default constructible");
 5829|       |
 5830|  15.4k|    constexpr bool destructible_constraint =
 5831|  15.4k|        std::conjunction_v<std::is_destructible<Args>...>;
 5832|  15.4k|    static_assert(destructible_constraint,
 5833|  15.4k|                  "Scan argument types must be Destructible");
 5834|       |
 5835|  15.4k|    constexpr bool non_reference_constraint =
 5836|  15.4k|        !std::conjunction_v<std::false_type, std::is_reference<Args>...>;
 5837|  15.4k|    static_assert(non_reference_constraint,
 5838|  15.4k|                  "Scan argument types must not be references");
 5839|       |
 5840|  15.4k|    constexpr bool movable_constraint =
 5841|  15.4k|        std::conjunction_v<std::is_move_constructible<Args>...>;
 5842|  15.4k|    static_assert(movable_constraint,
 5843|  15.4k|                  "Scan argument types must be move constructible");
 5844|       |
 5845|  15.4k|    return default_constructible_constraint && destructible_constraint &&
  ------------------
  |  Branch (5845:12): [Folded - Ignored]
  |  Branch (5845:48): [Folded - Ignored]
  ------------------
 5846|  15.4k|           non_reference_constraint && movable_constraint;
  ------------------
  |  Branch (5846:12): [Folded - Ignored]
  |  Branch (5846:40): [Folded - Ignored]
  ------------------
 5847|  15.4k|}
_ZN3scn2v46detail14scan_arg_storeINS0_18basic_scan_contextINS1_16buffer_range_tagEcEEJdEEC2ERNSt3__15tupleIJdEEE:
 6085|  5.13k|        : args(std::apply(make_argptrs<Args...>, args))
 6086|  5.13k|    {
 6087|  5.13k|    }
_ZN3scn2v46detail14scan_arg_storeINS0_18basic_scan_contextINS1_16buffer_range_tagEcEEJdEE12make_argptrsIJdEEENSt3__15arrayIPvLm1EEEDpRT_:
 6094|  5.13k|    {
 6095|  5.13k|        return {detail::make_arg<
 6096|  5.13k|            kind, Context,
 6097|  5.13k|            mapped_type_constant<remove_cvref_t<A>,
 6098|  5.13k|                                 typename Context::char_type>::value>(args)...};
 6099|  5.13k|    }
_ZN3scn2v46detail8make_argILNS1_19scan_arg_store_kindE0ENS0_18basic_scan_contextINS1_16buffer_range_tagEcEELNS1_8arg_typeE17EdvEEPvRT2_:
 5874|  5.13k|{
 5875|  5.13k|    return make_value<Context>(value).ref_value;
 5876|  5.13k|}
_ZN3scn2v46detail10make_valueINS0_18basic_scan_contextINS1_16buffer_range_tagEcEEdEEDaRT0_:
 5809|  5.13k|{
 5810|  5.13k|    auto&& arg = arg_mapper<typename Context::char_type>().map(value);
 5811|       |
 5812|       |    if constexpr (!std::is_same_v<remove_cvref_t<decltype(arg)>,
 5813|  5.13k|                                  needs_context_tag>) {
 5814|  5.13k|        return make_value_impl<T>(SCN_FWD(arg));
  ------------------
  |  |  936|  5.13k|#define SCN_FWD(x)          static_cast<decltype(x)&&>(x)
  ------------------
 5815|       |    }
 5816|       |    else {
 5817|       |        return make_value_impl<T>(arg_mapper<typename Context::char_type>().map(
 5818|       |            value, context_tag<Context>{}));
 5819|       |    }
 5820|  5.13k|}
_ZN3scn2v46detail10arg_mapperIcE3mapERd:
 5648|  5.13k|    {                                                                        \
 5649|  5.13k|        return val;                                                          \
 5650|  5.13k|    }
_ZN3scn2v46detail15make_value_implIdRdEEDaOT0_:
 5778|  15.4k|{
 5779|  15.4k|    using arg_nocvref_t = remove_cvref_t<Arg>;
 5780|  15.4k|    static_assert(!std::is_same_v<arg_nocvref_t, needs_context_tag>);
 5781|       |
 5782|  15.4k|    constexpr bool scannable_char =
 5783|  15.4k|        !std::is_same_v<arg_nocvref_t, unscannable_char>;
 5784|  15.4k|    static_assert(scannable_char,
 5785|  15.4k|                  "Cannot scan an argument of an unsupported character "
 5786|  15.4k|                  "type (i.e. char from a wchar_t source)");
 5787|       |
 5788|  15.4k|    constexpr bool scannable_const =
 5789|  15.4k|        !std::is_same_v<arg_nocvref_t, unscannable_const>;
 5790|  15.4k|    static_assert(scannable_const, "Cannot scan a const argument");
 5791|       |
 5792|  15.4k|    constexpr bool scannable_disabled =
 5793|  15.4k|        !std::is_same_v<arg_nocvref_t, unscannable_disabled>;
 5794|  15.4k|    static_assert(scannable_disabled,
 5795|  15.4k|                  "Cannot scan an argument that has been disabled by "
 5796|  15.4k|                  "flag (SCN_DISABLE_TYPE_*)");
 5797|       |
 5798|  15.4k|    constexpr bool scannable = !std::is_same_v<arg_nocvref_t, unscannable>;
 5799|  15.4k|    static_assert(
 5800|  15.4k|        scannable,
 5801|  15.4k|        "Cannot scan an argument. To make a type T scannable, provide "
 5802|  15.4k|        "a scn::scanner<T, CharT> specialization.");
 5803|       |
 5804|  15.4k|    return arg_value{arg};
 5805|  15.4k|}
_ZN3scn2v46detail9arg_valueC2IdEERT_:
 5562|  15.4k|    explicit constexpr arg_value(T& val) : ref_value{std::addressof(val)}
 5563|  15.4k|    {
 5564|  15.4k|    }
_ZN3scn2v48expectedINS0_11scan_resultINS0_6ranges6detail9subrange_8subrangeIPKcS8_EEJdEEENS0_10scan_errorEEptEv:
 1814|  5.13k|    {
 1815|  5.13k|        return &value();
 1816|  5.13k|    }
_ZNR3scn2v48expectedINS0_11scan_resultINS0_6ranges6detail9subrange_8subrangeIPKcS8_EEJdEEENS0_10scan_errorEE5valueISA_TnPNSt3__19enable_ifIXntsr3stdE9is_void_vIT_EEvE4typeELPv0EEERSG_v:
 1768|  5.13k|    {
 1769|  5.13k|        SCN_EXPECT(has_value());
  ------------------
  |  |  930|  5.13k|#define SCN_EXPECT(cond) SCN_ASSERT(cond, "Precondition violation")
  |  |  ------------------
  |  |  |  |  927|  5.13k|#define SCN_ASSERT(cond, msg) assert((cond) && msg)
  |  |  ------------------
  ------------------
 1770|  5.13k|        return this->get_value();
 1771|  5.13k|    }
_ZNR3scn2v46detail25scan_result_value_storageIJdEE6valuesEv:
 6353|  15.4k|    {
 6354|  15.4k|        return m_values;
 6355|  15.4k|    }
_ZN3scn2v415basic_scan_argsINS0_18basic_scan_contextINS0_6detail16buffer_range_tagEcEEEC2IJdEEERKNS3_14scan_arg_storeIS5_JDpT_EEE:
 6135|  5.13k|        : basic_scan_args(store.desc, store.args.data())
 6136|  5.13k|    {
 6137|  5.13k|    }
_ZN3scn2v424basic_scan_format_stringIcRNSt3__117basic_string_viewIcNS2_11char_traitsIcEEEEJdEEC2ENS0_6detail27basic_runtime_format_stringIcEE:
 8762|  5.13k|        : m_str(r.str)
 8763|  5.13k|    {
 8764|  5.13k|    }
_ZN3scn2v44scanIJdENSt3__16localeERNS2_17basic_string_viewIcNS2_11char_traitsIcEEEEvvEENS0_13scan_expectedINS0_11scan_resultINS2_11conditionalIXsr3stdE9is_same_vIu11__remove_cvIu20__remove_reference_tIT1_EEP8_IO_FILEEESG_NS0_6detail22borrowed_tail_subrangeISC_Xsr6rangesE14borrowed_rangeISC_EEE4typeEE4typeEJDpT_EEEEERKT0_OSC_NS0_24basic_scan_format_stringIcNSH_13type_identityISC_E4typeEJDpNSW_ISN_E4typeEEEE:
 9749|  2.56k|{
 9750|  2.56k|    auto result = make_scan_result<Source, Args...>();
 9751|  2.56k|    fill_scan_result(result, vscan(loc, SCN_FWD(source), format,
  ------------------
  |  |  936|  2.56k|#define SCN_FWD(x)          static_cast<decltype(x)&&>(x)
  ------------------
 9752|  2.56k|                                   make_scan_args(result->values())));
 9753|  2.56k|    return result;
 9754|  2.56k|}
_ZN3scn2v44scanIJbERNSt3__117basic_string_viewIcNS2_11char_traitsIcEEEEvEENS0_13scan_expectedINS0_11scan_resultINS2_11conditionalIXsr3stdE9is_same_vIu11__remove_cvIu20__remove_reference_tIT0_EEP8_IO_FILEEESF_NS0_6detail22borrowed_tail_subrangeISB_Xsr6rangesE14borrowed_rangeISB_EEE4typeEE4typeEJDpT_EEEEEOSB_NS0_24basic_scan_format_stringIcNSG_13type_identityISB_E4typeEJDpNSS_ISM_E4typeEEEE:
 9680|  2.56k|{
 9681|  2.56k|    auto result = make_scan_result<Source, Args...>();
 9682|  2.56k|    fill_scan_result(result, vscan(SCN_FWD(source), format,
  ------------------
  |  |  936|  2.56k|#define SCN_FWD(x)          static_cast<decltype(x)&&>(x)
  ------------------
 9683|  2.56k|                                   make_scan_args(result->values())));
 9684|  2.56k|    return result;
 9685|  2.56k|}
_ZN3scn2v416make_scan_resultIRNSt3__117basic_string_viewIcNS2_11char_traitsIcEEEEJbEEEDav:
 9636|  5.13k|{
 9637|  5.13k|    return scan_result_type<Source, Args...>();
 9638|  5.13k|}
_ZN3scn2v48expectedINS0_11scan_resultINS0_6ranges6detail9subrange_8subrangeIPKcS8_EEJbEEENS0_10scan_errorEEC2Ev:
 1551|  5.13k|    constexpr expected() = default;
_ZN3scn2v46detail21expected_storage_baseINS0_11scan_resultINS0_6ranges6detail9subrange_8subrangeIPKcS9_EEJbEEENS0_10scan_errorELb1EEC2Ev:
  426|  5.13k|        : m_value(T{}), m_has_value(true)
  427|  5.13k|    {
  428|  5.13k|    }
_ZN3scn2v411scan_resultINS0_6ranges6detail9subrange_8subrangeIPKcS7_EEJbEEC2Ev:
 6570|  5.13k|    constexpr scan_result() = default;
_ZN3scn2v46detail25scan_result_value_storageIJbEEC2Ev:
 6344|  15.4k|    constexpr scan_result_value_storage() = default;
_ZN3scn2v416fill_scan_resultINS0_11scan_resultINS0_6ranges6detail9subrange_8subrangeIPKcS8_EEJbEEES9_TnPNSt3__19enable_ifIXsr3stdE13conjunction_vINS0_6detail25is_specialization_of_implIu11__remove_cvIu20__remove_reference_tIT_EES2_EENSB_7is_sameINSF_10range_typeET0_EEEEvE4typeELPv0EEEvRNS0_13scan_expectedISF_EEONSR_ISL_EE:
 9621|  5.13k|{
 9622|  5.13k|    if (SCN_UNLIKELY(!in)) {
  ------------------
  |  |  865|  5.13k|#define SCN_UNLIKELY(x) __builtin_expect(!!(x), 0)
  |  |  ------------------
  |  |  |  Branch (865:25): [True: 5.13k, False: 0]
  |  |  ------------------
  ------------------
 9623|  5.13k|        out = unexpected(in.error());
 9624|  5.13k|    }
 9625|      0|    else {
 9626|      0|        out->set_range(SCN_MOVE(*in));
  ------------------
  |  |  934|      0|    static_cast<    \
  |  |  935|      0|        typename ::scn::detail::remove_reference<decltype(x)>::type&&>(x)
  ------------------
 9627|      0|    }
 9628|  5.13k|}
_ZN3scn2v48expectedINS0_11scan_resultINS0_6ranges6detail9subrange_8subrangeIPKcS8_EEJbEEENS0_10scan_errorEEC2ISB_TnPNSt3__19enable_ifIXsr3stdE18is_constructible_vISB_OT_EEvE4typeELPv0ETnPNSF_IXsr3stdE16is_convertible_vISH_SB_EEvE4typeELSL_0EEEONS0_10unexpectedISG_EE:
 1615|  5.13k|        : base(unexpect, std::move(e.error())),
 1616|  5.13k|          ctor_base(detail::non_default_ctor_tag_t{})
 1617|  5.13k|    {
 1618|  5.13k|    }
_ZN3scn2v46detail21expected_storage_baseINS0_11scan_resultINS0_6ranges6detail9subrange_8subrangeIPKcS9_EEJbEEENS0_10scan_errorELb1EEC2IJSC_EvEENS0_10unexpect_tEDpOT_:
  449|  5.13k|        : m_unexpected(std::in_place, std::forward<Args>(args)...),
  450|  5.13k|          m_has_value(false)
  451|  5.13k|    {
  452|  5.13k|    }
_ZN3scn2v46detail26expected_default_ctor_baseINS0_11scan_resultINS0_6ranges6detail9subrange_8subrangeIPKcS9_EEJbEEENS0_10scan_errorELb1EEC2ENS1_22non_default_ctor_tag_tE:
 1315|  5.13k|    {
 1316|  5.13k|    }
_ZN3scn2v48expectedINS0_11scan_resultINS0_6ranges6detail9subrange_8subrangeIPKcS8_EEJbEEENS0_10scan_errorEEaSEOSC_:
 1556|  5.13k|    constexpr expected& operator=(expected&&) = default;
_ZN3scn2v46detail24expected_operations_baseINS0_11scan_resultINS0_6ranges6detail9subrange_8subrangeIPKcS9_EEJbEEENS0_10scan_errorEvEaSEOSD_:
  902|  5.13k|    {
  903|  5.13k|        assign_common(std::move(other));
  904|  5.13k|        return *this;
  905|  5.13k|    }
_ZN3scn2v46detail24expected_operations_baseINS0_11scan_resultINS0_6ranges6detail9subrange_8subrangeIPKcS9_EEJbEEENS0_10scan_errorEvE13assign_commonISD_EEvOT_:
  949|  5.13k|    {
  950|  5.13k|        if (this->has_value()) {
  ------------------
  |  Branch (950:13): [True: 5.13k, False: 0]
  ------------------
  951|  5.13k|            if (other.has_value()) {
  ------------------
  |  Branch (951:17): [True: 0, False: 5.13k]
  ------------------
  952|      0|                return reassign_value(std::forward<Other>(other));
  953|      0|            }
  954|  5.13k|            return assign_unexpected_over_value(std::forward<Other>(other));
  955|  5.13k|        }
  956|       |
  957|      0|        if (other.has_value()) {
  ------------------
  |  Branch (957:13): [True: 0, False: 0]
  ------------------
  958|      0|            return assign_value_over_unexpected(std::forward<Other>(other));
  959|      0|        }
  960|      0|        return reassign_unexpected(std::forward<Other>(other));
  961|      0|    }
_ZNK3scn2v46detail21expected_storage_baseINS0_11scan_resultINS0_6ranges6detail9subrange_8subrangeIPKcS9_EEJbEEENS0_10scan_errorELb1EE9has_valueEv:
  489|  15.4k|    {
  490|  15.4k|        return m_has_value;
  491|  15.4k|    }
_ZNR3scn2v46detail21expected_storage_baseINS0_11scan_resultINS0_6ranges6detail9subrange_8subrangeIPKcS9_EEJbEEENS0_10scan_errorELb1EE9get_valueEv:
  455|  5.13k|    {
  456|  5.13k|        return m_value;
  457|  5.13k|    }
_ZN3scn2v46detail24expected_operations_baseINS0_11scan_resultINS0_6ranges6detail9subrange_8subrangeIPKcS9_EEJbEEENS0_10scan_errorEvE28assign_unexpected_over_valueISD_EEvOT_:
 1045|  5.13k|    {
 1046|  5.13k|        this->destroy_value();
 1047|  5.13k|        this->construct_unexpected(std::forward<Other>(other).get_unexpected());
 1048|  5.13k|    }
_ZN3scn2v46detail21expected_storage_baseINS0_11scan_resultINS0_6ranges6detail9subrange_8subrangeIPKcS9_EEJbEEENS0_10scan_errorELb1EE13destroy_valueEv:
  510|  5.13k|    static constexpr void destroy_value() noexcept {}
_ZN3scn2v46detail21expected_storage_baseINS0_11scan_resultINS0_6ranges6detail9subrange_8subrangeIPKcS9_EEJbEEENS0_10scan_errorELb1EE20construct_unexpectedIJNS0_10unexpectedISC_EEEEEvDpOT_:
  503|  5.13k|    {
  504|  5.13k|        scn::detail::construct_at(&get_unexpected(),
  505|  5.13k|                                  std::forward<Args>(args)...);
  506|  5.13k|        m_has_value = false;
  507|  5.13k|    }
_ZNR3scn2v46detail21expected_storage_baseINS0_11scan_resultINS0_6ranges6detail9subrange_8subrangeIPKcS9_EEJbEEENS0_10scan_errorELb1EE14get_unexpectedEv:
  472|  5.13k|    {
  473|  5.13k|        return m_unexpected;
  474|  5.13k|    }
_ZNO3scn2v46detail21expected_storage_baseINS0_11scan_resultINS0_6ranges6detail9subrange_8subrangeIPKcS9_EEJbEEENS0_10scan_errorELb1EE14get_unexpectedEv:
  480|  5.13k|    {
  481|  5.13k|        return std::move(m_unexpected);
  482|  5.13k|    }
_ZNK3scn2v424basic_scan_format_stringIcRNSt3__117basic_string_viewIcNS2_11char_traitsIcEEEEJbEEcvS6_Ev:
 8767|  5.13k|    {
 8768|  5.13k|        return m_str;
 8769|  5.13k|    }
_ZN3scn2v414make_scan_argsINS0_18basic_scan_contextINS0_6detail16buffer_range_tagEcEEJbEEEDaRNSt3__15tupleIJDpT0_EEE:
 6109|  5.13k|{
 6110|  5.13k|    detail::check_scan_arg_types<Args...>();
 6111|  5.13k|    return detail::scan_arg_store<Context, Args...>(values);
 6112|  5.13k|}
_ZN3scn2v46detail20check_scan_arg_typesIJbEEEbv:
 5824|  15.4k|{
 5825|  15.4k|    constexpr bool default_constructible_constraint =
 5826|  15.4k|        std::conjunction_v<std::is_default_constructible<Args>...>;
 5827|  15.4k|    static_assert(default_constructible_constraint,
 5828|  15.4k|                  "Scan argument types must be default constructible");
 5829|       |
 5830|  15.4k|    constexpr bool destructible_constraint =
 5831|  15.4k|        std::conjunction_v<std::is_destructible<Args>...>;
 5832|  15.4k|    static_assert(destructible_constraint,
 5833|  15.4k|                  "Scan argument types must be Destructible");
 5834|       |
 5835|  15.4k|    constexpr bool non_reference_constraint =
 5836|  15.4k|        !std::conjunction_v<std::false_type, std::is_reference<Args>...>;
 5837|  15.4k|    static_assert(non_reference_constraint,
 5838|  15.4k|                  "Scan argument types must not be references");
 5839|       |
 5840|  15.4k|    constexpr bool movable_constraint =
 5841|  15.4k|        std::conjunction_v<std::is_move_constructible<Args>...>;
 5842|  15.4k|    static_assert(movable_constraint,
 5843|  15.4k|                  "Scan argument types must be move constructible");
 5844|       |
 5845|  15.4k|    return default_constructible_constraint && destructible_constraint &&
  ------------------
  |  Branch (5845:12): [Folded - Ignored]
  |  Branch (5845:48): [Folded - Ignored]
  ------------------
 5846|  15.4k|           non_reference_constraint && movable_constraint;
  ------------------
  |  Branch (5846:12): [Folded - Ignored]
  |  Branch (5846:40): [Folded - Ignored]
  ------------------
 5847|  15.4k|}
_ZN3scn2v46detail14scan_arg_storeINS0_18basic_scan_contextINS1_16buffer_range_tagEcEEJbEEC2ERNSt3__15tupleIJbEEE:
 6085|  5.13k|        : args(std::apply(make_argptrs<Args...>, args))
 6086|  5.13k|    {
 6087|  5.13k|    }
_ZN3scn2v46detail14scan_arg_storeINS0_18basic_scan_contextINS1_16buffer_range_tagEcEEJbEE12make_argptrsIJbEEENSt3__15arrayIPvLm1EEEDpRT_:
 6094|  5.13k|    {
 6095|  5.13k|        return {detail::make_arg<
 6096|  5.13k|            kind, Context,
 6097|  5.13k|            mapped_type_constant<remove_cvref_t<A>,
 6098|  5.13k|                                 typename Context::char_type>::value>(args)...};
 6099|  5.13k|    }
_ZN3scn2v46detail8make_argILNS1_19scan_arg_store_kindE0ENS0_18basic_scan_contextINS1_16buffer_range_tagEcEELNS1_8arg_typeE11EbvEEPvRT2_:
 5874|  5.13k|{
 5875|  5.13k|    return make_value<Context>(value).ref_value;
 5876|  5.13k|}
_ZN3scn2v46detail10make_valueINS0_18basic_scan_contextINS1_16buffer_range_tagEcEEbEEDaRT0_:
 5809|  5.13k|{
 5810|  5.13k|    auto&& arg = arg_mapper<typename Context::char_type>().map(value);
 5811|       |
 5812|       |    if constexpr (!std::is_same_v<remove_cvref_t<decltype(arg)>,
 5813|  5.13k|                                  needs_context_tag>) {
 5814|  5.13k|        return make_value_impl<T>(SCN_FWD(arg));
  ------------------
  |  |  936|  5.13k|#define SCN_FWD(x)          static_cast<decltype(x)&&>(x)
  ------------------
 5815|       |    }
 5816|       |    else {
 5817|       |        return make_value_impl<T>(arg_mapper<typename Context::char_type>().map(
 5818|       |            value, context_tag<Context>{}));
 5819|       |    }
 5820|  5.13k|}
_ZN3scn2v46detail10arg_mapperIcE3mapERb:
 5648|  5.13k|    {                                                                        \
 5649|  5.13k|        return val;                                                          \
 5650|  5.13k|    }
_ZN3scn2v46detail15make_value_implIbRbEEDaOT0_:
 5778|  15.4k|{
 5779|  15.4k|    using arg_nocvref_t = remove_cvref_t<Arg>;
 5780|  15.4k|    static_assert(!std::is_same_v<arg_nocvref_t, needs_context_tag>);
 5781|       |
 5782|  15.4k|    constexpr bool scannable_char =
 5783|  15.4k|        !std::is_same_v<arg_nocvref_t, unscannable_char>;
 5784|  15.4k|    static_assert(scannable_char,
 5785|  15.4k|                  "Cannot scan an argument of an unsupported character "
 5786|  15.4k|                  "type (i.e. char from a wchar_t source)");
 5787|       |
 5788|  15.4k|    constexpr bool scannable_const =
 5789|  15.4k|        !std::is_same_v<arg_nocvref_t, unscannable_const>;
 5790|  15.4k|    static_assert(scannable_const, "Cannot scan a const argument");
 5791|       |
 5792|  15.4k|    constexpr bool scannable_disabled =
 5793|  15.4k|        !std::is_same_v<arg_nocvref_t, unscannable_disabled>;
 5794|  15.4k|    static_assert(scannable_disabled,
 5795|  15.4k|                  "Cannot scan an argument that has been disabled by "
 5796|  15.4k|                  "flag (SCN_DISABLE_TYPE_*)");
 5797|       |
 5798|  15.4k|    constexpr bool scannable = !std::is_same_v<arg_nocvref_t, unscannable>;
 5799|  15.4k|    static_assert(
 5800|  15.4k|        scannable,
 5801|  15.4k|        "Cannot scan an argument. To make a type T scannable, provide "
 5802|  15.4k|        "a scn::scanner<T, CharT> specialization.");
 5803|       |
 5804|  15.4k|    return arg_value{arg};
 5805|  15.4k|}
_ZN3scn2v46detail9arg_valueC2IbEERT_:
 5562|  15.4k|    explicit constexpr arg_value(T& val) : ref_value{std::addressof(val)}
 5563|  15.4k|    {
 5564|  15.4k|    }
_ZN3scn2v48expectedINS0_11scan_resultINS0_6ranges6detail9subrange_8subrangeIPKcS8_EEJbEEENS0_10scan_errorEEptEv:
 1814|  5.13k|    {
 1815|  5.13k|        return &value();
 1816|  5.13k|    }
_ZNR3scn2v48expectedINS0_11scan_resultINS0_6ranges6detail9subrange_8subrangeIPKcS8_EEJbEEENS0_10scan_errorEE5valueISA_TnPNSt3__19enable_ifIXntsr3stdE9is_void_vIT_EEvE4typeELPv0EEERSG_v:
 1768|  5.13k|    {
 1769|  5.13k|        SCN_EXPECT(has_value());
  ------------------
  |  |  930|  5.13k|#define SCN_EXPECT(cond) SCN_ASSERT(cond, "Precondition violation")
  |  |  ------------------
  |  |  |  |  927|  5.13k|#define SCN_ASSERT(cond, msg) assert((cond) && msg)
  |  |  ------------------
  ------------------
 1770|  5.13k|        return this->get_value();
 1771|  5.13k|    }
_ZNR3scn2v46detail25scan_result_value_storageIJbEE6valuesEv:
 6353|  15.4k|    {
 6354|  15.4k|        return m_values;
 6355|  15.4k|    }
_ZN3scn2v415basic_scan_argsINS0_18basic_scan_contextINS0_6detail16buffer_range_tagEcEEEC2IJbEEERKNS3_14scan_arg_storeIS5_JDpT_EEE:
 6135|  5.13k|        : basic_scan_args(store.desc, store.args.data())
 6136|  5.13k|    {
 6137|  5.13k|    }
_ZN3scn2v424basic_scan_format_stringIcRNSt3__117basic_string_viewIcNS2_11char_traitsIcEEEEJbEEC2ENS0_6detail27basic_runtime_format_stringIcEE:
 8762|  5.13k|        : m_str(r.str)
 8763|  5.13k|    {
 8764|  5.13k|    }
_ZN3scn2v44scanIJbENSt3__16localeERNS2_17basic_string_viewIcNS2_11char_traitsIcEEEEvvEENS0_13scan_expectedINS0_11scan_resultINS2_11conditionalIXsr3stdE9is_same_vIu11__remove_cvIu20__remove_reference_tIT1_EEP8_IO_FILEEESG_NS0_6detail22borrowed_tail_subrangeISC_Xsr6rangesE14borrowed_rangeISC_EEE4typeEE4typeEJDpT_EEEEERKT0_OSC_NS0_24basic_scan_format_stringIcNSH_13type_identityISC_E4typeEJDpNSW_ISN_E4typeEEEE:
 9749|  2.56k|{
 9750|  2.56k|    auto result = make_scan_result<Source, Args...>();
 9751|  2.56k|    fill_scan_result(result, vscan(loc, SCN_FWD(source), format,
  ------------------
  |  |  936|  2.56k|#define SCN_FWD(x)          static_cast<decltype(x)&&>(x)
  ------------------
 9752|  2.56k|                                   make_scan_args(result->values())));
 9753|  2.56k|    return result;
 9754|  2.56k|}
_ZN3scn2v44scanIJPvERNSt3__117basic_string_viewIcNS3_11char_traitsIcEEEEvEENS0_13scan_expectedINS0_11scan_resultINS3_11conditionalIXsr3stdE9is_same_vIu11__remove_cvIu20__remove_reference_tIT0_EEP8_IO_FILEEESG_NS0_6detail22borrowed_tail_subrangeISC_Xsr6rangesE14borrowed_rangeISC_EEE4typeEE4typeEJDpT_EEEEEOSC_NS0_24basic_scan_format_stringIcNSH_13type_identityISC_E4typeEJDpNST_ISN_E4typeEEEE:
 9680|  2.56k|{
 9681|  2.56k|    auto result = make_scan_result<Source, Args...>();
 9682|  2.56k|    fill_scan_result(result, vscan(SCN_FWD(source), format,
  ------------------
  |  |  936|  2.56k|#define SCN_FWD(x)          static_cast<decltype(x)&&>(x)
  ------------------
 9683|  2.56k|                                   make_scan_args(result->values())));
 9684|  2.56k|    return result;
 9685|  2.56k|}
_ZN3scn2v416make_scan_resultIRNSt3__117basic_string_viewIcNS2_11char_traitsIcEEEEJPvEEEDav:
 9636|  5.13k|{
 9637|  5.13k|    return scan_result_type<Source, Args...>();
 9638|  5.13k|}
_ZN3scn2v48expectedINS0_11scan_resultINS0_6ranges6detail9subrange_8subrangeIPKcS8_EEJPvEEENS0_10scan_errorEEC2Ev:
 1551|  5.13k|    constexpr expected() = default;
_ZN3scn2v46detail21expected_storage_baseINS0_11scan_resultINS0_6ranges6detail9subrange_8subrangeIPKcS9_EEJPvEEENS0_10scan_errorELb1EEC2Ev:
  426|  5.13k|        : m_value(T{}), m_has_value(true)
  427|  5.13k|    {
  428|  5.13k|    }
_ZN3scn2v411scan_resultINS0_6ranges6detail9subrange_8subrangeIPKcS7_EEJPvEEC2Ev:
 6570|  5.13k|    constexpr scan_result() = default;
_ZN3scn2v46detail25scan_result_value_storageIJPvEEC2Ev:
 6344|  15.4k|    constexpr scan_result_value_storage() = default;
_ZN3scn2v416fill_scan_resultINS0_11scan_resultINS0_6ranges6detail9subrange_8subrangeIPKcS8_EEJPvEEES9_TnPNSt3__19enable_ifIXsr3stdE13conjunction_vINS0_6detail25is_specialization_of_implIu11__remove_cvIu20__remove_reference_tIT_EES2_EENSC_7is_sameINSG_10range_typeET0_EEEEvE4typeELSA_0EEEvRNS0_13scan_expectedISG_EEONSR_ISM_EE:
 9621|  5.13k|{
 9622|  5.13k|    if (SCN_UNLIKELY(!in)) {
  ------------------
  |  |  865|  5.13k|#define SCN_UNLIKELY(x) __builtin_expect(!!(x), 0)
  |  |  ------------------
  |  |  |  Branch (865:25): [True: 5.13k, False: 0]
  |  |  ------------------
  ------------------
 9623|  5.13k|        out = unexpected(in.error());
 9624|  5.13k|    }
 9625|      0|    else {
 9626|      0|        out->set_range(SCN_MOVE(*in));
  ------------------
  |  |  934|      0|    static_cast<    \
  |  |  935|      0|        typename ::scn::detail::remove_reference<decltype(x)>::type&&>(x)
  ------------------
 9627|      0|    }
 9628|  5.13k|}
_ZN3scn2v48expectedINS0_11scan_resultINS0_6ranges6detail9subrange_8subrangeIPKcS8_EEJPvEEENS0_10scan_errorEEC2ISC_TnPNSt3__19enable_ifIXsr3stdE18is_constructible_vISC_OT_EEvE4typeELSA_0ETnPNSG_IXsr3stdE16is_convertible_vISI_SC_EEvE4typeELSA_0EEEONS0_10unexpectedISH_EE:
 1615|  5.13k|        : base(unexpect, std::move(e.error())),
 1616|  5.13k|          ctor_base(detail::non_default_ctor_tag_t{})
 1617|  5.13k|    {
 1618|  5.13k|    }
_ZN3scn2v46detail21expected_storage_baseINS0_11scan_resultINS0_6ranges6detail9subrange_8subrangeIPKcS9_EEJPvEEENS0_10scan_errorELb1EEC2IJSD_EvEENS0_10unexpect_tEDpOT_:
  449|  5.13k|        : m_unexpected(std::in_place, std::forward<Args>(args)...),
  450|  5.13k|          m_has_value(false)
  451|  5.13k|    {
  452|  5.13k|    }
_ZN3scn2v46detail26expected_default_ctor_baseINS0_11scan_resultINS0_6ranges6detail9subrange_8subrangeIPKcS9_EEJPvEEENS0_10scan_errorELb1EEC2ENS1_22non_default_ctor_tag_tE:
 1315|  5.13k|    {
 1316|  5.13k|    }
_ZN3scn2v48expectedINS0_11scan_resultINS0_6ranges6detail9subrange_8subrangeIPKcS8_EEJPvEEENS0_10scan_errorEEaSEOSD_:
 1556|  5.13k|    constexpr expected& operator=(expected&&) = default;
_ZN3scn2v46detail24expected_operations_baseINS0_11scan_resultINS0_6ranges6detail9subrange_8subrangeIPKcS9_EEJPvEEENS0_10scan_errorEvEaSEOSE_:
  902|  5.13k|    {
  903|  5.13k|        assign_common(std::move(other));
  904|  5.13k|        return *this;
  905|  5.13k|    }
_ZN3scn2v46detail24expected_operations_baseINS0_11scan_resultINS0_6ranges6detail9subrange_8subrangeIPKcS9_EEJPvEEENS0_10scan_errorEvE13assign_commonISE_EEvOT_:
  949|  5.13k|    {
  950|  5.13k|        if (this->has_value()) {
  ------------------
  |  Branch (950:13): [True: 5.13k, False: 0]
  ------------------
  951|  5.13k|            if (other.has_value()) {
  ------------------
  |  Branch (951:17): [True: 0, False: 5.13k]
  ------------------
  952|      0|                return reassign_value(std::forward<Other>(other));
  953|      0|            }
  954|  5.13k|            return assign_unexpected_over_value(std::forward<Other>(other));
  955|  5.13k|        }
  956|       |
  957|      0|        if (other.has_value()) {
  ------------------
  |  Branch (957:13): [True: 0, False: 0]
  ------------------
  958|      0|            return assign_value_over_unexpected(std::forward<Other>(other));
  959|      0|        }
  960|      0|        return reassign_unexpected(std::forward<Other>(other));
  961|      0|    }
_ZNK3scn2v46detail21expected_storage_baseINS0_11scan_resultINS0_6ranges6detail9subrange_8subrangeIPKcS9_EEJPvEEENS0_10scan_errorELb1EE9has_valueEv:
  489|  15.4k|    {
  490|  15.4k|        return m_has_value;
  491|  15.4k|    }
_ZNR3scn2v46detail21expected_storage_baseINS0_11scan_resultINS0_6ranges6detail9subrange_8subrangeIPKcS9_EEJPvEEENS0_10scan_errorELb1EE9get_valueEv:
  455|  5.13k|    {
  456|  5.13k|        return m_value;
  457|  5.13k|    }
_ZN3scn2v46detail24expected_operations_baseINS0_11scan_resultINS0_6ranges6detail9subrange_8subrangeIPKcS9_EEJPvEEENS0_10scan_errorEvE28assign_unexpected_over_valueISE_EEvOT_:
 1045|  5.13k|    {
 1046|  5.13k|        this->destroy_value();
 1047|  5.13k|        this->construct_unexpected(std::forward<Other>(other).get_unexpected());
 1048|  5.13k|    }
_ZN3scn2v46detail21expected_storage_baseINS0_11scan_resultINS0_6ranges6detail9subrange_8subrangeIPKcS9_EEJPvEEENS0_10scan_errorELb1EE13destroy_valueEv:
  510|  5.13k|    static constexpr void destroy_value() noexcept {}
_ZN3scn2v46detail21expected_storage_baseINS0_11scan_resultINS0_6ranges6detail9subrange_8subrangeIPKcS9_EEJPvEEENS0_10scan_errorELb1EE20construct_unexpectedIJNS0_10unexpectedISD_EEEEEvDpOT_:
  503|  5.13k|    {
  504|  5.13k|        scn::detail::construct_at(&get_unexpected(),
  505|  5.13k|                                  std::forward<Args>(args)...);
  506|  5.13k|        m_has_value = false;
  507|  5.13k|    }
_ZNR3scn2v46detail21expected_storage_baseINS0_11scan_resultINS0_6ranges6detail9subrange_8subrangeIPKcS9_EEJPvEEENS0_10scan_errorELb1EE14get_unexpectedEv:
  472|  5.13k|    {
  473|  5.13k|        return m_unexpected;
  474|  5.13k|    }
_ZNO3scn2v46detail21expected_storage_baseINS0_11scan_resultINS0_6ranges6detail9subrange_8subrangeIPKcS9_EEJPvEEENS0_10scan_errorELb1EE14get_unexpectedEv:
  480|  5.13k|    {
  481|  5.13k|        return std::move(m_unexpected);
  482|  5.13k|    }
_ZNK3scn2v424basic_scan_format_stringIcRNSt3__117basic_string_viewIcNS2_11char_traitsIcEEEEJPvEEcvS6_Ev:
 8767|  5.13k|    {
 8768|  5.13k|        return m_str;
 8769|  5.13k|    }
_ZN3scn2v414make_scan_argsINS0_18basic_scan_contextINS0_6detail16buffer_range_tagEcEEJPvEEEDaRNSt3__15tupleIJDpT0_EEE:
 6109|  5.13k|{
 6110|  5.13k|    detail::check_scan_arg_types<Args...>();
 6111|  5.13k|    return detail::scan_arg_store<Context, Args...>(values);
 6112|  5.13k|}
_ZN3scn2v46detail20check_scan_arg_typesIJPvEEEbv:
 5824|  15.4k|{
 5825|  15.4k|    constexpr bool default_constructible_constraint =
 5826|  15.4k|        std::conjunction_v<std::is_default_constructible<Args>...>;
 5827|  15.4k|    static_assert(default_constructible_constraint,
 5828|  15.4k|                  "Scan argument types must be default constructible");
 5829|       |
 5830|  15.4k|    constexpr bool destructible_constraint =
 5831|  15.4k|        std::conjunction_v<std::is_destructible<Args>...>;
 5832|  15.4k|    static_assert(destructible_constraint,
 5833|  15.4k|                  "Scan argument types must be Destructible");
 5834|       |
 5835|  15.4k|    constexpr bool non_reference_constraint =
 5836|  15.4k|        !std::conjunction_v<std::false_type, std::is_reference<Args>...>;
 5837|  15.4k|    static_assert(non_reference_constraint,
 5838|  15.4k|                  "Scan argument types must not be references");
 5839|       |
 5840|  15.4k|    constexpr bool movable_constraint =
 5841|  15.4k|        std::conjunction_v<std::is_move_constructible<Args>...>;
 5842|  15.4k|    static_assert(movable_constraint,
 5843|  15.4k|                  "Scan argument types must be move constructible");
 5844|       |
 5845|  15.4k|    return default_constructible_constraint && destructible_constraint &&
  ------------------
  |  Branch (5845:12): [Folded - Ignored]
  |  Branch (5845:48): [Folded - Ignored]
  ------------------
 5846|  15.4k|           non_reference_constraint && movable_constraint;
  ------------------
  |  Branch (5846:12): [Folded - Ignored]
  |  Branch (5846:40): [Folded - Ignored]
  ------------------
 5847|  15.4k|}
_ZN3scn2v46detail14scan_arg_storeINS0_18basic_scan_contextINS1_16buffer_range_tagEcEEJPvEEC2ERNSt3__15tupleIJS6_EEE:
 6085|  5.13k|        : args(std::apply(make_argptrs<Args...>, args))
 6086|  5.13k|    {
 6087|  5.13k|    }
_ZN3scn2v46detail14scan_arg_storeINS0_18basic_scan_contextINS1_16buffer_range_tagEcEEJPvEE12make_argptrsIJS6_EEENSt3__15arrayIS6_Lm1EEEDpRT_:
 6094|  5.13k|    {
 6095|  5.13k|        return {detail::make_arg<
 6096|  5.13k|            kind, Context,
 6097|  5.13k|            mapped_type_constant<remove_cvref_t<A>,
 6098|  5.13k|                                 typename Context::char_type>::value>(args)...};
 6099|  5.13k|    }
_ZN3scn2v46detail8make_argILNS1_19scan_arg_store_kindE0ENS0_18basic_scan_contextINS1_16buffer_range_tagEcEELNS1_8arg_typeE15EPvvEES8_RT2_:
 5874|  5.13k|{
 5875|  5.13k|    return make_value<Context>(value).ref_value;
 5876|  5.13k|}
_ZN3scn2v46detail10make_valueINS0_18basic_scan_contextINS1_16buffer_range_tagEcEEPvEEDaRT0_:
 5809|  5.13k|{
 5810|  5.13k|    auto&& arg = arg_mapper<typename Context::char_type>().map(value);
 5811|       |
 5812|       |    if constexpr (!std::is_same_v<remove_cvref_t<decltype(arg)>,
 5813|  5.13k|                                  needs_context_tag>) {
 5814|  5.13k|        return make_value_impl<T>(SCN_FWD(arg));
  ------------------
  |  |  936|  5.13k|#define SCN_FWD(x)          static_cast<decltype(x)&&>(x)
  ------------------
 5815|       |    }
 5816|       |    else {
 5817|       |        return make_value_impl<T>(arg_mapper<typename Context::char_type>().map(
 5818|       |            value, context_tag<Context>{}));
 5819|       |    }
 5820|  5.13k|}
_ZN3scn2v46detail10arg_mapperIcE3mapERPv:
 5648|  5.13k|    {                                                                        \
 5649|  5.13k|        return val;                                                          \
 5650|  5.13k|    }
_ZN3scn2v46detail15make_value_implIPvRS3_EEDaOT0_:
 5778|  15.4k|{
 5779|  15.4k|    using arg_nocvref_t = remove_cvref_t<Arg>;
 5780|  15.4k|    static_assert(!std::is_same_v<arg_nocvref_t, needs_context_tag>);
 5781|       |
 5782|  15.4k|    constexpr bool scannable_char =
 5783|  15.4k|        !std::is_same_v<arg_nocvref_t, unscannable_char>;
 5784|  15.4k|    static_assert(scannable_char,
 5785|  15.4k|                  "Cannot scan an argument of an unsupported character "
 5786|  15.4k|                  "type (i.e. char from a wchar_t source)");
 5787|       |
 5788|  15.4k|    constexpr bool scannable_const =
 5789|  15.4k|        !std::is_same_v<arg_nocvref_t, unscannable_const>;
 5790|  15.4k|    static_assert(scannable_const, "Cannot scan a const argument");
 5791|       |
 5792|  15.4k|    constexpr bool scannable_disabled =
 5793|  15.4k|        !std::is_same_v<arg_nocvref_t, unscannable_disabled>;
 5794|  15.4k|    static_assert(scannable_disabled,
 5795|  15.4k|                  "Cannot scan an argument that has been disabled by "
 5796|  15.4k|                  "flag (SCN_DISABLE_TYPE_*)");
 5797|       |
 5798|  15.4k|    constexpr bool scannable = !std::is_same_v<arg_nocvref_t, unscannable>;
 5799|  15.4k|    static_assert(
 5800|  15.4k|        scannable,
 5801|  15.4k|        "Cannot scan an argument. To make a type T scannable, provide "
 5802|  15.4k|        "a scn::scanner<T, CharT> specialization.");
 5803|       |
 5804|  15.4k|    return arg_value{arg};
 5805|  15.4k|}
_ZN3scn2v46detail9arg_valueC2IPvEERT_:
 5562|  15.4k|    explicit constexpr arg_value(T& val) : ref_value{std::addressof(val)}
 5563|  15.4k|    {
 5564|  15.4k|    }
_ZN3scn2v48expectedINS0_11scan_resultINS0_6ranges6detail9subrange_8subrangeIPKcS8_EEJPvEEENS0_10scan_errorEEptEv:
 1814|  5.13k|    {
 1815|  5.13k|        return &value();
 1816|  5.13k|    }
_ZNR3scn2v48expectedINS0_11scan_resultINS0_6ranges6detail9subrange_8subrangeIPKcS8_EEJPvEEENS0_10scan_errorEE5valueISB_TnPNSt3__19enable_ifIXntsr3stdE9is_void_vIT_EEvE4typeELSA_0EEERSH_v:
 1768|  5.13k|    {
 1769|  5.13k|        SCN_EXPECT(has_value());
  ------------------
  |  |  930|  5.13k|#define SCN_EXPECT(cond) SCN_ASSERT(cond, "Precondition violation")
  |  |  ------------------
  |  |  |  |  927|  5.13k|#define SCN_ASSERT(cond, msg) assert((cond) && msg)
  |  |  ------------------
  ------------------
 1770|  5.13k|        return this->get_value();
 1771|  5.13k|    }
_ZNR3scn2v46detail25scan_result_value_storageIJPvEE6valuesEv:
 6353|  15.4k|    {
 6354|  15.4k|        return m_values;
 6355|  15.4k|    }
_ZN3scn2v415basic_scan_argsINS0_18basic_scan_contextINS0_6detail16buffer_range_tagEcEEEC2IJPvEEERKNS3_14scan_arg_storeIS5_JDpT_EEE:
 6135|  5.13k|        : basic_scan_args(store.desc, store.args.data())
 6136|  5.13k|    {
 6137|  5.13k|    }
_ZN3scn2v424basic_scan_format_stringIcRNSt3__117basic_string_viewIcNS2_11char_traitsIcEEEEJPvEEC2ENS0_6detail27basic_runtime_format_stringIcEE:
 8762|  5.13k|        : m_str(r.str)
 8763|  5.13k|    {
 8764|  5.13k|    }
_ZN3scn2v44scanIJPvENSt3__16localeERNS3_17basic_string_viewIcNS3_11char_traitsIcEEEEvvEENS0_13scan_expectedINS0_11scan_resultINS3_11conditionalIXsr3stdE9is_same_vIu11__remove_cvIu20__remove_reference_tIT1_EEP8_IO_FILEEESH_NS0_6detail22borrowed_tail_subrangeISD_Xsr6rangesE14borrowed_rangeISD_EEE4typeEE4typeEJDpT_EEEEERKT0_OSD_NS0_24basic_scan_format_stringIcNSI_13type_identityISD_E4typeEJDpNSX_ISO_E4typeEEEE:
 9749|  2.56k|{
 9750|  2.56k|    auto result = make_scan_result<Source, Args...>();
 9751|  2.56k|    fill_scan_result(result, vscan(loc, SCN_FWD(source), format,
  ------------------
  |  |  936|  2.56k|#define SCN_FWD(x)          static_cast<decltype(x)&&>(x)
  ------------------
 9752|  2.56k|                                   make_scan_args(result->values())));
 9753|  2.56k|    return result;
 9754|  2.56k|}
_ZN3scn2v44scanIJNSt3__112basic_stringIcNS2_11char_traitsIcEENS2_9allocatorIcEEEEERNS2_17basic_string_viewIcS5_EEvEENS0_13scan_expectedINS0_11scan_resultINS2_11conditionalIXsr3stdE9is_same_vIu11__remove_cvIu20__remove_reference_tIT0_EEP8_IO_FILEEESJ_NS0_6detail22borrowed_tail_subrangeISF_Xsr6rangesE14borrowed_rangeISF_EEE4typeEE4typeEJDpT_EEEEEOSF_NS0_24basic_scan_format_stringIcNSK_13type_identityISF_E4typeEJDpNSW_ISQ_E4typeEEEE:
 9680|  2.56k|{
 9681|  2.56k|    auto result = make_scan_result<Source, Args...>();
 9682|  2.56k|    fill_scan_result(result, vscan(SCN_FWD(source), format,
  ------------------
  |  |  936|  2.56k|#define SCN_FWD(x)          static_cast<decltype(x)&&>(x)
  ------------------
 9683|  2.56k|                                   make_scan_args(result->values())));
 9684|  2.56k|    return result;
 9685|  2.56k|}
_ZN3scn2v416make_scan_resultIRNSt3__117basic_string_viewIcNS2_11char_traitsIcEEEEJNS2_12basic_stringIcS5_NS2_9allocatorIcEEEEEEEDav:
 9636|  5.13k|{
 9637|  5.13k|    return scan_result_type<Source, Args...>();
 9638|  5.13k|}
_ZN3scn2v48expectedINS0_11scan_resultINS0_6ranges6detail9subrange_8subrangeIPKcS8_EEJNSt3__112basic_stringIcNSA_11char_traitsIcEENSA_9allocatorIcEEEEEEENS0_10scan_errorEEC2Ev:
 1551|  5.13k|    constexpr expected() = default;
_ZN3scn2v46detail21expected_storage_baseINS0_11scan_resultINS0_6ranges6detail9subrange_8subrangeIPKcS9_EEJNSt3__112basic_stringIcNSB_11char_traitsIcEENSB_9allocatorIcEEEEEEENS0_10scan_errorELb0EEC2Ev:
  611|  5.13k|    constexpr expected_storage_base() noexcept : m_has_value(true)
  612|  5.13k|    {
  613|  5.13k|        construct();
  614|  5.13k|    }
_ZN3scn2v46detail21expected_storage_baseINS0_11scan_resultINS0_6ranges6detail9subrange_8subrangeIPKcS9_EEJNSt3__112basic_stringIcNSB_11char_traitsIcEENSB_9allocatorIcEEEEEEENS0_10scan_errorELb0EE9constructIJEEEvDpOT_:
  693|  5.13k|    {
  694|  5.13k|        scn::detail::construct_at(value_ptr(), std::forward<Args>(args)...);
  695|  5.13k|        m_has_value = true;
  696|  5.13k|    }
_ZN3scn2v46detail12construct_atINS0_11scan_resultINS0_6ranges6detail9subrange_8subrangeIPKcS9_EEJNSt3__112basic_stringIcNSB_11char_traitsIcEENSB_9allocatorIcEEEEEEEJEEEPT_SK_DpOT0_:
  395|  5.13k|{
  396|  5.13k|    return ::new (const_cast<void*>(static_cast<const volatile void*>(p)))
  397|  5.13k|        T(std::forward<Args>(args)...);
  398|  5.13k|}
_ZN3scn2v411scan_resultINS0_6ranges6detail9subrange_8subrangeIPKcS7_EEJNSt3__112basic_stringIcNS9_11char_traitsIcEENS9_9allocatorIcEEEEEEC2Ev:
 6570|  5.13k|    constexpr scan_result() = default;
_ZN3scn2v46detail25scan_result_value_storageIJNSt3__112basic_stringIcNS3_11char_traitsIcEENS3_9allocatorIcEEEEEEC2Ev:
 6344|  15.4k|    constexpr scan_result_value_storage() = default;
_ZN3scn2v46detail21expected_storage_baseINS0_11scan_resultINS0_6ranges6detail9subrange_8subrangeIPKcS9_EEJNSt3__112basic_stringIcNSB_11char_traitsIcEENSB_9allocatorIcEEEEEEENS0_10scan_errorELb0EE9value_ptrEv:
  717|  15.9k|    {
  718|  15.9k|        return reinterpret_cast<T*>(SCN_ASSUME_ALIGNED(m_memory, alignof(T)));
  ------------------
  |  |  900|  15.9k|#define SCN_ASSUME_ALIGNED(x, n) __builtin_assume_aligned(x, n)
  ------------------
  719|  15.9k|    }
_ZN3scn2v416fill_scan_resultINS0_11scan_resultINS0_6ranges6detail9subrange_8subrangeIPKcS8_EEJNSt3__112basic_stringIcNSA_11char_traitsIcEENSA_9allocatorIcEEEEEEES9_TnPNSA_9enable_ifIXsr3stdE13conjunction_vINS0_6detail25is_specialization_of_implIu11__remove_cvIu20__remove_reference_tIT_EES2_EENSA_7is_sameINSL_10range_typeET0_EEEEvE4typeELPv0EEEvRNS0_13scan_expectedISL_EEONSX_ISR_EE:
 9621|  5.13k|{
 9622|  5.13k|    if (SCN_UNLIKELY(!in)) {
  ------------------
  |  |  865|  5.13k|#define SCN_UNLIKELY(x) __builtin_expect(!!(x), 0)
  |  |  ------------------
  |  |  |  Branch (865:25): [True: 4.56k, False: 568]
  |  |  ------------------
  ------------------
 9623|  4.56k|        out = unexpected(in.error());
 9624|  4.56k|    }
 9625|    568|    else {
 9626|    568|        out->set_range(SCN_MOVE(*in));
  ------------------
  |  |  934|    568|    static_cast<    \
  |  |  935|    568|        typename ::scn::detail::remove_reference<decltype(x)>::type&&>(x)
  ------------------
 9627|    568|    }
 9628|  5.13k|}
_ZN3scn2v48expectedINS0_11scan_resultINS0_6ranges6detail9subrange_8subrangeIPKcS8_EEJNSt3__112basic_stringIcNSA_11char_traitsIcEENSA_9allocatorIcEEEEEEENS0_10scan_errorEEC2ISI_TnPNSA_9enable_ifIXsr3stdE18is_constructible_vISI_OT_EEvE4typeELPv0ETnPNSL_IXsr3stdE16is_convertible_vISN_SI_EEvE4typeELSR_0EEEONS0_10unexpectedISM_EE:
 1615|  4.56k|        : base(unexpect, std::move(e.error())),
 1616|  4.56k|          ctor_base(detail::non_default_ctor_tag_t{})
 1617|  4.56k|    {
 1618|  4.56k|    }
_ZN3scn2v46detail21expected_storage_baseINS0_11scan_resultINS0_6ranges6detail9subrange_8subrangeIPKcS9_EEJNSt3__112basic_stringIcNSB_11char_traitsIcEENSB_9allocatorIcEEEEEEENS0_10scan_errorELb0EEC2IJSJ_EvEENS0_10unexpect_tEDpOT_:
  636|  4.56k|        : m_has_value(false)
  637|  4.56k|    {
  638|  4.56k|        construct_unexpected(std::in_place, std::forward<Args>(args)...);
  639|  4.56k|    }
_ZN3scn2v46detail21expected_storage_baseINS0_11scan_resultINS0_6ranges6detail9subrange_8subrangeIPKcS9_EEJNSt3__112basic_stringIcNSB_11char_traitsIcEENSB_9allocatorIcEEEEEEENS0_10scan_errorELb0EE20construct_unexpectedIJRKNSB_10in_place_tESJ_EEEvDpOT_:
  700|  4.56k|    {
  701|  4.56k|        scn::detail::construct_at(unexpected_ptr(),
  702|  4.56k|                                  std::forward<Args>(args)...);
  703|  4.56k|        m_has_value = false;
  704|  4.56k|    }
_ZN3scn2v46detail12construct_atINS0_10unexpectedINS0_10scan_errorEEEJRKNSt3__110in_place_tES4_EEEPT_SB_DpOT0_:
  395|  29.0k|{
  396|  29.0k|    return ::new (const_cast<void*>(static_cast<const volatile void*>(p)))
  397|  29.0k|        T(std::forward<Args>(args)...);
  398|  29.0k|}
_ZN3scn2v46detail21expected_storage_baseINS0_11scan_resultINS0_6ranges6detail9subrange_8subrangeIPKcS9_EEJNSt3__112basic_stringIcNSB_11char_traitsIcEENSB_9allocatorIcEEEEEEENS0_10scan_errorELb0EE14unexpected_ptrEv:
  729|  22.8k|    {
  730|  22.8k|        return reinterpret_cast<unexpected<E>*>(
  731|  22.8k|            SCN_ASSUME_ALIGNED(m_memory, alignof(unexpected<E>)));
  ------------------
  |  |  900|  22.8k|#define SCN_ASSUME_ALIGNED(x, n) __builtin_assume_aligned(x, n)
  ------------------
  732|  22.8k|    }
_ZN3scn2v46detail26expected_default_ctor_baseINS0_11scan_resultINS0_6ranges6detail9subrange_8subrangeIPKcS9_EEJNSt3__112basic_stringIcNSB_11char_traitsIcEENSB_9allocatorIcEEEEEEENS0_10scan_errorELb1EEC2ENS1_22non_default_ctor_tag_tE:
 1315|  4.56k|    {
 1316|  4.56k|    }
_ZN3scn2v48expectedINS0_11scan_resultINS0_6ranges6detail9subrange_8subrangeIPKcS8_EEJNSt3__112basic_stringIcNSA_11char_traitsIcEENSA_9allocatorIcEEEEEEENS0_10scan_errorEEaSEOSJ_:
 1556|  4.56k|    constexpr expected& operator=(expected&&) = default;
_ZN3scn2v46detail24expected_operations_baseINS0_11scan_resultINS0_6ranges6detail9subrange_8subrangeIPKcS9_EEJNSt3__112basic_stringIcNSB_11char_traitsIcEENSB_9allocatorIcEEEEEEENS0_10scan_errorEvEaSEOSK_:
  902|  4.56k|    {
  903|  4.56k|        assign_common(std::move(other));
  904|  4.56k|        return *this;
  905|  4.56k|    }
_ZN3scn2v46detail24expected_operations_baseINS0_11scan_resultINS0_6ranges6detail9subrange_8subrangeIPKcS9_EEJNSt3__112basic_stringIcNSB_11char_traitsIcEENSB_9allocatorIcEEEEEEENS0_10scan_errorEvE13assign_commonISK_EEvOT_:
  949|  4.56k|    {
  950|  4.56k|        if (this->has_value()) {
  ------------------
  |  Branch (950:13): [True: 4.56k, False: 0]
  ------------------
  951|  4.56k|            if (other.has_value()) {
  ------------------
  |  Branch (951:17): [True: 0, False: 4.56k]
  ------------------
  952|      0|                return reassign_value(std::forward<Other>(other));
  953|      0|            }
  954|  4.56k|            return assign_unexpected_over_value(std::forward<Other>(other));
  955|  4.56k|        }
  956|       |
  957|      0|        if (other.has_value()) {
  ------------------
  |  Branch (957:13): [True: 0, False: 0]
  ------------------
  958|      0|            return assign_value_over_unexpected(std::forward<Other>(other));
  959|      0|        }
  960|      0|        return reassign_unexpected(std::forward<Other>(other));
  961|      0|    }
_ZNK3scn2v46detail21expected_storage_baseINS0_11scan_resultINS0_6ranges6detail9subrange_8subrangeIPKcS9_EEJNSt3__112basic_stringIcNSB_11char_traitsIcEENSB_9allocatorIcEEEEEEENS0_10scan_errorELb0EE9has_valueEv:
  686|  24.5k|    {
  687|  24.5k|        return m_has_value;
  688|  24.5k|    }
_ZNR3scn2v46detail21expected_storage_baseINS0_11scan_resultINS0_6ranges6detail9subrange_8subrangeIPKcS9_EEJNSt3__112basic_stringIcNSB_11char_traitsIcEENSB_9allocatorIcEEEEEEENS0_10scan_errorELb0EE9get_valueEv:
  652|  5.70k|    {
  653|  5.70k|        return *value_ptr();
  654|  5.70k|    }
_ZN3scn2v46detail24expected_operations_baseINS0_11scan_resultINS0_6ranges6detail9subrange_8subrangeIPKcS9_EEJNSt3__112basic_stringIcNSB_11char_traitsIcEENSB_9allocatorIcEEEEEEENS0_10scan_errorEvE28assign_unexpected_over_valueISK_EEvOT_:
 1045|  4.56k|    {
 1046|  4.56k|        this->destroy_value();
 1047|  4.56k|        this->construct_unexpected(std::forward<Other>(other).get_unexpected());
 1048|  4.56k|    }
_ZN3scn2v46detail21expected_storage_baseINS0_11scan_resultINS0_6ranges6detail9subrange_8subrangeIPKcS9_EEJNSt3__112basic_stringIcNSB_11char_traitsIcEENSB_9allocatorIcEEEEEEENS0_10scan_errorELb0EE13destroy_valueEv:
  707|  5.13k|    {
  708|  5.13k|        scn::detail::destroy_at(value_ptr());
  709|  5.13k|    }
_ZN3scn2v46detail10destroy_atINS0_11scan_resultINS0_6ranges6detail9subrange_8subrangeIPKcS9_EEJNSt3__112basic_stringIcNSB_11char_traitsIcEENSB_9allocatorIcEEEEEEEEEvPT_:
  401|  5.13k|{
  402|       |    if constexpr (std::is_array_v<T>) {
  403|       |        for (auto& elem : *p) {
  404|       |            scn::detail::destroy_at(&elem);
  405|       |        }
  406|       |    }
  407|  5.13k|    else {
  408|  5.13k|        p->~T();
  409|  5.13k|    }
  410|  5.13k|}
_ZN3scn2v411scan_resultINS0_6ranges6detail9subrange_8subrangeIPKcS7_EEJNSt3__112basic_stringIcNS9_11char_traitsIcEENS9_9allocatorIcEEEEEED2Ev:
 6577|  5.13k|    ~scan_result() = default;
_ZN3scn2v46detail21expected_storage_baseINS0_11scan_resultINS0_6ranges6detail9subrange_8subrangeIPKcS9_EEJNSt3__112basic_stringIcNSB_11char_traitsIcEENSB_9allocatorIcEEEEEEENS0_10scan_errorELb0EE20construct_unexpectedIJNS0_10unexpectedISJ_EEEEEvDpOT_:
  700|  4.56k|    {
  701|  4.56k|        scn::detail::construct_at(unexpected_ptr(),
  702|  4.56k|                                  std::forward<Args>(args)...);
  703|  4.56k|        m_has_value = false;
  704|  4.56k|    }
_ZNO3scn2v46detail21expected_storage_baseINS0_11scan_resultINS0_6ranges6detail9subrange_8subrangeIPKcS9_EEJNSt3__112basic_stringIcNSB_11char_traitsIcEENSB_9allocatorIcEEEEEEENS0_10scan_errorELb0EE14get_unexpectedEv:
  677|  4.56k|    {
  678|  4.56k|        return std::move(*unexpected_ptr());
  679|  4.56k|    }
_ZN3scn2v46detail21expected_storage_baseINS0_11scan_resultINS0_6ranges6detail9subrange_8subrangeIPKcS9_EEJNSt3__112basic_stringIcNSB_11char_traitsIcEENSB_9allocatorIcEEEEEEENS0_10scan_errorELb0EE18destroy_unexpectedEv:
  711|  9.13k|    {
  712|  9.13k|        scn::detail::destroy_at(unexpected_ptr());
  713|  9.13k|    }
_ZN3scn2v46detail10destroy_atINS0_10unexpectedINS0_10scan_errorEEEEEvPT_:
  401|  57.9k|{
  402|       |    if constexpr (std::is_array_v<T>) {
  403|       |        for (auto& elem : *p) {
  404|       |            scn::detail::destroy_at(&elem);
  405|       |        }
  406|       |    }
  407|  57.9k|    else {
  408|  57.9k|        p->~T();
  409|  57.9k|    }
  410|  57.9k|}
_ZNK3scn2v424basic_scan_format_stringIcRNSt3__117basic_string_viewIcNS2_11char_traitsIcEEEEJNS2_12basic_stringIcS5_NS2_9allocatorIcEEEEEEcvS6_Ev:
 8767|  5.13k|    {
 8768|  5.13k|        return m_str;
 8769|  5.13k|    }
_ZN3scn2v414make_scan_argsINS0_18basic_scan_contextINS0_6detail16buffer_range_tagEcEEJNSt3__112basic_stringIcNS6_11char_traitsIcEENS6_9allocatorIcEEEEEEEDaRNS6_5tupleIJDpT0_EEE:
 6109|  5.13k|{
 6110|  5.13k|    detail::check_scan_arg_types<Args...>();
 6111|  5.13k|    return detail::scan_arg_store<Context, Args...>(values);
 6112|  5.13k|}
_ZN3scn2v46detail20check_scan_arg_typesIJNSt3__112basic_stringIcNS3_11char_traitsIcEENS3_9allocatorIcEEEEEEEbv:
 5824|  15.4k|{
 5825|  15.4k|    constexpr bool default_constructible_constraint =
 5826|  15.4k|        std::conjunction_v<std::is_default_constructible<Args>...>;
 5827|  15.4k|    static_assert(default_constructible_constraint,
 5828|  15.4k|                  "Scan argument types must be default constructible");
 5829|       |
 5830|  15.4k|    constexpr bool destructible_constraint =
 5831|  15.4k|        std::conjunction_v<std::is_destructible<Args>...>;
 5832|  15.4k|    static_assert(destructible_constraint,
 5833|  15.4k|                  "Scan argument types must be Destructible");
 5834|       |
 5835|  15.4k|    constexpr bool non_reference_constraint =
 5836|  15.4k|        !std::conjunction_v<std::false_type, std::is_reference<Args>...>;
 5837|  15.4k|    static_assert(non_reference_constraint,
 5838|  15.4k|                  "Scan argument types must not be references");
 5839|       |
 5840|  15.4k|    constexpr bool movable_constraint =
 5841|  15.4k|        std::conjunction_v<std::is_move_constructible<Args>...>;
 5842|  15.4k|    static_assert(movable_constraint,
 5843|  15.4k|                  "Scan argument types must be move constructible");
 5844|       |
 5845|  15.4k|    return default_constructible_constraint && destructible_constraint &&
  ------------------
  |  Branch (5845:12): [Folded - Ignored]
  |  Branch (5845:48): [Folded - Ignored]
  ------------------
 5846|  15.4k|           non_reference_constraint && movable_constraint;
  ------------------
  |  Branch (5846:12): [Folded - Ignored]
  |  Branch (5846:40): [Folded - Ignored]
  ------------------
 5847|  15.4k|}
_ZN3scn2v46detail14scan_arg_storeINS0_18basic_scan_contextINS1_16buffer_range_tagEcEEJNSt3__112basic_stringIcNS6_11char_traitsIcEENS6_9allocatorIcEEEEEEC2ERNS6_5tupleIJSC_EEE:
 6085|  5.13k|        : args(std::apply(make_argptrs<Args...>, args))
 6086|  5.13k|    {
 6087|  5.13k|    }
_ZN3scn2v46detail14scan_arg_storeINS0_18basic_scan_contextINS1_16buffer_range_tagEcEEJNSt3__112basic_stringIcNS6_11char_traitsIcEENS6_9allocatorIcEEEEEE12make_argptrsIJSC_EEENS6_5arrayIPvLm1EEEDpRT_:
 6094|  5.13k|    {
 6095|  5.13k|        return {detail::make_arg<
 6096|  5.13k|            kind, Context,
 6097|  5.13k|            mapped_type_constant<remove_cvref_t<A>,
 6098|  5.13k|                                 typename Context::char_type>::value>(args)...};
 6099|  5.13k|    }
_ZN3scn2v46detail8make_argILNS1_19scan_arg_store_kindE0ENS0_18basic_scan_contextINS1_16buffer_range_tagEcEELNS1_8arg_typeE21ENSt3__112basic_stringIcNS8_11char_traitsIcEENS8_9allocatorIcEEEEvEEPvRT2_:
 5874|  5.13k|{
 5875|  5.13k|    return make_value<Context>(value).ref_value;
 5876|  5.13k|}
_ZN3scn2v46detail10make_valueINS0_18basic_scan_contextINS1_16buffer_range_tagEcEENSt3__112basic_stringIcNS6_11char_traitsIcEENS6_9allocatorIcEEEEEEDaRT0_:
 5809|  5.13k|{
 5810|  5.13k|    auto&& arg = arg_mapper<typename Context::char_type>().map(value);
 5811|       |
 5812|       |    if constexpr (!std::is_same_v<remove_cvref_t<decltype(arg)>,
 5813|  5.13k|                                  needs_context_tag>) {
 5814|  5.13k|        return make_value_impl<T>(SCN_FWD(arg));
  ------------------
  |  |  936|  5.13k|#define SCN_FWD(x)          static_cast<decltype(x)&&>(x)
  ------------------
 5815|       |    }
 5816|       |    else {
 5817|       |        return make_value_impl<T>(arg_mapper<typename Context::char_type>().map(
 5818|       |            value, context_tag<Context>{}));
 5819|       |    }
 5820|  5.13k|}
_ZN3scn2v46detail10arg_mapperIcE3mapERNSt3__112basic_stringIcNS4_11char_traitsIcEENS4_9allocatorIcEEEE:
 5648|  5.13k|    {                                                                        \
 5649|  5.13k|        return val;                                                          \
 5650|  5.13k|    }
_ZN3scn2v46detail15make_value_implINSt3__112basic_stringIcNS3_11char_traitsIcEENS3_9allocatorIcEEEERS9_EEDaOT0_:
 5778|  15.4k|{
 5779|  15.4k|    using arg_nocvref_t = remove_cvref_t<Arg>;
 5780|  15.4k|    static_assert(!std::is_same_v<arg_nocvref_t, needs_context_tag>);
 5781|       |
 5782|  15.4k|    constexpr bool scannable_char =
 5783|  15.4k|        !std::is_same_v<arg_nocvref_t, unscannable_char>;
 5784|  15.4k|    static_assert(scannable_char,
 5785|  15.4k|                  "Cannot scan an argument of an unsupported character "
 5786|  15.4k|                  "type (i.e. char from a wchar_t source)");
 5787|       |
 5788|  15.4k|    constexpr bool scannable_const =
 5789|  15.4k|        !std::is_same_v<arg_nocvref_t, unscannable_const>;
 5790|  15.4k|    static_assert(scannable_const, "Cannot scan a const argument");
 5791|       |
 5792|  15.4k|    constexpr bool scannable_disabled =
 5793|  15.4k|        !std::is_same_v<arg_nocvref_t, unscannable_disabled>;
 5794|  15.4k|    static_assert(scannable_disabled,
 5795|  15.4k|                  "Cannot scan an argument that has been disabled by "
 5796|  15.4k|                  "flag (SCN_DISABLE_TYPE_*)");
 5797|       |
 5798|  15.4k|    constexpr bool scannable = !std::is_same_v<arg_nocvref_t, unscannable>;
 5799|  15.4k|    static_assert(
 5800|  15.4k|        scannable,
 5801|  15.4k|        "Cannot scan an argument. To make a type T scannable, provide "
 5802|  15.4k|        "a scn::scanner<T, CharT> specialization.");
 5803|       |
 5804|  15.4k|    return arg_value{arg};
 5805|  15.4k|}
_ZN3scn2v46detail9arg_valueC2INSt3__112basic_stringIcNS4_11char_traitsIcEENS4_9allocatorIcEEEEEERT_:
 5562|  15.4k|    explicit constexpr arg_value(T& val) : ref_value{std::addressof(val)}
 5563|  15.4k|    {
 5564|  15.4k|    }
_ZN3scn2v48expectedINS0_11scan_resultINS0_6ranges6detail9subrange_8subrangeIPKcS8_EEJNSt3__112basic_stringIcNSA_11char_traitsIcEENSA_9allocatorIcEEEEEEENS0_10scan_errorEEptEv:
 1814|  5.70k|    {
 1815|  5.70k|        return &value();
 1816|  5.70k|    }
_ZNR3scn2v48expectedINS0_11scan_resultINS0_6ranges6detail9subrange_8subrangeIPKcS8_EEJNSt3__112basic_stringIcNSA_11char_traitsIcEENSA_9allocatorIcEEEEEEENS0_10scan_errorEE5valueISH_TnPNSA_9enable_ifIXntsr3stdE9is_void_vIT_EEvE4typeELPv0EEERSM_v:
 1768|  5.70k|    {
 1769|  5.70k|        SCN_EXPECT(has_value());
  ------------------
  |  |  930|  5.70k|#define SCN_EXPECT(cond) SCN_ASSERT(cond, "Precondition violation")
  |  |  ------------------
  |  |  |  |  927|  5.70k|#define SCN_ASSERT(cond, msg) assert((cond) && msg)
  |  |  ------------------
  ------------------
 1770|  5.70k|        return this->get_value();
 1771|  5.70k|    }
_ZNR3scn2v46detail25scan_result_value_storageIJNSt3__112basic_stringIcNS3_11char_traitsIcEENS3_9allocatorIcEEEEEE6valuesEv:
 6353|  15.4k|    {
 6354|  15.4k|        return m_values;
 6355|  15.4k|    }
_ZN3scn2v415basic_scan_argsINS0_18basic_scan_contextINS0_6detail16buffer_range_tagEcEEEC2IJNSt3__112basic_stringIcNS8_11char_traitsIcEENS8_9allocatorIcEEEEEEERKNS3_14scan_arg_storeIS5_JDpT_EEE:
 6135|  5.13k|        : basic_scan_args(store.desc, store.args.data())
 6136|  5.13k|    {
 6137|  5.13k|    }
_ZN3scn2v424basic_scan_format_stringIcRNSt3__117basic_string_viewIcNS2_11char_traitsIcEEEEJNS2_12basic_stringIcS5_NS2_9allocatorIcEEEEEEC2ENS0_6detail27basic_runtime_format_stringIcEE:
 8762|  5.13k|        : m_str(r.str)
 8763|  5.13k|    {
 8764|  5.13k|    }
_ZN3scn2v46detail21expected_storage_baseINS0_11scan_resultINS0_6ranges6detail9subrange_8subrangeIPKcS9_EEJNSt3__112basic_stringIcNSB_11char_traitsIcEENSB_9allocatorIcEEEEEEENS0_10scan_errorELb0EED2Ev:
  642|  9.70k|    {
  643|  9.70k|        if (has_value()) {
  ------------------
  |  Branch (643:13): [True: 568, False: 9.13k]
  ------------------
  644|    568|            destroy_value();
  645|    568|        }
  646|  9.13k|        else {
  647|  9.13k|            destroy_unexpected();
  648|  9.13k|        }
  649|  9.70k|    }
_ZN3scn2v44scanIJNSt3__112basic_stringIcNS2_11char_traitsIcEENS2_9allocatorIcEEEEENS2_6localeERNS2_17basic_string_viewIcS5_EEvvEENS0_13scan_expectedINS0_11scan_resultINS2_11conditionalIXsr3stdE9is_same_vIu11__remove_cvIu20__remove_reference_tIT1_EEP8_IO_FILEEESK_NS0_6detail22borrowed_tail_subrangeISG_Xsr6rangesE14borrowed_rangeISG_EEE4typeEE4typeEJDpT_EEEEERKT0_OSG_NS0_24basic_scan_format_stringIcNSL_13type_identityISG_E4typeEJDpNS10_ISR_E4typeEEEE:
 9749|  2.56k|{
 9750|  2.56k|    auto result = make_scan_result<Source, Args...>();
 9751|  2.56k|    fill_scan_result(result, vscan(loc, SCN_FWD(source), format,
  ------------------
  |  |  936|  2.56k|#define SCN_FWD(x)          static_cast<decltype(x)&&>(x)
  ------------------
 9752|  2.56k|                                   make_scan_args(result->values())));
 9753|  2.56k|    return result;
 9754|  2.56k|}
_ZN3scn2v44scanIJNSt3__112basic_stringIwNS2_11char_traitsIwEENS2_9allocatorIwEEEEERNS2_17basic_string_viewIcNS4_IcEEEEvEENS0_13scan_expectedINS0_11scan_resultINS2_11conditionalIXsr3stdE9is_same_vIu11__remove_cvIu20__remove_reference_tIT0_EEP8_IO_FILEEESK_NS0_6detail22borrowed_tail_subrangeISG_Xsr6rangesE14borrowed_rangeISG_EEE4typeEE4typeEJDpT_EEEEEOSG_NS0_24basic_scan_format_stringIcNSL_13type_identityISG_E4typeEJDpNSX_ISR_E4typeEEEE:
 9680|  2.56k|{
 9681|  2.56k|    auto result = make_scan_result<Source, Args...>();
 9682|  2.56k|    fill_scan_result(result, vscan(SCN_FWD(source), format,
  ------------------
  |  |  936|  2.56k|#define SCN_FWD(x)          static_cast<decltype(x)&&>(x)
  ------------------
 9683|  2.56k|                                   make_scan_args(result->values())));
 9684|  2.56k|    return result;
 9685|  2.56k|}
_ZN3scn2v416make_scan_resultIRNSt3__117basic_string_viewIcNS2_11char_traitsIcEEEEJNS2_12basic_stringIwNS4_IwEENS2_9allocatorIwEEEEEEEDav:
 9636|  5.13k|{
 9637|  5.13k|    return scan_result_type<Source, Args...>();
 9638|  5.13k|}
_ZN3scn2v48expectedINS0_11scan_resultINS0_6ranges6detail9subrange_8subrangeIPKcS8_EEJNSt3__112basic_stringIwNSA_11char_traitsIwEENSA_9allocatorIwEEEEEEENS0_10scan_errorEEC2Ev:
 1551|  5.13k|    constexpr expected() = default;
_ZN3scn2v46detail21expected_storage_baseINS0_11scan_resultINS0_6ranges6detail9subrange_8subrangeIPKcS9_EEJNSt3__112basic_stringIwNSB_11char_traitsIwEENSB_9allocatorIwEEEEEEENS0_10scan_errorELb0EEC2Ev:
  611|  5.13k|    constexpr expected_storage_base() noexcept : m_has_value(true)
  612|  5.13k|    {
  613|  5.13k|        construct();
  614|  5.13k|    }
_ZN3scn2v46detail21expected_storage_baseINS0_11scan_resultINS0_6ranges6detail9subrange_8subrangeIPKcS9_EEJNSt3__112basic_stringIwNSB_11char_traitsIwEENSB_9allocatorIwEEEEEEENS0_10scan_errorELb0EE9constructIJEEEvDpOT_:
  693|  5.13k|    {
  694|  5.13k|        scn::detail::construct_at(value_ptr(), std::forward<Args>(args)...);
  695|  5.13k|        m_has_value = true;
  696|  5.13k|    }
_ZN3scn2v46detail12construct_atINS0_11scan_resultINS0_6ranges6detail9subrange_8subrangeIPKcS9_EEJNSt3__112basic_stringIwNSB_11char_traitsIwEENSB_9allocatorIwEEEEEEEJEEEPT_SK_DpOT0_:
  395|  5.13k|{
  396|  5.13k|    return ::new (const_cast<void*>(static_cast<const volatile void*>(p)))
  397|  5.13k|        T(std::forward<Args>(args)...);
  398|  5.13k|}
_ZN3scn2v411scan_resultINS0_6ranges6detail9subrange_8subrangeIPKcS7_EEJNSt3__112basic_stringIwNS9_11char_traitsIwEENS9_9allocatorIwEEEEEEC2Ev:
 6570|  5.13k|    constexpr scan_result() = default;
_ZN3scn2v46detail25scan_result_value_storageIJNSt3__112basic_stringIwNS3_11char_traitsIwEENS3_9allocatorIwEEEEEEC2Ev:
 6344|  15.4k|    constexpr scan_result_value_storage() = default;
_ZN3scn2v46detail21expected_storage_baseINS0_11scan_resultINS0_6ranges6detail9subrange_8subrangeIPKcS9_EEJNSt3__112basic_stringIwNSB_11char_traitsIwEENSB_9allocatorIwEEEEEEENS0_10scan_errorELb0EE9value_ptrEv:
  717|  15.9k|    {
  718|  15.9k|        return reinterpret_cast<T*>(SCN_ASSUME_ALIGNED(m_memory, alignof(T)));
  ------------------
  |  |  900|  15.9k|#define SCN_ASSUME_ALIGNED(x, n) __builtin_assume_aligned(x, n)
  ------------------
  719|  15.9k|    }
_ZN3scn2v416fill_scan_resultINS0_11scan_resultINS0_6ranges6detail9subrange_8subrangeIPKcS8_EEJNSt3__112basic_stringIwNSA_11char_traitsIwEENSA_9allocatorIwEEEEEEES9_TnPNSA_9enable_ifIXsr3stdE13conjunction_vINS0_6detail25is_specialization_of_implIu11__remove_cvIu20__remove_reference_tIT_EES2_EENSA_7is_sameINSL_10range_typeET0_EEEEvE4typeELPv0EEEvRNS0_13scan_expectedISL_EEONSX_ISR_EE:
 9621|  5.13k|{
 9622|  5.13k|    if (SCN_UNLIKELY(!in)) {
  ------------------
  |  |  865|  5.13k|#define SCN_UNLIKELY(x) __builtin_expect(!!(x), 0)
  |  |  ------------------
  |  |  |  Branch (865:25): [True: 4.56k, False: 568]
  |  |  ------------------
  ------------------
 9623|  4.56k|        out = unexpected(in.error());
 9624|  4.56k|    }
 9625|    568|    else {
 9626|    568|        out->set_range(SCN_MOVE(*in));
  ------------------
  |  |  934|    568|    static_cast<    \
  |  |  935|    568|        typename ::scn::detail::remove_reference<decltype(x)>::type&&>(x)
  ------------------
 9627|    568|    }
 9628|  5.13k|}
_ZN3scn2v48expectedINS0_11scan_resultINS0_6ranges6detail9subrange_8subrangeIPKcS8_EEJNSt3__112basic_stringIwNSA_11char_traitsIwEENSA_9allocatorIwEEEEEEENS0_10scan_errorEEC2ISI_TnPNSA_9enable_ifIXsr3stdE18is_constructible_vISI_OT_EEvE4typeELPv0ETnPNSL_IXsr3stdE16is_convertible_vISN_SI_EEvE4typeELSR_0EEEONS0_10unexpectedISM_EE:
 1615|  4.56k|        : base(unexpect, std::move(e.error())),
 1616|  4.56k|          ctor_base(detail::non_default_ctor_tag_t{})
 1617|  4.56k|    {
 1618|  4.56k|    }
_ZN3scn2v46detail21expected_storage_baseINS0_11scan_resultINS0_6ranges6detail9subrange_8subrangeIPKcS9_EEJNSt3__112basic_stringIwNSB_11char_traitsIwEENSB_9allocatorIwEEEEEEENS0_10scan_errorELb0EEC2IJSJ_EvEENS0_10unexpect_tEDpOT_:
  636|  4.56k|        : m_has_value(false)
  637|  4.56k|    {
  638|  4.56k|        construct_unexpected(std::in_place, std::forward<Args>(args)...);
  639|  4.56k|    }
_ZN3scn2v46detail21expected_storage_baseINS0_11scan_resultINS0_6ranges6detail9subrange_8subrangeIPKcS9_EEJNSt3__112basic_stringIwNSB_11char_traitsIwEENSB_9allocatorIwEEEEEEENS0_10scan_errorELb0EE20construct_unexpectedIJRKNSB_10in_place_tESJ_EEEvDpOT_:
  700|  4.56k|    {
  701|  4.56k|        scn::detail::construct_at(unexpected_ptr(),
  702|  4.56k|                                  std::forward<Args>(args)...);
  703|  4.56k|        m_has_value = false;
  704|  4.56k|    }
_ZN3scn2v46detail21expected_storage_baseINS0_11scan_resultINS0_6ranges6detail9subrange_8subrangeIPKcS9_EEJNSt3__112basic_stringIwNSB_11char_traitsIwEENSB_9allocatorIwEEEEEEENS0_10scan_errorELb0EE14unexpected_ptrEv:
  729|  22.8k|    {
  730|  22.8k|        return reinterpret_cast<unexpected<E>*>(
  731|  22.8k|            SCN_ASSUME_ALIGNED(m_memory, alignof(unexpected<E>)));
  ------------------
  |  |  900|  22.8k|#define SCN_ASSUME_ALIGNED(x, n) __builtin_assume_aligned(x, n)
  ------------------
  732|  22.8k|    }
_ZN3scn2v46detail26expected_default_ctor_baseINS0_11scan_resultINS0_6ranges6detail9subrange_8subrangeIPKcS9_EEJNSt3__112basic_stringIwNSB_11char_traitsIwEENSB_9allocatorIwEEEEEEENS0_10scan_errorELb1EEC2ENS1_22non_default_ctor_tag_tE:
 1315|  4.56k|    {
 1316|  4.56k|    }
_ZN3scn2v48expectedINS0_11scan_resultINS0_6ranges6detail9subrange_8subrangeIPKcS8_EEJNSt3__112basic_stringIwNSA_11char_traitsIwEENSA_9allocatorIwEEEEEEENS0_10scan_errorEEaSEOSJ_:
 1556|  4.56k|    constexpr expected& operator=(expected&&) = default;
_ZN3scn2v46detail24expected_operations_baseINS0_11scan_resultINS0_6ranges6detail9subrange_8subrangeIPKcS9_EEJNSt3__112basic_stringIwNSB_11char_traitsIwEENSB_9allocatorIwEEEEEEENS0_10scan_errorEvEaSEOSK_:
  902|  4.56k|    {
  903|  4.56k|        assign_common(std::move(other));
  904|  4.56k|        return *this;
  905|  4.56k|    }
_ZN3scn2v46detail24expected_operations_baseINS0_11scan_resultINS0_6ranges6detail9subrange_8subrangeIPKcS9_EEJNSt3__112basic_stringIwNSB_11char_traitsIwEENSB_9allocatorIwEEEEEEENS0_10scan_errorEvE13assign_commonISK_EEvOT_:
  949|  4.56k|    {
  950|  4.56k|        if (this->has_value()) {
  ------------------
  |  Branch (950:13): [True: 4.56k, False: 0]
  ------------------
  951|  4.56k|            if (other.has_value()) {
  ------------------
  |  Branch (951:17): [True: 0, False: 4.56k]
  ------------------
  952|      0|                return reassign_value(std::forward<Other>(other));
  953|      0|            }
  954|  4.56k|            return assign_unexpected_over_value(std::forward<Other>(other));
  955|  4.56k|        }
  956|       |
  957|      0|        if (other.has_value()) {
  ------------------
  |  Branch (957:13): [True: 0, False: 0]
  ------------------
  958|      0|            return assign_value_over_unexpected(std::forward<Other>(other));
  959|      0|        }
  960|      0|        return reassign_unexpected(std::forward<Other>(other));
  961|      0|    }
_ZNK3scn2v46detail21expected_storage_baseINS0_11scan_resultINS0_6ranges6detail9subrange_8subrangeIPKcS9_EEJNSt3__112basic_stringIwNSB_11char_traitsIwEENSB_9allocatorIwEEEEEEENS0_10scan_errorELb0EE9has_valueEv:
  686|  24.5k|    {
  687|  24.5k|        return m_has_value;
  688|  24.5k|    }
_ZNR3scn2v46detail21expected_storage_baseINS0_11scan_resultINS0_6ranges6detail9subrange_8subrangeIPKcS9_EEJNSt3__112basic_stringIwNSB_11char_traitsIwEENSB_9allocatorIwEEEEEEENS0_10scan_errorELb0EE9get_valueEv:
  652|  5.70k|    {
  653|  5.70k|        return *value_ptr();
  654|  5.70k|    }
_ZN3scn2v46detail24expected_operations_baseINS0_11scan_resultINS0_6ranges6detail9subrange_8subrangeIPKcS9_EEJNSt3__112basic_stringIwNSB_11char_traitsIwEENSB_9allocatorIwEEEEEEENS0_10scan_errorEvE28assign_unexpected_over_valueISK_EEvOT_:
 1045|  4.56k|    {
 1046|  4.56k|        this->destroy_value();
 1047|  4.56k|        this->construct_unexpected(std::forward<Other>(other).get_unexpected());
 1048|  4.56k|    }
_ZN3scn2v46detail21expected_storage_baseINS0_11scan_resultINS0_6ranges6detail9subrange_8subrangeIPKcS9_EEJNSt3__112basic_stringIwNSB_11char_traitsIwEENSB_9allocatorIwEEEEEEENS0_10scan_errorELb0EE13destroy_valueEv:
  707|  5.13k|    {
  708|  5.13k|        scn::detail::destroy_at(value_ptr());
  709|  5.13k|    }
_ZN3scn2v46detail10destroy_atINS0_11scan_resultINS0_6ranges6detail9subrange_8subrangeIPKcS9_EEJNSt3__112basic_stringIwNSB_11char_traitsIwEENSB_9allocatorIwEEEEEEEEEvPT_:
  401|  5.13k|{
  402|       |    if constexpr (std::is_array_v<T>) {
  403|       |        for (auto& elem : *p) {
  404|       |            scn::detail::destroy_at(&elem);
  405|       |        }
  406|       |    }
  407|  5.13k|    else {
  408|  5.13k|        p->~T();
  409|  5.13k|    }
  410|  5.13k|}
_ZN3scn2v411scan_resultINS0_6ranges6detail9subrange_8subrangeIPKcS7_EEJNSt3__112basic_stringIwNS9_11char_traitsIwEENS9_9allocatorIwEEEEEED2Ev:
 6577|  5.13k|    ~scan_result() = default;
_ZN3scn2v46detail21expected_storage_baseINS0_11scan_resultINS0_6ranges6detail9subrange_8subrangeIPKcS9_EEJNSt3__112basic_stringIwNSB_11char_traitsIwEENSB_9allocatorIwEEEEEEENS0_10scan_errorELb0EE20construct_unexpectedIJNS0_10unexpectedISJ_EEEEEvDpOT_:
  700|  4.56k|    {
  701|  4.56k|        scn::detail::construct_at(unexpected_ptr(),
  702|  4.56k|                                  std::forward<Args>(args)...);
  703|  4.56k|        m_has_value = false;
  704|  4.56k|    }
_ZNO3scn2v46detail21expected_storage_baseINS0_11scan_resultINS0_6ranges6detail9subrange_8subrangeIPKcS9_EEJNSt3__112basic_stringIwNSB_11char_traitsIwEENSB_9allocatorIwEEEEEEENS0_10scan_errorELb0EE14get_unexpectedEv:
  677|  4.56k|    {
  678|  4.56k|        return std::move(*unexpected_ptr());
  679|  4.56k|    }
_ZN3scn2v46detail21expected_storage_baseINS0_11scan_resultINS0_6ranges6detail9subrange_8subrangeIPKcS9_EEJNSt3__112basic_stringIwNSB_11char_traitsIwEENSB_9allocatorIwEEEEEEENS0_10scan_errorELb0EE18destroy_unexpectedEv:
  711|  9.13k|    {
  712|  9.13k|        scn::detail::destroy_at(unexpected_ptr());
  713|  9.13k|    }
_ZNK3scn2v424basic_scan_format_stringIcRNSt3__117basic_string_viewIcNS2_11char_traitsIcEEEEJNS2_12basic_stringIwNS4_IwEENS2_9allocatorIwEEEEEEcvS6_Ev:
 8767|  5.13k|    {
 8768|  5.13k|        return m_str;
 8769|  5.13k|    }
_ZN3scn2v414make_scan_argsINS0_18basic_scan_contextINS0_6detail16buffer_range_tagEcEEJNSt3__112basic_stringIwNS6_11char_traitsIwEENS6_9allocatorIwEEEEEEEDaRNS6_5tupleIJDpT0_EEE:
 6109|  5.13k|{
 6110|  5.13k|    detail::check_scan_arg_types<Args...>();
 6111|  5.13k|    return detail::scan_arg_store<Context, Args...>(values);
 6112|  5.13k|}
_ZN3scn2v46detail20check_scan_arg_typesIJNSt3__112basic_stringIwNS3_11char_traitsIwEENS3_9allocatorIwEEEEEEEbv:
 5824|  15.4k|{
 5825|  15.4k|    constexpr bool default_constructible_constraint =
 5826|  15.4k|        std::conjunction_v<std::is_default_constructible<Args>...>;
 5827|  15.4k|    static_assert(default_constructible_constraint,
 5828|  15.4k|                  "Scan argument types must be default constructible");
 5829|       |
 5830|  15.4k|    constexpr bool destructible_constraint =
 5831|  15.4k|        std::conjunction_v<std::is_destructible<Args>...>;
 5832|  15.4k|    static_assert(destructible_constraint,
 5833|  15.4k|                  "Scan argument types must be Destructible");
 5834|       |
 5835|  15.4k|    constexpr bool non_reference_constraint =
 5836|  15.4k|        !std::conjunction_v<std::false_type, std::is_reference<Args>...>;
 5837|  15.4k|    static_assert(non_reference_constraint,
 5838|  15.4k|                  "Scan argument types must not be references");
 5839|       |
 5840|  15.4k|    constexpr bool movable_constraint =
 5841|  15.4k|        std::conjunction_v<std::is_move_constructible<Args>...>;
 5842|  15.4k|    static_assert(movable_constraint,
 5843|  15.4k|                  "Scan argument types must be move constructible");
 5844|       |
 5845|  15.4k|    return default_constructible_constraint && destructible_constraint &&
  ------------------
  |  Branch (5845:12): [Folded - Ignored]
  |  Branch (5845:48): [Folded - Ignored]
  ------------------
 5846|  15.4k|           non_reference_constraint && movable_constraint;
  ------------------
  |  Branch (5846:12): [Folded - Ignored]
  |  Branch (5846:40): [Folded - Ignored]
  ------------------
 5847|  15.4k|}
_ZN3scn2v46detail14scan_arg_storeINS0_18basic_scan_contextINS1_16buffer_range_tagEcEEJNSt3__112basic_stringIwNS6_11char_traitsIwEENS6_9allocatorIwEEEEEEC2ERNS6_5tupleIJSC_EEE:
 6085|  5.13k|        : args(std::apply(make_argptrs<Args...>, args))
 6086|  5.13k|    {
 6087|  5.13k|    }
_ZN3scn2v46detail14scan_arg_storeINS0_18basic_scan_contextINS1_16buffer_range_tagEcEEJNSt3__112basic_stringIwNS6_11char_traitsIwEENS6_9allocatorIwEEEEEE12make_argptrsIJSC_EEENS6_5arrayIPvLm1EEEDpRT_:
 6094|  5.13k|    {
 6095|  5.13k|        return {detail::make_arg<
 6096|  5.13k|            kind, Context,
 6097|  5.13k|            mapped_type_constant<remove_cvref_t<A>,
 6098|  5.13k|                                 typename Context::char_type>::value>(args)...};
 6099|  5.13k|    }
_ZN3scn2v46detail8make_argILNS1_19scan_arg_store_kindE0ENS0_18basic_scan_contextINS1_16buffer_range_tagEcEELNS1_8arg_typeE22ENSt3__112basic_stringIwNS8_11char_traitsIwEENS8_9allocatorIwEEEEvEEPvRT2_:
 5874|  5.13k|{
 5875|  5.13k|    return make_value<Context>(value).ref_value;
 5876|  5.13k|}
_ZN3scn2v46detail10make_valueINS0_18basic_scan_contextINS1_16buffer_range_tagEcEENSt3__112basic_stringIwNS6_11char_traitsIwEENS6_9allocatorIwEEEEEEDaRT0_:
 5809|  5.13k|{
 5810|  5.13k|    auto&& arg = arg_mapper<typename Context::char_type>().map(value);
 5811|       |
 5812|       |    if constexpr (!std::is_same_v<remove_cvref_t<decltype(arg)>,
 5813|  5.13k|                                  needs_context_tag>) {
 5814|  5.13k|        return make_value_impl<T>(SCN_FWD(arg));
  ------------------
  |  |  936|  5.13k|#define SCN_FWD(x)          static_cast<decltype(x)&&>(x)
  ------------------
 5815|       |    }
 5816|       |    else {
 5817|       |        return make_value_impl<T>(arg_mapper<typename Context::char_type>().map(
 5818|       |            value, context_tag<Context>{}));
 5819|       |    }
 5820|  5.13k|}
_ZN3scn2v46detail10arg_mapperIcE3mapERNSt3__112basic_stringIwNS4_11char_traitsIwEENS4_9allocatorIwEEEE:
 5648|  5.13k|    {                                                                        \
 5649|  5.13k|        return val;                                                          \
 5650|  5.13k|    }
_ZN3scn2v46detail15make_value_implINSt3__112basic_stringIwNS3_11char_traitsIwEENS3_9allocatorIwEEEERS9_EEDaOT0_:
 5778|  15.4k|{
 5779|  15.4k|    using arg_nocvref_t = remove_cvref_t<Arg>;
 5780|  15.4k|    static_assert(!std::is_same_v<arg_nocvref_t, needs_context_tag>);
 5781|       |
 5782|  15.4k|    constexpr bool scannable_char =
 5783|  15.4k|        !std::is_same_v<arg_nocvref_t, unscannable_char>;
 5784|  15.4k|    static_assert(scannable_char,
 5785|  15.4k|                  "Cannot scan an argument of an unsupported character "
 5786|  15.4k|                  "type (i.e. char from a wchar_t source)");
 5787|       |
 5788|  15.4k|    constexpr bool scannable_const =
 5789|  15.4k|        !std::is_same_v<arg_nocvref_t, unscannable_const>;
 5790|  15.4k|    static_assert(scannable_const, "Cannot scan a const argument");
 5791|       |
 5792|  15.4k|    constexpr bool scannable_disabled =
 5793|  15.4k|        !std::is_same_v<arg_nocvref_t, unscannable_disabled>;
 5794|  15.4k|    static_assert(scannable_disabled,
 5795|  15.4k|                  "Cannot scan an argument that has been disabled by "
 5796|  15.4k|                  "flag (SCN_DISABLE_TYPE_*)");
 5797|       |
 5798|  15.4k|    constexpr bool scannable = !std::is_same_v<arg_nocvref_t, unscannable>;
 5799|  15.4k|    static_assert(
 5800|  15.4k|        scannable,
 5801|  15.4k|        "Cannot scan an argument. To make a type T scannable, provide "
 5802|  15.4k|        "a scn::scanner<T, CharT> specialization.");
 5803|       |
 5804|  15.4k|    return arg_value{arg};
 5805|  15.4k|}
_ZN3scn2v46detail9arg_valueC2INSt3__112basic_stringIwNS4_11char_traitsIwEENS4_9allocatorIwEEEEEERT_:
 5562|  15.4k|    explicit constexpr arg_value(T& val) : ref_value{std::addressof(val)}
 5563|  15.4k|    {
 5564|  15.4k|    }
_ZN3scn2v48expectedINS0_11scan_resultINS0_6ranges6detail9subrange_8subrangeIPKcS8_EEJNSt3__112basic_stringIwNSA_11char_traitsIwEENSA_9allocatorIwEEEEEEENS0_10scan_errorEEptEv:
 1814|  5.70k|    {
 1815|  5.70k|        return &value();
 1816|  5.70k|    }
_ZNR3scn2v48expectedINS0_11scan_resultINS0_6ranges6detail9subrange_8subrangeIPKcS8_EEJNSt3__112basic_stringIwNSA_11char_traitsIwEENSA_9allocatorIwEEEEEEENS0_10scan_errorEE5valueISH_TnPNSA_9enable_ifIXntsr3stdE9is_void_vIT_EEvE4typeELPv0EEERSM_v:
 1768|  5.70k|    {
 1769|  5.70k|        SCN_EXPECT(has_value());
  ------------------
  |  |  930|  5.70k|#define SCN_EXPECT(cond) SCN_ASSERT(cond, "Precondition violation")
  |  |  ------------------
  |  |  |  |  927|  5.70k|#define SCN_ASSERT(cond, msg) assert((cond) && msg)
  |  |  ------------------
  ------------------
 1770|  5.70k|        return this->get_value();
 1771|  5.70k|    }
_ZNR3scn2v46detail25scan_result_value_storageIJNSt3__112basic_stringIwNS3_11char_traitsIwEENS3_9allocatorIwEEEEEE6valuesEv:
 6353|  15.4k|    {
 6354|  15.4k|        return m_values;
 6355|  15.4k|    }
_ZN3scn2v415basic_scan_argsINS0_18basic_scan_contextINS0_6detail16buffer_range_tagEcEEEC2IJNSt3__112basic_stringIwNS8_11char_traitsIwEENS8_9allocatorIwEEEEEEERKNS3_14scan_arg_storeIS5_JDpT_EEE:
 6135|  5.13k|        : basic_scan_args(store.desc, store.args.data())
 6136|  5.13k|    {
 6137|  5.13k|    }
_ZN3scn2v424basic_scan_format_stringIcRNSt3__117basic_string_viewIcNS2_11char_traitsIcEEEEJNS2_12basic_stringIwNS4_IwEENS2_9allocatorIwEEEEEEC2ENS0_6detail27basic_runtime_format_stringIcEE:
 8762|  5.13k|        : m_str(r.str)
 8763|  5.13k|    {
 8764|  5.13k|    }
_ZN3scn2v46detail21expected_storage_baseINS0_11scan_resultINS0_6ranges6detail9subrange_8subrangeIPKcS9_EEJNSt3__112basic_stringIwNSB_11char_traitsIwEENSB_9allocatorIwEEEEEEENS0_10scan_errorELb0EED2Ev:
  642|  9.70k|    {
  643|  9.70k|        if (has_value()) {
  ------------------
  |  Branch (643:13): [True: 568, False: 9.13k]
  ------------------
  644|    568|            destroy_value();
  645|    568|        }
  646|  9.13k|        else {
  647|  9.13k|            destroy_unexpected();
  648|  9.13k|        }
  649|  9.70k|    }
_ZN3scn2v44scanIJNSt3__112basic_stringIwNS2_11char_traitsIwEENS2_9allocatorIwEEEEENS2_6localeERNS2_17basic_string_viewIcNS4_IcEEEEvvEENS0_13scan_expectedINS0_11scan_resultINS2_11conditionalIXsr3stdE9is_same_vIu11__remove_cvIu20__remove_reference_tIT1_EEP8_IO_FILEEESL_NS0_6detail22borrowed_tail_subrangeISH_Xsr6rangesE14borrowed_rangeISH_EEE4typeEE4typeEJDpT_EEEEERKT0_OSH_NS0_24basic_scan_format_stringIcNSM_13type_identityISH_E4typeEJDpNS11_ISS_E4typeEEEE:
 9749|  2.56k|{
 9750|  2.56k|    auto result = make_scan_result<Source, Args...>();
 9751|  2.56k|    fill_scan_result(result, vscan(loc, SCN_FWD(source), format,
  ------------------
  |  |  936|  2.56k|#define SCN_FWD(x)          static_cast<decltype(x)&&>(x)
  ------------------
 9752|  2.56k|                                   make_scan_args(result->values())));
 9753|  2.56k|    return result;
 9754|  2.56k|}
_ZN3scn2v44scanIJNSt3__117basic_string_viewIcNS2_11char_traitsIcEEEEERS6_vEENS0_13scan_expectedINS0_11scan_resultINS2_11conditionalIXsr3stdE9is_same_vIu11__remove_cvIu20__remove_reference_tIT0_EEP8_IO_FILEEESF_NS0_6detail22borrowed_tail_subrangeISB_Xsr6rangesE14borrowed_rangeISB_EEE4typeEE4typeEJDpT_EEEEEOSB_NS0_24basic_scan_format_stringIcNSG_13type_identityISB_E4typeEJDpNSS_ISM_E4typeEEEE:
 9680|  2.56k|{
 9681|  2.56k|    auto result = make_scan_result<Source, Args...>();
 9682|  2.56k|    fill_scan_result(result, vscan(SCN_FWD(source), format,
  ------------------
  |  |  936|  2.56k|#define SCN_FWD(x)          static_cast<decltype(x)&&>(x)
  ------------------
 9683|  2.56k|                                   make_scan_args(result->values())));
 9684|  2.56k|    return result;
 9685|  2.56k|}
_ZN3scn2v416make_scan_resultIRNSt3__117basic_string_viewIcNS2_11char_traitsIcEEEEJS6_EEEDav:
 9636|  5.13k|{
 9637|  5.13k|    return scan_result_type<Source, Args...>();
 9638|  5.13k|}
_ZN3scn2v48expectedINS0_11scan_resultINS0_6ranges6detail9subrange_8subrangeIPKcS8_EEJNSt3__117basic_string_viewIcNSA_11char_traitsIcEEEEEEENS0_10scan_errorEEC2Ev:
 1551|  5.13k|    constexpr expected() = default;
_ZN3scn2v46detail21expected_storage_baseINS0_11scan_resultINS0_6ranges6detail9subrange_8subrangeIPKcS9_EEJNSt3__117basic_string_viewIcNSB_11char_traitsIcEEEEEEENS0_10scan_errorELb1EEC2Ev:
  426|  5.13k|        : m_value(T{}), m_has_value(true)
  427|  5.13k|    {
  428|  5.13k|    }
_ZN3scn2v411scan_resultINS0_6ranges6detail9subrange_8subrangeIPKcS7_EEJNSt3__117basic_string_viewIcNS9_11char_traitsIcEEEEEEC2Ev:
 6570|  5.13k|    constexpr scan_result() = default;
_ZN3scn2v46detail25scan_result_value_storageIJNSt3__117basic_string_viewIcNS3_11char_traitsIcEEEEEEC2Ev:
 6344|  5.13k|    constexpr scan_result_value_storage() = default;
_ZN3scn2v416fill_scan_resultINS0_11scan_resultINS0_6ranges6detail9subrange_8subrangeIPKcS8_EEJNSt3__117basic_string_viewIcNSA_11char_traitsIcEEEEEEES9_TnPNSA_9enable_ifIXsr3stdE13conjunction_vINS0_6detail25is_specialization_of_implIu11__remove_cvIu20__remove_reference_tIT_EES2_EENSA_7is_sameINSJ_10range_typeET0_EEEEvE4typeELPv0EEEvRNS0_13scan_expectedISJ_EEONSV_ISP_EE:
 9621|  5.13k|{
 9622|  5.13k|    if (SCN_UNLIKELY(!in)) {
  ------------------
  |  |  865|  5.13k|#define SCN_UNLIKELY(x) __builtin_expect(!!(x), 0)
  |  |  ------------------
  |  |  |  Branch (865:25): [True: 4.56k, False: 568]
  |  |  ------------------
  ------------------
 9623|  4.56k|        out = unexpected(in.error());
 9624|  4.56k|    }
 9625|    568|    else {
 9626|    568|        out->set_range(SCN_MOVE(*in));
  ------------------
  |  |  934|    568|    static_cast<    \
  |  |  935|    568|        typename ::scn::detail::remove_reference<decltype(x)>::type&&>(x)
  ------------------
 9627|    568|    }
 9628|  5.13k|}
_ZN3scn2v48expectedINS0_11scan_resultINS0_6ranges6detail9subrange_8subrangeIPKcS8_EEJNSt3__117basic_string_viewIcNSA_11char_traitsIcEEEEEEENS0_10scan_errorEEC2ISG_TnPNSA_9enable_ifIXsr3stdE18is_constructible_vISG_OT_EEvE4typeELPv0ETnPNSJ_IXsr3stdE16is_convertible_vISL_SG_EEvE4typeELSP_0EEEONS0_10unexpectedISK_EE:
 1615|  4.56k|        : base(unexpect, std::move(e.error())),
 1616|  4.56k|          ctor_base(detail::non_default_ctor_tag_t{})
 1617|  4.56k|    {
 1618|  4.56k|    }
_ZN3scn2v46detail21expected_storage_baseINS0_11scan_resultINS0_6ranges6detail9subrange_8subrangeIPKcS9_EEJNSt3__117basic_string_viewIcNSB_11char_traitsIcEEEEEEENS0_10scan_errorELb1EEC2IJSH_EvEENS0_10unexpect_tEDpOT_:
  449|  4.56k|        : m_unexpected(std::in_place, std::forward<Args>(args)...),
  450|  4.56k|          m_has_value(false)
  451|  4.56k|    {
  452|  4.56k|    }
_ZN3scn2v46detail26expected_default_ctor_baseINS0_11scan_resultINS0_6ranges6detail9subrange_8subrangeIPKcS9_EEJNSt3__117basic_string_viewIcNSB_11char_traitsIcEEEEEEENS0_10scan_errorELb1EEC2ENS1_22non_default_ctor_tag_tE:
 1315|  4.56k|    {
 1316|  4.56k|    }
_ZN3scn2v48expectedINS0_11scan_resultINS0_6ranges6detail9subrange_8subrangeIPKcS8_EEJNSt3__117basic_string_viewIcNSA_11char_traitsIcEEEEEEENS0_10scan_errorEEaSEOSH_:
 1556|  4.56k|    constexpr expected& operator=(expected&&) = default;
_ZN3scn2v46detail24expected_operations_baseINS0_11scan_resultINS0_6ranges6detail9subrange_8subrangeIPKcS9_EEJNSt3__117basic_string_viewIcNSB_11char_traitsIcEEEEEEENS0_10scan_errorEvEaSEOSI_:
  902|  4.56k|    {
  903|  4.56k|        assign_common(std::move(other));
  904|  4.56k|        return *this;
  905|  4.56k|    }
_ZN3scn2v46detail24expected_operations_baseINS0_11scan_resultINS0_6ranges6detail9subrange_8subrangeIPKcS9_EEJNSt3__117basic_string_viewIcNSB_11char_traitsIcEEEEEEENS0_10scan_errorEvE13assign_commonISI_EEvOT_:
  949|  4.56k|    {
  950|  4.56k|        if (this->has_value()) {
  ------------------
  |  Branch (950:13): [True: 4.56k, False: 0]
  ------------------
  951|  4.56k|            if (other.has_value()) {
  ------------------
  |  Branch (951:17): [True: 0, False: 4.56k]
  ------------------
  952|      0|                return reassign_value(std::forward<Other>(other));
  953|      0|            }
  954|  4.56k|            return assign_unexpected_over_value(std::forward<Other>(other));
  955|  4.56k|        }
  956|       |
  957|      0|        if (other.has_value()) {
  ------------------
  |  Branch (957:13): [True: 0, False: 0]
  ------------------
  958|      0|            return assign_value_over_unexpected(std::forward<Other>(other));
  959|      0|        }
  960|      0|        return reassign_unexpected(std::forward<Other>(other));
  961|      0|    }
_ZNK3scn2v46detail21expected_storage_baseINS0_11scan_resultINS0_6ranges6detail9subrange_8subrangeIPKcS9_EEJNSt3__117basic_string_viewIcNSB_11char_traitsIcEEEEEEENS0_10scan_errorELb1EE9has_valueEv:
  489|  14.8k|    {
  490|  14.8k|        return m_has_value;
  491|  14.8k|    }
_ZNR3scn2v46detail21expected_storage_baseINS0_11scan_resultINS0_6ranges6detail9subrange_8subrangeIPKcS9_EEJNSt3__117basic_string_viewIcNSB_11char_traitsIcEEEEEEENS0_10scan_errorELb1EE9get_valueEv:
  455|  5.70k|    {
  456|  5.70k|        return m_value;
  457|  5.70k|    }
_ZN3scn2v46detail24expected_operations_baseINS0_11scan_resultINS0_6ranges6detail9subrange_8subrangeIPKcS9_EEJNSt3__117basic_string_viewIcNSB_11char_traitsIcEEEEEEENS0_10scan_errorEvE28assign_unexpected_over_valueISI_EEvOT_:
 1045|  4.56k|    {
 1046|  4.56k|        this->destroy_value();
 1047|  4.56k|        this->construct_unexpected(std::forward<Other>(other).get_unexpected());
 1048|  4.56k|    }
_ZN3scn2v46detail21expected_storage_baseINS0_11scan_resultINS0_6ranges6detail9subrange_8subrangeIPKcS9_EEJNSt3__117basic_string_viewIcNSB_11char_traitsIcEEEEEEENS0_10scan_errorELb1EE13destroy_valueEv:
  510|  4.56k|    static constexpr void destroy_value() noexcept {}
_ZN3scn2v46detail21expected_storage_baseINS0_11scan_resultINS0_6ranges6detail9subrange_8subrangeIPKcS9_EEJNSt3__117basic_string_viewIcNSB_11char_traitsIcEEEEEEENS0_10scan_errorELb1EE20construct_unexpectedIJNS0_10unexpectedISH_EEEEEvDpOT_:
  503|  4.56k|    {
  504|  4.56k|        scn::detail::construct_at(&get_unexpected(),
  505|  4.56k|                                  std::forward<Args>(args)...);
  506|  4.56k|        m_has_value = false;
  507|  4.56k|    }
_ZNR3scn2v46detail21expected_storage_baseINS0_11scan_resultINS0_6ranges6detail9subrange_8subrangeIPKcS9_EEJNSt3__117basic_string_viewIcNSB_11char_traitsIcEEEEEEENS0_10scan_errorELb1EE14get_unexpectedEv:
  472|  4.56k|    {
  473|  4.56k|        return m_unexpected;
  474|  4.56k|    }
_ZNO3scn2v46detail21expected_storage_baseINS0_11scan_resultINS0_6ranges6detail9subrange_8subrangeIPKcS9_EEJNSt3__117basic_string_viewIcNSB_11char_traitsIcEEEEEEENS0_10scan_errorELb1EE14get_unexpectedEv:
  480|  4.56k|    {
  481|  4.56k|        return std::move(m_unexpected);
  482|  4.56k|    }
_ZNK3scn2v424basic_scan_format_stringIcRNSt3__117basic_string_viewIcNS2_11char_traitsIcEEEEJS6_EEcvS6_Ev:
 8767|  5.13k|    {
 8768|  5.13k|        return m_str;
 8769|  5.13k|    }
_ZN3scn2v414make_scan_argsINS0_18basic_scan_contextINS0_6detail16buffer_range_tagEcEEJNSt3__117basic_string_viewIcNS6_11char_traitsIcEEEEEEEDaRNS6_5tupleIJDpT0_EEE:
 6109|  5.13k|{
 6110|  5.13k|    detail::check_scan_arg_types<Args...>();
 6111|  5.13k|    return detail::scan_arg_store<Context, Args...>(values);
 6112|  5.13k|}
_ZN3scn2v46detail20check_scan_arg_typesIJNSt3__117basic_string_viewIcNS3_11char_traitsIcEEEEEEEbv:
 5824|  5.13k|{
 5825|  5.13k|    constexpr bool default_constructible_constraint =
 5826|  5.13k|        std::conjunction_v<std::is_default_constructible<Args>...>;
 5827|  5.13k|    static_assert(default_constructible_constraint,
 5828|  5.13k|                  "Scan argument types must be default constructible");
 5829|       |
 5830|  5.13k|    constexpr bool destructible_constraint =
 5831|  5.13k|        std::conjunction_v<std::is_destructible<Args>...>;
 5832|  5.13k|    static_assert(destructible_constraint,
 5833|  5.13k|                  "Scan argument types must be Destructible");
 5834|       |
 5835|  5.13k|    constexpr bool non_reference_constraint =
 5836|  5.13k|        !std::conjunction_v<std::false_type, std::is_reference<Args>...>;
 5837|  5.13k|    static_assert(non_reference_constraint,
 5838|  5.13k|                  "Scan argument types must not be references");
 5839|       |
 5840|  5.13k|    constexpr bool movable_constraint =
 5841|  5.13k|        std::conjunction_v<std::is_move_constructible<Args>...>;
 5842|  5.13k|    static_assert(movable_constraint,
 5843|  5.13k|                  "Scan argument types must be move constructible");
 5844|       |
 5845|  5.13k|    return default_constructible_constraint && destructible_constraint &&
  ------------------
  |  Branch (5845:12): [Folded - Ignored]
  |  Branch (5845:48): [Folded - Ignored]
  ------------------
 5846|  5.13k|           non_reference_constraint && movable_constraint;
  ------------------
  |  Branch (5846:12): [Folded - Ignored]
  |  Branch (5846:40): [Folded - Ignored]
  ------------------
 5847|  5.13k|}
_ZN3scn2v46detail14scan_arg_storeINS0_18basic_scan_contextINS1_16buffer_range_tagEcEEJNSt3__117basic_string_viewIcNS6_11char_traitsIcEEEEEEC2ERNS6_5tupleIJSA_EEE:
 6085|  5.13k|        : args(std::apply(make_argptrs<Args...>, args))
 6086|  5.13k|    {
 6087|  5.13k|    }
_ZN3scn2v46detail14scan_arg_storeINS0_18basic_scan_contextINS1_16buffer_range_tagEcEEJNSt3__117basic_string_viewIcNS6_11char_traitsIcEEEEEE12make_argptrsIJSA_EEENS6_5arrayIPvLm1EEEDpRT_:
 6094|  5.13k|    {
 6095|  5.13k|        return {detail::make_arg<
 6096|  5.13k|            kind, Context,
 6097|  5.13k|            mapped_type_constant<remove_cvref_t<A>,
 6098|  5.13k|                                 typename Context::char_type>::value>(args)...};
 6099|  5.13k|    }
_ZN3scn2v46detail8make_argILNS1_19scan_arg_store_kindE0ENS0_18basic_scan_contextINS1_16buffer_range_tagEcEELNS1_8arg_typeE19ENSt3__117basic_string_viewIcNS8_11char_traitsIcEEEEvEEPvRT2_:
 5874|  5.13k|{
 5875|  5.13k|    return make_value<Context>(value).ref_value;
 5876|  5.13k|}
_ZN3scn2v46detail10make_valueINS0_18basic_scan_contextINS1_16buffer_range_tagEcEENSt3__117basic_string_viewIcNS6_11char_traitsIcEEEEEEDaRT0_:
 5809|  5.13k|{
 5810|  5.13k|    auto&& arg = arg_mapper<typename Context::char_type>().map(value);
 5811|       |
 5812|       |    if constexpr (!std::is_same_v<remove_cvref_t<decltype(arg)>,
 5813|  5.13k|                                  needs_context_tag>) {
 5814|  5.13k|        return make_value_impl<T>(SCN_FWD(arg));
  ------------------
  |  |  936|  5.13k|#define SCN_FWD(x)          static_cast<decltype(x)&&>(x)
  ------------------
 5815|       |    }
 5816|       |    else {
 5817|       |        return make_value_impl<T>(arg_mapper<typename Context::char_type>().map(
 5818|       |            value, context_tag<Context>{}));
 5819|       |    }
 5820|  5.13k|}
_ZN3scn2v46detail10arg_mapperIcE3mapERNSt3__117basic_string_viewIcNS4_11char_traitsIcEEEE:
 5648|  5.13k|    {                                                                        \
 5649|  5.13k|        return val;                                                          \
 5650|  5.13k|    }
_ZN3scn2v46detail15make_value_implINSt3__117basic_string_viewIcNS3_11char_traitsIcEEEERS7_EEDaOT0_:
 5778|  5.13k|{
 5779|  5.13k|    using arg_nocvref_t = remove_cvref_t<Arg>;
 5780|  5.13k|    static_assert(!std::is_same_v<arg_nocvref_t, needs_context_tag>);
 5781|       |
 5782|  5.13k|    constexpr bool scannable_char =
 5783|  5.13k|        !std::is_same_v<arg_nocvref_t, unscannable_char>;
 5784|  5.13k|    static_assert(scannable_char,
 5785|  5.13k|                  "Cannot scan an argument of an unsupported character "
 5786|  5.13k|                  "type (i.e. char from a wchar_t source)");
 5787|       |
 5788|  5.13k|    constexpr bool scannable_const =
 5789|  5.13k|        !std::is_same_v<arg_nocvref_t, unscannable_const>;
 5790|  5.13k|    static_assert(scannable_const, "Cannot scan a const argument");
 5791|       |
 5792|  5.13k|    constexpr bool scannable_disabled =
 5793|  5.13k|        !std::is_same_v<arg_nocvref_t, unscannable_disabled>;
 5794|  5.13k|    static_assert(scannable_disabled,
 5795|  5.13k|                  "Cannot scan an argument that has been disabled by "
 5796|  5.13k|                  "flag (SCN_DISABLE_TYPE_*)");
 5797|       |
 5798|  5.13k|    constexpr bool scannable = !std::is_same_v<arg_nocvref_t, unscannable>;
 5799|  5.13k|    static_assert(
 5800|  5.13k|        scannable,
 5801|  5.13k|        "Cannot scan an argument. To make a type T scannable, provide "
 5802|  5.13k|        "a scn::scanner<T, CharT> specialization.");
 5803|       |
 5804|  5.13k|    return arg_value{arg};
 5805|  5.13k|}
_ZN3scn2v46detail9arg_valueC2INSt3__117basic_string_viewIcNS4_11char_traitsIcEEEEEERT_:
 5562|  5.13k|    explicit constexpr arg_value(T& val) : ref_value{std::addressof(val)}
 5563|  5.13k|    {
 5564|  5.13k|    }
_ZN3scn2v48expectedINS0_11scan_resultINS0_6ranges6detail9subrange_8subrangeIPKcS8_EEJNSt3__117basic_string_viewIcNSA_11char_traitsIcEEEEEEENS0_10scan_errorEEptEv:
 1814|  5.70k|    {
 1815|  5.70k|        return &value();
 1816|  5.70k|    }
_ZNR3scn2v48expectedINS0_11scan_resultINS0_6ranges6detail9subrange_8subrangeIPKcS8_EEJNSt3__117basic_string_viewIcNSA_11char_traitsIcEEEEEEENS0_10scan_errorEE5valueISF_TnPNSA_9enable_ifIXntsr3stdE9is_void_vIT_EEvE4typeELPv0EEERSK_v:
 1768|  5.70k|    {
 1769|  5.70k|        SCN_EXPECT(has_value());
  ------------------
  |  |  930|  5.70k|#define SCN_EXPECT(cond) SCN_ASSERT(cond, "Precondition violation")
  |  |  ------------------
  |  |  |  |  927|  5.70k|#define SCN_ASSERT(cond, msg) assert((cond) && msg)
  |  |  ------------------
  ------------------
 1770|  5.70k|        return this->get_value();
 1771|  5.70k|    }
_ZNR3scn2v46detail25scan_result_value_storageIJNSt3__117basic_string_viewIcNS3_11char_traitsIcEEEEEE6valuesEv:
 6353|  5.13k|    {
 6354|  5.13k|        return m_values;
 6355|  5.13k|    }
_ZN3scn2v415basic_scan_argsINS0_18basic_scan_contextINS0_6detail16buffer_range_tagEcEEEC2IJNSt3__117basic_string_viewIcNS8_11char_traitsIcEEEEEEERKNS3_14scan_arg_storeIS5_JDpT_EEE:
 6135|  5.13k|        : basic_scan_args(store.desc, store.args.data())
 6136|  5.13k|    {
 6137|  5.13k|    }
_ZN3scn2v424basic_scan_format_stringIcRNSt3__117basic_string_viewIcNS2_11char_traitsIcEEEEJS6_EEC2ENS0_6detail27basic_runtime_format_stringIcEE:
 8762|  5.13k|        : m_str(r.str)
 8763|  5.13k|    {
 8764|  5.13k|    }
_ZN3scn2v44scanIJNSt3__117basic_string_viewIcNS2_11char_traitsIcEEEEENS2_6localeERS6_vvEENS0_13scan_expectedINS0_11scan_resultINS2_11conditionalIXsr3stdE9is_same_vIu11__remove_cvIu20__remove_reference_tIT1_EEP8_IO_FILEEESG_NS0_6detail22borrowed_tail_subrangeISC_Xsr6rangesE14borrowed_rangeISC_EEE4typeEE4typeEJDpT_EEEEERKT0_OSC_NS0_24basic_scan_format_stringIcNSH_13type_identityISC_E4typeEJDpNSW_ISN_E4typeEEEE:
 9749|  2.56k|{
 9750|  2.56k|    auto result = make_scan_result<Source, Args...>();
 9751|  2.56k|    fill_scan_result(result, vscan(loc, SCN_FWD(source), format,
  ------------------
  |  |  936|  2.56k|#define SCN_FWD(x)          static_cast<decltype(x)&&>(x)
  ------------------
 9752|  2.56k|                                   make_scan_args(result->values())));
 9753|  2.56k|    return result;
 9754|  2.56k|}
_ZN3scn2v416make_scan_resultIRNSt3__117basic_string_viewIwNS2_11char_traitsIwEEEEJwEEEDav:
 9636|  10.2k|{
 9637|  10.2k|    return scan_result_type<Source, Args...>();
 9638|  10.2k|}
_ZN3scn2v48expectedINS0_11scan_resultINS0_6ranges6detail9subrange_8subrangeIPKwS8_EEJwEEENS0_10scan_errorEEC2Ev:
 1551|  10.2k|    constexpr expected() = default;
_ZN3scn2v46detail21expected_storage_baseINS0_11scan_resultINS0_6ranges6detail9subrange_8subrangeIPKwS9_EEJwEEENS0_10scan_errorELb1EEC2Ev:
  426|  10.2k|        : m_value(T{}), m_has_value(true)
  427|  10.2k|    {
  428|  10.2k|    }
_ZN3scn2v411scan_resultINS0_6ranges6detail9subrange_8subrangeIPKwS7_EEJwEEC2Ev:
 6570|  10.2k|    constexpr scan_result() = default;
_ZN3scn2v46detail25scan_result_range_storageINS0_6ranges6detail9subrange_8subrangeIPKwS8_EEEC2Ev:
 6413|  92.4k|    constexpr scan_result_range_storage() = default;
_ZN3scn2v46ranges6detail9subrange_8subrangeIPKwS6_EC2Ev:
 3459|  92.4k|    subrange() = default;
_ZN3scn2v46detail25scan_result_value_storageIJwEEC2Ev:
 6344|  10.2k|    constexpr scan_result_value_storage() = default;
_ZN3scn2v416fill_scan_resultINS0_11scan_resultINS0_6ranges6detail9subrange_8subrangeIPKwS8_EEJwEEES9_TnPNSt3__19enable_ifIXsr3stdE13conjunction_vINS0_6detail25is_specialization_of_implIu11__remove_cvIu20__remove_reference_tIT_EES2_EENSB_7is_sameINSF_10range_typeET0_EEEEvE4typeELPv0EEEvRNS0_13scan_expectedISF_EEONSR_ISL_EE:
 9621|  10.2k|{
 9622|  10.2k|    if (SCN_UNLIKELY(!in)) {
  ------------------
  |  |  865|  10.2k|#define SCN_UNLIKELY(x) __builtin_expect(!!(x), 0)
  |  |  ------------------
  |  |  |  Branch (865:25): [True: 10.1k, False: 114]
  |  |  ------------------
  ------------------
 9623|  10.1k|        out = unexpected(in.error());
 9624|  10.1k|    }
 9625|    114|    else {
 9626|    114|        out->set_range(SCN_MOVE(*in));
  ------------------
  |  |  934|    114|    static_cast<    \
  |  |  935|    114|        typename ::scn::detail::remove_reference<decltype(x)>::type&&>(x)
  ------------------
 9627|    114|    }
 9628|  10.2k|}
_ZNK3scn2v48expectedINS0_6ranges6detail9subrange_8subrangeIPKwS7_EENS0_10scan_errorEEcvbEv:
 1739|  92.4k|    {
 1740|  92.4k|        return has_value();
 1741|  92.4k|    }
_ZNK3scn2v46detail21expected_storage_baseINS0_6ranges6detail9subrange_8subrangeIPKwS8_EENS0_10scan_errorELb1EE9has_valueEv:
  489|   184k|    {
  490|   184k|        return m_has_value;
  491|   184k|    }
_ZNR3scn2v48expectedINS0_6ranges6detail9subrange_8subrangeIPKwS7_EENS0_10scan_errorEE5errorEv:
 1745|  91.2k|    {
 1746|  91.2k|        SCN_EXPECT(!has_value());
  ------------------
  |  |  930|  91.2k|#define SCN_EXPECT(cond) SCN_ASSERT(cond, "Precondition violation")
  |  |  ------------------
  |  |  |  |  927|  91.2k|#define SCN_ASSERT(cond, msg) assert((cond) && msg)
  |  |  ------------------
  ------------------
 1747|  91.2k|        return this->get_unexpected().error();
 1748|  91.2k|    }
_ZNR3scn2v46detail21expected_storage_baseINS0_6ranges6detail9subrange_8subrangeIPKwS8_EENS0_10scan_errorELb1EE14get_unexpectedEv:
  472|  91.2k|    {
  473|  91.2k|        return m_unexpected;
  474|  91.2k|    }
_ZN3scn2v48expectedINS0_11scan_resultINS0_6ranges6detail9subrange_8subrangeIPKwS8_EEJwEEENS0_10scan_errorEEC2ISB_TnPNSt3__19enable_ifIXsr3stdE18is_constructible_vISB_OT_EEvE4typeELPv0ETnPNSF_IXsr3stdE16is_convertible_vISH_SB_EEvE4typeELSL_0EEEONS0_10unexpectedISG_EE:
 1615|  10.1k|        : base(unexpect, std::move(e.error())),
 1616|  10.1k|          ctor_base(detail::non_default_ctor_tag_t{})
 1617|  10.1k|    {
 1618|  10.1k|    }
_ZN3scn2v46detail21expected_storage_baseINS0_11scan_resultINS0_6ranges6detail9subrange_8subrangeIPKwS9_EEJwEEENS0_10scan_errorELb1EEC2IJSC_EvEENS0_10unexpect_tEDpOT_:
  449|  10.1k|        : m_unexpected(std::in_place, std::forward<Args>(args)...),
  450|  10.1k|          m_has_value(false)
  451|  10.1k|    {
  452|  10.1k|    }
_ZN3scn2v46detail26expected_default_ctor_baseINS0_11scan_resultINS0_6ranges6detail9subrange_8subrangeIPKwS9_EEJwEEENS0_10scan_errorELb1EEC2ENS1_22non_default_ctor_tag_tE:
 1315|  10.1k|    {
 1316|  10.1k|    }
_ZN3scn2v48expectedINS0_11scan_resultINS0_6ranges6detail9subrange_8subrangeIPKwS8_EEJwEEENS0_10scan_errorEEaSEOSC_:
 1556|  10.1k|    constexpr expected& operator=(expected&&) = default;
_ZN3scn2v46detail24expected_operations_baseINS0_11scan_resultINS0_6ranges6detail9subrange_8subrangeIPKwS9_EEJwEEENS0_10scan_errorEvEaSEOSD_:
  902|  10.1k|    {
  903|  10.1k|        assign_common(std::move(other));
  904|  10.1k|        return *this;
  905|  10.1k|    }
_ZN3scn2v46detail24expected_operations_baseINS0_11scan_resultINS0_6ranges6detail9subrange_8subrangeIPKwS9_EEJwEEENS0_10scan_errorEvE13assign_commonISD_EEvOT_:
  949|  10.1k|    {
  950|  10.1k|        if (this->has_value()) {
  ------------------
  |  Branch (950:13): [True: 10.1k, False: 0]
  ------------------
  951|  10.1k|            if (other.has_value()) {
  ------------------
  |  Branch (951:17): [True: 0, False: 10.1k]
  ------------------
  952|      0|                return reassign_value(std::forward<Other>(other));
  953|      0|            }
  954|  10.1k|            return assign_unexpected_over_value(std::forward<Other>(other));
  955|  10.1k|        }
  956|       |
  957|      0|        if (other.has_value()) {
  ------------------
  |  Branch (957:13): [True: 0, False: 0]
  ------------------
  958|      0|            return assign_value_over_unexpected(std::forward<Other>(other));
  959|      0|        }
  960|      0|        return reassign_unexpected(std::forward<Other>(other));
  961|      0|    }
_ZNK3scn2v46detail21expected_storage_baseINS0_11scan_resultINS0_6ranges6detail9subrange_8subrangeIPKwS9_EEJwEEENS0_10scan_errorELb1EE9has_valueEv:
  489|  30.6k|    {
  490|  30.6k|        return m_has_value;
  491|  30.6k|    }
_ZNR3scn2v46detail21expected_storage_baseINS0_11scan_resultINS0_6ranges6detail9subrange_8subrangeIPKwS9_EEJwEEENS0_10scan_errorELb1EE9get_valueEv:
  455|  10.3k|    {
  456|  10.3k|        return m_value;
  457|  10.3k|    }
_ZN3scn2v46detail24expected_operations_baseINS0_11scan_resultINS0_6ranges6detail9subrange_8subrangeIPKwS9_EEJwEEENS0_10scan_errorEvE28assign_unexpected_over_valueISD_EEvOT_:
 1045|  10.1k|    {
 1046|  10.1k|        this->destroy_value();
 1047|  10.1k|        this->construct_unexpected(std::forward<Other>(other).get_unexpected());
 1048|  10.1k|    }
_ZN3scn2v46detail21expected_storage_baseINS0_11scan_resultINS0_6ranges6detail9subrange_8subrangeIPKwS9_EEJwEEENS0_10scan_errorELb1EE13destroy_valueEv:
  510|  10.1k|    static constexpr void destroy_value() noexcept {}
_ZN3scn2v46detail21expected_storage_baseINS0_11scan_resultINS0_6ranges6detail9subrange_8subrangeIPKwS9_EEJwEEENS0_10scan_errorELb1EE20construct_unexpectedIJNS0_10unexpectedISC_EEEEEvDpOT_:
  503|  10.1k|    {
  504|  10.1k|        scn::detail::construct_at(&get_unexpected(),
  505|  10.1k|                                  std::forward<Args>(args)...);
  506|  10.1k|        m_has_value = false;
  507|  10.1k|    }
_ZNR3scn2v46detail21expected_storage_baseINS0_11scan_resultINS0_6ranges6detail9subrange_8subrangeIPKwS9_EEJwEEENS0_10scan_errorELb1EE14get_unexpectedEv:
  472|  10.1k|    {
  473|  10.1k|        return m_unexpected;
  474|  10.1k|    }
_ZNO3scn2v46detail21expected_storage_baseINS0_11scan_resultINS0_6ranges6detail9subrange_8subrangeIPKwS9_EEJwEEENS0_10scan_errorELb1EE14get_unexpectedEv:
  480|  10.1k|    {
  481|  10.1k|        return std::move(m_unexpected);
  482|  10.1k|    }
_ZN3scn2v46detail25scan_result_range_storageINS0_6ranges6detail9subrange_8subrangeIPKwS8_EEE9set_rangeIS9_EEvOT_:
 6444|  1.20k|    {
 6445|  1.20k|        m_range = std::forward<Other>(r);
 6446|  1.20k|    }
_ZNR3scn2v48expectedINS0_6ranges6detail9subrange_8subrangeIPKwS7_EENS0_10scan_errorEEdeIS8_TnPNSt3__19enable_ifIXntsr3stdE9is_void_vIT_EEvE4typeELPv0EEERSE_v:
 1794|  1.20k|    {
 1795|  1.20k|        return value();
 1796|  1.20k|    }
_ZNR3scn2v48expectedINS0_6ranges6detail9subrange_8subrangeIPKwS7_EENS0_10scan_errorEE5valueIS8_TnPNSt3__19enable_ifIXntsr3stdE9is_void_vIT_EEvE4typeELPv0EEERSE_v:
 1768|  1.20k|    {
 1769|  1.20k|        SCN_EXPECT(has_value());
  ------------------
  |  |  930|  1.20k|#define SCN_EXPECT(cond) SCN_ASSERT(cond, "Precondition violation")
  |  |  ------------------
  |  |  |  |  927|  1.20k|#define SCN_ASSERT(cond, msg) assert((cond) && msg)
  |  |  ------------------
  ------------------
 1770|  1.20k|        return this->get_value();
 1771|  1.20k|    }
_ZNR3scn2v46detail21expected_storage_baseINS0_6ranges6detail9subrange_8subrangeIPKwS8_EENS0_10scan_errorELb1EE9get_valueEv:
  455|  1.20k|    {
  456|  1.20k|        return m_value;
  457|  1.20k|    }
_ZN3scn2v46detail13vscan_genericIRNSt3__117basic_string_viewIwNS3_11char_traitsIwEEEEwEENS0_13scan_expectedINS3_11conditionalIXsr3stdE9is_same_vIu11__remove_cvIu20__remove_reference_tIT_EEP8_IO_FILEEESF_NS1_22borrowed_tail_subrangeISB_Xsr6rangesE14borrowed_rangeISB_EEE4typeEE4typeEEEOSB_NS4_IT0_NS5_ISN_EEEENS0_15basic_scan_argsINS0_18basic_scan_contextINS1_16buffer_range_tagESN_EEEE:
 9397|  46.2k|{
 9398|  46.2k|    auto buffer = make_scan_buffer(range);
 9399|       |
 9400|  46.2k|    auto result = vscan_impl(buffer, format, args);
 9401|  46.2k|    if (SCN_UNLIKELY(!result)) {
  ------------------
  |  |  865|  46.2k|#define SCN_UNLIKELY(x) __builtin_expect(!!(x), 0)
  |  |  ------------------
  |  |  |  Branch (865:25): [True: 45.6k, False: 603]
  |  |  ------------------
  ------------------
 9402|  45.6k|        return unexpected(result.error());
 9403|  45.6k|    }
 9404|    603|    return make_vscan_result_range(SCN_FWD(range), *result);
  ------------------
  |  |  936|    603|#define SCN_FWD(x)          static_cast<decltype(x)&&>(x)
  ------------------
 9405|  46.2k|}
_ZN3scn2v46detail16make_scan_bufferINSt3__117basic_string_viewIwNS3_11char_traitsIwEEEEEEDaRKT_:
 5380|  92.4k|{
 5381|  92.4k|    using T = decltype(_make_scan_buffer::impl(range, priority_tag<4>{}));
 5382|       |
 5383|  92.4k|    static_assert(!std::is_same_v<T, invalid_char_type>,
 5384|  92.4k|                  "\n"
 5385|  92.4k|                  "Unsupported range type given as input to a scanning "
 5386|  92.4k|                  "function.\n"
 5387|  92.4k|                  "A range needs to have a character type (value type) "
 5388|  92.4k|                  "of either `char` or `wchar_t` to be scannable.\n"
 5389|  92.4k|                  "For proper `wchar_t` support, <scn/xchar.h> needs "
 5390|  92.4k|                  "to be included.\n"
 5391|  92.4k|                  "See the scnlib documentation for more details.");
 5392|  92.4k|    static_assert(
 5393|  92.4k|        !std::is_same_v<T, custom_char_traits>,
 5394|  92.4k|        "\n"
 5395|  92.4k|        "Unsupported range type given as input to a scanning "
 5396|  92.4k|        "function.\n"
 5397|  92.4k|        "String types (std::basic_string, and std::basic_string_view) "
 5398|  92.4k|        "need to use std::char_traits. Strings with custom Traits are "
 5399|  92.4k|        "not supported.");
 5400|  92.4k|    static_assert(!std::is_same_v<T, file_marker_found>,
 5401|  92.4k|                  "\n"
 5402|  92.4k|                  "Unsupported range type given as input to a scanning "
 5403|  92.4k|                  "function.\n"
 5404|  92.4k|                  "file_marker_found cannot be used as an "
 5405|  92.4k|                  "source range type to scn::scan.\n"
 5406|  92.4k|                  "To read from stdin, use scn::input or scn::prompt, "
 5407|  92.4k|                  "and do not provide an explicit source range, "
 5408|  92.4k|                  "or use scn::scan with a FILE* directly.");
 5409|  92.4k|    static_assert(!std::is_same_v<T, insufficient_range>,
 5410|  92.4k|                  "\n"
 5411|  92.4k|                  "Unsupported range type given as input to a scanning "
 5412|  92.4k|                  "function.\n"
 5413|  92.4k|                  "In order to be scannable, a range needs to satisfy "
 5414|  92.4k|                  "`forward_range`. `input_range` is not sufficient.");
 5415|  92.4k|    static_assert(!std::is_same_v<T, invalid_input_range>,
 5416|  92.4k|                  "\n"
 5417|  92.4k|                  "Unsupported range type given as input to a scanning "
 5418|  92.4k|                  "function.\n"
 5419|  92.4k|                  "A range needs to model forward_range and have a valid "
 5420|  92.4k|                  "character type (char or wchar_t) to be scannable.\n"
 5421|  92.4k|                  "Examples of scannable ranges are std::string, "
 5422|  92.4k|                  "std::string_view, "
 5423|  92.4k|                  "std::vector<char>, and scn::istreambuf_view.\n"
 5424|  92.4k|                  "See the scnlib documentation for more details.");
 5425|       |
 5426|  92.4k|    return _make_scan_buffer::impl(range, priority_tag<4>{});
 5427|  92.4k|}
_ZN3scn2v46detail17_make_scan_buffer4implIwEEDaNSt3__117basic_string_viewIT_NS4_11char_traitsIS6_EEEENS1_12priority_tagILm3EEE:
 5272|  92.4k|{
 5273|  92.4k|    if constexpr (is_valid_char_type<CharT>) {
 5274|  92.4k|        return r;
 5275|       |        // return make_string_scan_buffer(r);
 5276|       |    }
 5277|       |    else {
 5278|       |        return invalid_char_type{};
 5279|       |    }
 5280|  92.4k|}
_ZN3scn2v48expectedINS0_6ranges6detail9subrange_8subrangeIPKwS7_EENS0_10scan_errorEEC2IS9_TnPNSt3__19enable_ifIXsr3stdE18is_constructible_vIS9_OT_EEvE4typeELPv0ETnPNSD_IXsr3stdE16is_convertible_vISF_S9_EEvE4typeELSJ_0EEEONS0_10unexpectedISE_EE:
 1615|  91.2k|        : base(unexpect, std::move(e.error())),
 1616|  91.2k|          ctor_base(detail::non_default_ctor_tag_t{})
 1617|  91.2k|    {
 1618|  91.2k|    }
_ZN3scn2v46detail21expected_storage_baseINS0_6ranges6detail9subrange_8subrangeIPKwS8_EENS0_10scan_errorELb1EEC2IJSA_EvEENS0_10unexpect_tEDpOT_:
  449|  91.2k|        : m_unexpected(std::in_place, std::forward<Args>(args)...),
  450|  91.2k|          m_has_value(false)
  451|  91.2k|    {
  452|  91.2k|    }
_ZN3scn2v46detail26expected_default_ctor_baseINS0_6ranges6detail9subrange_8subrangeIPKwS8_EENS0_10scan_errorELb1EEC2ENS1_22non_default_ctor_tag_tE:
 1315|  92.4k|    {
 1316|  92.4k|    }
_ZN3scn2v46detail23make_vscan_result_rangeIRNSt3__117basic_string_viewIwNS3_11char_traitsIwEEEEEENS1_22borrowed_tail_subrangeIT_Xsr6rangesE14borrowed_rangeISA_EEE4typeEOSA_l:
 6674|  1.20k|{
 6675|       |    if constexpr (ranges::random_access_iterator<
 6676|  1.20k|                      ranges::iterator_t<SourceRange>>) {
 6677|  1.20k|        return {ranges::begin(source) + n, make_vscan_result_range_end(source)};
 6678|       |    }
 6679|       |    else {
 6680|       |        auto it = ranges::begin(source);
 6681|       |        while (n > 0) {
 6682|       |            --n;
 6683|       |            ++it;
 6684|       |        }
 6685|       |        return {SCN_MOVE(it), make_vscan_result_range_end(source)};
 6686|       |    }
 6687|  1.20k|}
_ZNK3scn2v46ranges6detail6begin_2fnclIRNSt3__117basic_string_viewIwNS6_11char_traitsIwEEEEEEDTclsr2fnE4implscDtfp_Efp_tlNS0_6detail12priority_tagILm3EEEEEEOT_:
 2868|  1.20k|    {
 2869|  1.20k|        return fn::impl(SCN_FWD(t), priority_tag<3>{});
  ------------------
  |  |  936|  1.20k|#define SCN_FWD(x)          static_cast<decltype(x)&&>(x)
  ------------------
 2870|  1.20k|    }
_ZN3scn2v46ranges6detail6begin_2fn4implIRNSt3__117basic_string_viewIwNS6_11char_traitsIwEEEEEENS6_9enable_ifIX24input_or_output_iteratorIDTcl10decay_copycldtscDtfp_Efp_5beginEEEEESE_E4typeEOT_NS0_6detail12priority_tagILm1EEE:
 2849|  1.20k|    {
 2850|  1.20k|        return decay_copy(t.begin());
 2851|  1.20k|    }
_ZN3scn2v46ranges6detail10decay_copyIPKwEEu7__decayIT_EOS6_:
 2093|   196k|{
 2094|   196k|    return SCN_FWD(t);
  ------------------
  |  |  936|   196k|#define SCN_FWD(x)          static_cast<decltype(x)&&>(x)
  ------------------
 2095|   196k|}
_ZN3scn2v46detail27make_vscan_result_range_endINSt3__117basic_string_viewIwNS3_11char_traitsIwEEEEEEDaRT_:
 6661|  1.20k|{
 6662|  1.20k|    return ranges::end(source);
 6663|  1.20k|}
_ZNK3scn2v46ranges6detail4end_2fnclIRNSt3__117basic_string_viewIwNS6_11char_traitsIwEEEEEEDTclsr2fnE4implscDtfp_Efp_tlNS0_6detail12priority_tagILm3EEEEEEOT_:
 2925|  1.20k|    {
 2926|  1.20k|        return fn::impl(SCN_FWD(t), priority_tag<3>{});
  ------------------
  |  |  936|  1.20k|#define SCN_FWD(x)          static_cast<decltype(x)&&>(x)
  ------------------
 2927|  1.20k|    }
_ZN3scn2v46ranges6detail4end_2fn4implIRNSt3__117basic_string_viewIwNS6_11char_traitsIwEEEEPKwSD_EENS6_9enable_ifIX12sentinel_forIT0_T1_EEDTcl10decay_copycldtscDtfp_Efp_3endEEEE4typeEOT_NS0_6detail12priority_tagILm1EEE:
 2907|  1.20k|    {
 2908|  1.20k|        return decay_copy(SCN_FWD(t).end());
  ------------------
  |  |  936|  1.20k|#define SCN_FWD(x)          static_cast<decltype(x)&&>(x)
  ------------------
 2909|  1.20k|    }
_ZN3scn2v46ranges6detail9subrange_8subrangeIPKwS6_EC2IS6_TnPNSt3__19enable_ifIXsr3stdE16is_convertible_vIT_S6_EEvE4typeELPv0EEESB_S6_:
 3464|   284k|        : m_iterator(SCN_MOVE(i)), m_sentinel(SCN_MOVE(s))
  ------------------
  |  |  934|   284k|    static_cast<    \
  |  |  935|   284k|        typename ::scn::detail::remove_reference<decltype(x)>::type&&>(x)
  ------------------
                      : m_iterator(SCN_MOVE(i)), m_sentinel(SCN_MOVE(s))
  ------------------
  |  |  934|   284k|    static_cast<    \
  |  |  935|   284k|        typename ::scn::detail::remove_reference<decltype(x)>::type&&>(x)
  ------------------
 3465|   284k|    {
 3466|   284k|    }
_ZN3scn2v48expectedINS0_6ranges6detail9subrange_8subrangeIPKwS7_EENS0_10scan_errorEEC2IS8_vEEOT_:
 1569|  1.20k|        : base(std::in_place, std::forward<U>(val)),
 1570|  1.20k|          ctor_base(detail::non_default_ctor_tag_t{})
 1571|  1.20k|    {
 1572|  1.20k|    }
_ZN3scn2v46detail21expected_storage_baseINS0_6ranges6detail9subrange_8subrangeIPKwS8_EENS0_10scan_errorELb1EEC2IJS9_EvEENSt3__110in_place_tEDpOT_:
  440|  1.20k|        : m_value(std::forward<Args>(args)...), m_has_value(true)
  441|  1.20k|    {
  442|  1.20k|    }
_ZNK3scn2v424basic_scan_format_stringIwRNSt3__117basic_string_viewIwNS2_11char_traitsIwEEEEJwEEcvS6_Ev:
 8767|  10.2k|    {
 8768|  10.2k|        return m_str;
 8769|  10.2k|    }
_ZN3scn2v414make_scan_argsINS0_18basic_scan_contextINS0_6detail16buffer_range_tagEwEEJwEEEDaRNSt3__15tupleIJDpT0_EEE:
 6109|  10.2k|{
 6110|  10.2k|    detail::check_scan_arg_types<Args...>();
 6111|  10.2k|    return detail::scan_arg_store<Context, Args...>(values);
 6112|  10.2k|}
_ZN3scn2v46detail20check_scan_arg_typesIJwEEEbv:
 5824|  10.2k|{
 5825|  10.2k|    constexpr bool default_constructible_constraint =
 5826|  10.2k|        std::conjunction_v<std::is_default_constructible<Args>...>;
 5827|  10.2k|    static_assert(default_constructible_constraint,
 5828|  10.2k|                  "Scan argument types must be default constructible");
 5829|       |
 5830|  10.2k|    constexpr bool destructible_constraint =
 5831|  10.2k|        std::conjunction_v<std::is_destructible<Args>...>;
 5832|  10.2k|    static_assert(destructible_constraint,
 5833|  10.2k|                  "Scan argument types must be Destructible");
 5834|       |
 5835|  10.2k|    constexpr bool non_reference_constraint =
 5836|  10.2k|        !std::conjunction_v<std::false_type, std::is_reference<Args>...>;
 5837|  10.2k|    static_assert(non_reference_constraint,
 5838|  10.2k|                  "Scan argument types must not be references");
 5839|       |
 5840|  10.2k|    constexpr bool movable_constraint =
 5841|  10.2k|        std::conjunction_v<std::is_move_constructible<Args>...>;
 5842|  10.2k|    static_assert(movable_constraint,
 5843|  10.2k|                  "Scan argument types must be move constructible");
 5844|       |
 5845|  10.2k|    return default_constructible_constraint && destructible_constraint &&
  ------------------
  |  Branch (5845:12): [Folded - Ignored]
  |  Branch (5845:48): [Folded - Ignored]
  ------------------
 5846|  10.2k|           non_reference_constraint && movable_constraint;
  ------------------
  |  Branch (5846:12): [Folded - Ignored]
  |  Branch (5846:40): [Folded - Ignored]
  ------------------
 5847|  10.2k|}
_ZN3scn2v46detail14scan_arg_storeINS0_18basic_scan_contextINS1_16buffer_range_tagEwEEJwEEC2ERNSt3__15tupleIJwEEE:
 6085|  10.2k|        : args(std::apply(make_argptrs<Args...>, args))
 6086|  10.2k|    {
 6087|  10.2k|    }
_ZN3scn2v46detail14scan_arg_storeINS0_18basic_scan_contextINS1_16buffer_range_tagEwEEJwEE12make_argptrsIJwEEENSt3__15arrayIPvLm1EEEDpRT_:
 6094|  10.2k|    {
 6095|  10.2k|        return {detail::make_arg<
 6096|  10.2k|            kind, Context,
 6097|  10.2k|            mapped_type_constant<remove_cvref_t<A>,
 6098|  10.2k|                                 typename Context::char_type>::value>(args)...};
 6099|  10.2k|    }
_ZN3scn2v46detail8make_argILNS1_19scan_arg_store_kindE0ENS0_18basic_scan_contextINS1_16buffer_range_tagEwEELNS1_8arg_typeE13EwvEEPvRT2_:
 5874|  10.2k|{
 5875|  10.2k|    return make_value<Context>(value).ref_value;
 5876|  10.2k|}
_ZN3scn2v46detail10make_valueINS0_18basic_scan_contextINS1_16buffer_range_tagEwEEwEEDaRT0_:
 5809|  10.2k|{
 5810|  10.2k|    auto&& arg = arg_mapper<typename Context::char_type>().map(value);
 5811|       |
 5812|       |    if constexpr (!std::is_same_v<remove_cvref_t<decltype(arg)>,
 5813|  10.2k|                                  needs_context_tag>) {
 5814|  10.2k|        return make_value_impl<T>(SCN_FWD(arg));
  ------------------
  |  |  936|  10.2k|#define SCN_FWD(x)          static_cast<decltype(x)&&>(x)
  ------------------
 5815|       |    }
 5816|       |    else {
 5817|       |        return make_value_impl<T>(arg_mapper<typename Context::char_type>().map(
 5818|       |            value, context_tag<Context>{}));
 5819|       |    }
 5820|  10.2k|}
_ZN3scn2v46detail10arg_mapperIwE3mapERw:
 5648|  10.2k|    {                                                                        \
 5649|  10.2k|        return val;                                                          \
 5650|  10.2k|    }
_ZN3scn2v46detail15make_value_implIwRwEEDaOT0_:
 5778|  10.2k|{
 5779|  10.2k|    using arg_nocvref_t = remove_cvref_t<Arg>;
 5780|  10.2k|    static_assert(!std::is_same_v<arg_nocvref_t, needs_context_tag>);
 5781|       |
 5782|  10.2k|    constexpr bool scannable_char =
 5783|  10.2k|        !std::is_same_v<arg_nocvref_t, unscannable_char>;
 5784|  10.2k|    static_assert(scannable_char,
 5785|  10.2k|                  "Cannot scan an argument of an unsupported character "
 5786|  10.2k|                  "type (i.e. char from a wchar_t source)");
 5787|       |
 5788|  10.2k|    constexpr bool scannable_const =
 5789|  10.2k|        !std::is_same_v<arg_nocvref_t, unscannable_const>;
 5790|  10.2k|    static_assert(scannable_const, "Cannot scan a const argument");
 5791|       |
 5792|  10.2k|    constexpr bool scannable_disabled =
 5793|  10.2k|        !std::is_same_v<arg_nocvref_t, unscannable_disabled>;
 5794|  10.2k|    static_assert(scannable_disabled,
 5795|  10.2k|                  "Cannot scan an argument that has been disabled by "
 5796|  10.2k|                  "flag (SCN_DISABLE_TYPE_*)");
 5797|       |
 5798|  10.2k|    constexpr bool scannable = !std::is_same_v<arg_nocvref_t, unscannable>;
 5799|  10.2k|    static_assert(
 5800|  10.2k|        scannable,
 5801|  10.2k|        "Cannot scan an argument. To make a type T scannable, provide "
 5802|  10.2k|        "a scn::scanner<T, CharT> specialization.");
 5803|       |
 5804|  10.2k|    return arg_value{arg};
 5805|  10.2k|}
_ZN3scn2v46detail9arg_valueC2IwEERT_:
 5562|  10.2k|    explicit constexpr arg_value(T& val) : ref_value{std::addressof(val)}
 5563|  10.2k|    {
 5564|  10.2k|    }
_ZN3scn2v48expectedINS0_11scan_resultINS0_6ranges6detail9subrange_8subrangeIPKwS8_EEJwEEENS0_10scan_errorEEptEv:
 1814|  10.3k|    {
 1815|  10.3k|        return &value();
 1816|  10.3k|    }
_ZNR3scn2v48expectedINS0_11scan_resultINS0_6ranges6detail9subrange_8subrangeIPKwS8_EEJwEEENS0_10scan_errorEE5valueISA_TnPNSt3__19enable_ifIXntsr3stdE9is_void_vIT_EEvE4typeELPv0EEERSG_v:
 1768|  10.3k|    {
 1769|  10.3k|        SCN_EXPECT(has_value());
  ------------------
  |  |  930|  10.3k|#define SCN_EXPECT(cond) SCN_ASSERT(cond, "Precondition violation")
  |  |  ------------------
  |  |  |  |  927|  10.3k|#define SCN_ASSERT(cond, msg) assert((cond) && msg)
  |  |  ------------------
  ------------------
 1770|  10.3k|        return this->get_value();
 1771|  10.3k|    }
_ZNR3scn2v46detail25scan_result_value_storageIJwEE6valuesEv:
 6353|  10.2k|    {
 6354|  10.2k|        return m_values;
 6355|  10.2k|    }
_ZN3scn2v415basic_scan_argsINS0_18basic_scan_contextINS0_6detail16buffer_range_tagEwEEEC2IJwEEERKNS3_14scan_arg_storeIS5_JDpT_EEE:
 6135|  10.2k|        : basic_scan_args(store.desc, store.args.data())
 6136|  10.2k|    {
 6137|  10.2k|    }
_ZN3scn2v415basic_scan_argsINS0_18basic_scan_contextINS0_6detail16buffer_range_tagEwEEEC2EmPKPv:
 6187|  92.4k|        : m_desc(desc), m_builtin_values(data)
 6188|  92.4k|    {
 6189|  92.4k|    }
_ZN3scn2v414runtime_formatENSt3__117basic_string_viewIwNS1_11char_traitsIwEEEE:
 8445|  92.4k|{
 8446|  92.4k|    return s;
 8447|  92.4k|}
_ZN3scn2v46detail27basic_runtime_format_stringIwEC2ENSt3__117basic_string_viewIwNS4_11char_traitsIwEEEE:
 8417|  92.4k|    basic_runtime_format_string(std::basic_string_view<CharT> s) : str(s) {}
_ZN3scn2v424basic_scan_format_stringIwRNSt3__117basic_string_viewIwNS2_11char_traitsIwEEEEJwEEC2ENS0_6detail27basic_runtime_format_stringIwEE:
 8762|  10.2k|        : m_str(r.str)
 8763|  10.2k|    {
 8764|  10.2k|    }
_ZN3scn2v46detail23vscan_localized_genericINSt3__16localeERNS3_17basic_string_viewIwNS3_11char_traitsIwEEEEwEENS0_13scan_expectedINS3_11conditionalIXsr3stdE9is_same_vIu11__remove_cvIu20__remove_reference_tIT0_EEP8_IO_FILEEESG_NS1_22borrowed_tail_subrangeISC_Xsr6rangesE14borrowed_rangeISC_EEE4typeEE4typeEEERKT_OSC_NS5_IT1_NS6_ISR_EEEENS0_15basic_scan_argsINS0_18basic_scan_contextINS1_16buffer_range_tagESR_EEEE:
 9413|  46.2k|{
 9414|  46.2k|#if !SCN_DISABLE_LOCALE
 9415|  46.2k|    auto buffer = detail::make_scan_buffer(range);
 9416|       |
 9417|  46.2k|    SCN_CLANG_PUSH_IGNORE_UNDEFINED_TEMPLATE
 9418|  46.2k|    auto result = detail::vscan_localized_impl(loc, buffer, format, args);
 9419|  46.2k|    SCN_CLANG_POP_IGNORE_UNDEFINED_TEMPLATE
 9420|       |
 9421|  46.2k|    if (SCN_UNLIKELY(!result)) {
  ------------------
  |  |  865|  46.2k|#define SCN_UNLIKELY(x) __builtin_expect(!!(x), 0)
  |  |  ------------------
  |  |  |  Branch (865:25): [True: 45.6k, False: 603]
  |  |  ------------------
  ------------------
 9422|  45.6k|        return unexpected(result.error());
 9423|  45.6k|    }
 9424|    603|    return detail::make_vscan_result_range(SCN_FWD(range), *result);
  ------------------
  |  |  936|    603|#define SCN_FWD(x)          static_cast<decltype(x)&&>(x)
  ------------------
 9425|       |#else
 9426|       |    static_assert(dependent_false<Locale>::value,
 9427|       |                  "Can't use scan(locale, ...) with SCN_DISABLE_LOCALE on");
 9428|       |
 9429|       |    return {};
 9430|       |#endif
 9431|  46.2k|}
_ZN3scn2v416make_scan_resultIRNSt3__117basic_string_viewIwNS2_11char_traitsIwEEEEJiEEEDav:
 9636|  10.2k|{
 9637|  10.2k|    return scan_result_type<Source, Args...>();
 9638|  10.2k|}
_ZN3scn2v48expectedINS0_11scan_resultINS0_6ranges6detail9subrange_8subrangeIPKwS8_EEJiEEENS0_10scan_errorEEC2Ev:
 1551|  10.2k|    constexpr expected() = default;
_ZN3scn2v46detail21expected_storage_baseINS0_11scan_resultINS0_6ranges6detail9subrange_8subrangeIPKwS9_EEJiEEENS0_10scan_errorELb1EEC2Ev:
  426|  10.2k|        : m_value(T{}), m_has_value(true)
  427|  10.2k|    {
  428|  10.2k|    }
_ZN3scn2v411scan_resultINS0_6ranges6detail9subrange_8subrangeIPKwS7_EEJiEEC2Ev:
 6570|  10.2k|    constexpr scan_result() = default;
_ZN3scn2v416fill_scan_resultINS0_11scan_resultINS0_6ranges6detail9subrange_8subrangeIPKwS8_EEJiEEES9_TnPNSt3__19enable_ifIXsr3stdE13conjunction_vINS0_6detail25is_specialization_of_implIu11__remove_cvIu20__remove_reference_tIT_EES2_EENSB_7is_sameINSF_10range_typeET0_EEEEvE4typeELPv0EEEvRNS0_13scan_expectedISF_EEONSR_ISL_EE:
 9621|  10.2k|{
 9622|  10.2k|    if (SCN_UNLIKELY(!in)) {
  ------------------
  |  |  865|  10.2k|#define SCN_UNLIKELY(x) __builtin_expect(!!(x), 0)
  |  |  ------------------
  |  |  |  Branch (865:25): [True: 10.2k, False: 0]
  |  |  ------------------
  ------------------
 9623|  10.2k|        out = unexpected(in.error());
 9624|  10.2k|    }
 9625|      0|    else {
 9626|      0|        out->set_range(SCN_MOVE(*in));
  ------------------
  |  |  934|      0|    static_cast<    \
  |  |  935|      0|        typename ::scn::detail::remove_reference<decltype(x)>::type&&>(x)
  ------------------
 9627|      0|    }
 9628|  10.2k|}
_ZN3scn2v48expectedINS0_11scan_resultINS0_6ranges6detail9subrange_8subrangeIPKwS8_EEJiEEENS0_10scan_errorEEC2ISB_TnPNSt3__19enable_ifIXsr3stdE18is_constructible_vISB_OT_EEvE4typeELPv0ETnPNSF_IXsr3stdE16is_convertible_vISH_SB_EEvE4typeELSL_0EEEONS0_10unexpectedISG_EE:
 1615|  10.2k|        : base(unexpect, std::move(e.error())),
 1616|  10.2k|          ctor_base(detail::non_default_ctor_tag_t{})
 1617|  10.2k|    {
 1618|  10.2k|    }
_ZN3scn2v46detail21expected_storage_baseINS0_11scan_resultINS0_6ranges6detail9subrange_8subrangeIPKwS9_EEJiEEENS0_10scan_errorELb1EEC2IJSC_EvEENS0_10unexpect_tEDpOT_:
  449|  10.2k|        : m_unexpected(std::in_place, std::forward<Args>(args)...),
  450|  10.2k|          m_has_value(false)
  451|  10.2k|    {
  452|  10.2k|    }
_ZN3scn2v46detail26expected_default_ctor_baseINS0_11scan_resultINS0_6ranges6detail9subrange_8subrangeIPKwS9_EEJiEEENS0_10scan_errorELb1EEC2ENS1_22non_default_ctor_tag_tE:
 1315|  10.2k|    {
 1316|  10.2k|    }
_ZN3scn2v48expectedINS0_11scan_resultINS0_6ranges6detail9subrange_8subrangeIPKwS8_EEJiEEENS0_10scan_errorEEaSEOSC_:
 1556|  10.2k|    constexpr expected& operator=(expected&&) = default;
_ZN3scn2v46detail24expected_operations_baseINS0_11scan_resultINS0_6ranges6detail9subrange_8subrangeIPKwS9_EEJiEEENS0_10scan_errorEvEaSEOSD_:
  902|  10.2k|    {
  903|  10.2k|        assign_common(std::move(other));
  904|  10.2k|        return *this;
  905|  10.2k|    }
_ZN3scn2v46detail24expected_operations_baseINS0_11scan_resultINS0_6ranges6detail9subrange_8subrangeIPKwS9_EEJiEEENS0_10scan_errorEvE13assign_commonISD_EEvOT_:
  949|  10.2k|    {
  950|  10.2k|        if (this->has_value()) {
  ------------------
  |  Branch (950:13): [True: 10.2k, False: 0]
  ------------------
  951|  10.2k|            if (other.has_value()) {
  ------------------
  |  Branch (951:17): [True: 0, False: 10.2k]
  ------------------
  952|      0|                return reassign_value(std::forward<Other>(other));
  953|      0|            }
  954|  10.2k|            return assign_unexpected_over_value(std::forward<Other>(other));
  955|  10.2k|        }
  956|       |
  957|      0|        if (other.has_value()) {
  ------------------
  |  Branch (957:13): [True: 0, False: 0]
  ------------------
  958|      0|            return assign_value_over_unexpected(std::forward<Other>(other));
  959|      0|        }
  960|      0|        return reassign_unexpected(std::forward<Other>(other));
  961|      0|    }
_ZNK3scn2v46detail21expected_storage_baseINS0_11scan_resultINS0_6ranges6detail9subrange_8subrangeIPKwS9_EEJiEEENS0_10scan_errorELb1EE9has_valueEv:
  489|  30.8k|    {
  490|  30.8k|        return m_has_value;
  491|  30.8k|    }
_ZNR3scn2v46detail21expected_storage_baseINS0_11scan_resultINS0_6ranges6detail9subrange_8subrangeIPKwS9_EEJiEEENS0_10scan_errorELb1EE9get_valueEv:
  455|  10.2k|    {
  456|  10.2k|        return m_value;
  457|  10.2k|    }
_ZN3scn2v46detail24expected_operations_baseINS0_11scan_resultINS0_6ranges6detail9subrange_8subrangeIPKwS9_EEJiEEENS0_10scan_errorEvE28assign_unexpected_over_valueISD_EEvOT_:
 1045|  10.2k|    {
 1046|  10.2k|        this->destroy_value();
 1047|  10.2k|        this->construct_unexpected(std::forward<Other>(other).get_unexpected());
 1048|  10.2k|    }
_ZN3scn2v46detail21expected_storage_baseINS0_11scan_resultINS0_6ranges6detail9subrange_8subrangeIPKwS9_EEJiEEENS0_10scan_errorELb1EE13destroy_valueEv:
  510|  10.2k|    static constexpr void destroy_value() noexcept {}
_ZN3scn2v46detail21expected_storage_baseINS0_11scan_resultINS0_6ranges6detail9subrange_8subrangeIPKwS9_EEJiEEENS0_10scan_errorELb1EE20construct_unexpectedIJNS0_10unexpectedISC_EEEEEvDpOT_:
  503|  10.2k|    {
  504|  10.2k|        scn::detail::construct_at(&get_unexpected(),
  505|  10.2k|                                  std::forward<Args>(args)...);
  506|  10.2k|        m_has_value = false;
  507|  10.2k|    }
_ZNR3scn2v46detail21expected_storage_baseINS0_11scan_resultINS0_6ranges6detail9subrange_8subrangeIPKwS9_EEJiEEENS0_10scan_errorELb1EE14get_unexpectedEv:
  472|  10.2k|    {
  473|  10.2k|        return m_unexpected;
  474|  10.2k|    }
_ZNO3scn2v46detail21expected_storage_baseINS0_11scan_resultINS0_6ranges6detail9subrange_8subrangeIPKwS9_EEJiEEENS0_10scan_errorELb1EE14get_unexpectedEv:
  480|  10.2k|    {
  481|  10.2k|        return std::move(m_unexpected);
  482|  10.2k|    }
_ZNK3scn2v424basic_scan_format_stringIwRNSt3__117basic_string_viewIwNS2_11char_traitsIwEEEEJiEEcvS6_Ev:
 8767|  10.2k|    {
 8768|  10.2k|        return m_str;
 8769|  10.2k|    }
_ZN3scn2v414make_scan_argsINS0_18basic_scan_contextINS0_6detail16buffer_range_tagEwEEJiEEEDaRNSt3__15tupleIJDpT0_EEE:
 6109|  10.2k|{
 6110|  10.2k|    detail::check_scan_arg_types<Args...>();
 6111|  10.2k|    return detail::scan_arg_store<Context, Args...>(values);
 6112|  10.2k|}
_ZN3scn2v46detail14scan_arg_storeINS0_18basic_scan_contextINS1_16buffer_range_tagEwEEJiEEC2ERNSt3__15tupleIJiEEE:
 6085|  10.2k|        : args(std::apply(make_argptrs<Args...>, args))
 6086|  10.2k|    {
 6087|  10.2k|    }
_ZN3scn2v46detail14scan_arg_storeINS0_18basic_scan_contextINS1_16buffer_range_tagEwEEJiEE12make_argptrsIJiEEENSt3__15arrayIPvLm1EEEDpRT_:
 6094|  10.2k|    {
 6095|  10.2k|        return {detail::make_arg<
 6096|  10.2k|            kind, Context,
 6097|  10.2k|            mapped_type_constant<remove_cvref_t<A>,
 6098|  10.2k|                                 typename Context::char_type>::value>(args)...};
 6099|  10.2k|    }
_ZN3scn2v46detail8make_argILNS1_19scan_arg_store_kindE0ENS0_18basic_scan_contextINS1_16buffer_range_tagEwEELNS1_8arg_typeE3EivEEPvRT2_:
 5874|  10.2k|{
 5875|  10.2k|    return make_value<Context>(value).ref_value;
 5876|  10.2k|}
_ZN3scn2v46detail10make_valueINS0_18basic_scan_contextINS1_16buffer_range_tagEwEEiEEDaRT0_:
 5809|  10.2k|{
 5810|  10.2k|    auto&& arg = arg_mapper<typename Context::char_type>().map(value);
 5811|       |
 5812|       |    if constexpr (!std::is_same_v<remove_cvref_t<decltype(arg)>,
 5813|  10.2k|                                  needs_context_tag>) {
 5814|  10.2k|        return make_value_impl<T>(SCN_FWD(arg));
  ------------------
  |  |  936|  10.2k|#define SCN_FWD(x)          static_cast<decltype(x)&&>(x)
  ------------------
 5815|       |    }
 5816|       |    else {
 5817|       |        return make_value_impl<T>(arg_mapper<typename Context::char_type>().map(
 5818|       |            value, context_tag<Context>{}));
 5819|       |    }
 5820|  10.2k|}
_ZN3scn2v46detail10arg_mapperIwE3mapERi:
 5648|  10.2k|    {                                                                        \
 5649|  10.2k|        return val;                                                          \
 5650|  10.2k|    }
_ZN3scn2v48expectedINS0_11scan_resultINS0_6ranges6detail9subrange_8subrangeIPKwS8_EEJiEEENS0_10scan_errorEEptEv:
 1814|  10.2k|    {
 1815|  10.2k|        return &value();
 1816|  10.2k|    }
_ZNR3scn2v48expectedINS0_11scan_resultINS0_6ranges6detail9subrange_8subrangeIPKwS8_EEJiEEENS0_10scan_errorEE5valueISA_TnPNSt3__19enable_ifIXntsr3stdE9is_void_vIT_EEvE4typeELPv0EEERSG_v:
 1768|  10.2k|    {
 1769|  10.2k|        SCN_EXPECT(has_value());
  ------------------
  |  |  930|  10.2k|#define SCN_EXPECT(cond) SCN_ASSERT(cond, "Precondition violation")
  |  |  ------------------
  |  |  |  |  927|  10.2k|#define SCN_ASSERT(cond, msg) assert((cond) && msg)
  |  |  ------------------
  ------------------
 1770|  10.2k|        return this->get_value();
 1771|  10.2k|    }
_ZN3scn2v415basic_scan_argsINS0_18basic_scan_contextINS0_6detail16buffer_range_tagEwEEEC2IJiEEERKNS3_14scan_arg_storeIS5_JDpT_EEE:
 6135|  10.2k|        : basic_scan_args(store.desc, store.args.data())
 6136|  10.2k|    {
 6137|  10.2k|    }
_ZN3scn2v424basic_scan_format_stringIwRNSt3__117basic_string_viewIwNS2_11char_traitsIwEEEEJiEEC2ENS0_6detail27basic_runtime_format_stringIwEE:
 8762|  10.2k|        : m_str(r.str)
 8763|  10.2k|    {
 8764|  10.2k|    }
_ZN3scn2v416make_scan_resultIRNSt3__117basic_string_viewIwNS2_11char_traitsIwEEEEJjEEEDav:
 9636|  10.2k|{
 9637|  10.2k|    return scan_result_type<Source, Args...>();
 9638|  10.2k|}
_ZN3scn2v48expectedINS0_11scan_resultINS0_6ranges6detail9subrange_8subrangeIPKwS8_EEJjEEENS0_10scan_errorEEC2Ev:
 1551|  10.2k|    constexpr expected() = default;
_ZN3scn2v46detail21expected_storage_baseINS0_11scan_resultINS0_6ranges6detail9subrange_8subrangeIPKwS9_EEJjEEENS0_10scan_errorELb1EEC2Ev:
  426|  10.2k|        : m_value(T{}), m_has_value(true)
  427|  10.2k|    {
  428|  10.2k|    }
_ZN3scn2v411scan_resultINS0_6ranges6detail9subrange_8subrangeIPKwS7_EEJjEEC2Ev:
 6570|  10.2k|    constexpr scan_result() = default;
_ZN3scn2v416fill_scan_resultINS0_11scan_resultINS0_6ranges6detail9subrange_8subrangeIPKwS8_EEJjEEES9_TnPNSt3__19enable_ifIXsr3stdE13conjunction_vINS0_6detail25is_specialization_of_implIu11__remove_cvIu20__remove_reference_tIT_EES2_EENSB_7is_sameINSF_10range_typeET0_EEEEvE4typeELPv0EEEvRNS0_13scan_expectedISF_EEONSR_ISL_EE:
 9621|  10.2k|{
 9622|  10.2k|    if (SCN_UNLIKELY(!in)) {
  ------------------
  |  |  865|  10.2k|#define SCN_UNLIKELY(x) __builtin_expect(!!(x), 0)
  |  |  ------------------
  |  |  |  Branch (865:25): [True: 10.2k, False: 0]
  |  |  ------------------
  ------------------
 9623|  10.2k|        out = unexpected(in.error());
 9624|  10.2k|    }
 9625|      0|    else {
 9626|      0|        out->set_range(SCN_MOVE(*in));
  ------------------
  |  |  934|      0|    static_cast<    \
  |  |  935|      0|        typename ::scn::detail::remove_reference<decltype(x)>::type&&>(x)
  ------------------
 9627|      0|    }
 9628|  10.2k|}
_ZN3scn2v48expectedINS0_11scan_resultINS0_6ranges6detail9subrange_8subrangeIPKwS8_EEJjEEENS0_10scan_errorEEC2ISB_TnPNSt3__19enable_ifIXsr3stdE18is_constructible_vISB_OT_EEvE4typeELPv0ETnPNSF_IXsr3stdE16is_convertible_vISH_SB_EEvE4typeELSL_0EEEONS0_10unexpectedISG_EE:
 1615|  10.2k|        : base(unexpect, std::move(e.error())),
 1616|  10.2k|          ctor_base(detail::non_default_ctor_tag_t{})
 1617|  10.2k|    {
 1618|  10.2k|    }
_ZN3scn2v46detail21expected_storage_baseINS0_11scan_resultINS0_6ranges6detail9subrange_8subrangeIPKwS9_EEJjEEENS0_10scan_errorELb1EEC2IJSC_EvEENS0_10unexpect_tEDpOT_:
  449|  10.2k|        : m_unexpected(std::in_place, std::forward<Args>(args)...),
  450|  10.2k|          m_has_value(false)
  451|  10.2k|    {
  452|  10.2k|    }
_ZN3scn2v46detail26expected_default_ctor_baseINS0_11scan_resultINS0_6ranges6detail9subrange_8subrangeIPKwS9_EEJjEEENS0_10scan_errorELb1EEC2ENS1_22non_default_ctor_tag_tE:
 1315|  10.2k|    {
 1316|  10.2k|    }
_ZN3scn2v48expectedINS0_11scan_resultINS0_6ranges6detail9subrange_8subrangeIPKwS8_EEJjEEENS0_10scan_errorEEaSEOSC_:
 1556|  10.2k|    constexpr expected& operator=(expected&&) = default;
_ZN3scn2v46detail24expected_operations_baseINS0_11scan_resultINS0_6ranges6detail9subrange_8subrangeIPKwS9_EEJjEEENS0_10scan_errorEvEaSEOSD_:
  902|  10.2k|    {
  903|  10.2k|        assign_common(std::move(other));
  904|  10.2k|        return *this;
  905|  10.2k|    }
_ZN3scn2v46detail24expected_operations_baseINS0_11scan_resultINS0_6ranges6detail9subrange_8subrangeIPKwS9_EEJjEEENS0_10scan_errorEvE13assign_commonISD_EEvOT_:
  949|  10.2k|    {
  950|  10.2k|        if (this->has_value()) {
  ------------------
  |  Branch (950:13): [True: 10.2k, False: 0]
  ------------------
  951|  10.2k|            if (other.has_value()) {
  ------------------
  |  Branch (951:17): [True: 0, False: 10.2k]
  ------------------
  952|      0|                return reassign_value(std::forward<Other>(other));
  953|      0|            }
  954|  10.2k|            return assign_unexpected_over_value(std::forward<Other>(other));
  955|  10.2k|        }
  956|       |
  957|      0|        if (other.has_value()) {
  ------------------
  |  Branch (957:13): [True: 0, False: 0]
  ------------------
  958|      0|            return assign_value_over_unexpected(std::forward<Other>(other));
  959|      0|        }
  960|      0|        return reassign_unexpected(std::forward<Other>(other));
  961|      0|    }
_ZNK3scn2v46detail21expected_storage_baseINS0_11scan_resultINS0_6ranges6detail9subrange_8subrangeIPKwS9_EEJjEEENS0_10scan_errorELb1EE9has_valueEv:
  489|  30.8k|    {
  490|  30.8k|        return m_has_value;
  491|  30.8k|    }
_ZNR3scn2v46detail21expected_storage_baseINS0_11scan_resultINS0_6ranges6detail9subrange_8subrangeIPKwS9_EEJjEEENS0_10scan_errorELb1EE9get_valueEv:
  455|  10.2k|    {
  456|  10.2k|        return m_value;
  457|  10.2k|    }
_ZN3scn2v46detail24expected_operations_baseINS0_11scan_resultINS0_6ranges6detail9subrange_8subrangeIPKwS9_EEJjEEENS0_10scan_errorEvE28assign_unexpected_over_valueISD_EEvOT_:
 1045|  10.2k|    {
 1046|  10.2k|        this->destroy_value();
 1047|  10.2k|        this->construct_unexpected(std::forward<Other>(other).get_unexpected());
 1048|  10.2k|    }
_ZN3scn2v46detail21expected_storage_baseINS0_11scan_resultINS0_6ranges6detail9subrange_8subrangeIPKwS9_EEJjEEENS0_10scan_errorELb1EE13destroy_valueEv:
  510|  10.2k|    static constexpr void destroy_value() noexcept {}
_ZN3scn2v46detail21expected_storage_baseINS0_11scan_resultINS0_6ranges6detail9subrange_8subrangeIPKwS9_EEJjEEENS0_10scan_errorELb1EE20construct_unexpectedIJNS0_10unexpectedISC_EEEEEvDpOT_:
  503|  10.2k|    {
  504|  10.2k|        scn::detail::construct_at(&get_unexpected(),
  505|  10.2k|                                  std::forward<Args>(args)...);
  506|  10.2k|        m_has_value = false;
  507|  10.2k|    }
_ZNR3scn2v46detail21expected_storage_baseINS0_11scan_resultINS0_6ranges6detail9subrange_8subrangeIPKwS9_EEJjEEENS0_10scan_errorELb1EE14get_unexpectedEv:
  472|  10.2k|    {
  473|  10.2k|        return m_unexpected;
  474|  10.2k|    }
_ZNO3scn2v46detail21expected_storage_baseINS0_11scan_resultINS0_6ranges6detail9subrange_8subrangeIPKwS9_EEJjEEENS0_10scan_errorELb1EE14get_unexpectedEv:
  480|  10.2k|    {
  481|  10.2k|        return std::move(m_unexpected);
  482|  10.2k|    }
_ZNK3scn2v424basic_scan_format_stringIwRNSt3__117basic_string_viewIwNS2_11char_traitsIwEEEEJjEEcvS6_Ev:
 8767|  10.2k|    {
 8768|  10.2k|        return m_str;
 8769|  10.2k|    }
_ZN3scn2v414make_scan_argsINS0_18basic_scan_contextINS0_6detail16buffer_range_tagEwEEJjEEEDaRNSt3__15tupleIJDpT0_EEE:
 6109|  10.2k|{
 6110|  10.2k|    detail::check_scan_arg_types<Args...>();
 6111|  10.2k|    return detail::scan_arg_store<Context, Args...>(values);
 6112|  10.2k|}
_ZN3scn2v46detail14scan_arg_storeINS0_18basic_scan_contextINS1_16buffer_range_tagEwEEJjEEC2ERNSt3__15tupleIJjEEE:
 6085|  10.2k|        : args(std::apply(make_argptrs<Args...>, args))
 6086|  10.2k|    {
 6087|  10.2k|    }
_ZN3scn2v46detail14scan_arg_storeINS0_18basic_scan_contextINS1_16buffer_range_tagEwEEJjEE12make_argptrsIJjEEENSt3__15arrayIPvLm1EEEDpRT_:
 6094|  10.2k|    {
 6095|  10.2k|        return {detail::make_arg<
 6096|  10.2k|            kind, Context,
 6097|  10.2k|            mapped_type_constant<remove_cvref_t<A>,
 6098|  10.2k|                                 typename Context::char_type>::value>(args)...};
 6099|  10.2k|    }
_ZN3scn2v46detail8make_argILNS1_19scan_arg_store_kindE0ENS0_18basic_scan_contextINS1_16buffer_range_tagEwEELNS1_8arg_typeE8EjvEEPvRT2_:
 5874|  10.2k|{
 5875|  10.2k|    return make_value<Context>(value).ref_value;
 5876|  10.2k|}
_ZN3scn2v46detail10make_valueINS0_18basic_scan_contextINS1_16buffer_range_tagEwEEjEEDaRT0_:
 5809|  10.2k|{
 5810|  10.2k|    auto&& arg = arg_mapper<typename Context::char_type>().map(value);
 5811|       |
 5812|       |    if constexpr (!std::is_same_v<remove_cvref_t<decltype(arg)>,
 5813|  10.2k|                                  needs_context_tag>) {
 5814|  10.2k|        return make_value_impl<T>(SCN_FWD(arg));
  ------------------
  |  |  936|  10.2k|#define SCN_FWD(x)          static_cast<decltype(x)&&>(x)
  ------------------
 5815|       |    }
 5816|       |    else {
 5817|       |        return make_value_impl<T>(arg_mapper<typename Context::char_type>().map(
 5818|       |            value, context_tag<Context>{}));
 5819|       |    }
 5820|  10.2k|}
_ZN3scn2v46detail10arg_mapperIwE3mapERj:
 5648|  10.2k|    {                                                                        \
 5649|  10.2k|        return val;                                                          \
 5650|  10.2k|    }
_ZN3scn2v48expectedINS0_11scan_resultINS0_6ranges6detail9subrange_8subrangeIPKwS8_EEJjEEENS0_10scan_errorEEptEv:
 1814|  10.2k|    {
 1815|  10.2k|        return &value();
 1816|  10.2k|    }
_ZNR3scn2v48expectedINS0_11scan_resultINS0_6ranges6detail9subrange_8subrangeIPKwS8_EEJjEEENS0_10scan_errorEE5valueISA_TnPNSt3__19enable_ifIXntsr3stdE9is_void_vIT_EEvE4typeELPv0EEERSG_v:
 1768|  10.2k|    {
 1769|  10.2k|        SCN_EXPECT(has_value());
  ------------------
  |  |  930|  10.2k|#define SCN_EXPECT(cond) SCN_ASSERT(cond, "Precondition violation")
  |  |  ------------------
  |  |  |  |  927|  10.2k|#define SCN_ASSERT(cond, msg) assert((cond) && msg)
  |  |  ------------------
  ------------------
 1770|  10.2k|        return this->get_value();
 1771|  10.2k|    }
_ZN3scn2v415basic_scan_argsINS0_18basic_scan_contextINS0_6detail16buffer_range_tagEwEEEC2IJjEEERKNS3_14scan_arg_storeIS5_JDpT_EEE:
 6135|  10.2k|        : basic_scan_args(store.desc, store.args.data())
 6136|  10.2k|    {
 6137|  10.2k|    }
_ZN3scn2v424basic_scan_format_stringIwRNSt3__117basic_string_viewIwNS2_11char_traitsIwEEEEJjEEC2ENS0_6detail27basic_runtime_format_stringIwEE:
 8762|  10.2k|        : m_str(r.str)
 8763|  10.2k|    {
 8764|  10.2k|    }
_ZN3scn2v416make_scan_resultIRNSt3__117basic_string_viewIwNS2_11char_traitsIwEEEEJdEEEDav:
 9636|  10.2k|{
 9637|  10.2k|    return scan_result_type<Source, Args...>();
 9638|  10.2k|}
_ZN3scn2v48expectedINS0_11scan_resultINS0_6ranges6detail9subrange_8subrangeIPKwS8_EEJdEEENS0_10scan_errorEEC2Ev:
 1551|  10.2k|    constexpr expected() = default;
_ZN3scn2v46detail21expected_storage_baseINS0_11scan_resultINS0_6ranges6detail9subrange_8subrangeIPKwS9_EEJdEEENS0_10scan_errorELb1EEC2Ev:
  426|  10.2k|        : m_value(T{}), m_has_value(true)
  427|  10.2k|    {
  428|  10.2k|    }
_ZN3scn2v411scan_resultINS0_6ranges6detail9subrange_8subrangeIPKwS7_EEJdEEC2Ev:
 6570|  10.2k|    constexpr scan_result() = default;
_ZN3scn2v416fill_scan_resultINS0_11scan_resultINS0_6ranges6detail9subrange_8subrangeIPKwS8_EEJdEEES9_TnPNSt3__19enable_ifIXsr3stdE13conjunction_vINS0_6detail25is_specialization_of_implIu11__remove_cvIu20__remove_reference_tIT_EES2_EENSB_7is_sameINSF_10range_typeET0_EEEEvE4typeELPv0EEEvRNS0_13scan_expectedISF_EEONSR_ISL_EE:
 9621|  10.2k|{
 9622|  10.2k|    if (SCN_UNLIKELY(!in)) {
  ------------------
  |  |  865|  10.2k|#define SCN_UNLIKELY(x) __builtin_expect(!!(x), 0)
  |  |  ------------------
  |  |  |  Branch (865:25): [True: 10.2k, False: 0]
  |  |  ------------------
  ------------------
 9623|  10.2k|        out = unexpected(in.error());
 9624|  10.2k|    }
 9625|      0|    else {
 9626|      0|        out->set_range(SCN_MOVE(*in));
  ------------------
  |  |  934|      0|    static_cast<    \
  |  |  935|      0|        typename ::scn::detail::remove_reference<decltype(x)>::type&&>(x)
  ------------------
 9627|      0|    }
 9628|  10.2k|}
_ZN3scn2v48expectedINS0_11scan_resultINS0_6ranges6detail9subrange_8subrangeIPKwS8_EEJdEEENS0_10scan_errorEEC2ISB_TnPNSt3__19enable_ifIXsr3stdE18is_constructible_vISB_OT_EEvE4typeELPv0ETnPNSF_IXsr3stdE16is_convertible_vISH_SB_EEvE4typeELSL_0EEEONS0_10unexpectedISG_EE:
 1615|  10.2k|        : base(unexpect, std::move(e.error())),
 1616|  10.2k|          ctor_base(detail::non_default_ctor_tag_t{})
 1617|  10.2k|    {
 1618|  10.2k|    }
_ZN3scn2v46detail21expected_storage_baseINS0_11scan_resultINS0_6ranges6detail9subrange_8subrangeIPKwS9_EEJdEEENS0_10scan_errorELb1EEC2IJSC_EvEENS0_10unexpect_tEDpOT_:
  449|  10.2k|        : m_unexpected(std::in_place, std::forward<Args>(args)...),
  450|  10.2k|          m_has_value(false)
  451|  10.2k|    {
  452|  10.2k|    }
_ZN3scn2v46detail26expected_default_ctor_baseINS0_11scan_resultINS0_6ranges6detail9subrange_8subrangeIPKwS9_EEJdEEENS0_10scan_errorELb1EEC2ENS1_22non_default_ctor_tag_tE:
 1315|  10.2k|    {
 1316|  10.2k|    }
_ZN3scn2v48expectedINS0_11scan_resultINS0_6ranges6detail9subrange_8subrangeIPKwS8_EEJdEEENS0_10scan_errorEEaSEOSC_:
 1556|  10.2k|    constexpr expected& operator=(expected&&) = default;
_ZN3scn2v46detail24expected_operations_baseINS0_11scan_resultINS0_6ranges6detail9subrange_8subrangeIPKwS9_EEJdEEENS0_10scan_errorEvEaSEOSD_:
  902|  10.2k|    {
  903|  10.2k|        assign_common(std::move(other));
  904|  10.2k|        return *this;
  905|  10.2k|    }
_ZN3scn2v46detail24expected_operations_baseINS0_11scan_resultINS0_6ranges6detail9subrange_8subrangeIPKwS9_EEJdEEENS0_10scan_errorEvE13assign_commonISD_EEvOT_:
  949|  10.2k|    {
  950|  10.2k|        if (this->has_value()) {
  ------------------
  |  Branch (950:13): [True: 10.2k, False: 0]
  ------------------
  951|  10.2k|            if (other.has_value()) {
  ------------------
  |  Branch (951:17): [True: 0, False: 10.2k]
  ------------------
  952|      0|                return reassign_value(std::forward<Other>(other));
  953|      0|            }
  954|  10.2k|            return assign_unexpected_over_value(std::forward<Other>(other));
  955|  10.2k|        }
  956|       |
  957|      0|        if (other.has_value()) {
  ------------------
  |  Branch (957:13): [True: 0, False: 0]
  ------------------
  958|      0|            return assign_value_over_unexpected(std::forward<Other>(other));
  959|      0|        }
  960|      0|        return reassign_unexpected(std::forward<Other>(other));
  961|      0|    }
_ZNK3scn2v46detail21expected_storage_baseINS0_11scan_resultINS0_6ranges6detail9subrange_8subrangeIPKwS9_EEJdEEENS0_10scan_errorELb1EE9has_valueEv:
  489|  30.8k|    {
  490|  30.8k|        return m_has_value;
  491|  30.8k|    }
_ZNR3scn2v46detail21expected_storage_baseINS0_11scan_resultINS0_6ranges6detail9subrange_8subrangeIPKwS9_EEJdEEENS0_10scan_errorELb1EE9get_valueEv:
  455|  10.2k|    {
  456|  10.2k|        return m_value;
  457|  10.2k|    }
_ZN3scn2v46detail24expected_operations_baseINS0_11scan_resultINS0_6ranges6detail9subrange_8subrangeIPKwS9_EEJdEEENS0_10scan_errorEvE28assign_unexpected_over_valueISD_EEvOT_:
 1045|  10.2k|    {
 1046|  10.2k|        this->destroy_value();
 1047|  10.2k|        this->construct_unexpected(std::forward<Other>(other).get_unexpected());
 1048|  10.2k|    }
_ZN3scn2v46detail21expected_storage_baseINS0_11scan_resultINS0_6ranges6detail9subrange_8subrangeIPKwS9_EEJdEEENS0_10scan_errorELb1EE13destroy_valueEv:
  510|  10.2k|    static constexpr void destroy_value() noexcept {}
_ZN3scn2v46detail21expected_storage_baseINS0_11scan_resultINS0_6ranges6detail9subrange_8subrangeIPKwS9_EEJdEEENS0_10scan_errorELb1EE20construct_unexpectedIJNS0_10unexpectedISC_EEEEEvDpOT_:
  503|  10.2k|    {
  504|  10.2k|        scn::detail::construct_at(&get_unexpected(),
  505|  10.2k|                                  std::forward<Args>(args)...);
  506|  10.2k|        m_has_value = false;
  507|  10.2k|    }
_ZNR3scn2v46detail21expected_storage_baseINS0_11scan_resultINS0_6ranges6detail9subrange_8subrangeIPKwS9_EEJdEEENS0_10scan_errorELb1EE14get_unexpectedEv:
  472|  10.2k|    {
  473|  10.2k|        return m_unexpected;
  474|  10.2k|    }
_ZNO3scn2v46detail21expected_storage_baseINS0_11scan_resultINS0_6ranges6detail9subrange_8subrangeIPKwS9_EEJdEEENS0_10scan_errorELb1EE14get_unexpectedEv:
  480|  10.2k|    {
  481|  10.2k|        return std::move(m_unexpected);
  482|  10.2k|    }
_ZNK3scn2v424basic_scan_format_stringIwRNSt3__117basic_string_viewIwNS2_11char_traitsIwEEEEJdEEcvS6_Ev:
 8767|  10.2k|    {
 8768|  10.2k|        return m_str;
 8769|  10.2k|    }
_ZN3scn2v414make_scan_argsINS0_18basic_scan_contextINS0_6detail16buffer_range_tagEwEEJdEEEDaRNSt3__15tupleIJDpT0_EEE:
 6109|  10.2k|{
 6110|  10.2k|    detail::check_scan_arg_types<Args...>();
 6111|  10.2k|    return detail::scan_arg_store<Context, Args...>(values);
 6112|  10.2k|}
_ZN3scn2v46detail14scan_arg_storeINS0_18basic_scan_contextINS1_16buffer_range_tagEwEEJdEEC2ERNSt3__15tupleIJdEEE:
 6085|  10.2k|        : args(std::apply(make_argptrs<Args...>, args))
 6086|  10.2k|    {
 6087|  10.2k|    }
_ZN3scn2v46detail14scan_arg_storeINS0_18basic_scan_contextINS1_16buffer_range_tagEwEEJdEE12make_argptrsIJdEEENSt3__15arrayIPvLm1EEEDpRT_:
 6094|  10.2k|    {
 6095|  10.2k|        return {detail::make_arg<
 6096|  10.2k|            kind, Context,
 6097|  10.2k|            mapped_type_constant<remove_cvref_t<A>,
 6098|  10.2k|                                 typename Context::char_type>::value>(args)...};
 6099|  10.2k|    }
_ZN3scn2v46detail8make_argILNS1_19scan_arg_store_kindE0ENS0_18basic_scan_contextINS1_16buffer_range_tagEwEELNS1_8arg_typeE17EdvEEPvRT2_:
 5874|  10.2k|{
 5875|  10.2k|    return make_value<Context>(value).ref_value;
 5876|  10.2k|}
_ZN3scn2v46detail10make_valueINS0_18basic_scan_contextINS1_16buffer_range_tagEwEEdEEDaRT0_:
 5809|  10.2k|{
 5810|  10.2k|    auto&& arg = arg_mapper<typename Context::char_type>().map(value);
 5811|       |
 5812|       |    if constexpr (!std::is_same_v<remove_cvref_t<decltype(arg)>,
 5813|  10.2k|                                  needs_context_tag>) {
 5814|  10.2k|        return make_value_impl<T>(SCN_FWD(arg));
  ------------------
  |  |  936|  10.2k|#define SCN_FWD(x)          static_cast<decltype(x)&&>(x)
  ------------------
 5815|       |    }
 5816|       |    else {
 5817|       |        return make_value_impl<T>(arg_mapper<typename Context::char_type>().map(
 5818|       |            value, context_tag<Context>{}));
 5819|       |    }
 5820|  10.2k|}
_ZN3scn2v46detail10arg_mapperIwE3mapERd:
 5648|  10.2k|    {                                                                        \
 5649|  10.2k|        return val;                                                          \
 5650|  10.2k|    }
_ZN3scn2v48expectedINS0_11scan_resultINS0_6ranges6detail9subrange_8subrangeIPKwS8_EEJdEEENS0_10scan_errorEEptEv:
 1814|  10.2k|    {
 1815|  10.2k|        return &value();
 1816|  10.2k|    }
_ZNR3scn2v48expectedINS0_11scan_resultINS0_6ranges6detail9subrange_8subrangeIPKwS8_EEJdEEENS0_10scan_errorEE5valueISA_TnPNSt3__19enable_ifIXntsr3stdE9is_void_vIT_EEvE4typeELPv0EEERSG_v:
 1768|  10.2k|    {
 1769|  10.2k|        SCN_EXPECT(has_value());
  ------------------
  |  |  930|  10.2k|#define SCN_EXPECT(cond) SCN_ASSERT(cond, "Precondition violation")
  |  |  ------------------
  |  |  |  |  927|  10.2k|#define SCN_ASSERT(cond, msg) assert((cond) && msg)
  |  |  ------------------
  ------------------
 1770|  10.2k|        return this->get_value();
 1771|  10.2k|    }
_ZN3scn2v415basic_scan_argsINS0_18basic_scan_contextINS0_6detail16buffer_range_tagEwEEEC2IJdEEERKNS3_14scan_arg_storeIS5_JDpT_EEE:
 6135|  10.2k|        : basic_scan_args(store.desc, store.args.data())
 6136|  10.2k|    {
 6137|  10.2k|    }
_ZN3scn2v424basic_scan_format_stringIwRNSt3__117basic_string_viewIwNS2_11char_traitsIwEEEEJdEEC2ENS0_6detail27basic_runtime_format_stringIwEE:
 8762|  10.2k|        : m_str(r.str)
 8763|  10.2k|    {
 8764|  10.2k|    }
_ZN3scn2v416make_scan_resultIRNSt3__117basic_string_viewIwNS2_11char_traitsIwEEEEJbEEEDav:
 9636|  10.2k|{
 9637|  10.2k|    return scan_result_type<Source, Args...>();
 9638|  10.2k|}
_ZN3scn2v48expectedINS0_11scan_resultINS0_6ranges6detail9subrange_8subrangeIPKwS8_EEJbEEENS0_10scan_errorEEC2Ev:
 1551|  10.2k|    constexpr expected() = default;
_ZN3scn2v46detail21expected_storage_baseINS0_11scan_resultINS0_6ranges6detail9subrange_8subrangeIPKwS9_EEJbEEENS0_10scan_errorELb1EEC2Ev:
  426|  10.2k|        : m_value(T{}), m_has_value(true)
  427|  10.2k|    {
  428|  10.2k|    }
_ZN3scn2v411scan_resultINS0_6ranges6detail9subrange_8subrangeIPKwS7_EEJbEEC2Ev:
 6570|  10.2k|    constexpr scan_result() = default;
_ZN3scn2v416fill_scan_resultINS0_11scan_resultINS0_6ranges6detail9subrange_8subrangeIPKwS8_EEJbEEES9_TnPNSt3__19enable_ifIXsr3stdE13conjunction_vINS0_6detail25is_specialization_of_implIu11__remove_cvIu20__remove_reference_tIT_EES2_EENSB_7is_sameINSF_10range_typeET0_EEEEvE4typeELPv0EEEvRNS0_13scan_expectedISF_EEONSR_ISL_EE:
 9621|  10.2k|{
 9622|  10.2k|    if (SCN_UNLIKELY(!in)) {
  ------------------
  |  |  865|  10.2k|#define SCN_UNLIKELY(x) __builtin_expect(!!(x), 0)
  |  |  ------------------
  |  |  |  Branch (865:25): [True: 10.2k, False: 0]
  |  |  ------------------
  ------------------
 9623|  10.2k|        out = unexpected(in.error());
 9624|  10.2k|    }
 9625|      0|    else {
 9626|      0|        out->set_range(SCN_MOVE(*in));
  ------------------
  |  |  934|      0|    static_cast<    \
  |  |  935|      0|        typename ::scn::detail::remove_reference<decltype(x)>::type&&>(x)
  ------------------
 9627|      0|    }
 9628|  10.2k|}
_ZN3scn2v48expectedINS0_11scan_resultINS0_6ranges6detail9subrange_8subrangeIPKwS8_EEJbEEENS0_10scan_errorEEC2ISB_TnPNSt3__19enable_ifIXsr3stdE18is_constructible_vISB_OT_EEvE4typeELPv0ETnPNSF_IXsr3stdE16is_convertible_vISH_SB_EEvE4typeELSL_0EEEONS0_10unexpectedISG_EE:
 1615|  10.2k|        : base(unexpect, std::move(e.error())),
 1616|  10.2k|          ctor_base(detail::non_default_ctor_tag_t{})
 1617|  10.2k|    {
 1618|  10.2k|    }
_ZN3scn2v46detail21expected_storage_baseINS0_11scan_resultINS0_6ranges6detail9subrange_8subrangeIPKwS9_EEJbEEENS0_10scan_errorELb1EEC2IJSC_EvEENS0_10unexpect_tEDpOT_:
  449|  10.2k|        : m_unexpected(std::in_place, std::forward<Args>(args)...),
  450|  10.2k|          m_has_value(false)
  451|  10.2k|    {
  452|  10.2k|    }
_ZN3scn2v46detail26expected_default_ctor_baseINS0_11scan_resultINS0_6ranges6detail9subrange_8subrangeIPKwS9_EEJbEEENS0_10scan_errorELb1EEC2ENS1_22non_default_ctor_tag_tE:
 1315|  10.2k|    {
 1316|  10.2k|    }
_ZN3scn2v48expectedINS0_11scan_resultINS0_6ranges6detail9subrange_8subrangeIPKwS8_EEJbEEENS0_10scan_errorEEaSEOSC_:
 1556|  10.2k|    constexpr expected& operator=(expected&&) = default;
_ZN3scn2v46detail24expected_operations_baseINS0_11scan_resultINS0_6ranges6detail9subrange_8subrangeIPKwS9_EEJbEEENS0_10scan_errorEvEaSEOSD_:
  902|  10.2k|    {
  903|  10.2k|        assign_common(std::move(other));
  904|  10.2k|        return *this;
  905|  10.2k|    }
_ZN3scn2v46detail24expected_operations_baseINS0_11scan_resultINS0_6ranges6detail9subrange_8subrangeIPKwS9_EEJbEEENS0_10scan_errorEvE13assign_commonISD_EEvOT_:
  949|  10.2k|    {
  950|  10.2k|        if (this->has_value()) {
  ------------------
  |  Branch (950:13): [True: 10.2k, False: 0]
  ------------------
  951|  10.2k|            if (other.has_value()) {
  ------------------
  |  Branch (951:17): [True: 0, False: 10.2k]
  ------------------
  952|      0|                return reassign_value(std::forward<Other>(other));
  953|      0|            }
  954|  10.2k|            return assign_unexpected_over_value(std::forward<Other>(other));
  955|  10.2k|        }
  956|       |
  957|      0|        if (other.has_value()) {
  ------------------
  |  Branch (957:13): [True: 0, False: 0]
  ------------------
  958|      0|            return assign_value_over_unexpected(std::forward<Other>(other));
  959|      0|        }
  960|      0|        return reassign_unexpected(std::forward<Other>(other));
  961|      0|    }
_ZNK3scn2v46detail21expected_storage_baseINS0_11scan_resultINS0_6ranges6detail9subrange_8subrangeIPKwS9_EEJbEEENS0_10scan_errorELb1EE9has_valueEv:
  489|  30.8k|    {
  490|  30.8k|        return m_has_value;
  491|  30.8k|    }
_ZNR3scn2v46detail21expected_storage_baseINS0_11scan_resultINS0_6ranges6detail9subrange_8subrangeIPKwS9_EEJbEEENS0_10scan_errorELb1EE9get_valueEv:
  455|  10.2k|    {
  456|  10.2k|        return m_value;
  457|  10.2k|    }
_ZN3scn2v46detail24expected_operations_baseINS0_11scan_resultINS0_6ranges6detail9subrange_8subrangeIPKwS9_EEJbEEENS0_10scan_errorEvE28assign_unexpected_over_valueISD_EEvOT_:
 1045|  10.2k|    {
 1046|  10.2k|        this->destroy_value();
 1047|  10.2k|        this->construct_unexpected(std::forward<Other>(other).get_unexpected());
 1048|  10.2k|    }
_ZN3scn2v46detail21expected_storage_baseINS0_11scan_resultINS0_6ranges6detail9subrange_8subrangeIPKwS9_EEJbEEENS0_10scan_errorELb1EE13destroy_valueEv:
  510|  10.2k|    static constexpr void destroy_value() noexcept {}
_ZN3scn2v46detail21expected_storage_baseINS0_11scan_resultINS0_6ranges6detail9subrange_8subrangeIPKwS9_EEJbEEENS0_10scan_errorELb1EE20construct_unexpectedIJNS0_10unexpectedISC_EEEEEvDpOT_:
  503|  10.2k|    {
  504|  10.2k|        scn::detail::construct_at(&get_unexpected(),
  505|  10.2k|                                  std::forward<Args>(args)...);
  506|  10.2k|        m_has_value = false;
  507|  10.2k|    }
_ZNR3scn2v46detail21expected_storage_baseINS0_11scan_resultINS0_6ranges6detail9subrange_8subrangeIPKwS9_EEJbEEENS0_10scan_errorELb1EE14get_unexpectedEv:
  472|  10.2k|    {
  473|  10.2k|        return m_unexpected;
  474|  10.2k|    }
_ZNO3scn2v46detail21expected_storage_baseINS0_11scan_resultINS0_6ranges6detail9subrange_8subrangeIPKwS9_EEJbEEENS0_10scan_errorELb1EE14get_unexpectedEv:
  480|  10.2k|    {
  481|  10.2k|        return std::move(m_unexpected);
  482|  10.2k|    }
_ZNK3scn2v424basic_scan_format_stringIwRNSt3__117basic_string_viewIwNS2_11char_traitsIwEEEEJbEEcvS6_Ev:
 8767|  10.2k|    {
 8768|  10.2k|        return m_str;
 8769|  10.2k|    }
_ZN3scn2v414make_scan_argsINS0_18basic_scan_contextINS0_6detail16buffer_range_tagEwEEJbEEEDaRNSt3__15tupleIJDpT0_EEE:
 6109|  10.2k|{
 6110|  10.2k|    detail::check_scan_arg_types<Args...>();
 6111|  10.2k|    return detail::scan_arg_store<Context, Args...>(values);
 6112|  10.2k|}
_ZN3scn2v46detail14scan_arg_storeINS0_18basic_scan_contextINS1_16buffer_range_tagEwEEJbEEC2ERNSt3__15tupleIJbEEE:
 6085|  10.2k|        : args(std::apply(make_argptrs<Args...>, args))
 6086|  10.2k|    {
 6087|  10.2k|    }
_ZN3scn2v46detail14scan_arg_storeINS0_18basic_scan_contextINS1_16buffer_range_tagEwEEJbEE12make_argptrsIJbEEENSt3__15arrayIPvLm1EEEDpRT_:
 6094|  10.2k|    {
 6095|  10.2k|        return {detail::make_arg<
 6096|  10.2k|            kind, Context,
 6097|  10.2k|            mapped_type_constant<remove_cvref_t<A>,
 6098|  10.2k|                                 typename Context::char_type>::value>(args)...};
 6099|  10.2k|    }
_ZN3scn2v46detail8make_argILNS1_19scan_arg_store_kindE0ENS0_18basic_scan_contextINS1_16buffer_range_tagEwEELNS1_8arg_typeE11EbvEEPvRT2_:
 5874|  10.2k|{
 5875|  10.2k|    return make_value<Context>(value).ref_value;
 5876|  10.2k|}
_ZN3scn2v46detail10make_valueINS0_18basic_scan_contextINS1_16buffer_range_tagEwEEbEEDaRT0_:
 5809|  10.2k|{
 5810|  10.2k|    auto&& arg = arg_mapper<typename Context::char_type>().map(value);
 5811|       |
 5812|       |    if constexpr (!std::is_same_v<remove_cvref_t<decltype(arg)>,
 5813|  10.2k|                                  needs_context_tag>) {
 5814|  10.2k|        return make_value_impl<T>(SCN_FWD(arg));
  ------------------
  |  |  936|  10.2k|#define SCN_FWD(x)          static_cast<decltype(x)&&>(x)
  ------------------
 5815|       |    }
 5816|       |    else {
 5817|       |        return make_value_impl<T>(arg_mapper<typename Context::char_type>().map(
 5818|       |            value, context_tag<Context>{}));
 5819|       |    }
 5820|  10.2k|}
_ZN3scn2v46detail10arg_mapperIwE3mapERb:
 5648|  10.2k|    {                                                                        \
 5649|  10.2k|        return val;                                                          \
 5650|  10.2k|    }
_ZN3scn2v48expectedINS0_11scan_resultINS0_6ranges6detail9subrange_8subrangeIPKwS8_EEJbEEENS0_10scan_errorEEptEv:
 1814|  10.2k|    {
 1815|  10.2k|        return &value();
 1816|  10.2k|    }
_ZNR3scn2v48expectedINS0_11scan_resultINS0_6ranges6detail9subrange_8subrangeIPKwS8_EEJbEEENS0_10scan_errorEE5valueISA_TnPNSt3__19enable_ifIXntsr3stdE9is_void_vIT_EEvE4typeELPv0EEERSG_v:
 1768|  10.2k|    {
 1769|  10.2k|        SCN_EXPECT(has_value());
  ------------------
  |  |  930|  10.2k|#define SCN_EXPECT(cond) SCN_ASSERT(cond, "Precondition violation")
  |  |  ------------------
  |  |  |  |  927|  10.2k|#define SCN_ASSERT(cond, msg) assert((cond) && msg)
  |  |  ------------------
  ------------------
 1770|  10.2k|        return this->get_value();
 1771|  10.2k|    }
_ZN3scn2v415basic_scan_argsINS0_18basic_scan_contextINS0_6detail16buffer_range_tagEwEEEC2IJbEEERKNS3_14scan_arg_storeIS5_JDpT_EEE:
 6135|  10.2k|        : basic_scan_args(store.desc, store.args.data())
 6136|  10.2k|    {
 6137|  10.2k|    }
_ZN3scn2v424basic_scan_format_stringIwRNSt3__117basic_string_viewIwNS2_11char_traitsIwEEEEJbEEC2ENS0_6detail27basic_runtime_format_stringIwEE:
 8762|  10.2k|        : m_str(r.str)
 8763|  10.2k|    {
 8764|  10.2k|    }
_ZN3scn2v416make_scan_resultIRNSt3__117basic_string_viewIwNS2_11char_traitsIwEEEEJPvEEEDav:
 9636|  10.2k|{
 9637|  10.2k|    return scan_result_type<Source, Args...>();
 9638|  10.2k|}
_ZN3scn2v48expectedINS0_11scan_resultINS0_6ranges6detail9subrange_8subrangeIPKwS8_EEJPvEEENS0_10scan_errorEEC2Ev:
 1551|  10.2k|    constexpr expected() = default;
_ZN3scn2v46detail21expected_storage_baseINS0_11scan_resultINS0_6ranges6detail9subrange_8subrangeIPKwS9_EEJPvEEENS0_10scan_errorELb1EEC2Ev:
  426|  10.2k|        : m_value(T{}), m_has_value(true)
  427|  10.2k|    {
  428|  10.2k|    }
_ZN3scn2v411scan_resultINS0_6ranges6detail9subrange_8subrangeIPKwS7_EEJPvEEC2Ev:
 6570|  10.2k|    constexpr scan_result() = default;
_ZN3scn2v416fill_scan_resultINS0_11scan_resultINS0_6ranges6detail9subrange_8subrangeIPKwS8_EEJPvEEES9_TnPNSt3__19enable_ifIXsr3stdE13conjunction_vINS0_6detail25is_specialization_of_implIu11__remove_cvIu20__remove_reference_tIT_EES2_EENSC_7is_sameINSG_10range_typeET0_EEEEvE4typeELSA_0EEEvRNS0_13scan_expectedISG_EEONSR_ISM_EE:
 9621|  10.2k|{
 9622|  10.2k|    if (SCN_UNLIKELY(!in)) {
  ------------------
  |  |  865|  10.2k|#define SCN_UNLIKELY(x) __builtin_expect(!!(x), 0)
  |  |  ------------------
  |  |  |  Branch (865:25): [True: 10.2k, False: 0]
  |  |  ------------------
  ------------------
 9623|  10.2k|        out = unexpected(in.error());
 9624|  10.2k|    }
 9625|      0|    else {
 9626|      0|        out->set_range(SCN_MOVE(*in));
  ------------------
  |  |  934|      0|    static_cast<    \
  |  |  935|      0|        typename ::scn::detail::remove_reference<decltype(x)>::type&&>(x)
  ------------------
 9627|      0|    }
 9628|  10.2k|}
_ZN3scn2v48expectedINS0_11scan_resultINS0_6ranges6detail9subrange_8subrangeIPKwS8_EEJPvEEENS0_10scan_errorEEC2ISC_TnPNSt3__19enable_ifIXsr3stdE18is_constructible_vISC_OT_EEvE4typeELSA_0ETnPNSG_IXsr3stdE16is_convertible_vISI_SC_EEvE4typeELSA_0EEEONS0_10unexpectedISH_EE:
 1615|  10.2k|        : base(unexpect, std::move(e.error())),
 1616|  10.2k|          ctor_base(detail::non_default_ctor_tag_t{})
 1617|  10.2k|    {
 1618|  10.2k|    }
_ZN3scn2v46detail21expected_storage_baseINS0_11scan_resultINS0_6ranges6detail9subrange_8subrangeIPKwS9_EEJPvEEENS0_10scan_errorELb1EEC2IJSD_EvEENS0_10unexpect_tEDpOT_:
  449|  10.2k|        : m_unexpected(std::in_place, std::forward<Args>(args)...),
  450|  10.2k|          m_has_value(false)
  451|  10.2k|    {
  452|  10.2k|    }
_ZN3scn2v46detail26expected_default_ctor_baseINS0_11scan_resultINS0_6ranges6detail9subrange_8subrangeIPKwS9_EEJPvEEENS0_10scan_errorELb1EEC2ENS1_22non_default_ctor_tag_tE:
 1315|  10.2k|    {
 1316|  10.2k|    }
_ZN3scn2v48expectedINS0_11scan_resultINS0_6ranges6detail9subrange_8subrangeIPKwS8_EEJPvEEENS0_10scan_errorEEaSEOSD_:
 1556|  10.2k|    constexpr expected& operator=(expected&&) = default;
_ZN3scn2v46detail24expected_operations_baseINS0_11scan_resultINS0_6ranges6detail9subrange_8subrangeIPKwS9_EEJPvEEENS0_10scan_errorEvEaSEOSE_:
  902|  10.2k|    {
  903|  10.2k|        assign_common(std::move(other));
  904|  10.2k|        return *this;
  905|  10.2k|    }
_ZN3scn2v46detail24expected_operations_baseINS0_11scan_resultINS0_6ranges6detail9subrange_8subrangeIPKwS9_EEJPvEEENS0_10scan_errorEvE13assign_commonISE_EEvOT_:
  949|  10.2k|    {
  950|  10.2k|        if (this->has_value()) {
  ------------------
  |  Branch (950:13): [True: 10.2k, False: 0]
  ------------------
  951|  10.2k|            if (other.has_value()) {
  ------------------
  |  Branch (951:17): [True: 0, False: 10.2k]
  ------------------
  952|      0|                return reassign_value(std::forward<Other>(other));
  953|      0|            }
  954|  10.2k|            return assign_unexpected_over_value(std::forward<Other>(other));
  955|  10.2k|        }
  956|       |
  957|      0|        if (other.has_value()) {
  ------------------
  |  Branch (957:13): [True: 0, False: 0]
  ------------------
  958|      0|            return assign_value_over_unexpected(std::forward<Other>(other));
  959|      0|        }
  960|      0|        return reassign_unexpected(std::forward<Other>(other));
  961|      0|    }
_ZNK3scn2v46detail21expected_storage_baseINS0_11scan_resultINS0_6ranges6detail9subrange_8subrangeIPKwS9_EEJPvEEENS0_10scan_errorELb1EE9has_valueEv:
  489|  30.8k|    {
  490|  30.8k|        return m_has_value;
  491|  30.8k|    }
_ZNR3scn2v46detail21expected_storage_baseINS0_11scan_resultINS0_6ranges6detail9subrange_8subrangeIPKwS9_EEJPvEEENS0_10scan_errorELb1EE9get_valueEv:
  455|  10.2k|    {
  456|  10.2k|        return m_value;
  457|  10.2k|    }
_ZN3scn2v46detail24expected_operations_baseINS0_11scan_resultINS0_6ranges6detail9subrange_8subrangeIPKwS9_EEJPvEEENS0_10scan_errorEvE28assign_unexpected_over_valueISE_EEvOT_:
 1045|  10.2k|    {
 1046|  10.2k|        this->destroy_value();
 1047|  10.2k|        this->construct_unexpected(std::forward<Other>(other).get_unexpected());
 1048|  10.2k|    }
_ZN3scn2v46detail21expected_storage_baseINS0_11scan_resultINS0_6ranges6detail9subrange_8subrangeIPKwS9_EEJPvEEENS0_10scan_errorELb1EE13destroy_valueEv:
  510|  10.2k|    static constexpr void destroy_value() noexcept {}
_ZN3scn2v46detail21expected_storage_baseINS0_11scan_resultINS0_6ranges6detail9subrange_8subrangeIPKwS9_EEJPvEEENS0_10scan_errorELb1EE20construct_unexpectedIJNS0_10unexpectedISD_EEEEEvDpOT_:
  503|  10.2k|    {
  504|  10.2k|        scn::detail::construct_at(&get_unexpected(),
  505|  10.2k|                                  std::forward<Args>(args)...);
  506|  10.2k|        m_has_value = false;
  507|  10.2k|    }
_ZNR3scn2v46detail21expected_storage_baseINS0_11scan_resultINS0_6ranges6detail9subrange_8subrangeIPKwS9_EEJPvEEENS0_10scan_errorELb1EE14get_unexpectedEv:
  472|  10.2k|    {
  473|  10.2k|        return m_unexpected;
  474|  10.2k|    }
_ZNO3scn2v46detail21expected_storage_baseINS0_11scan_resultINS0_6ranges6detail9subrange_8subrangeIPKwS9_EEJPvEEENS0_10scan_errorELb1EE14get_unexpectedEv:
  480|  10.2k|    {
  481|  10.2k|        return std::move(m_unexpected);
  482|  10.2k|    }
_ZNK3scn2v424basic_scan_format_stringIwRNSt3__117basic_string_viewIwNS2_11char_traitsIwEEEEJPvEEcvS6_Ev:
 8767|  10.2k|    {
 8768|  10.2k|        return m_str;
 8769|  10.2k|    }
_ZN3scn2v414make_scan_argsINS0_18basic_scan_contextINS0_6detail16buffer_range_tagEwEEJPvEEEDaRNSt3__15tupleIJDpT0_EEE:
 6109|  10.2k|{
 6110|  10.2k|    detail::check_scan_arg_types<Args...>();
 6111|  10.2k|    return detail::scan_arg_store<Context, Args...>(values);
 6112|  10.2k|}
_ZN3scn2v46detail14scan_arg_storeINS0_18basic_scan_contextINS1_16buffer_range_tagEwEEJPvEEC2ERNSt3__15tupleIJS6_EEE:
 6085|  10.2k|        : args(std::apply(make_argptrs<Args...>, args))
 6086|  10.2k|    {
 6087|  10.2k|    }
_ZN3scn2v46detail14scan_arg_storeINS0_18basic_scan_contextINS1_16buffer_range_tagEwEEJPvEE12make_argptrsIJS6_EEENSt3__15arrayIS6_Lm1EEEDpRT_:
 6094|  10.2k|    {
 6095|  10.2k|        return {detail::make_arg<
 6096|  10.2k|            kind, Context,
 6097|  10.2k|            mapped_type_constant<remove_cvref_t<A>,
 6098|  10.2k|                                 typename Context::char_type>::value>(args)...};
 6099|  10.2k|    }
_ZN3scn2v46detail8make_argILNS1_19scan_arg_store_kindE0ENS0_18basic_scan_contextINS1_16buffer_range_tagEwEELNS1_8arg_typeE15EPvvEES8_RT2_:
 5874|  10.2k|{
 5875|  10.2k|    return make_value<Context>(value).ref_value;
 5876|  10.2k|}
_ZN3scn2v46detail10make_valueINS0_18basic_scan_contextINS1_16buffer_range_tagEwEEPvEEDaRT0_:
 5809|  10.2k|{
 5810|  10.2k|    auto&& arg = arg_mapper<typename Context::char_type>().map(value);
 5811|       |
 5812|       |    if constexpr (!std::is_same_v<remove_cvref_t<decltype(arg)>,
 5813|  10.2k|                                  needs_context_tag>) {
 5814|  10.2k|        return make_value_impl<T>(SCN_FWD(arg));
  ------------------
  |  |  936|  10.2k|#define SCN_FWD(x)          static_cast<decltype(x)&&>(x)
  ------------------
 5815|       |    }
 5816|       |    else {
 5817|       |        return make_value_impl<T>(arg_mapper<typename Context::char_type>().map(
 5818|       |            value, context_tag<Context>{}));
 5819|       |    }
 5820|  10.2k|}
_ZN3scn2v46detail10arg_mapperIwE3mapERPv:
 5648|  10.2k|    {                                                                        \
 5649|  10.2k|        return val;                                                          \
 5650|  10.2k|    }
_ZN3scn2v48expectedINS0_11scan_resultINS0_6ranges6detail9subrange_8subrangeIPKwS8_EEJPvEEENS0_10scan_errorEEptEv:
 1814|  10.2k|    {
 1815|  10.2k|        return &value();
 1816|  10.2k|    }
_ZNR3scn2v48expectedINS0_11scan_resultINS0_6ranges6detail9subrange_8subrangeIPKwS8_EEJPvEEENS0_10scan_errorEE5valueISB_TnPNSt3__19enable_ifIXntsr3stdE9is_void_vIT_EEvE4typeELSA_0EEERSH_v:
 1768|  10.2k|    {
 1769|  10.2k|        SCN_EXPECT(has_value());
  ------------------
  |  |  930|  10.2k|#define SCN_EXPECT(cond) SCN_ASSERT(cond, "Precondition violation")
  |  |  ------------------
  |  |  |  |  927|  10.2k|#define SCN_ASSERT(cond, msg) assert((cond) && msg)
  |  |  ------------------
  ------------------
 1770|  10.2k|        return this->get_value();
 1771|  10.2k|    }
_ZN3scn2v415basic_scan_argsINS0_18basic_scan_contextINS0_6detail16buffer_range_tagEwEEEC2IJPvEEERKNS3_14scan_arg_storeIS5_JDpT_EEE:
 6135|  10.2k|        : basic_scan_args(store.desc, store.args.data())
 6136|  10.2k|    {
 6137|  10.2k|    }
_ZN3scn2v424basic_scan_format_stringIwRNSt3__117basic_string_viewIwNS2_11char_traitsIwEEEEJPvEEC2ENS0_6detail27basic_runtime_format_stringIwEE:
 8762|  10.2k|        : m_str(r.str)
 8763|  10.2k|    {
 8764|  10.2k|    }
_ZN3scn2v416make_scan_resultIRNSt3__117basic_string_viewIwNS2_11char_traitsIwEEEEJNS2_12basic_stringIcNS4_IcEENS2_9allocatorIcEEEEEEEDav:
 9636|  10.2k|{
 9637|  10.2k|    return scan_result_type<Source, Args...>();
 9638|  10.2k|}
_ZN3scn2v48expectedINS0_11scan_resultINS0_6ranges6detail9subrange_8subrangeIPKwS8_EEJNSt3__112basic_stringIcNSA_11char_traitsIcEENSA_9allocatorIcEEEEEEENS0_10scan_errorEEC2Ev:
 1551|  10.2k|    constexpr expected() = default;
_ZN3scn2v46detail21expected_storage_baseINS0_11scan_resultINS0_6ranges6detail9subrange_8subrangeIPKwS9_EEJNSt3__112basic_stringIcNSB_11char_traitsIcEENSB_9allocatorIcEEEEEEENS0_10scan_errorELb0EEC2Ev:
  611|  10.2k|    constexpr expected_storage_base() noexcept : m_has_value(true)
  612|  10.2k|    {
  613|  10.2k|        construct();
  614|  10.2k|    }
_ZN3scn2v46detail21expected_storage_baseINS0_11scan_resultINS0_6ranges6detail9subrange_8subrangeIPKwS9_EEJNSt3__112basic_stringIcNSB_11char_traitsIcEENSB_9allocatorIcEEEEEEENS0_10scan_errorELb0EE9constructIJEEEvDpOT_:
  693|  10.2k|    {
  694|  10.2k|        scn::detail::construct_at(value_ptr(), std::forward<Args>(args)...);
  695|  10.2k|        m_has_value = true;
  696|  10.2k|    }
_ZN3scn2v46detail12construct_atINS0_11scan_resultINS0_6ranges6detail9subrange_8subrangeIPKwS9_EEJNSt3__112basic_stringIcNSB_11char_traitsIcEENSB_9allocatorIcEEEEEEEJEEEPT_SK_DpOT0_:
  395|  10.2k|{
  396|  10.2k|    return ::new (const_cast<void*>(static_cast<const volatile void*>(p)))
  397|  10.2k|        T(std::forward<Args>(args)...);
  398|  10.2k|}
_ZN3scn2v411scan_resultINS0_6ranges6detail9subrange_8subrangeIPKwS7_EEJNSt3__112basic_stringIcNS9_11char_traitsIcEENS9_9allocatorIcEEEEEEC2Ev:
 6570|  10.2k|    constexpr scan_result() = default;
_ZN3scn2v46detail21expected_storage_baseINS0_11scan_resultINS0_6ranges6detail9subrange_8subrangeIPKwS9_EEJNSt3__112basic_stringIcNSB_11char_traitsIcEENSB_9allocatorIcEEEEEEENS0_10scan_errorELb0EE9value_ptrEv:
  717|  31.1k|    {
  718|  31.1k|        return reinterpret_cast<T*>(SCN_ASSUME_ALIGNED(m_memory, alignof(T)));
  ------------------
  |  |  900|  31.1k|#define SCN_ASSUME_ALIGNED(x, n) __builtin_assume_aligned(x, n)
  ------------------
  719|  31.1k|    }
_ZN3scn2v416fill_scan_resultINS0_11scan_resultINS0_6ranges6detail9subrange_8subrangeIPKwS8_EEJNSt3__112basic_stringIcNSA_11char_traitsIcEENSA_9allocatorIcEEEEEEES9_TnPNSA_9enable_ifIXsr3stdE13conjunction_vINS0_6detail25is_specialization_of_implIu11__remove_cvIu20__remove_reference_tIT_EES2_EENSA_7is_sameINSL_10range_typeET0_EEEEvE4typeELPv0EEEvRNS0_13scan_expectedISL_EEONSX_ISR_EE:
 9621|  10.2k|{
 9622|  10.2k|    if (SCN_UNLIKELY(!in)) {
  ------------------
  |  |  865|  10.2k|#define SCN_UNLIKELY(x) __builtin_expect(!!(x), 0)
  |  |  ------------------
  |  |  |  Branch (865:25): [True: 9.90k, False: 364]
  |  |  ------------------
  ------------------
 9623|  9.90k|        out = unexpected(in.error());
 9624|  9.90k|    }
 9625|    364|    else {
 9626|    364|        out->set_range(SCN_MOVE(*in));
  ------------------
  |  |  934|    364|    static_cast<    \
  |  |  935|    364|        typename ::scn::detail::remove_reference<decltype(x)>::type&&>(x)
  ------------------
 9627|    364|    }
 9628|  10.2k|}
_ZN3scn2v48expectedINS0_11scan_resultINS0_6ranges6detail9subrange_8subrangeIPKwS8_EEJNSt3__112basic_stringIcNSA_11char_traitsIcEENSA_9allocatorIcEEEEEEENS0_10scan_errorEEC2ISI_TnPNSA_9enable_ifIXsr3stdE18is_constructible_vISI_OT_EEvE4typeELPv0ETnPNSL_IXsr3stdE16is_convertible_vISN_SI_EEvE4typeELSR_0EEEONS0_10unexpectedISM_EE:
 1615|  9.90k|        : base(unexpect, std::move(e.error())),
 1616|  9.90k|          ctor_base(detail::non_default_ctor_tag_t{})
 1617|  9.90k|    {
 1618|  9.90k|    }
_ZN3scn2v46detail21expected_storage_baseINS0_11scan_resultINS0_6ranges6detail9subrange_8subrangeIPKwS9_EEJNSt3__112basic_stringIcNSB_11char_traitsIcEENSB_9allocatorIcEEEEEEENS0_10scan_errorELb0EEC2IJSJ_EvEENS0_10unexpect_tEDpOT_:
  636|  9.90k|        : m_has_value(false)
  637|  9.90k|    {
  638|  9.90k|        construct_unexpected(std::in_place, std::forward<Args>(args)...);
  639|  9.90k|    }
_ZN3scn2v46detail21expected_storage_baseINS0_11scan_resultINS0_6ranges6detail9subrange_8subrangeIPKwS9_EEJNSt3__112basic_stringIcNSB_11char_traitsIcEENSB_9allocatorIcEEEEEEENS0_10scan_errorELb0EE20construct_unexpectedIJRKNSB_10in_place_tESJ_EEEvDpOT_:
  700|  9.90k|    {
  701|  9.90k|        scn::detail::construct_at(unexpected_ptr(),
  702|  9.90k|                                  std::forward<Args>(args)...);
  703|  9.90k|        m_has_value = false;
  704|  9.90k|    }
_ZN3scn2v46detail21expected_storage_baseINS0_11scan_resultINS0_6ranges6detail9subrange_8subrangeIPKwS9_EEJNSt3__112basic_stringIcNSB_11char_traitsIcEENSB_9allocatorIcEEEEEEENS0_10scan_errorELb0EE14unexpected_ptrEv:
  729|  49.5k|    {
  730|  49.5k|        return reinterpret_cast<unexpected<E>*>(
  731|  49.5k|            SCN_ASSUME_ALIGNED(m_memory, alignof(unexpected<E>)));
  ------------------
  |  |  900|  49.5k|#define SCN_ASSUME_ALIGNED(x, n) __builtin_assume_aligned(x, n)
  ------------------
  732|  49.5k|    }
_ZN3scn2v46detail26expected_default_ctor_baseINS0_11scan_resultINS0_6ranges6detail9subrange_8subrangeIPKwS9_EEJNSt3__112basic_stringIcNSB_11char_traitsIcEENSB_9allocatorIcEEEEEEENS0_10scan_errorELb1EEC2ENS1_22non_default_ctor_tag_tE:
 1315|  9.90k|    {
 1316|  9.90k|    }
_ZN3scn2v48expectedINS0_11scan_resultINS0_6ranges6detail9subrange_8subrangeIPKwS8_EEJNSt3__112basic_stringIcNSA_11char_traitsIcEENSA_9allocatorIcEEEEEEENS0_10scan_errorEEaSEOSJ_:
 1556|  9.90k|    constexpr expected& operator=(expected&&) = default;
_ZN3scn2v46detail24expected_operations_baseINS0_11scan_resultINS0_6ranges6detail9subrange_8subrangeIPKwS9_EEJNSt3__112basic_stringIcNSB_11char_traitsIcEENSB_9allocatorIcEEEEEEENS0_10scan_errorEvEaSEOSK_:
  902|  9.90k|    {
  903|  9.90k|        assign_common(std::move(other));
  904|  9.90k|        return *this;
  905|  9.90k|    }
_ZN3scn2v46detail24expected_operations_baseINS0_11scan_resultINS0_6ranges6detail9subrange_8subrangeIPKwS9_EEJNSt3__112basic_stringIcNSB_11char_traitsIcEENSB_9allocatorIcEEEEEEENS0_10scan_errorEvE13assign_commonISK_EEvOT_:
  949|  9.90k|    {
  950|  9.90k|        if (this->has_value()) {
  ------------------
  |  Branch (950:13): [True: 9.90k, False: 0]
  ------------------
  951|  9.90k|            if (other.has_value()) {
  ------------------
  |  Branch (951:17): [True: 0, False: 9.90k]
  ------------------
  952|      0|                return reassign_value(std::forward<Other>(other));
  953|      0|            }
  954|  9.90k|            return assign_unexpected_over_value(std::forward<Other>(other));
  955|  9.90k|        }
  956|       |
  957|      0|        if (other.has_value()) {
  ------------------
  |  Branch (957:13): [True: 0, False: 0]
  ------------------
  958|      0|            return assign_value_over_unexpected(std::forward<Other>(other));
  959|      0|        }
  960|      0|        return reassign_unexpected(std::forward<Other>(other));
  961|      0|    }
_ZNK3scn2v46detail21expected_storage_baseINS0_11scan_resultINS0_6ranges6detail9subrange_8subrangeIPKwS9_EEJNSt3__112basic_stringIcNSB_11char_traitsIcEENSB_9allocatorIcEEEEEEENS0_10scan_errorELb0EE9has_valueEv:
  686|  50.6k|    {
  687|  50.6k|        return m_has_value;
  688|  50.6k|    }
_ZNR3scn2v46detail21expected_storage_baseINS0_11scan_resultINS0_6ranges6detail9subrange_8subrangeIPKwS9_EEJNSt3__112basic_stringIcNSB_11char_traitsIcEENSB_9allocatorIcEEEEEEENS0_10scan_errorELb0EE9get_valueEv:
  652|  10.6k|    {
  653|  10.6k|        return *value_ptr();
  654|  10.6k|    }
_ZN3scn2v46detail24expected_operations_baseINS0_11scan_resultINS0_6ranges6detail9subrange_8subrangeIPKwS9_EEJNSt3__112basic_stringIcNSB_11char_traitsIcEENSB_9allocatorIcEEEEEEENS0_10scan_errorEvE28assign_unexpected_over_valueISK_EEvOT_:
 1045|  9.90k|    {
 1046|  9.90k|        this->destroy_value();
 1047|  9.90k|        this->construct_unexpected(std::forward<Other>(other).get_unexpected());
 1048|  9.90k|    }
_ZN3scn2v46detail21expected_storage_baseINS0_11scan_resultINS0_6ranges6detail9subrange_8subrangeIPKwS9_EEJNSt3__112basic_stringIcNSB_11char_traitsIcEENSB_9allocatorIcEEEEEEENS0_10scan_errorELb0EE13destroy_valueEv:
  707|  10.2k|    {
  708|  10.2k|        scn::detail::destroy_at(value_ptr());
  709|  10.2k|    }
_ZN3scn2v46detail10destroy_atINS0_11scan_resultINS0_6ranges6detail9subrange_8subrangeIPKwS9_EEJNSt3__112basic_stringIcNSB_11char_traitsIcEENSB_9allocatorIcEEEEEEEEEvPT_:
  401|  10.2k|{
  402|       |    if constexpr (std::is_array_v<T>) {
  403|       |        for (auto& elem : *p) {
  404|       |            scn::detail::destroy_at(&elem);
  405|       |        }
  406|       |    }
  407|  10.2k|    else {
  408|  10.2k|        p->~T();
  409|  10.2k|    }
  410|  10.2k|}
_ZN3scn2v411scan_resultINS0_6ranges6detail9subrange_8subrangeIPKwS7_EEJNSt3__112basic_stringIcNS9_11char_traitsIcEENS9_9allocatorIcEEEEEED2Ev:
 6577|  10.2k|    ~scan_result() = default;
_ZN3scn2v46detail21expected_storage_baseINS0_11scan_resultINS0_6ranges6detail9subrange_8subrangeIPKwS9_EEJNSt3__112basic_stringIcNSB_11char_traitsIcEENSB_9allocatorIcEEEEEEENS0_10scan_errorELb0EE20construct_unexpectedIJNS0_10unexpectedISJ_EEEEEvDpOT_:
  700|  9.90k|    {
  701|  9.90k|        scn::detail::construct_at(unexpected_ptr(),
  702|  9.90k|                                  std::forward<Args>(args)...);
  703|  9.90k|        m_has_value = false;
  704|  9.90k|    }
_ZNO3scn2v46detail21expected_storage_baseINS0_11scan_resultINS0_6ranges6detail9subrange_8subrangeIPKwS9_EEJNSt3__112basic_stringIcNSB_11char_traitsIcEENSB_9allocatorIcEEEEEEENS0_10scan_errorELb0EE14get_unexpectedEv:
  677|  9.90k|    {
  678|  9.90k|        return std::move(*unexpected_ptr());
  679|  9.90k|    }
_ZN3scn2v46detail21expected_storage_baseINS0_11scan_resultINS0_6ranges6detail9subrange_8subrangeIPKwS9_EEJNSt3__112basic_stringIcNSB_11char_traitsIcEENSB_9allocatorIcEEEEEEENS0_10scan_errorELb0EE18destroy_unexpectedEv:
  711|  19.8k|    {
  712|  19.8k|        scn::detail::destroy_at(unexpected_ptr());
  713|  19.8k|    }
_ZNK3scn2v424basic_scan_format_stringIwRNSt3__117basic_string_viewIwNS2_11char_traitsIwEEEEJNS2_12basic_stringIcNS4_IcEENS2_9allocatorIcEEEEEEcvS6_Ev:
 8767|  10.2k|    {
 8768|  10.2k|        return m_str;
 8769|  10.2k|    }
_ZN3scn2v414make_scan_argsINS0_18basic_scan_contextINS0_6detail16buffer_range_tagEwEEJNSt3__112basic_stringIcNS6_11char_traitsIcEENS6_9allocatorIcEEEEEEEDaRNS6_5tupleIJDpT0_EEE:
 6109|  10.2k|{
 6110|  10.2k|    detail::check_scan_arg_types<Args...>();
 6111|  10.2k|    return detail::scan_arg_store<Context, Args...>(values);
 6112|  10.2k|}
_ZN3scn2v46detail14scan_arg_storeINS0_18basic_scan_contextINS1_16buffer_range_tagEwEEJNSt3__112basic_stringIcNS6_11char_traitsIcEENS6_9allocatorIcEEEEEEC2ERNS6_5tupleIJSC_EEE:
 6085|  10.2k|        : args(std::apply(make_argptrs<Args...>, args))
 6086|  10.2k|    {
 6087|  10.2k|    }
_ZN3scn2v46detail14scan_arg_storeINS0_18basic_scan_contextINS1_16buffer_range_tagEwEEJNSt3__112basic_stringIcNS6_11char_traitsIcEENS6_9allocatorIcEEEEEE12make_argptrsIJSC_EEENS6_5arrayIPvLm1EEEDpRT_:
 6094|  10.2k|    {
 6095|  10.2k|        return {detail::make_arg<
 6096|  10.2k|            kind, Context,
 6097|  10.2k|            mapped_type_constant<remove_cvref_t<A>,
 6098|  10.2k|                                 typename Context::char_type>::value>(args)...};
 6099|  10.2k|    }
_ZN3scn2v46detail8make_argILNS1_19scan_arg_store_kindE0ENS0_18basic_scan_contextINS1_16buffer_range_tagEwEELNS1_8arg_typeE21ENSt3__112basic_stringIcNS8_11char_traitsIcEENS8_9allocatorIcEEEEvEEPvRT2_:
 5874|  10.2k|{
 5875|  10.2k|    return make_value<Context>(value).ref_value;
 5876|  10.2k|}
_ZN3scn2v46detail10make_valueINS0_18basic_scan_contextINS1_16buffer_range_tagEwEENSt3__112basic_stringIcNS6_11char_traitsIcEENS6_9allocatorIcEEEEEEDaRT0_:
 5809|  10.2k|{
 5810|  10.2k|    auto&& arg = arg_mapper<typename Context::char_type>().map(value);
 5811|       |
 5812|       |    if constexpr (!std::is_same_v<remove_cvref_t<decltype(arg)>,
 5813|  10.2k|                                  needs_context_tag>) {
 5814|  10.2k|        return make_value_impl<T>(SCN_FWD(arg));
  ------------------
  |  |  936|  10.2k|#define SCN_FWD(x)          static_cast<decltype(x)&&>(x)
  ------------------
 5815|       |    }
 5816|       |    else {
 5817|       |        return make_value_impl<T>(arg_mapper<typename Context::char_type>().map(
 5818|       |            value, context_tag<Context>{}));
 5819|       |    }
 5820|  10.2k|}
_ZN3scn2v46detail10arg_mapperIwE3mapERNSt3__112basic_stringIcNS4_11char_traitsIcEENS4_9allocatorIcEEEE:
 5648|  10.2k|    {                                                                        \
 5649|  10.2k|        return val;                                                          \
 5650|  10.2k|    }
_ZN3scn2v48expectedINS0_11scan_resultINS0_6ranges6detail9subrange_8subrangeIPKwS8_EEJNSt3__112basic_stringIcNSA_11char_traitsIcEENSA_9allocatorIcEEEEEEENS0_10scan_errorEEptEv:
 1814|  10.6k|    {
 1815|  10.6k|        return &value();
 1816|  10.6k|    }
_ZNR3scn2v48expectedINS0_11scan_resultINS0_6ranges6detail9subrange_8subrangeIPKwS8_EEJNSt3__112basic_stringIcNSA_11char_traitsIcEENSA_9allocatorIcEEEEEEENS0_10scan_errorEE5valueISH_TnPNSA_9enable_ifIXntsr3stdE9is_void_vIT_EEvE4typeELPv0EEERSM_v:
 1768|  10.6k|    {
 1769|  10.6k|        SCN_EXPECT(has_value());
  ------------------
  |  |  930|  10.6k|#define SCN_EXPECT(cond) SCN_ASSERT(cond, "Precondition violation")
  |  |  ------------------
  |  |  |  |  927|  10.6k|#define SCN_ASSERT(cond, msg) assert((cond) && msg)
  |  |  ------------------
  ------------------
 1770|  10.6k|        return this->get_value();
 1771|  10.6k|    }
_ZN3scn2v415basic_scan_argsINS0_18basic_scan_contextINS0_6detail16buffer_range_tagEwEEEC2IJNSt3__112basic_stringIcNS8_11char_traitsIcEENS8_9allocatorIcEEEEEEERKNS3_14scan_arg_storeIS5_JDpT_EEE:
 6135|  10.2k|        : basic_scan_args(store.desc, store.args.data())
 6136|  10.2k|    {
 6137|  10.2k|    }
_ZN3scn2v424basic_scan_format_stringIwRNSt3__117basic_string_viewIwNS2_11char_traitsIwEEEEJNS2_12basic_stringIcNS4_IcEENS2_9allocatorIcEEEEEEC2ENS0_6detail27basic_runtime_format_stringIwEE:
 8762|  10.2k|        : m_str(r.str)
 8763|  10.2k|    {
 8764|  10.2k|    }
_ZN3scn2v46detail21expected_storage_baseINS0_11scan_resultINS0_6ranges6detail9subrange_8subrangeIPKwS9_EEJNSt3__112basic_stringIcNSB_11char_traitsIcEENSB_9allocatorIcEEEEEEENS0_10scan_errorELb0EED2Ev:
  642|  20.1k|    {
  643|  20.1k|        if (has_value()) {
  ------------------
  |  Branch (643:13): [True: 364, False: 19.8k]
  ------------------
  644|    364|            destroy_value();
  645|    364|        }
  646|  19.8k|        else {
  647|  19.8k|            destroy_unexpected();
  648|  19.8k|        }
  649|  20.1k|    }
_ZN3scn2v416make_scan_resultIRNSt3__117basic_string_viewIwNS2_11char_traitsIwEEEEJNS2_12basic_stringIwS5_NS2_9allocatorIwEEEEEEEDav:
 9636|  10.2k|{
 9637|  10.2k|    return scan_result_type<Source, Args...>();
 9638|  10.2k|}
_ZN3scn2v48expectedINS0_11scan_resultINS0_6ranges6detail9subrange_8subrangeIPKwS8_EEJNSt3__112basic_stringIwNSA_11char_traitsIwEENSA_9allocatorIwEEEEEEENS0_10scan_errorEEC2Ev:
 1551|  10.2k|    constexpr expected() = default;
_ZN3scn2v46detail21expected_storage_baseINS0_11scan_resultINS0_6ranges6detail9subrange_8subrangeIPKwS9_EEJNSt3__112basic_stringIwNSB_11char_traitsIwEENSB_9allocatorIwEEEEEEENS0_10scan_errorELb0EEC2Ev:
  611|  10.2k|    constexpr expected_storage_base() noexcept : m_has_value(true)
  612|  10.2k|    {
  613|  10.2k|        construct();
  614|  10.2k|    }
_ZN3scn2v46detail21expected_storage_baseINS0_11scan_resultINS0_6ranges6detail9subrange_8subrangeIPKwS9_EEJNSt3__112basic_stringIwNSB_11char_traitsIwEENSB_9allocatorIwEEEEEEENS0_10scan_errorELb0EE9constructIJEEEvDpOT_:
  693|  10.2k|    {
  694|  10.2k|        scn::detail::construct_at(value_ptr(), std::forward<Args>(args)...);
  695|  10.2k|        m_has_value = true;
  696|  10.2k|    }
_ZN3scn2v46detail12construct_atINS0_11scan_resultINS0_6ranges6detail9subrange_8subrangeIPKwS9_EEJNSt3__112basic_stringIwNSB_11char_traitsIwEENSB_9allocatorIwEEEEEEEJEEEPT_SK_DpOT0_:
  395|  10.2k|{
  396|  10.2k|    return ::new (const_cast<void*>(static_cast<const volatile void*>(p)))
  397|  10.2k|        T(std::forward<Args>(args)...);
  398|  10.2k|}
_ZN3scn2v411scan_resultINS0_6ranges6detail9subrange_8subrangeIPKwS7_EEJNSt3__112basic_stringIwNS9_11char_traitsIwEENS9_9allocatorIwEEEEEEC2Ev:
 6570|  10.2k|    constexpr scan_result() = default;
_ZN3scn2v46detail21expected_storage_baseINS0_11scan_resultINS0_6ranges6detail9subrange_8subrangeIPKwS9_EEJNSt3__112basic_stringIwNSB_11char_traitsIwEENSB_9allocatorIwEEEEEEENS0_10scan_errorELb0EE9value_ptrEv:
  717|  31.1k|    {
  718|  31.1k|        return reinterpret_cast<T*>(SCN_ASSUME_ALIGNED(m_memory, alignof(T)));
  ------------------
  |  |  900|  31.1k|#define SCN_ASSUME_ALIGNED(x, n) __builtin_assume_aligned(x, n)
  ------------------
  719|  31.1k|    }
_ZN3scn2v416fill_scan_resultINS0_11scan_resultINS0_6ranges6detail9subrange_8subrangeIPKwS8_EEJNSt3__112basic_stringIwNSA_11char_traitsIwEENSA_9allocatorIwEEEEEEES9_TnPNSA_9enable_ifIXsr3stdE13conjunction_vINS0_6detail25is_specialization_of_implIu11__remove_cvIu20__remove_reference_tIT_EES2_EENSA_7is_sameINSL_10range_typeET0_EEEEvE4typeELPv0EEEvRNS0_13scan_expectedISL_EEONSX_ISR_EE:
 9621|  10.2k|{
 9622|  10.2k|    if (SCN_UNLIKELY(!in)) {
  ------------------
  |  |  865|  10.2k|#define SCN_UNLIKELY(x) __builtin_expect(!!(x), 0)
  |  |  ------------------
  |  |  |  Branch (865:25): [True: 9.90k, False: 364]
  |  |  ------------------
  ------------------
 9623|  9.90k|        out = unexpected(in.error());
 9624|  9.90k|    }
 9625|    364|    else {
 9626|    364|        out->set_range(SCN_MOVE(*in));
  ------------------
  |  |  934|    364|    static_cast<    \
  |  |  935|    364|        typename ::scn::detail::remove_reference<decltype(x)>::type&&>(x)
  ------------------
 9627|    364|    }
 9628|  10.2k|}
_ZN3scn2v48expectedINS0_11scan_resultINS0_6ranges6detail9subrange_8subrangeIPKwS8_EEJNSt3__112basic_stringIwNSA_11char_traitsIwEENSA_9allocatorIwEEEEEEENS0_10scan_errorEEC2ISI_TnPNSA_9enable_ifIXsr3stdE18is_constructible_vISI_OT_EEvE4typeELPv0ETnPNSL_IXsr3stdE16is_convertible_vISN_SI_EEvE4typeELSR_0EEEONS0_10unexpectedISM_EE:
 1615|  9.90k|        : base(unexpect, std::move(e.error())),
 1616|  9.90k|          ctor_base(detail::non_default_ctor_tag_t{})
 1617|  9.90k|    {
 1618|  9.90k|    }
_ZN3scn2v46detail21expected_storage_baseINS0_11scan_resultINS0_6ranges6detail9subrange_8subrangeIPKwS9_EEJNSt3__112basic_stringIwNSB_11char_traitsIwEENSB_9allocatorIwEEEEEEENS0_10scan_errorELb0EEC2IJSJ_EvEENS0_10unexpect_tEDpOT_:
  636|  9.90k|        : m_has_value(false)
  637|  9.90k|    {
  638|  9.90k|        construct_unexpected(std::in_place, std::forward<Args>(args)...);
  639|  9.90k|    }
_ZN3scn2v46detail21expected_storage_baseINS0_11scan_resultINS0_6ranges6detail9subrange_8subrangeIPKwS9_EEJNSt3__112basic_stringIwNSB_11char_traitsIwEENSB_9allocatorIwEEEEEEENS0_10scan_errorELb0EE20construct_unexpectedIJRKNSB_10in_place_tESJ_EEEvDpOT_:
  700|  9.90k|    {
  701|  9.90k|        scn::detail::construct_at(unexpected_ptr(),
  702|  9.90k|                                  std::forward<Args>(args)...);
  703|  9.90k|        m_has_value = false;
  704|  9.90k|    }
_ZN3scn2v46detail21expected_storage_baseINS0_11scan_resultINS0_6ranges6detail9subrange_8subrangeIPKwS9_EEJNSt3__112basic_stringIwNSB_11char_traitsIwEENSB_9allocatorIwEEEEEEENS0_10scan_errorELb0EE14unexpected_ptrEv:
  729|  49.5k|    {
  730|  49.5k|        return reinterpret_cast<unexpected<E>*>(
  731|  49.5k|            SCN_ASSUME_ALIGNED(m_memory, alignof(unexpected<E>)));
  ------------------
  |  |  900|  49.5k|#define SCN_ASSUME_ALIGNED(x, n) __builtin_assume_aligned(x, n)
  ------------------
  732|  49.5k|    }
_ZN3scn2v46detail26expected_default_ctor_baseINS0_11scan_resultINS0_6ranges6detail9subrange_8subrangeIPKwS9_EEJNSt3__112basic_stringIwNSB_11char_traitsIwEENSB_9allocatorIwEEEEEEENS0_10scan_errorELb1EEC2ENS1_22non_default_ctor_tag_tE:
 1315|  9.90k|    {
 1316|  9.90k|    }
_ZN3scn2v48expectedINS0_11scan_resultINS0_6ranges6detail9subrange_8subrangeIPKwS8_EEJNSt3__112basic_stringIwNSA_11char_traitsIwEENSA_9allocatorIwEEEEEEENS0_10scan_errorEEaSEOSJ_:
 1556|  9.90k|    constexpr expected& operator=(expected&&) = default;
_ZN3scn2v46detail24expected_operations_baseINS0_11scan_resultINS0_6ranges6detail9subrange_8subrangeIPKwS9_EEJNSt3__112basic_stringIwNSB_11char_traitsIwEENSB_9allocatorIwEEEEEEENS0_10scan_errorEvEaSEOSK_:
  902|  9.90k|    {
  903|  9.90k|        assign_common(std::move(other));
  904|  9.90k|        return *this;
  905|  9.90k|    }
_ZN3scn2v46detail24expected_operations_baseINS0_11scan_resultINS0_6ranges6detail9subrange_8subrangeIPKwS9_EEJNSt3__112basic_stringIwNSB_11char_traitsIwEENSB_9allocatorIwEEEEEEENS0_10scan_errorEvE13assign_commonISK_EEvOT_:
  949|  9.90k|    {
  950|  9.90k|        if (this->has_value()) {
  ------------------
  |  Branch (950:13): [True: 9.90k, False: 0]
  ------------------
  951|  9.90k|            if (other.has_value()) {
  ------------------
  |  Branch (951:17): [True: 0, False: 9.90k]
  ------------------
  952|      0|                return reassign_value(std::forward<Other>(other));
  953|      0|            }
  954|  9.90k|            return assign_unexpected_over_value(std::forward<Other>(other));
  955|  9.90k|        }
  956|       |
  957|      0|        if (other.has_value()) {
  ------------------
  |  Branch (957:13): [True: 0, False: 0]
  ------------------
  958|      0|            return assign_value_over_unexpected(std::forward<Other>(other));
  959|      0|        }
  960|      0|        return reassign_unexpected(std::forward<Other>(other));
  961|      0|    }
_ZNK3scn2v46detail21expected_storage_baseINS0_11scan_resultINS0_6ranges6detail9subrange_8subrangeIPKwS9_EEJNSt3__112basic_stringIwNSB_11char_traitsIwEENSB_9allocatorIwEEEEEEENS0_10scan_errorELb0EE9has_valueEv:
  686|  50.6k|    {
  687|  50.6k|        return m_has_value;
  688|  50.6k|    }
_ZNR3scn2v46detail21expected_storage_baseINS0_11scan_resultINS0_6ranges6detail9subrange_8subrangeIPKwS9_EEJNSt3__112basic_stringIwNSB_11char_traitsIwEENSB_9allocatorIwEEEEEEENS0_10scan_errorELb0EE9get_valueEv:
  652|  10.6k|    {
  653|  10.6k|        return *value_ptr();
  654|  10.6k|    }
_ZN3scn2v46detail24expected_operations_baseINS0_11scan_resultINS0_6ranges6detail9subrange_8subrangeIPKwS9_EEJNSt3__112basic_stringIwNSB_11char_traitsIwEENSB_9allocatorIwEEEEEEENS0_10scan_errorEvE28assign_unexpected_over_valueISK_EEvOT_:
 1045|  9.90k|    {
 1046|  9.90k|        this->destroy_value();
 1047|  9.90k|        this->construct_unexpected(std::forward<Other>(other).get_unexpected());
 1048|  9.90k|    }
_ZN3scn2v46detail21expected_storage_baseINS0_11scan_resultINS0_6ranges6detail9subrange_8subrangeIPKwS9_EEJNSt3__112basic_stringIwNSB_11char_traitsIwEENSB_9allocatorIwEEEEEEENS0_10scan_errorELb0EE13destroy_valueEv:
  707|  10.2k|    {
  708|  10.2k|        scn::detail::destroy_at(value_ptr());
  709|  10.2k|    }
_ZN3scn2v46detail10destroy_atINS0_11scan_resultINS0_6ranges6detail9subrange_8subrangeIPKwS9_EEJNSt3__112basic_stringIwNSB_11char_traitsIwEENSB_9allocatorIwEEEEEEEEEvPT_:
  401|  10.2k|{
  402|       |    if constexpr (std::is_array_v<T>) {
  403|       |        for (auto& elem : *p) {
  404|       |            scn::detail::destroy_at(&elem);
  405|       |        }
  406|       |    }
  407|  10.2k|    else {
  408|  10.2k|        p->~T();
  409|  10.2k|    }
  410|  10.2k|}
_ZN3scn2v411scan_resultINS0_6ranges6detail9subrange_8subrangeIPKwS7_EEJNSt3__112basic_stringIwNS9_11char_traitsIwEENS9_9allocatorIwEEEEEED2Ev:
 6577|  10.2k|    ~scan_result() = default;
_ZN3scn2v46detail21expected_storage_baseINS0_11scan_resultINS0_6ranges6detail9subrange_8subrangeIPKwS9_EEJNSt3__112basic_stringIwNSB_11char_traitsIwEENSB_9allocatorIwEEEEEEENS0_10scan_errorELb0EE20construct_unexpectedIJNS0_10unexpectedISJ_EEEEEvDpOT_:
  700|  9.90k|    {
  701|  9.90k|        scn::detail::construct_at(unexpected_ptr(),
  702|  9.90k|                                  std::forward<Args>(args)...);
  703|  9.90k|        m_has_value = false;
  704|  9.90k|    }
_ZNO3scn2v46detail21expected_storage_baseINS0_11scan_resultINS0_6ranges6detail9subrange_8subrangeIPKwS9_EEJNSt3__112basic_stringIwNSB_11char_traitsIwEENSB_9allocatorIwEEEEEEENS0_10scan_errorELb0EE14get_unexpectedEv:
  677|  9.90k|    {
  678|  9.90k|        return std::move(*unexpected_ptr());
  679|  9.90k|    }
_ZN3scn2v46detail21expected_storage_baseINS0_11scan_resultINS0_6ranges6detail9subrange_8subrangeIPKwS9_EEJNSt3__112basic_stringIwNSB_11char_traitsIwEENSB_9allocatorIwEEEEEEENS0_10scan_errorELb0EE18destroy_unexpectedEv:
  711|  19.8k|    {
  712|  19.8k|        scn::detail::destroy_at(unexpected_ptr());
  713|  19.8k|    }
_ZNK3scn2v424basic_scan_format_stringIwRNSt3__117basic_string_viewIwNS2_11char_traitsIwEEEEJNS2_12basic_stringIwS5_NS2_9allocatorIwEEEEEEcvS6_Ev:
 8767|  10.2k|    {
 8768|  10.2k|        return m_str;
 8769|  10.2k|    }
_ZN3scn2v414make_scan_argsINS0_18basic_scan_contextINS0_6detail16buffer_range_tagEwEEJNSt3__112basic_stringIwNS6_11char_traitsIwEENS6_9allocatorIwEEEEEEEDaRNS6_5tupleIJDpT0_EEE:
 6109|  10.2k|{
 6110|  10.2k|    detail::check_scan_arg_types<Args...>();
 6111|  10.2k|    return detail::scan_arg_store<Context, Args...>(values);
 6112|  10.2k|}
_ZN3scn2v46detail14scan_arg_storeINS0_18basic_scan_contextINS1_16buffer_range_tagEwEEJNSt3__112basic_stringIwNS6_11char_traitsIwEENS6_9allocatorIwEEEEEEC2ERNS6_5tupleIJSC_EEE:
 6085|  10.2k|        : args(std::apply(make_argptrs<Args...>, args))
 6086|  10.2k|    {
 6087|  10.2k|    }
_ZN3scn2v46detail14scan_arg_storeINS0_18basic_scan_contextINS1_16buffer_range_tagEwEEJNSt3__112basic_stringIwNS6_11char_traitsIwEENS6_9allocatorIwEEEEEE12make_argptrsIJSC_EEENS6_5arrayIPvLm1EEEDpRT_:
 6094|  10.2k|    {
 6095|  10.2k|        return {detail::make_arg<
 6096|  10.2k|            kind, Context,
 6097|  10.2k|            mapped_type_constant<remove_cvref_t<A>,
 6098|  10.2k|                                 typename Context::char_type>::value>(args)...};
 6099|  10.2k|    }
_ZN3scn2v46detail8make_argILNS1_19scan_arg_store_kindE0ENS0_18basic_scan_contextINS1_16buffer_range_tagEwEELNS1_8arg_typeE22ENSt3__112basic_stringIwNS8_11char_traitsIwEENS8_9allocatorIwEEEEvEEPvRT2_:
 5874|  10.2k|{
 5875|  10.2k|    return make_value<Context>(value).ref_value;
 5876|  10.2k|}
_ZN3scn2v46detail10make_valueINS0_18basic_scan_contextINS1_16buffer_range_tagEwEENSt3__112basic_stringIwNS6_11char_traitsIwEENS6_9allocatorIwEEEEEEDaRT0_:
 5809|  10.2k|{
 5810|  10.2k|    auto&& arg = arg_mapper<typename Context::char_type>().map(value);
 5811|       |
 5812|       |    if constexpr (!std::is_same_v<remove_cvref_t<decltype(arg)>,
 5813|  10.2k|                                  needs_context_tag>) {
 5814|  10.2k|        return make_value_impl<T>(SCN_FWD(arg));
  ------------------
  |  |  936|  10.2k|#define SCN_FWD(x)          static_cast<decltype(x)&&>(x)
  ------------------
 5815|       |    }
 5816|       |    else {
 5817|       |        return make_value_impl<T>(arg_mapper<typename Context::char_type>().map(
 5818|       |            value, context_tag<Context>{}));
 5819|       |    }
 5820|  10.2k|}
_ZN3scn2v46detail10arg_mapperIwE3mapERNSt3__112basic_stringIwNS4_11char_traitsIwEENS4_9allocatorIwEEEE:
 5648|  10.2k|    {                                                                        \
 5649|  10.2k|        return val;                                                          \
 5650|  10.2k|    }
_ZN3scn2v48expectedINS0_11scan_resultINS0_6ranges6detail9subrange_8subrangeIPKwS8_EEJNSt3__112basic_stringIwNSA_11char_traitsIwEENSA_9allocatorIwEEEEEEENS0_10scan_errorEEptEv:
 1814|  10.6k|    {
 1815|  10.6k|        return &value();
 1816|  10.6k|    }
_ZNR3scn2v48expectedINS0_11scan_resultINS0_6ranges6detail9subrange_8subrangeIPKwS8_EEJNSt3__112basic_stringIwNSA_11char_traitsIwEENSA_9allocatorIwEEEEEEENS0_10scan_errorEE5valueISH_TnPNSA_9enable_ifIXntsr3stdE9is_void_vIT_EEvE4typeELPv0EEERSM_v:
 1768|  10.6k|    {
 1769|  10.6k|        SCN_EXPECT(has_value());
  ------------------
  |  |  930|  10.6k|#define SCN_EXPECT(cond) SCN_ASSERT(cond, "Precondition violation")
  |  |  ------------------
  |  |  |  |  927|  10.6k|#define SCN_ASSERT(cond, msg) assert((cond) && msg)
  |  |  ------------------
  ------------------
 1770|  10.6k|        return this->get_value();
 1771|  10.6k|    }
_ZN3scn2v415basic_scan_argsINS0_18basic_scan_contextINS0_6detail16buffer_range_tagEwEEEC2IJNSt3__112basic_stringIwNS8_11char_traitsIwEENS8_9allocatorIwEEEEEEERKNS3_14scan_arg_storeIS5_JDpT_EEE:
 6135|  10.2k|        : basic_scan_args(store.desc, store.args.data())
 6136|  10.2k|    {
 6137|  10.2k|    }
_ZN3scn2v424basic_scan_format_stringIwRNSt3__117basic_string_viewIwNS2_11char_traitsIwEEEEJNS2_12basic_stringIwS5_NS2_9allocatorIwEEEEEEC2ENS0_6detail27basic_runtime_format_stringIwEE:
 8762|  10.2k|        : m_str(r.str)
 8763|  10.2k|    {
 8764|  10.2k|    }
_ZN3scn2v46detail21expected_storage_baseINS0_11scan_resultINS0_6ranges6detail9subrange_8subrangeIPKwS9_EEJNSt3__112basic_stringIwNSB_11char_traitsIwEENSB_9allocatorIwEEEEEEENS0_10scan_errorELb0EED2Ev:
  642|  20.1k|    {
  643|  20.1k|        if (has_value()) {
  ------------------
  |  Branch (643:13): [True: 364, False: 19.8k]
  ------------------
  644|    364|            destroy_value();
  645|    364|        }
  646|  19.8k|        else {
  647|  19.8k|            destroy_unexpected();
  648|  19.8k|        }
  649|  20.1k|    }
_ZN3scn2v416make_scan_resultIRNSt3__117basic_string_viewIwNS2_11char_traitsIwEEEEJS6_EEEDav:
 9636|  10.2k|{
 9637|  10.2k|    return scan_result_type<Source, Args...>();
 9638|  10.2k|}
_ZN3scn2v48expectedINS0_11scan_resultINS0_6ranges6detail9subrange_8subrangeIPKwS8_EEJNSt3__117basic_string_viewIwNSA_11char_traitsIwEEEEEEENS0_10scan_errorEEC2Ev:
 1551|  10.2k|    constexpr expected() = default;
_ZN3scn2v46detail21expected_storage_baseINS0_11scan_resultINS0_6ranges6detail9subrange_8subrangeIPKwS9_EEJNSt3__117basic_string_viewIwNSB_11char_traitsIwEEEEEEENS0_10scan_errorELb1EEC2Ev:
  426|  10.2k|        : m_value(T{}), m_has_value(true)
  427|  10.2k|    {
  428|  10.2k|    }
_ZN3scn2v411scan_resultINS0_6ranges6detail9subrange_8subrangeIPKwS7_EEJNSt3__117basic_string_viewIwNS9_11char_traitsIwEEEEEEC2Ev:
 6570|  10.2k|    constexpr scan_result() = default;
_ZN3scn2v46detail25scan_result_value_storageIJNSt3__117basic_string_viewIwNS3_11char_traitsIwEEEEEEC2Ev:
 6344|  10.2k|    constexpr scan_result_value_storage() = default;
_ZN3scn2v416fill_scan_resultINS0_11scan_resultINS0_6ranges6detail9subrange_8subrangeIPKwS8_EEJNSt3__117basic_string_viewIwNSA_11char_traitsIwEEEEEEES9_TnPNSA_9enable_ifIXsr3stdE13conjunction_vINS0_6detail25is_specialization_of_implIu11__remove_cvIu20__remove_reference_tIT_EES2_EENSA_7is_sameINSJ_10range_typeET0_EEEEvE4typeELPv0EEEvRNS0_13scan_expectedISJ_EEONSV_ISP_EE:
 9621|  10.2k|{
 9622|  10.2k|    if (SCN_UNLIKELY(!in)) {
  ------------------
  |  |  865|  10.2k|#define SCN_UNLIKELY(x) __builtin_expect(!!(x), 0)
  |  |  ------------------
  |  |  |  Branch (865:25): [True: 9.90k, False: 364]
  |  |  ------------------
  ------------------
 9623|  9.90k|        out = unexpected(in.error());
 9624|  9.90k|    }
 9625|    364|    else {
 9626|    364|        out->set_range(SCN_MOVE(*in));
  ------------------
  |  |  934|    364|    static_cast<    \
  |  |  935|    364|        typename ::scn::detail::remove_reference<decltype(x)>::type&&>(x)
  ------------------
 9627|    364|    }
 9628|  10.2k|}
_ZN3scn2v48expectedINS0_11scan_resultINS0_6ranges6detail9subrange_8subrangeIPKwS8_EEJNSt3__117basic_string_viewIwNSA_11char_traitsIwEEEEEEENS0_10scan_errorEEC2ISG_TnPNSA_9enable_ifIXsr3stdE18is_constructible_vISG_OT_EEvE4typeELPv0ETnPNSJ_IXsr3stdE16is_convertible_vISL_SG_EEvE4typeELSP_0EEEONS0_10unexpectedISK_EE:
 1615|  9.90k|        : base(unexpect, std::move(e.error())),
 1616|  9.90k|          ctor_base(detail::non_default_ctor_tag_t{})
 1617|  9.90k|    {
 1618|  9.90k|    }
_ZN3scn2v46detail21expected_storage_baseINS0_11scan_resultINS0_6ranges6detail9subrange_8subrangeIPKwS9_EEJNSt3__117basic_string_viewIwNSB_11char_traitsIwEEEEEEENS0_10scan_errorELb1EEC2IJSH_EvEENS0_10unexpect_tEDpOT_:
  449|  9.90k|        : m_unexpected(std::in_place, std::forward<Args>(args)...),
  450|  9.90k|          m_has_value(false)
  451|  9.90k|    {
  452|  9.90k|    }
_ZN3scn2v46detail26expected_default_ctor_baseINS0_11scan_resultINS0_6ranges6detail9subrange_8subrangeIPKwS9_EEJNSt3__117basic_string_viewIwNSB_11char_traitsIwEEEEEEENS0_10scan_errorELb1EEC2ENS1_22non_default_ctor_tag_tE:
 1315|  9.90k|    {
 1316|  9.90k|    }
_ZN3scn2v48expectedINS0_11scan_resultINS0_6ranges6detail9subrange_8subrangeIPKwS8_EEJNSt3__117basic_string_viewIwNSA_11char_traitsIwEEEEEEENS0_10scan_errorEEaSEOSH_:
 1556|  9.90k|    constexpr expected& operator=(expected&&) = default;
_ZN3scn2v46detail24expected_operations_baseINS0_11scan_resultINS0_6ranges6detail9subrange_8subrangeIPKwS9_EEJNSt3__117basic_string_viewIwNSB_11char_traitsIwEEEEEEENS0_10scan_errorEvEaSEOSI_:
  902|  9.90k|    {
  903|  9.90k|        assign_common(std::move(other));
  904|  9.90k|        return *this;
  905|  9.90k|    }
_ZN3scn2v46detail24expected_operations_baseINS0_11scan_resultINS0_6ranges6detail9subrange_8subrangeIPKwS9_EEJNSt3__117basic_string_viewIwNSB_11char_traitsIwEEEEEEENS0_10scan_errorEvE13assign_commonISI_EEvOT_:
  949|  9.90k|    {
  950|  9.90k|        if (this->has_value()) {
  ------------------
  |  Branch (950:13): [True: 9.90k, False: 0]
  ------------------
  951|  9.90k|            if (other.has_value()) {
  ------------------
  |  Branch (951:17): [True: 0, False: 9.90k]
  ------------------
  952|      0|                return reassign_value(std::forward<Other>(other));
  953|      0|            }
  954|  9.90k|            return assign_unexpected_over_value(std::forward<Other>(other));
  955|  9.90k|        }
  956|       |
  957|      0|        if (other.has_value()) {
  ------------------
  |  Branch (957:13): [True: 0, False: 0]
  ------------------
  958|      0|            return assign_value_over_unexpected(std::forward<Other>(other));
  959|      0|        }
  960|      0|        return reassign_unexpected(std::forward<Other>(other));
  961|      0|    }
_ZNK3scn2v46detail21expected_storage_baseINS0_11scan_resultINS0_6ranges6detail9subrange_8subrangeIPKwS9_EEJNSt3__117basic_string_viewIwNSB_11char_traitsIwEEEEEEENS0_10scan_errorELb1EE9has_valueEv:
  489|  30.4k|    {
  490|  30.4k|        return m_has_value;
  491|  30.4k|    }
_ZNR3scn2v46detail21expected_storage_baseINS0_11scan_resultINS0_6ranges6detail9subrange_8subrangeIPKwS9_EEJNSt3__117basic_string_viewIwNSB_11char_traitsIwEEEEEEENS0_10scan_errorELb1EE9get_valueEv:
  455|  10.6k|    {
  456|  10.6k|        return m_value;
  457|  10.6k|    }
_ZN3scn2v46detail24expected_operations_baseINS0_11scan_resultINS0_6ranges6detail9subrange_8subrangeIPKwS9_EEJNSt3__117basic_string_viewIwNSB_11char_traitsIwEEEEEEENS0_10scan_errorEvE28assign_unexpected_over_valueISI_EEvOT_:
 1045|  9.90k|    {
 1046|  9.90k|        this->destroy_value();
 1047|  9.90k|        this->construct_unexpected(std::forward<Other>(other).get_unexpected());
 1048|  9.90k|    }
_ZN3scn2v46detail21expected_storage_baseINS0_11scan_resultINS0_6ranges6detail9subrange_8subrangeIPKwS9_EEJNSt3__117basic_string_viewIwNSB_11char_traitsIwEEEEEEENS0_10scan_errorELb1EE13destroy_valueEv:
  510|  9.90k|    static constexpr void destroy_value() noexcept {}
_ZN3scn2v46detail21expected_storage_baseINS0_11scan_resultINS0_6ranges6detail9subrange_8subrangeIPKwS9_EEJNSt3__117basic_string_viewIwNSB_11char_traitsIwEEEEEEENS0_10scan_errorELb1EE20construct_unexpectedIJNS0_10unexpectedISH_EEEEEvDpOT_:
  503|  9.90k|    {
  504|  9.90k|        scn::detail::construct_at(&get_unexpected(),
  505|  9.90k|                                  std::forward<Args>(args)...);
  506|  9.90k|        m_has_value = false;
  507|  9.90k|    }
_ZNR3scn2v46detail21expected_storage_baseINS0_11scan_resultINS0_6ranges6detail9subrange_8subrangeIPKwS9_EEJNSt3__117basic_string_viewIwNSB_11char_traitsIwEEEEEEENS0_10scan_errorELb1EE14get_unexpectedEv:
  472|  9.90k|    {
  473|  9.90k|        return m_unexpected;
  474|  9.90k|    }
_ZNO3scn2v46detail21expected_storage_baseINS0_11scan_resultINS0_6ranges6detail9subrange_8subrangeIPKwS9_EEJNSt3__117basic_string_viewIwNSB_11char_traitsIwEEEEEEENS0_10scan_errorELb1EE14get_unexpectedEv:
  480|  9.90k|    {
  481|  9.90k|        return std::move(m_unexpected);
  482|  9.90k|    }
_ZNK3scn2v424basic_scan_format_stringIwRNSt3__117basic_string_viewIwNS2_11char_traitsIwEEEEJS6_EEcvS6_Ev:
 8767|  10.2k|    {
 8768|  10.2k|        return m_str;
 8769|  10.2k|    }
_ZN3scn2v414make_scan_argsINS0_18basic_scan_contextINS0_6detail16buffer_range_tagEwEEJNSt3__117basic_string_viewIwNS6_11char_traitsIwEEEEEEEDaRNS6_5tupleIJDpT0_EEE:
 6109|  10.2k|{
 6110|  10.2k|    detail::check_scan_arg_types<Args...>();
 6111|  10.2k|    return detail::scan_arg_store<Context, Args...>(values);
 6112|  10.2k|}
_ZN3scn2v46detail20check_scan_arg_typesIJNSt3__117basic_string_viewIwNS3_11char_traitsIwEEEEEEEbv:
 5824|  10.2k|{
 5825|  10.2k|    constexpr bool default_constructible_constraint =
 5826|  10.2k|        std::conjunction_v<std::is_default_constructible<Args>...>;
 5827|  10.2k|    static_assert(default_constructible_constraint,
 5828|  10.2k|                  "Scan argument types must be default constructible");
 5829|       |
 5830|  10.2k|    constexpr bool destructible_constraint =
 5831|  10.2k|        std::conjunction_v<std::is_destructible<Args>...>;
 5832|  10.2k|    static_assert(destructible_constraint,
 5833|  10.2k|                  "Scan argument types must be Destructible");
 5834|       |
 5835|  10.2k|    constexpr bool non_reference_constraint =
 5836|  10.2k|        !std::conjunction_v<std::false_type, std::is_reference<Args>...>;
 5837|  10.2k|    static_assert(non_reference_constraint,
 5838|  10.2k|                  "Scan argument types must not be references");
 5839|       |
 5840|  10.2k|    constexpr bool movable_constraint =
 5841|  10.2k|        std::conjunction_v<std::is_move_constructible<Args>...>;
 5842|  10.2k|    static_assert(movable_constraint,
 5843|  10.2k|                  "Scan argument types must be move constructible");
 5844|       |
 5845|  10.2k|    return default_constructible_constraint && destructible_constraint &&
  ------------------
  |  Branch (5845:12): [Folded - Ignored]
  |  Branch (5845:48): [Folded - Ignored]
  ------------------
 5846|  10.2k|           non_reference_constraint && movable_constraint;
  ------------------
  |  Branch (5846:12): [Folded - Ignored]
  |  Branch (5846:40): [Folded - Ignored]
  ------------------
 5847|  10.2k|}
_ZN3scn2v46detail14scan_arg_storeINS0_18basic_scan_contextINS1_16buffer_range_tagEwEEJNSt3__117basic_string_viewIwNS6_11char_traitsIwEEEEEEC2ERNS6_5tupleIJSA_EEE:
 6085|  10.2k|        : args(std::apply(make_argptrs<Args...>, args))
 6086|  10.2k|    {
 6087|  10.2k|    }
_ZN3scn2v46detail14scan_arg_storeINS0_18basic_scan_contextINS1_16buffer_range_tagEwEEJNSt3__117basic_string_viewIwNS6_11char_traitsIwEEEEEE12make_argptrsIJSA_EEENS6_5arrayIPvLm1EEEDpRT_:
 6094|  10.2k|    {
 6095|  10.2k|        return {detail::make_arg<
 6096|  10.2k|            kind, Context,
 6097|  10.2k|            mapped_type_constant<remove_cvref_t<A>,
 6098|  10.2k|                                 typename Context::char_type>::value>(args)...};
 6099|  10.2k|    }
_ZN3scn2v46detail8make_argILNS1_19scan_arg_store_kindE0ENS0_18basic_scan_contextINS1_16buffer_range_tagEwEELNS1_8arg_typeE20ENSt3__117basic_string_viewIwNS8_11char_traitsIwEEEEvEEPvRT2_:
 5874|  10.2k|{
 5875|  10.2k|    return make_value<Context>(value).ref_value;
 5876|  10.2k|}
_ZN3scn2v46detail10make_valueINS0_18basic_scan_contextINS1_16buffer_range_tagEwEENSt3__117basic_string_viewIwNS6_11char_traitsIwEEEEEEDaRT0_:
 5809|  10.2k|{
 5810|  10.2k|    auto&& arg = arg_mapper<typename Context::char_type>().map(value);
 5811|       |
 5812|       |    if constexpr (!std::is_same_v<remove_cvref_t<decltype(arg)>,
 5813|  10.2k|                                  needs_context_tag>) {
 5814|  10.2k|        return make_value_impl<T>(SCN_FWD(arg));
  ------------------
  |  |  936|  10.2k|#define SCN_FWD(x)          static_cast<decltype(x)&&>(x)
  ------------------
 5815|       |    }
 5816|       |    else {
 5817|       |        return make_value_impl<T>(arg_mapper<typename Context::char_type>().map(
 5818|       |            value, context_tag<Context>{}));
 5819|       |    }
 5820|  10.2k|}
_ZN3scn2v46detail10arg_mapperIwE3mapERNSt3__117basic_string_viewIwNS4_11char_traitsIwEEEE:
 5648|  10.2k|    {                                                                        \
 5649|  10.2k|        return val;                                                          \
 5650|  10.2k|    }
_ZN3scn2v46detail15make_value_implINSt3__117basic_string_viewIwNS3_11char_traitsIwEEEERS7_EEDaOT0_:
 5778|  10.2k|{
 5779|  10.2k|    using arg_nocvref_t = remove_cvref_t<Arg>;
 5780|  10.2k|    static_assert(!std::is_same_v<arg_nocvref_t, needs_context_tag>);
 5781|       |
 5782|  10.2k|    constexpr bool scannable_char =
 5783|  10.2k|        !std::is_same_v<arg_nocvref_t, unscannable_char>;
 5784|  10.2k|    static_assert(scannable_char,
 5785|  10.2k|                  "Cannot scan an argument of an unsupported character "
 5786|  10.2k|                  "type (i.e. char from a wchar_t source)");
 5787|       |
 5788|  10.2k|    constexpr bool scannable_const =
 5789|  10.2k|        !std::is_same_v<arg_nocvref_t, unscannable_const>;
 5790|  10.2k|    static_assert(scannable_const, "Cannot scan a const argument");
 5791|       |
 5792|  10.2k|    constexpr bool scannable_disabled =
 5793|  10.2k|        !std::is_same_v<arg_nocvref_t, unscannable_disabled>;
 5794|  10.2k|    static_assert(scannable_disabled,
 5795|  10.2k|                  "Cannot scan an argument that has been disabled by "
 5796|  10.2k|                  "flag (SCN_DISABLE_TYPE_*)");
 5797|       |
 5798|  10.2k|    constexpr bool scannable = !std::is_same_v<arg_nocvref_t, unscannable>;
 5799|  10.2k|    static_assert(
 5800|  10.2k|        scannable,
 5801|  10.2k|        "Cannot scan an argument. To make a type T scannable, provide "
 5802|  10.2k|        "a scn::scanner<T, CharT> specialization.");
 5803|       |
 5804|  10.2k|    return arg_value{arg};
 5805|  10.2k|}
_ZN3scn2v46detail9arg_valueC2INSt3__117basic_string_viewIwNS4_11char_traitsIwEEEEEERT_:
 5562|  10.2k|    explicit constexpr arg_value(T& val) : ref_value{std::addressof(val)}
 5563|  10.2k|    {
 5564|  10.2k|    }
_ZN3scn2v48expectedINS0_11scan_resultINS0_6ranges6detail9subrange_8subrangeIPKwS8_EEJNSt3__117basic_string_viewIwNSA_11char_traitsIwEEEEEEENS0_10scan_errorEEptEv:
 1814|  10.6k|    {
 1815|  10.6k|        return &value();
 1816|  10.6k|    }
_ZNR3scn2v48expectedINS0_11scan_resultINS0_6ranges6detail9subrange_8subrangeIPKwS8_EEJNSt3__117basic_string_viewIwNSA_11char_traitsIwEEEEEEENS0_10scan_errorEE5valueISF_TnPNSA_9enable_ifIXntsr3stdE9is_void_vIT_EEvE4typeELPv0EEERSK_v:
 1768|  10.6k|    {
 1769|  10.6k|        SCN_EXPECT(has_value());
  ------------------
  |  |  930|  10.6k|#define SCN_EXPECT(cond) SCN_ASSERT(cond, "Precondition violation")
  |  |  ------------------
  |  |  |  |  927|  10.6k|#define SCN_ASSERT(cond, msg) assert((cond) && msg)
  |  |  ------------------
  ------------------
 1770|  10.6k|        return this->get_value();
 1771|  10.6k|    }
_ZNR3scn2v46detail25scan_result_value_storageIJNSt3__117basic_string_viewIwNS3_11char_traitsIwEEEEEE6valuesEv:
 6353|  10.2k|    {
 6354|  10.2k|        return m_values;
 6355|  10.2k|    }
_ZN3scn2v415basic_scan_argsINS0_18basic_scan_contextINS0_6detail16buffer_range_tagEwEEEC2IJNSt3__117basic_string_viewIwNS8_11char_traitsIwEEEEEEERKNS3_14scan_arg_storeIS5_JDpT_EEE:
 6135|  10.2k|        : basic_scan_args(store.desc, store.args.data())
 6136|  10.2k|    {
 6137|  10.2k|    }
_ZN3scn2v424basic_scan_format_stringIwRNSt3__117basic_string_viewIwNS2_11char_traitsIwEEEEJS6_EEC2ENS0_6detail27basic_runtime_format_stringIwEE:
 8762|  10.2k|        : m_str(r.str)
 8763|  10.2k|    {
 8764|  10.2k|    }
_ZN3scn2v410scan_errorC2ENS1_4codeEPKc:
 3740|   319k|    constexpr scan_error(code_t c, const char* m) noexcept : m_msg(m), m_code(c)
 3741|   319k|    {
 3742|   319k|        SCN_UNLIKELY_ATTR SCN_UNUSED(m_code);
  ------------------
  |  |  915|   319k|#define SCN_UNUSED(x) static_cast<void>(sizeof(x))
  ------------------
 3743|   319k|    }
_ZNK3scn2v410scan_error4codeEv:
 3752|  3.32k|    {
 3753|  3.32k|        return m_code;
 3754|  3.32k|    }
_ZN3scn2v46detail30make_string_view_from_pointersIcEENSt3__117basic_string_viewIT_NS3_11char_traitsIS5_EEEEPKS5_SA_:
 3975|  54.7k|{
 3976|       |    if constexpr (std::is_constructible_v<std::basic_string_view<CharT>,
 3977|       |                                          const CharT*, const CharT*>) {
 3978|       |        return {first, last};
 3979|       |    }
 3980|  54.7k|    else {
 3981|  54.7k|        return {first, static_cast<size_t>(std::distance(first, last))};
 3982|  54.7k|    }
 3983|  54.7k|}
_ZNK3scn2v46detail21expected_storage_baseIvNS0_10scan_errorELb1EE9has_valueEv:
  571|  2.07M|    {
  572|  2.07M|        return m_has_value;
  573|  2.07M|    }
_ZNR3scn2v46detail21expected_storage_baseIvNS0_10scan_errorELb1EE14get_unexpectedEv:
  554|   153k|    {
  555|   153k|        return m_unexpected;
  556|   153k|    }
_ZNR3scn2v48expectedIvNS0_10scan_errorEE5errorEv:
 1745|   149k|    {
 1746|   149k|        SCN_EXPECT(!has_value());
  ------------------
  |  |  930|   149k|#define SCN_EXPECT(cond) SCN_ASSERT(cond, "Precondition violation")
  |  |  ------------------
  |  |  |  |  927|   149k|#define SCN_ASSERT(cond, msg) assert((cond) && msg)
  |  |  ------------------
  ------------------
 1747|   149k|        return this->get_unexpected().error();
 1748|   149k|    }
_ZNK3scn2v46detail9fill_type4sizeEv:
 6932|  3.30k|    {
 6933|  3.30k|        return m_size;
 6934|  3.30k|    }
_ZNK3scn2v46detail12format_specs8get_baseEv:
 6973|  4.34k|    {
 6974|  4.34k|        SCN_GCC_COMPAT_PUSH
 6975|  4.34k|        SCN_GCC_COMPAT_IGNORE("-Wswitch-enum")
 6976|  4.34k|        switch (type) {
 6977|  1.94k|            case presentation_type::none:
  ------------------
  |  Branch (6977:13): [True: 1.94k, False: 2.40k]
  ------------------
 6978|  1.94k|                return 10;
 6979|     80|            case presentation_type::int_generic:
  ------------------
  |  Branch (6979:13): [True: 80, False: 4.26k]
  ------------------
 6980|     80|                return 0;
 6981|      0|            case presentation_type::int_arbitrary_base:
  ------------------
  |  Branch (6981:13): [True: 0, False: 4.34k]
  ------------------
 6982|      0|                return arbitrary_base;
 6983|       |
 6984|     56|            case presentation_type::int_binary:
  ------------------
  |  Branch (6984:13): [True: 56, False: 4.29k]
  ------------------
 6985|     56|                return 2;
 6986|     72|            case presentation_type::int_octal:
  ------------------
  |  Branch (6986:13): [True: 72, False: 4.27k]
  ------------------
 6987|     72|                return 8;
 6988|     40|            case presentation_type::int_decimal:
  ------------------
  |  Branch (6988:13): [True: 40, False: 4.30k]
  ------------------
 6989|     90|            case presentation_type::int_unsigned_decimal:
  ------------------
  |  Branch (6989:13): [True: 50, False: 4.29k]
  ------------------
 6990|     90|                return 10;
 6991|  2.10k|            case presentation_type::int_hex:
  ------------------
  |  Branch (6991:13): [True: 2.10k, False: 2.24k]
  ------------------
 6992|  2.10k|                return 16;
 6993|       |
 6994|      0|            default:
  ------------------
  |  Branch (6994:13): [True: 0, False: 4.34k]
  ------------------
 6995|      0|                SCN_EXPECT(false);
  ------------------
  |  |  930|      0|#define SCN_EXPECT(cond) SCN_ASSERT(cond, "Precondition violation")
  |  |  ------------------
  |  |  |  |  927|      0|#define SCN_ASSERT(cond, msg) assert((cond) && msg)
  |  |  ------------------
  ------------------
 6996|      0|                SCN_UNREACHABLE;
  ------------------
  |  |  893|      0|#define SCN_UNREACHABLE __builtin_unreachable()
  ------------------
 6997|  4.34k|        }
 6998|  4.34k|        SCN_GCC_COMPAT_POP
 6999|  4.34k|    }
_ZN3scn2v46detail12specs_setterC2ERNS1_12format_specsE:
 7011|  34.5k|    explicit constexpr specs_setter(format_specs& specs) : m_specs(specs) {}
_ZN3scn2v46detail12specs_setter8on_alignENS1_10align_typeE:
 7014|  5.75k|    {
 7015|  5.75k|        m_specs.align = align;
 7016|  5.75k|    }
_ZN3scn2v46detail12specs_setter8on_widthEi:
 7034|  6.83k|    {
 7035|  6.83k|        if (m_specs.precision != 0 && width > m_specs.precision) {
  ------------------
  |  Branch (7035:13): [True: 0, False: 6.83k]
  |  Branch (7035:39): [True: 0, False: 0]
  ------------------
 7036|       |            // clang-format off
 7037|      0|            return this->on_error("Width (i.e., minimum field length) cannot be larger than precision (i.e., maximum field length)");
 7038|       |            // clang-format on
 7039|      0|        }
 7040|       |
 7041|  6.83k|        m_specs.width = width;
 7042|  6.83k|    }
_ZN3scn2v46detail12specs_setter12on_precisionEi:
 7044|  11.5k|    {
 7045|  11.5k|        if (m_specs.width > prec) {
  ------------------
  |  Branch (7045:13): [True: 68, False: 11.4k]
  ------------------
 7046|       |            // clang-format off
 7047|     68|            return this->on_error("Width (i.e., minimum field length) cannot be larger than precision (i.e., maximum field length)");
 7048|       |            // clang-format on
 7049|     68|        }
 7050|       |
 7051|  11.4k|        m_specs.precision = prec;
 7052|  11.4k|    }
_ZN3scn2v46detail12specs_setter7on_typeENS1_17presentation_typeE:
 7055|  33.1k|    {
 7056|  33.1k|        m_specs.type = type;
 7057|  33.1k|    }
_ZN3scn2v46detail12specs_setter17on_charset_singleEDi:
 7060|  1.14M|    {
 7061|  1.14M|        const auto cp_value = static_cast<unsigned>(cp);
 7062|  1.14M|        if (SCN_LIKELY(cp_value <= 127)) {
  ------------------
  |  |  864|  1.14M|#define SCN_LIKELY(x)   __builtin_expect(!!(x), 1)
  |  |  ------------------
  |  |  |  Branch (864:25): [True: 966k, False: 173k]
  |  |  ------------------
  ------------------
 7063|   966k|            m_specs.charset_literals[cp_value / 8] |=
 7064|   966k|                static_cast<unsigned char>(1ul << (cp_value % 8));
 7065|   966k|        }
 7066|   173k|        else {
 7067|   173k|            m_specs.charset_has_nonascii = true;
 7068|   173k|        }
 7069|  1.14M|    }
_ZN3scn2v46detail12specs_setter16on_charset_rangeEDiDi:
 7072|  12.0k|    {
 7073|  12.0k|        const auto begin_value = static_cast<unsigned>(begin);
 7074|  12.0k|        const auto end_value = static_cast<unsigned>(end);
 7075|  12.0k|        SCN_EXPECT(begin_value < end_value);
  ------------------
  |  |  930|  12.0k|#define SCN_EXPECT(cond) SCN_ASSERT(cond, "Precondition violation")
  |  |  ------------------
  |  |  |  |  927|  12.0k|#define SCN_ASSERT(cond, msg) assert((cond) && msg)
  |  |  ------------------
  ------------------
 7076|       |
 7077|  12.0k|        if (SCN_LIKELY(end_value <= 127)) {
  ------------------
  |  |  864|  12.0k|#define SCN_LIKELY(x)   __builtin_expect(!!(x), 1)
  |  |  ------------------
  |  |  |  Branch (864:25): [True: 6.91k, False: 5.14k]
  |  |  ------------------
  ------------------
 7078|       |            // No need to bit-twiddle with a mask, because with the
 7079|       |            // SCN_ASSUME, -O3 will optimize this to a single operation
 7080|  6.91k|            SCN_ASSUME(begin_value < end_value);
  ------------------
  |  |  884|  6.91k|#define SCN_ASSUME(x) __builtin_assume(x)
  ------------------
 7081|   472k|            for (auto v = begin_value; v != end_value; ++v) {
  ------------------
  |  Branch (7081:40): [True: 465k, False: 6.91k]
  ------------------
 7082|   465k|                m_specs.charset_literals[v / 8] |=
 7083|   465k|                    static_cast<unsigned char>(1ul << (v % 8));
 7084|   465k|            }
 7085|  6.91k|        }
 7086|  5.14k|        else {
 7087|  5.14k|            m_specs.charset_has_nonascii = true;
 7088|  5.14k|        }
 7089|  12.0k|    }
_ZN3scn2v46detail12specs_setter19on_charset_invertedEv:
 7092|  3.55k|    {
 7093|  3.55k|        m_specs.charset_is_inverted = true;
 7094|  3.55k|    }
_ZN3scn2v46detail12specs_setter14on_regex_flagsENS1_11regex_flagsE:
 7111|  1.49k|    {
 7112|  1.49k|        m_specs.regexp_flags = flags;
 7113|  1.49k|    }
_ZN3scn2v46detail12specs_setter8on_errorEPKc:
 7117|  9.48k|    {
 7118|  9.48k|        SCN_UNLIKELY_ATTR
 7119|  9.48k|        m_error = unexpected_scan_error(scan_error::invalid_format_string, msg);
 7120|  9.48k|    }
_ZNK3scn2v46detail12specs_setter9get_errorEv:
 7128|  1.19M|    {
 7129|  1.19M|        return m_error;
 7130|  1.19M|    }
_ZN3scn2v46detail21unexpected_scan_errorENS0_10scan_error4codeEPKc:
 3917|   174k|{
 3918|   174k|    return unexpected(scan_error{c, m});
 3919|   174k|}
_ZN3scn2v46detail39decode_utf8_code_point_exhaustive_validENSt3__117basic_string_viewIcNS2_11char_traitsIcEEEE:
 4168|   104k|{
 4169|   104k|    SCN_EXPECT(!input.empty() && input.size() <= 4);
  ------------------
  |  |  930|   104k|#define SCN_EXPECT(cond) SCN_ASSERT(cond, "Precondition violation")
  |  |  ------------------
  |  |  |  |  927|   104k|#define SCN_ASSERT(cond, msg) assert((cond) && msg)
  |  |  ------------------
  ------------------
 4170|       |
 4171|   104k|    const auto is_trailing_code_unit = [](char ch) {
 4172|   104k|        return static_cast<unsigned char>(ch) >> 6 == 0x2;
 4173|   104k|    };
 4174|       |
 4175|   104k|    if (input.size() == 1) {
  ------------------
  |  Branch (4175:9): [True: 90.2k, False: 14.2k]
  ------------------
 4176|  90.2k|        SCN_EXPECT(static_cast<unsigned char>(input[0]) < 0x80);
  ------------------
  |  |  930|  90.2k|#define SCN_EXPECT(cond) SCN_ASSERT(cond, "Precondition violation")
  |  |  ------------------
  |  |  |  |  927|  90.2k|#define SCN_ASSERT(cond, msg) assert((cond) && msg)
  |  |  ------------------
  ------------------
 4177|  90.2k|        return static_cast<char32_t>(input[0]);
 4178|  90.2k|    }
 4179|       |
 4180|  14.2k|    if (input.size() == 2) {
  ------------------
  |  Branch (4180:9): [True: 13.5k, False: 728]
  ------------------
 4181|  13.5k|        SCN_EXPECT((static_cast<unsigned char>(input[0]) & 0xe0) == 0xc0);
  ------------------
  |  |  930|  13.5k|#define SCN_EXPECT(cond) SCN_ASSERT(cond, "Precondition violation")
  |  |  ------------------
  |  |  |  |  927|  13.5k|#define SCN_ASSERT(cond, msg) assert((cond) && msg)
  |  |  ------------------
  ------------------
 4182|  13.5k|        SCN_EXPECT(is_trailing_code_unit(input[1]));
  ------------------
  |  |  930|  13.5k|#define SCN_EXPECT(cond) SCN_ASSERT(cond, "Precondition violation")
  |  |  ------------------
  |  |  |  |  927|  13.5k|#define SCN_ASSERT(cond, msg) assert((cond) && msg)
  |  |  ------------------
  ------------------
 4183|       |
 4184|  13.5k|        char32_t cp{};
 4185|  13.5k|        cp |= (static_cast<char32_t>(input[0]) & 0x1f) << 6;
 4186|  13.5k|        cp |= (static_cast<char32_t>(input[1]) & 0x3f) << 0;
 4187|  13.5k|        return cp;
 4188|  13.5k|    }
 4189|       |
 4190|    728|    if (input.size() == 3) {
  ------------------
  |  Branch (4190:9): [True: 606, False: 122]
  ------------------
 4191|    606|        SCN_EXPECT((static_cast<unsigned char>(input[0]) & 0xf0) == 0xe0);
  ------------------
  |  |  930|    606|#define SCN_EXPECT(cond) SCN_ASSERT(cond, "Precondition violation")
  |  |  ------------------
  |  |  |  |  927|    606|#define SCN_ASSERT(cond, msg) assert((cond) && msg)
  |  |  ------------------
  ------------------
 4192|    606|        SCN_EXPECT(is_trailing_code_unit(input[1]));
  ------------------
  |  |  930|    606|#define SCN_EXPECT(cond) SCN_ASSERT(cond, "Precondition violation")
  |  |  ------------------
  |  |  |  |  927|    606|#define SCN_ASSERT(cond, msg) assert((cond) && msg)
  |  |  ------------------
  ------------------
 4193|    606|        SCN_EXPECT(is_trailing_code_unit(input[2]));
  ------------------
  |  |  930|    606|#define SCN_EXPECT(cond) SCN_ASSERT(cond, "Precondition violation")
  |  |  ------------------
  |  |  |  |  927|    606|#define SCN_ASSERT(cond, msg) assert((cond) && msg)
  |  |  ------------------
  ------------------
 4194|       |
 4195|    606|        char32_t cp{};
 4196|    606|        cp |= (static_cast<char32_t>(input[0]) & 0x0f) << 12;
 4197|    606|        cp |= (static_cast<char32_t>(input[1]) & 0x3f) << 6;
 4198|    606|        cp |= (static_cast<char32_t>(input[2]) & 0x3f) << 0;
 4199|    606|        return cp;
 4200|    606|    }
 4201|       |
 4202|    122|    if (input.size() == 4) {
  ------------------
  |  Branch (4202:9): [True: 122, False: 0]
  ------------------
 4203|    122|        SCN_EXPECT((static_cast<unsigned char>(input[0]) & 0xf8) == 0xf0);
  ------------------
  |  |  930|    122|#define SCN_EXPECT(cond) SCN_ASSERT(cond, "Precondition violation")
  |  |  ------------------
  |  |  |  |  927|    122|#define SCN_ASSERT(cond, msg) assert((cond) && msg)
  |  |  ------------------
  ------------------
 4204|    122|        SCN_EXPECT(static_cast<unsigned char>(input[0]) <= 0xf4);
  ------------------
  |  |  930|    122|#define SCN_EXPECT(cond) SCN_ASSERT(cond, "Precondition violation")
  |  |  ------------------
  |  |  |  |  927|    122|#define SCN_ASSERT(cond, msg) assert((cond) && msg)
  |  |  ------------------
  ------------------
 4205|    122|        SCN_EXPECT(is_trailing_code_unit(input[1]));
  ------------------
  |  |  930|    122|#define SCN_EXPECT(cond) SCN_ASSERT(cond, "Precondition violation")
  |  |  ------------------
  |  |  |  |  927|    122|#define SCN_ASSERT(cond, msg) assert((cond) && msg)
  |  |  ------------------
  ------------------
 4206|    122|        SCN_EXPECT(is_trailing_code_unit(input[2]));
  ------------------
  |  |  930|    122|#define SCN_EXPECT(cond) SCN_ASSERT(cond, "Precondition violation")
  |  |  ------------------
  |  |  |  |  927|    122|#define SCN_ASSERT(cond, msg) assert((cond) && msg)
  |  |  ------------------
  ------------------
 4207|    122|        SCN_EXPECT(is_trailing_code_unit(input[3]));
  ------------------
  |  |  930|    122|#define SCN_EXPECT(cond) SCN_ASSERT(cond, "Precondition violation")
  |  |  ------------------
  |  |  |  |  927|    122|#define SCN_ASSERT(cond, msg) assert((cond) && msg)
  |  |  ------------------
  ------------------
 4208|       |
 4209|    122|        char32_t cp{};
 4210|    122|        cp |= (static_cast<char32_t>(input[0]) & 0x07) << 18;
 4211|    122|        cp |= (static_cast<char32_t>(input[1]) & 0x3f) << 12;
 4212|    122|        cp |= (static_cast<char32_t>(input[2]) & 0x3f) << 6;
 4213|    122|        cp |= (static_cast<char32_t>(input[3]) & 0x3f) << 0;
 4214|    122|        return cp;
 4215|    122|    }
 4216|       |
 4217|      0|#if !SCN_GCC || SCN_GCC >= SCN_COMPILER(8, 0, 0)
 4218|       |    // gcc 7 thinks we'll get here, even when we won't
 4219|      0|    SCN_EXPECT(false);
  ------------------
  |  |  930|      0|#define SCN_EXPECT(cond) SCN_ASSERT(cond, "Precondition violation")
  |  |  ------------------
  |  |  |  |  927|      0|#define SCN_ASSERT(cond, msg) assert((cond) && msg)
  |  |  ------------------
  ------------------
 4220|      0|#endif
 4221|      0|    SCN_UNREACHABLE;
  ------------------
  |  |  893|      0|#define SCN_UNREACHABLE __builtin_unreachable()
  ------------------
 4222|      0|}
_ZN3scn2v46detail11is_cp_spaceEDi:
 4307|   189M|{
 4308|       |    // Pattern_White_Space property
 4309|   189M|    return (cp >= 0x09 && cp <= 0x0d) ||
  ------------------
  |  Branch (4309:13): [True: 194k, False: 189M]
  |  Branch (4309:27): [True: 12.2k, False: 182k]
  ------------------
 4310|   189M|           cp == 0x20 ||    // ASCII space characters
  ------------------
  |  Branch (4310:12): [True: 4.81k, False: 189M]
  ------------------
 4311|   189M|           cp == 0x85 ||    // NEXT LINE (NEL)
  ------------------
  |  Branch (4311:12): [True: 6.42k, False: 189M]
  ------------------
 4312|   189M|           cp == 0x200e ||  // LEFT-TO-RIGHT MARK
  ------------------
  |  Branch (4312:12): [True: 2.12k, False: 189M]
  ------------------
 4313|   189M|           cp == 0x200f ||  // RIGHT-TO-LEFT MARK
  ------------------
  |  Branch (4313:12): [True: 4.01k, False: 189M]
  ------------------
 4314|   189M|           cp == 0x2028 ||  // LINE SEPARATOR
  ------------------
  |  Branch (4314:12): [True: 1.28k, False: 189M]
  ------------------
 4315|   189M|           cp == 0x2029;    // PARAGRAPH SEPARATOR
  ------------------
  |  Branch (4315:12): [True: 138, False: 189M]
  ------------------
 4316|   189M|}
_ZN3scn2v46detailanENS1_11regex_flagsES2_:
 6862|  1.67k|{
 6863|  1.67k|    return static_cast<regex_flags>(static_cast<unsigned>(a) &
 6864|  1.67k|                                    static_cast<unsigned>(b));
 6865|  1.67k|}
_ZN3scn2v46detailorENS1_11regex_flagsES2_:
 6867|    222|{
 6868|    222|    return static_cast<regex_flags>(static_cast<unsigned>(a) |
 6869|    222|                                    static_cast<unsigned>(b));
 6870|    222|}
_ZN3scn2v46detailoRERNS1_11regex_flagsES2_:
 6882|    222|{
 6883|    222|    return a = a | b;
 6884|    222|}
_ZN3scn2v46detail25get_category_for_arg_typeENS1_8arg_typeE:
 7811|    910|{
 7812|    910|    switch (type) {
 7813|    100|        case arg_type::none_type:
  ------------------
  |  Branch (7813:9): [True: 100, False: 810]
  ------------------
 7814|    100|            return arg_type_category::none;
 7815|       |
 7816|      0|        case arg_type::schar_type:
  ------------------
  |  Branch (7816:9): [True: 0, False: 910]
  ------------------
 7817|      0|        case arg_type::short_type:
  ------------------
  |  Branch (7817:9): [True: 0, False: 910]
  ------------------
 7818|     90|        case arg_type::int_type:
  ------------------
  |  Branch (7818:9): [True: 90, False: 820]
  ------------------
 7819|     90|        case arg_type::long_type:
  ------------------
  |  Branch (7819:9): [True: 0, False: 910]
  ------------------
 7820|     90|        case arg_type::llong_type:
  ------------------
  |  Branch (7820:9): [True: 0, False: 910]
  ------------------
 7821|     90|            return arg_type_category::integer;
 7822|       |
 7823|      0|        case arg_type::uchar_type:
  ------------------
  |  Branch (7823:9): [True: 0, False: 910]
  ------------------
 7824|      0|        case arg_type::ushort_type:
  ------------------
  |  Branch (7824:9): [True: 0, False: 910]
  ------------------
 7825|     90|        case arg_type::uint_type:
  ------------------
  |  Branch (7825:9): [True: 90, False: 820]
  ------------------
 7826|     90|        case arg_type::ulong_type:
  ------------------
  |  Branch (7826:9): [True: 0, False: 910]
  ------------------
 7827|     90|        case arg_type::ullong_type:
  ------------------
  |  Branch (7827:9): [True: 0, False: 910]
  ------------------
 7828|     90|            return arg_type_category::unsigned_integer;
 7829|       |
 7830|     90|        case arg_type::pointer_type:
  ------------------
  |  Branch (7830:9): [True: 90, False: 820]
  ------------------
 7831|     90|            return arg_type_category::pointer;
 7832|     90|        case arg_type::bool_type:
  ------------------
  |  Branch (7832:9): [True: 90, False: 820]
  ------------------
 7833|     90|            return arg_type_category::boolean;
 7834|     48|        case arg_type::narrow_character_type:
  ------------------
  |  Branch (7834:9): [True: 48, False: 862]
  ------------------
 7835|     90|        case arg_type::wide_character_type:
  ------------------
  |  Branch (7835:9): [True: 42, False: 868]
  ------------------
 7836|     90|        case arg_type::code_point_type:
  ------------------
  |  Branch (7836:9): [True: 0, False: 910]
  ------------------
 7837|     90|            return arg_type_category::character;
 7838|       |
 7839|      0|        case arg_type::float_type:
  ------------------
  |  Branch (7839:9): [True: 0, False: 910]
  ------------------
 7840|     90|        case arg_type::double_type:
  ------------------
  |  Branch (7840:9): [True: 90, False: 820]
  ------------------
 7841|     90|        case arg_type::ldouble_type:
  ------------------
  |  Branch (7841:9): [True: 0, False: 910]
  ------------------
 7842|     90|            return arg_type_category::floating;
 7843|       |
 7844|     48|        case arg_type::narrow_string_view_type:
  ------------------
  |  Branch (7844:9): [True: 48, False: 862]
  ------------------
 7845|    138|        case arg_type::narrow_string_type:
  ------------------
  |  Branch (7845:9): [True: 90, False: 820]
  ------------------
 7846|    180|        case arg_type::wide_string_view_type:
  ------------------
  |  Branch (7846:9): [True: 42, False: 868]
  ------------------
 7847|    270|        case arg_type::wide_string_type:
  ------------------
  |  Branch (7847:9): [True: 90, False: 820]
  ------------------
 7848|    270|            return arg_type_category::string;
 7849|       |
 7850|      0|        case arg_type::custom_type:
  ------------------
  |  Branch (7850:9): [True: 0, False: 910]
  ------------------
 7851|      0|            return arg_type_category::custom;
 7852|       |
 7853|      0|            SCN_CLANG_PUSH
 7854|      0|            SCN_CLANG_IGNORE("-Wcovered-switch-default")
 7855|      0|        default:
  ------------------
  |  Branch (7855:9): [True: 0, False: 910]
  ------------------
 7856|      0|            SCN_ENSURE(false);
  ------------------
  |  |  931|      0|#define SCN_ENSURE(cond) SCN_ASSERT(cond, "Postcondition violation")
  |  |  ------------------
  |  |  |  |  927|      0|#define SCN_ASSERT(cond, msg) assert((cond) && msg)
  |  |  ------------------
  ------------------
 7857|    910|            SCN_UNREACHABLE;
  ------------------
  |  |  893|      0|#define SCN_UNREACHABLE __builtin_unreachable()
  ------------------
 7858|    910|            SCN_CLANG_POP
 7859|    910|    }
 7860|       |
 7861|      0|    SCN_UNREACHABLE;
  ------------------
  |  |  893|      0|#define SCN_UNREACHABLE __builtin_unreachable()
  ------------------
 7862|    910|}
_ZNO3scn2v48expectedIvNS0_10scan_errorEE5errorEv:
 1755|  4.00k|    {
 1756|  4.00k|        SCN_EXPECT(!has_value());
  ------------------
  |  |  930|  4.00k|#define SCN_EXPECT(cond) SCN_ASSERT(cond, "Precondition violation")
  |  |  ------------------
  |  |  |  |  927|  4.00k|#define SCN_ASSERT(cond, msg) assert((cond) && msg)
  |  |  ------------------
  ------------------
 1757|  4.00k|        return std::move(this->get_unexpected().error());
 1758|  4.00k|    }
_ZN3scn2v46detail20check_int_type_specsIRNS0_4impl20reader_error_handlerEEEvRKNS1_12format_specsEOT_:
 7897|  6.49k|{
 7898|  6.49k|    if (SCN_UNLIKELY(specs.type > presentation_type::int_hex)) {
  ------------------
  |  |  865|  6.49k|#define SCN_UNLIKELY(x) __builtin_expect(!!(x), 0)
  |  |  ------------------
  |  |  |  Branch (865:25): [True: 4.20k, False: 2.28k]
  |  |  ------------------
  ------------------
 7899|  4.20k|        return handler.on_error("Invalid type specifier for integer type");
 7900|  4.20k|    }
 7901|  2.28k|    if (specs.localized) {
  ------------------
  |  Branch (7901:9): [True: 124, False: 2.16k]
  ------------------
 7902|    124|        if (SCN_UNLIKELY(specs.type == presentation_type::int_binary)) {
  ------------------
  |  |  865|    124|#define SCN_UNLIKELY(x) __builtin_expect(!!(x), 0)
  |  |  ------------------
  |  |  |  Branch (865:25): [True: 16, False: 108]
  |  |  ------------------
  ------------------
 7903|       |            // clang-format off
 7904|     16|            handler.on_error("'b'/'B' specifier not supported for localized integers");
 7905|       |            // clang-format on
 7906|     16|            return;
 7907|     16|        }
 7908|    108|        if (SCN_UNLIKELY(specs.type == presentation_type::int_arbitrary_base)) {
  ------------------
  |  |  865|    108|#define SCN_UNLIKELY(x) __builtin_expect(!!(x), 0)
  |  |  ------------------
  |  |  |  Branch (865:25): [True: 0, False: 108]
  |  |  ------------------
  ------------------
 7909|       |            // clang-format off
 7910|      0|            return handler.on_error("Arbitrary bases not supported for localized integers");
 7911|       |            // clang-format on
 7912|      0|        }
 7913|    108|    }
 7914|  2.28k|}
_ZN3scn2v46ranges6detail10decay_copyImEEu7__decayIT_EOS4_:
 2093|   138k|{
 2094|   138k|    return SCN_FWD(t);
  ------------------
  |  |  936|   138k|#define SCN_FWD(x)          static_cast<decltype(x)&&>(x)
  ------------------
 2095|   138k|}
_ZN3scn2v46detail22check_float_type_specsIRNS0_4impl20reader_error_handlerEEEvRKNS1_12format_specsEOT_:
 7941|  3.24k|{
 7942|  3.24k|    if (specs.type != presentation_type::none &&
  ------------------
  |  Branch (7942:9): [True: 2.24k, False: 1.00k]
  ------------------
 7943|  3.24k|        (specs.type < presentation_type::float_hex ||
  ------------------
  |  Branch (7943:10): [True: 144, False: 2.10k]
  ------------------
 7944|  2.24k|         specs.type > presentation_type::float_general)) {
  ------------------
  |  Branch (7944:10): [True: 1.98k, False: 116]
  ------------------
 7945|  2.13k|        SCN_UNLIKELY_ATTR
 7946|  2.13k|        return handler.on_error("Invalid type specifier for float type");
 7947|  2.13k|    }
 7948|  3.24k|}
_ZNK3scn2v48expectedIvNS0_10scan_errorEEcvbEv:
 1739|  1.91M|    {
 1740|  1.91M|        return has_value();
 1741|  1.91M|    }
_ZN3scn2v46detail23check_string_type_specsIRNS0_4impl20reader_error_handlerEEEvRKNS1_12format_specsEOT_:
 7953|  9.51k|{
 7954|  9.51k|    if (specs.type == presentation_type::none ||
  ------------------
  |  Branch (7954:9): [True: 2.91k, False: 6.59k]
  ------------------
 7955|  9.51k|        specs.type == presentation_type::string ||
  ------------------
  |  Branch (7955:9): [True: 906, False: 5.68k]
  ------------------
 7956|  9.51k|        specs.type == presentation_type::string_set ||
  ------------------
  |  Branch (7956:9): [True: 4.25k, False: 1.43k]
  ------------------
 7957|  9.51k|        specs.type == presentation_type::regex ||
  ------------------
  |  Branch (7957:9): [True: 102, False: 1.33k]
  ------------------
 7958|  9.51k|        specs.type == presentation_type::regex_escaped) {
  ------------------
  |  Branch (7958:9): [True: 372, False: 960]
  ------------------
 7959|  8.55k|        return;
 7960|  8.55k|    }
 7961|    960|    if (specs.type == presentation_type::character) {
  ------------------
  |  Branch (7961:9): [True: 258, False: 702]
  ------------------
 7962|    258|        if (SCN_UNLIKELY(specs.precision == 0)) {
  ------------------
  |  |  865|    258|#define SCN_UNLIKELY(x) __builtin_expect(!!(x), 0)
  |  |  ------------------
  |  |  |  Branch (865:25): [True: 12, False: 246]
  |  |  ------------------
  ------------------
 7963|       |            // clang-format off
 7964|     12|            return handler.on_error("'c' type specifier for strings requires the field precision to be specified");
 7965|       |            // clang-format on
 7966|     12|        }
 7967|    246|        return;
 7968|    258|    }
 7969|    702|    SCN_UNLIKELY_ATTR
 7970|    702|    handler.on_error("Invalid type specifier for string");
 7971|    702|}
_ZN3scn2v46detail21check_bool_type_specsIRNS0_4impl20reader_error_handlerEEEvRKNS1_12format_specsEOT_:
 7987|  3.24k|{
 7988|  3.24k|    if (specs.type != presentation_type::none &&
  ------------------
  |  Branch (7988:9): [True: 2.24k, False: 1.00k]
  ------------------
 7989|  3.24k|        specs.type != presentation_type::string &&
  ------------------
  |  Branch (7989:9): [True: 1.93k, False: 312]
  ------------------
 7990|  3.24k|        specs.type != presentation_type::int_generic &&
  ------------------
  |  Branch (7990:9): [True: 1.90k, False: 32]
  ------------------
 7991|  3.24k|        specs.type != presentation_type::int_hex &&
  ------------------
  |  Branch (7991:9): [True: 1.88k, False: 22]
  ------------------
 7992|  3.24k|        specs.type != presentation_type::int_binary &&
  ------------------
  |  Branch (7992:9): [True: 1.85k, False: 28]
  ------------------
 7993|  3.24k|        specs.type != presentation_type::int_unsigned_decimal &&
  ------------------
  |  Branch (7993:9): [True: 1.83k, False: 18]
  ------------------
 7994|  3.24k|        specs.type != presentation_type::int_octal &&
  ------------------
  |  Branch (7994:9): [True: 1.80k, False: 28]
  ------------------
 7995|  3.24k|        specs.type != presentation_type::int_decimal) {
  ------------------
  |  Branch (7995:9): [True: 1.79k, False: 16]
  ------------------
 7996|  1.79k|        SCN_UNLIKELY_ATTR
 7997|  1.79k|        return handler.on_error("Invalid type specifier for boolean");
 7998|  1.79k|    }
 7999|  3.24k|}
_ZN3scn2v46detail21check_char_type_specsIRNS0_4impl20reader_error_handlerEEEvRKNS1_12format_specsEOT_:
 7919|  3.17k|{
 7920|  3.17k|    if (specs.type > presentation_type::int_hex ||
  ------------------
  |  Branch (7920:9): [True: 2.08k, False: 1.08k]
  ------------------
 7921|  3.17k|        specs.type == presentation_type::int_arbitrary_base) {
  ------------------
  |  Branch (7921:9): [True: 0, False: 1.08k]
  ------------------
 7922|  2.08k|        SCN_UNLIKELY_ATTR
 7923|  2.08k|        return handler.on_error("Invalid type specifier for character type");
 7924|  2.08k|    }
 7925|  3.17k|}
_ZN3scn2v46detail24check_pointer_type_specsIRNS0_4impl20reader_error_handlerEEEvRKNS1_12format_specsEOT_:
 7976|  3.17k|{
 7977|  3.17k|    if (specs.type != presentation_type::none &&
  ------------------
  |  Branch (7977:9): [True: 2.19k, False: 972]
  ------------------
 7978|  3.17k|        specs.type != presentation_type::pointer) {
  ------------------
  |  Branch (7978:9): [True: 2.18k, False: 12]
  ------------------
 7979|  2.18k|        SCN_UNLIKELY_ATTR
 7980|  2.18k|        return handler.on_error("Invalid type specifier for pointer");
 7981|  2.18k|    }
 7982|  3.17k|}
_ZN3scn2v46detail30make_string_view_from_pointersIwEENSt3__117basic_string_viewIT_NS3_11char_traitsIS5_EEEEPKS5_SA_:
 3975|   189M|{
 3976|       |    if constexpr (std::is_constructible_v<std::basic_string_view<CharT>,
 3977|       |                                          const CharT*, const CharT*>) {
 3978|       |        return {first, last};
 3979|       |    }
 3980|   189M|    else {
 3981|   189M|        return {first, static_cast<size_t>(std::distance(first, last))};
 3982|   189M|    }
 3983|   189M|}
_ZNK3scn2v46ranges6detail9subrange_8subrangeIPKcS6_E5beginEv:
 3479|  1.15M|    {
 3480|  1.15M|        return m_iterator;
 3481|  1.15M|    }
_ZNK3scn2v46ranges6detail9subrange_8subrangeIPKcS6_E3endEv:
 3483|  1.16M|    {
 3484|  1.16M|        return m_sentinel;
 3485|  1.16M|    }
_ZNK3scn2v46ranges6detail9subrange_8subrangeIPKwS6_E5beginEv:
 3479|   528k|    {
 3480|   528k|        return m_iterator;
 3481|   528k|    }
_ZNK3scn2v46ranges6detail9subrange_8subrangeIPKwS6_E3endEv:
 3483|   378M|    {
 3484|   378M|        return m_sentinel;
 3485|   378M|    }
_ZN3scn2v46detail10locale_refC2Ev:
 8783|  75.7k|    constexpr locale_ref() = default;
_ZN3scn2v46detail14trivial_invokeIRFNS0_10scan_errorENS0_4impl9eof_errorEEJS5_EvEEDcOT_DpOT0_:
 1349|    238|{
 1350|    238|    return std::forward<F>(f)(std::forward<Args>(args)...);
 1351|    238|}
_ZNR3scn2v410unexpectedINS0_4impl9eof_errorEE5errorEv:
  364|  2.67k|    {
  365|  2.67k|        return m_unexpected;
  366|  2.67k|    }
_ZN3scn2v410unexpectedINS0_10scan_errorEEC2IS2_vEEOT_:
  349|   175k|        : m_unexpected(std::forward<Err>(e))
  350|   175k|    {
  351|   175k|        SCN_UNLIKELY_ATTR SCN_UNUSED(m_unexpected);
  ------------------
  |  |  915|   175k|#define SCN_UNUSED(x) static_cast<void>(sizeof(x))
  ------------------
  352|   175k|    }
_ZN3scn2v48expectedIlNS0_10scan_errorEEC2IS2_TnPNSt3__19enable_ifIXsr3stdE18is_constructible_vIS2_OT_EEvE4typeELPv0ETnPNS6_IXsr3stdE16is_convertible_vIS8_S2_EEvE4typeELSC_0EEEONS0_10unexpectedIS7_EE:
 1615|   138k|        : base(unexpect, std::move(e.error())),
 1616|   138k|          ctor_base(detail::non_default_ctor_tag_t{})
 1617|   138k|    {
 1618|   138k|    }
_ZN3scn2v46detail21expected_storage_baseIlNS0_10scan_errorELb1EEC2IJS3_EvEENS0_10unexpect_tEDpOT_:
  449|   138k|        : m_unexpected(std::in_place, std::forward<Args>(args)...),
  450|   138k|          m_has_value(false)
  451|   138k|    {
  452|   138k|    }
_ZN3scn2v46detail26expected_default_ctor_baseIlNS0_10scan_errorELb1EEC2ENS1_22non_default_ctor_tag_tE:
 1315|   141k|    {
 1316|   141k|    }
_ZN3scn2v48expectedIPKcNS0_10scan_errorEEC2IS4_TnPNSt3__19enable_ifIXsr3stdE18is_constructible_vIS4_OT_EEvE4typeELPv0ETnPNS8_IXsr3stdE16is_convertible_vISA_S4_EEvE4typeELSE_0EEEONS0_10unexpectedIS9_EE:
 1615|  30.9k|        : base(unexpect, std::move(e.error())),
 1616|  30.9k|          ctor_base(detail::non_default_ctor_tag_t{})
 1617|  30.9k|    {
 1618|  30.9k|    }
_ZN3scn2v46detail21expected_storage_baseIPKcNS0_10scan_errorELb1EEC2IJS5_EvEENS0_10unexpect_tEDpOT_:
  449|  31.8k|        : m_unexpected(std::in_place, std::forward<Args>(args)...),
  450|  31.8k|          m_has_value(false)
  451|  31.8k|    {
  452|  31.8k|    }
_ZN3scn2v46detail26expected_default_ctor_baseIPKcNS0_10scan_errorELb1EEC2ENS1_22non_default_ctor_tag_tE:
 1315|  54.4k|    {
 1316|  54.4k|    }
_ZN3scn2v48expectedIPKcNS0_10scan_errorEEC2IS3_vEEOT_:
 1569|  21.1k|        : base(std::in_place, std::forward<U>(val)),
 1570|  21.1k|          ctor_base(detail::non_default_ctor_tag_t{})
 1571|  21.1k|    {
 1572|  21.1k|    }
_ZN3scn2v46detail21expected_storage_baseIPKcNS0_10scan_errorELb1EEC2IJS4_EvEENSt3__110in_place_tEDpOT_:
  440|  21.1k|        : m_value(std::forward<Args>(args)...), m_has_value(true)
  441|  21.1k|    {
  442|  21.1k|    }
_ZNK3scn2v48expectedIPKcNS0_10scan_errorEEcvbEv:
 1739|  55.3k|    {
 1740|  55.3k|        return has_value();
 1741|  55.3k|    }
_ZNK3scn2v46detail21expected_storage_baseIPKcNS0_10scan_errorELb1EE9has_valueEv:
  489|   108k|    {
  490|   108k|        return m_has_value;
  491|   108k|    }
_ZNR3scn2v48expectedIPKcNS0_10scan_errorEE5errorEv:
 1745|  30.9k|    {
 1746|  30.9k|        SCN_EXPECT(!has_value());
  ------------------
  |  |  930|  30.9k|#define SCN_EXPECT(cond) SCN_ASSERT(cond, "Precondition violation")
  |  |  ------------------
  |  |  |  |  927|  30.9k|#define SCN_ASSERT(cond, msg) assert((cond) && msg)
  |  |  ------------------
  ------------------
 1747|  30.9k|        return this->get_unexpected().error();
 1748|  30.9k|    }
_ZNR3scn2v46detail21expected_storage_baseIPKcNS0_10scan_errorELb1EE14get_unexpectedEv:
  472|  30.9k|    {
  473|  30.9k|        return m_unexpected;
  474|  30.9k|    }
_ZNO3scn2v48expectedIPKcNS0_10scan_errorEEdeIS3_TnPNSt3__19enable_ifIXntsr3stdE9is_void_vIT_EEvE4typeELPv0EEEOS9_v:
 1804|  14.6k|    {
 1805|  14.6k|        return std::move(value());
 1806|  14.6k|    }
_ZNR3scn2v48expectedIPKcNS0_10scan_errorEE5valueIS3_TnPNSt3__19enable_ifIXntsr3stdE9is_void_vIT_EEvE4typeELPv0EEERS9_v:
 1768|  21.7k|    {
 1769|  21.7k|        SCN_EXPECT(has_value());
  ------------------
  |  |  930|  21.7k|#define SCN_EXPECT(cond) SCN_ASSERT(cond, "Precondition violation")
  |  |  ------------------
  |  |  |  |  927|  21.7k|#define SCN_ASSERT(cond, msg) assert((cond) && msg)
  |  |  ------------------
  ------------------
 1770|  21.7k|        return this->get_value();
 1771|  21.7k|    }
_ZNR3scn2v46detail21expected_storage_baseIPKcNS0_10scan_errorELb1EE9get_valueEv:
  455|  21.7k|    {
  456|  21.7k|        return m_value;
  457|  21.7k|    }
_ZN3scn2v48expectedIPKwNS0_10scan_errorEEC2IS4_TnPNSt3__19enable_ifIXsr3stdE18is_constructible_vIS4_OT_EEvE4typeELPv0ETnPNS8_IXsr3stdE16is_convertible_vISA_S4_EEvE4typeELSE_0EEEONS0_10unexpectedIS9_EE:
 1615|  16.0k|        : base(unexpect, std::move(e.error())),
 1616|  16.0k|          ctor_base(detail::non_default_ctor_tag_t{})
 1617|  16.0k|    {
 1618|  16.0k|    }
_ZN3scn2v46detail21expected_storage_baseIPKwNS0_10scan_errorELb1EEC2IJS5_EvEENS0_10unexpect_tEDpOT_:
  449|  16.8k|        : m_unexpected(std::in_place, std::forward<Args>(args)...),
  450|  16.8k|          m_has_value(false)
  451|  16.8k|    {
  452|  16.8k|    }
_ZN3scn2v46detail26expected_default_ctor_baseIPKwNS0_10scan_errorELb1EEC2ENS1_22non_default_ctor_tag_tE:
 1315|  33.6k|    {
 1316|  33.6k|    }
_ZN3scn2v48expectedIPKwNS0_10scan_errorEEC2IS3_vEEOT_:
 1569|  16.4k|        : base(std::in_place, std::forward<U>(val)),
 1570|  16.4k|          ctor_base(detail::non_default_ctor_tag_t{})
 1571|  16.4k|    {
 1572|  16.4k|    }
_ZN3scn2v46detail21expected_storage_baseIPKwNS0_10scan_errorELb1EEC2IJS4_EvEENSt3__110in_place_tEDpOT_:
  440|  16.4k|        : m_value(std::forward<Args>(args)...), m_has_value(true)
  441|  16.4k|    {
  442|  16.4k|    }
_ZNK3scn2v48expectedIPKwNS0_10scan_errorEEcvbEv:
 1739|  34.4k|    {
 1740|  34.4k|        return has_value();
 1741|  34.4k|    }
_ZNK3scn2v46detail21expected_storage_baseIPKwNS0_10scan_errorELb1EE9has_valueEv:
  489|  66.4k|    {
  490|  66.4k|        return m_has_value;
  491|  66.4k|    }
_ZNR3scn2v48expectedIPKwNS0_10scan_errorEE5errorEv:
 1745|  16.0k|    {
 1746|  16.0k|        SCN_EXPECT(!has_value());
  ------------------
  |  |  930|  16.0k|#define SCN_EXPECT(cond) SCN_ASSERT(cond, "Precondition violation")
  |  |  ------------------
  |  |  |  |  927|  16.0k|#define SCN_ASSERT(cond, msg) assert((cond) && msg)
  |  |  ------------------
  ------------------
 1747|  16.0k|        return this->get_unexpected().error();
 1748|  16.0k|    }
_ZNR3scn2v46detail21expected_storage_baseIPKwNS0_10scan_errorELb1EE14get_unexpectedEv:
  472|  16.0k|    {
  473|  16.0k|        return m_unexpected;
  474|  16.0k|    }
_ZNO3scn2v48expectedIPKwNS0_10scan_errorEEdeIS3_TnPNSt3__19enable_ifIXntsr3stdE9is_void_vIT_EEvE4typeELPv0EEEOS9_v:
 1804|  12.4k|    {
 1805|  12.4k|        return std::move(value());
 1806|  12.4k|    }
_ZNR3scn2v48expectedIPKwNS0_10scan_errorEE5valueIS3_TnPNSt3__19enable_ifIXntsr3stdE9is_void_vIT_EEvE4typeELPv0EEERS9_v:
 1768|  16.0k|    {
 1769|  16.0k|        SCN_EXPECT(has_value());
  ------------------
  |  |  930|  16.0k|#define SCN_EXPECT(cond) SCN_ASSERT(cond, "Precondition violation")
  |  |  ------------------
  |  |  |  |  927|  16.0k|#define SCN_ASSERT(cond, msg) assert((cond) && msg)
  |  |  ------------------
  ------------------
 1770|  16.0k|        return this->get_value();
 1771|  16.0k|    }
_ZNR3scn2v46detail21expected_storage_baseIPKwNS0_10scan_errorELb1EE9get_valueEv:
  455|  16.0k|    {
  456|  16.0k|        return m_value;
  457|  16.0k|    }
_ZNO3scn2v48expectedIPKcNS0_4impl9eof_errorEE15transform_errorIRFNS0_10scan_errorES5_EEEDTclsr6detailE20transform_error_impldefpTclsr3stdE7forwardIT_Efp_EEEOSB_:
 1978|  8.32k|    {
 1979|  8.32k|        return detail::transform_error_impl(std::move(*this),
 1980|  8.32k|                                            std::forward<F>(f));
 1981|  8.32k|    }
_ZN3scn2v46detail20transform_error_implINS0_8expectedIPKcNS0_4impl9eof_errorEEERFNS0_10scan_errorES7_ETnPNSt3__19enable_ifIXntsr11is_exp_voidIT_EE5valueEvE4typeELPv0ES9_EEDaOSE_OT0_:
 1461|  8.32k|{
 1462|       |    if constexpr (std::is_void_v<Ret>) {
 1463|       |        using result = expected<expected_value_type<Exp>, monostate>;
 1464|       |        if (SCN_LIKELY(exp.has_value())) {
 1465|       |            return result(*std::forward<Exp>(exp));
 1466|       |        }
 1467|       |
 1468|       |        trivial_invoke(std::forward<F>(f), std::forward<Exp>(exp).error());
 1469|       |        return result(unexpect, monostate{});
 1470|       |    }
 1471|  8.32k|    else {
 1472|  8.32k|        using result = expected<expected_value_type<Exp>, remove_cvref_t<Ret>>;
 1473|  8.32k|        return SCN_LIKELY(exp.has_value())
  ------------------
  |  |  864|  8.32k|#define SCN_LIKELY(x)   __builtin_expect(!!(x), 1)
  |  |  ------------------
  |  |  |  Branch (864:25): [True: 8.32k, False: 0]
  |  |  ------------------
  ------------------
 1474|  8.32k|                   ? result(*std::forward<Exp>(exp))
 1475|  8.32k|                   : result(unexpect,
 1476|      0|                            trivial_invoke(std::forward<F>(f),
 1477|      0|                                           std::forward<Exp>(exp).error()));
 1478|  8.32k|    }
 1479|  8.32k|}
_ZNK3scn2v46detail21expected_storage_baseIPKcNS0_4impl9eof_errorELb1EE9has_valueEv:
  489|  81.0k|    {
  490|  81.0k|        return m_has_value;
  491|  81.0k|    }
_ZNO3scn2v48expectedIPKcNS0_4impl9eof_errorEEdeIS3_TnPNSt3__19enable_ifIXntsr3stdE9is_void_vIT_EEvE4typeELPv0EEEOSA_v:
 1804|  10.2k|    {
 1805|  10.2k|        return std::move(value());
 1806|  10.2k|    }
_ZNR3scn2v48expectedIPKcNS0_4impl9eof_errorEE5valueIS3_TnPNSt3__19enable_ifIXntsr3stdE9is_void_vIT_EEvE4typeELPv0EEERSA_v:
 1768|  37.5k|    {
 1769|  37.5k|        SCN_EXPECT(has_value());
  ------------------
  |  |  930|  37.5k|#define SCN_EXPECT(cond) SCN_ASSERT(cond, "Precondition violation")
  |  |  ------------------
  |  |  |  |  927|  37.5k|#define SCN_ASSERT(cond, msg) assert((cond) && msg)
  |  |  ------------------
  ------------------
 1770|  37.5k|        return this->get_value();
 1771|  37.5k|    }
_ZNR3scn2v46detail21expected_storage_baseIPKcNS0_4impl9eof_errorELb1EE9get_valueEv:
  455|  37.5k|    {
  456|  37.5k|        return m_value;
  457|  37.5k|    }
_ZNO3scn2v48expectedIPKcNS0_4impl9eof_errorEE5errorEv:
 1755|    102|    {
 1756|    102|        SCN_EXPECT(!has_value());
  ------------------
  |  |  930|    102|#define SCN_EXPECT(cond) SCN_ASSERT(cond, "Precondition violation")
  |  |  ------------------
  |  |  |  |  927|    102|#define SCN_ASSERT(cond, msg) assert((cond) && msg)
  |  |  ------------------
  ------------------
 1757|    102|        return std::move(this->get_unexpected().error());
 1758|    102|    }
_ZNR3scn2v46detail21expected_storage_baseIPKcNS0_4impl9eof_errorELb1EE14get_unexpectedEv:
  472|    102|    {
  473|    102|        return m_unexpected;
  474|    102|    }
_ZN3scn2v48expectedIPKcNS0_10scan_errorEEC2IJS4_EvEENS0_10unexpect_tEDpOT_:
 1625|    924|        : base(unexpect, std::forward<Args>(args)...),
 1626|    924|          ctor_base(detail::non_default_ctor_tag_t{})
 1627|    924|    {
 1628|    924|    }
_ZNK3scn2v46detail17scan_context_baseINS0_15basic_scan_argsINS0_18basic_scan_contextINS1_16buffer_range_tagEcEEEEE4argsEv:
 8836|  5.72k|    {
 8837|  5.72k|        return m_args;
 8838|  5.72k|    }
_ZNK3scn2v46detail17scan_context_baseINS0_15basic_scan_argsINS0_18basic_scan_contextINS1_16buffer_range_tagEcEEEEE6localeEv:
 8841|  26.4k|    {
 8842|  26.4k|        return m_locale;
 8843|  26.4k|    }
_ZN3scn2v46detail17scan_context_baseINS0_15basic_scan_argsINS0_18basic_scan_contextINS1_16buffer_range_tagEcEEEEEC2ES7_NS1_10locale_refE:
 8847|  46.1k|        : m_args(SCN_MOVE(args)), m_locale(SCN_MOVE(loc))
  ------------------
  |  |  934|  46.1k|    static_cast<    \
  |  |  935|  46.1k|        typename ::scn::detail::remove_reference<decltype(x)>::type&&>(x)
  ------------------
                      : m_args(SCN_MOVE(args)), m_locale(SCN_MOVE(loc))
  ------------------
  |  |  934|  46.1k|    static_cast<    \
  |  |  935|  46.1k|        typename ::scn::detail::remove_reference<decltype(x)>::type&&>(x)
  ------------------
 8848|  46.1k|    {
 8849|  46.1k|    }
_ZNK3scn2v46ranges6detail5data_2fnclIRNSt3__117basic_string_viewIcNS6_11char_traitsIcEEEEEEDTclsr2fnE4implscDtfp_Efp_tlNS0_6detail12priority_tagILm1EEEEEEOT_:
 2999|  7.62k|    {
 3000|  7.62k|        return fn::impl(SCN_FWD(t), priority_tag<1>{});
  ------------------
  |  |  936|  7.62k|#define SCN_FWD(x)          static_cast<decltype(x)&&>(x)
  ------------------
 3001|  7.62k|    }
_ZN3scn2v46ranges6detail5data_2fn4implINSt3__117basic_string_viewIcNS6_11char_traitsIcEEEEPKcEENS6_9enable_ifIX19is_object_pointer_vIT0_EESE_E4typeERT_NS0_6detail12priority_tagILm1EEE:
 2980|  7.62k|    {
 2981|  7.62k|        return t.data();
 2982|  7.62k|    }
_ZNK3scn2v46detail17scan_context_baseINS0_15basic_scan_argsINS0_18basic_scan_contextINS1_16buffer_range_tagEwEEEEE4argsEv:
 8836|  4.26k|    {
 8837|  4.26k|        return m_args;
 8838|  4.26k|    }
_ZNK3scn2v46detail17scan_context_baseINS0_15basic_scan_argsINS0_18basic_scan_contextINS1_16buffer_range_tagEwEEEEE6localeEv:
 8841|  12.6k|    {
 8842|  12.6k|        return m_locale;
 8843|  12.6k|    }
_ZN3scn2v46detail17scan_context_baseINS0_15basic_scan_argsINS0_18basic_scan_contextINS1_16buffer_range_tagEwEEEEEC2ES7_NS1_10locale_refE:
 8847|  92.3k|        : m_args(SCN_MOVE(args)), m_locale(SCN_MOVE(loc))
  ------------------
  |  |  934|  92.3k|    static_cast<    \
  |  |  935|  92.3k|        typename ::scn::detail::remove_reference<decltype(x)>::type&&>(x)
  ------------------
                      : m_args(SCN_MOVE(args)), m_locale(SCN_MOVE(loc))
  ------------------
  |  |  934|  92.3k|    static_cast<    \
  |  |  935|  92.3k|        typename ::scn::detail::remove_reference<decltype(x)>::type&&>(x)
  ------------------
 8848|  92.3k|    {
 8849|  92.3k|    }
_ZN3scn2v48expectedIvNS0_10scan_errorEEC2IS2_TnPNSt3__19enable_ifIXsr3stdE18is_constructible_vIS2_OT_EEvE4typeELPv0ETnPNS6_IXsr3stdE16is_convertible_vIS8_S2_EEvE4typeELSC_0EEEONS0_10unexpectedIS7_EE:
 1615|   330k|        : base(unexpect, std::move(e.error())),
 1616|   330k|          ctor_base(detail::non_default_ctor_tag_t{})
 1617|   330k|    {
 1618|   330k|    }
_ZN3scn2v46detail21expected_storage_baseIvNS0_10scan_errorELb1EEC2IJS3_EvEENS0_10unexpect_tEDpOT_:
  548|   330k|        : m_unexpected(std::in_place, std::forward<Args>(args)...),
  549|   330k|          m_has_value(false)
  550|   330k|    {
  551|   330k|    }
_ZN3scn2v46detail26expected_default_ctor_baseIvNS0_10scan_errorELb1EEC2ENS1_22non_default_ctor_tag_tE:
 1315|   330k|    {
 1316|   330k|    }
_ZN3scn2v48expectedIvNS0_10scan_errorEEC2Ev:
 1551|   346k|    constexpr expected() = default;
_ZN3scn2v46detail21expected_storage_baseIvNS0_10scan_errorELb1EEC2Ev:
  528|   346k|        : m_deferred_init(), m_has_value(true)
  529|   346k|    {
  530|   346k|    }
_ZNK3scn2v46detail9fill_type13get_code_unitIcEET_v:
 6938|  1.21k|    {
 6939|  1.21k|        SCN_EXPECT(m_size <= sizeof(CharT));
  ------------------
  |  |  930|  1.21k|#define SCN_EXPECT(cond) SCN_ASSERT(cond, "Precondition violation")
  |  |  ------------------
  |  |  |  |  927|  1.21k|#define SCN_ASSERT(cond, msg) assert((cond) && msg)
  |  |  ------------------
  ------------------
 6940|  1.21k|        CharT r{};
 6941|  1.21k|        std::memcpy(&r, m_data, m_size);
 6942|  1.21k|        return r;
 6943|  1.21k|    }
_ZN3scn2v410unexpectedINS0_4impl9eof_errorEEC2IS3_vEEOT_:
  349|  1.38k|        : m_unexpected(std::forward<Err>(e))
  350|  1.38k|    {
  351|  1.38k|        SCN_UNLIKELY_ATTR SCN_UNUSED(m_unexpected);
  ------------------
  |  |  915|  1.38k|#define SCN_UNUSED(x) static_cast<void>(sizeof(x))
  ------------------
  352|  1.38k|    }
_ZN3scn2v410unexpectedINS0_4impl9eof_errorEEC2IJS3_EvEENSt3__110in_place_tEDpOT_:
  358|  1.62k|        : m_unexpected(std::forward<Args>(args)...)
  359|  1.62k|    {
  360|  1.62k|        SCN_UNLIKELY_ATTR SCN_UNUSED(m_unexpected);
  ------------------
  |  |  915|  1.62k|#define SCN_UNUSED(x) static_cast<void>(sizeof(x))
  ------------------
  361|  1.62k|    }
_ZNK3scn2v46detail9fill_type14get_code_unitsIcEENSt3__117basic_string_viewIT_NS4_11char_traitsIS6_EEEEv:
 6947|  1.19k|    {
 6948|  1.19k|        return {reinterpret_cast<const CharT*>(m_data), m_size};
 6949|  1.19k|    }
_ZNK3scn2v46ranges6detail6ssize_2fnclIRKNSt3__117basic_string_viewIcNS6_11char_traitsIcEEEEEEDTclsr2fnE4implclsr3stdE7forwardIT_Efp_EEEOSD_:
 3106|     52|    {
 3107|     52|        return fn::impl(std::forward<T>(t));
 3108|     52|    }
_ZN3scn2v46ranges6detail6ssize_2fn4implIRKNSt3__117basic_string_viewIcNS6_11char_traitsIcEEEEEEDTcmclL_ZNS1_4sizeEEclsr3stdE7forwardIT_Efp_EEcvNS6_11conditionalIXltstNS6_9enable_ifIX5rangeISD_EENS1_20incrementable_traitsIDTclL_ZNS1_5beginEEclsr3stdE7declvalIRSD_EEEEE15difference_typeEE4typeELm8EElSM_E4typeE_EEOSD_:
 3097|     52|    {
 3098|     52|        return static_cast<ssize_return_t<T>>(ranges::size(std::forward<T>(t)));
 3099|     52|    }
_ZNK3scn2v46ranges6detail5size_2fnclIRKNSt3__117basic_string_viewIcNS6_11char_traitsIcEEEEEEDTclsr2fnE4implclsr3stdE7forwardIT_Efp_EtlNS0_6detail12priority_tagILm3EEEEEEOSD_:
 3074|     52|    {
 3075|     52|        return fn::impl(std::forward<T>(t), priority_tag<3>{});
 3076|     52|    }
_ZN3scn2v46ranges6detail5size_2fn4implIRKNSt3__117basic_string_viewIcNS6_11char_traitsIcEEEEmEENS6_9enable_ifIXaasr3stdE13is_integral_vIT0_Ent19disable_sized_rangeIu11__remove_cvIu20__remove_reference_tIT_EEEESE_E4typeEOSF_NS0_6detail12priority_tagILm2EEE:
 3040|     52|    {
 3041|     52|        return decay_copy(SCN_FWD(t).size());
  ------------------
  |  |  936|     52|#define SCN_FWD(x)          static_cast<decltype(x)&&>(x)
  ------------------
 3042|     52|    }
_ZN3scn2v410unexpectedINS0_4impl9eof_errorEEC2IRS3_vEEOT_:
  349|    238|        : m_unexpected(std::forward<Err>(e))
  350|    238|    {
  351|    238|        SCN_UNLIKELY_ATTR SCN_UNUSED(m_unexpected);
  ------------------
  |  |  915|    238|#define SCN_UNUSED(x) static_cast<void>(sizeof(x))
  ------------------
  352|    238|    }
_ZN3scn2v410unexpectedINS0_4impl11parse_errorEEC2IS3_vEEOT_:
  349|      8|        : m_unexpected(std::forward<Err>(e))
  350|      8|    {
  351|      8|        SCN_UNLIKELY_ATTR SCN_UNUSED(m_unexpected);
  ------------------
  |  |  915|      8|#define SCN_UNUSED(x) static_cast<void>(sizeof(x))
  ------------------
  352|      8|    }
_ZNR3scn2v410unexpectedINS0_4impl11parse_errorEE5errorEv:
  364|  18.6k|    {
  365|  18.6k|        return m_unexpected;
  366|  18.6k|    }
_ZN3scn2v410unexpectedINS0_4impl11parse_errorEEC2IJS3_EvEENSt3__110in_place_tEDpOT_:
  358|  3.79k|        : m_unexpected(std::forward<Args>(args)...)
  359|  3.79k|    {
  360|  3.79k|        SCN_UNLIKELY_ATTR SCN_UNUSED(m_unexpected);
  ------------------
  |  |  915|  3.79k|#define SCN_UNUSED(x) static_cast<void>(sizeof(x))
  ------------------
  361|  3.79k|    }
_ZN3scn2v410unexpectedINS0_4impl11parse_error4codeEEC2IS4_vEEOT_:
  349|  28.0k|        : m_unexpected(std::forward<Err>(e))
  350|  28.0k|    {
  351|  28.0k|        SCN_UNLIKELY_ATTR SCN_UNUSED(m_unexpected);
  ------------------
  |  |  915|  28.0k|#define SCN_UNUSED(x) static_cast<void>(sizeof(x))
  ------------------
  352|  28.0k|    }
_ZNR3scn2v410unexpectedINS0_4impl11parse_error4codeEE5errorEv:
  364|  28.0k|    {
  365|  28.0k|        return m_unexpected;
  366|  28.0k|    }
_ZN3scn2v410unexpectedINS0_4impl11parse_errorEEC2IJNS3_4codeEEvEENSt3__110in_place_tEDpOT_:
  358|  28.0k|        : m_unexpected(std::forward<Args>(args)...)
  359|  28.0k|    {
  360|  28.0k|        SCN_UNLIKELY_ATTR SCN_UNUSED(m_unexpected);
  ------------------
  |  |  915|  28.0k|#define SCN_UNUSED(x) static_cast<void>(sizeof(x))
  ------------------
  361|  28.0k|    }
_ZN3scn2v46detail14trivial_invokeIRFNS0_4impl11parse_errorENS3_9eof_errorEEJS5_EvEEDcOT_DpOT0_:
 1349|    812|{
 1350|    812|    return std::forward<F>(f)(std::forward<Args>(args)...);
 1351|    812|}
_ZN3scn2v410unexpectedINS0_4impl11parse_errorEEC2IRS3_vEEOT_:
  349|  2.97k|        : m_unexpected(std::forward<Err>(e))
  350|  2.97k|    {
  351|  2.97k|        SCN_UNLIKELY_ATTR SCN_UNUSED(m_unexpected);
  ------------------
  |  |  915|  2.97k|#define SCN_UNUSED(x) static_cast<void>(sizeof(x))
  ------------------
  352|  2.97k|    }
_ZN3scn2v46detail14trivial_invokeIZNS0_4impl29map_parse_error_to_scan_errorENS0_10scan_error4codeEPKcEUlNS3_11parse_errorEE_JS8_EvEEDcOT_DpOT0_:
 1349|  1.34k|{
 1350|  1.34k|    return std::forward<F>(f)(std::forward<Args>(args)...);
 1351|  1.34k|}
_ZN3scn2v46detail10to_addressIPKcEEDTclgssr3scn6detailE15to_address_implscDtfp_Efp_tlNS1_12priority_tagILm2EEEEEEOT_:
  315|   134k|{
  316|   134k|    return ::scn::detail::to_address_impl(SCN_FWD(p), priority_tag<2>{});
  ------------------
  |  |  936|   134k|#define SCN_FWD(x)          static_cast<decltype(x)&&>(x)
  ------------------
  317|   134k|}
_ZNK3scn2v46ranges6detail9subrange_8subrangeIPKcS6_E4sizeIS6_TnPNSt3__19enable_ifIX18sized_sentinel_forIS6_T_EEvE4typeELPv0EEEmv:
 3495|   109k|    {
 3496|   109k|        return static_cast<size_t>(m_sentinel - m_iterator);
 3497|   109k|    }
_ZN3scn2v48expectedIPKcNS0_4impl9eof_errorEEC2IS5_TnPNSt3__19enable_ifIXsr3stdE18is_constructible_vIS5_OT_EEvE4typeELPv0ETnPNS9_IXsr3stdE16is_convertible_vISB_S5_EEvE4typeELSF_0EEEONS0_10unexpectedISA_EE:
 1615|    530|        : base(unexpect, std::move(e.error())),
 1616|    530|          ctor_base(detail::non_default_ctor_tag_t{})
 1617|    530|    {
 1618|    530|    }
_ZN3scn2v46detail21expected_storage_baseIPKcNS0_4impl9eof_errorELb1EEC2IJS6_EvEENS0_10unexpect_tEDpOT_:
  449|    530|        : m_unexpected(std::in_place, std::forward<Args>(args)...),
  450|    530|          m_has_value(false)
  451|    530|    {
  452|    530|    }
_ZN3scn2v46detail26expected_default_ctor_baseIPKcNS0_4impl9eof_errorELb1EEC2ENS1_22non_default_ctor_tag_tE:
 1315|  43.4k|    {
 1316|  43.4k|    }
_ZN3scn2v48expectedIPKcNS0_4impl9eof_errorEEC2IS3_vEEOT_:
 1569|  42.8k|        : base(std::in_place, std::forward<U>(val)),
 1570|  42.8k|          ctor_base(detail::non_default_ctor_tag_t{})
 1571|  42.8k|    {
 1572|  42.8k|    }
_ZN3scn2v46detail21expected_storage_baseIPKcNS0_4impl9eof_errorELb1EEC2IJS4_EvEENSt3__110in_place_tEDpOT_:
  440|  42.8k|        : m_value(std::forward<Args>(args)...), m_has_value(true)
  441|  42.8k|    {
  442|  42.8k|    }
_ZNK3scn2v48expectedIPKcNS0_4impl9eof_errorEEcvbEv:
 1739|  33.0k|    {
 1740|  33.0k|        return has_value();
 1741|  33.0k|    }
_ZNR3scn2v48expectedIPKcNS0_4impl9eof_errorEEdeIS3_TnPNSt3__19enable_ifIXntsr3stdE9is_void_vIT_EEvE4typeELPv0EEERSA_v:
 1794|  27.3k|    {
 1795|  27.3k|        return value();
 1796|  27.3k|    }
_ZN3scn2v48expectedINS0_4impl27counted_width_iterator_impl22counted_width_iteratorIPKcS6_EENS2_9eof_errorEEC2IS7_vEEOT_:
 1569|  8.85k|        : base(std::in_place, std::forward<U>(val)),
 1570|  8.85k|          ctor_base(detail::non_default_ctor_tag_t{})
 1571|  8.85k|    {
 1572|  8.85k|    }
_ZN3scn2v46detail21expected_storage_baseINS0_4impl27counted_width_iterator_impl22counted_width_iteratorIPKcS7_EENS3_9eof_errorELb1EEC2IJS8_EvEENSt3__110in_place_tEDpOT_:
  440|  8.85k|        : m_value(std::forward<Args>(args)...), m_has_value(true)
  441|  8.85k|    {
  442|  8.85k|    }
_ZN3scn2v46detail26expected_default_ctor_baseINS0_4impl27counted_width_iterator_impl22counted_width_iteratorIPKcS7_EENS3_9eof_errorELb1EEC2ENS1_22non_default_ctor_tag_tE:
 1315|  9.31k|    {
 1316|  9.31k|    }
_ZN3scn2v48expectedINS0_4impl27counted_width_iterator_impl22counted_width_iteratorIPKcS6_EENS2_9eof_errorEEC2IS8_TnPNSt3__19enable_ifIXsr3stdE18is_constructible_vIS8_OT_EEvE4typeELPv0ETnPNSC_IXsr3stdE16is_convertible_vISE_S8_EEvE4typeELSI_0EEEONS0_10unexpectedISD_EE:
 1615|    462|        : base(unexpect, std::move(e.error())),
 1616|    462|          ctor_base(detail::non_default_ctor_tag_t{})
 1617|    462|    {
 1618|    462|    }
_ZN3scn2v46detail21expected_storage_baseINS0_4impl27counted_width_iterator_impl22counted_width_iteratorIPKcS7_EENS3_9eof_errorELb1EEC2IJS9_EvEENS0_10unexpect_tEDpOT_:
  449|    462|        : m_unexpected(std::in_place, std::forward<Args>(args)...),
  450|    462|          m_has_value(false)
  451|    462|    {
  452|    462|    }
_ZNK3scn2v48expectedINS0_4impl27counted_width_iterator_impl22counted_width_iteratorIPKcS6_EENS2_9eof_errorEEcvbEv:
 1739|  6.17k|    {
 1740|  6.17k|        return has_value();
 1741|  6.17k|    }
_ZNK3scn2v46detail21expected_storage_baseINS0_4impl27counted_width_iterator_impl22counted_width_iteratorIPKcS7_EENS3_9eof_errorELb1EE9has_valueEv:
  489|  16.6k|    {
  490|  16.6k|        return m_has_value;
  491|  16.6k|    }
_ZNR3scn2v48expectedINS0_4impl27counted_width_iterator_impl22counted_width_iteratorIPKcS6_EENS2_9eof_errorEEdeIS7_TnPNSt3__19enable_ifIXntsr3stdE9is_void_vIT_EEvE4typeELPv0EEERSD_v:
 1794|  4.19k|    {
 1795|  4.19k|        return value();
 1796|  4.19k|    }
_ZNR3scn2v48expectedINS0_4impl27counted_width_iterator_impl22counted_width_iteratorIPKcS6_EENS2_9eof_errorEE5valueIS7_TnPNSt3__19enable_ifIXntsr3stdE9is_void_vIT_EEvE4typeELPv0EEERSD_v:
 1768|  6.93k|    {
 1769|  6.93k|        SCN_EXPECT(has_value());
  ------------------
  |  |  930|  6.93k|#define SCN_EXPECT(cond) SCN_ASSERT(cond, "Precondition violation")
  |  |  ------------------
  |  |  |  |  927|  6.93k|#define SCN_ASSERT(cond, msg) assert((cond) && msg)
  |  |  ------------------
  ------------------
 1770|  6.93k|        return this->get_value();
 1771|  6.93k|    }
_ZNR3scn2v46detail21expected_storage_baseINS0_4impl27counted_width_iterator_impl22counted_width_iteratorIPKcS7_EENS3_9eof_errorELb1EE9get_valueEv:
  455|  6.93k|    {
  456|  6.93k|        return m_value;
  457|  6.93k|    }
_ZN3scn2v48expectedINSt3__14pairINS0_4impl27counted_width_iterator_impl22counted_width_iteratorIPKcS8_EElEENS0_10scan_errorEEC2ISB_TnPNS2_9enable_ifIXsr3stdE18is_constructible_vISB_OT_EEvE4typeELPv0ETnPNSE_IXsr3stdE16is_convertible_vISG_SB_EEvE4typeELSK_0EEEONS0_10unexpectedISF_EE:
 1615|    238|        : base(unexpect, std::move(e.error())),
 1616|    238|          ctor_base(detail::non_default_ctor_tag_t{})
 1617|    238|    {
 1618|    238|    }
_ZN3scn2v46detail21expected_storage_baseINSt3__14pairINS0_4impl27counted_width_iterator_impl22counted_width_iteratorIPKcS9_EElEENS0_10scan_errorELb1EEC2IJSC_EvEENS0_10unexpect_tEDpOT_:
  449|    238|        : m_unexpected(std::in_place, std::forward<Args>(args)...),
  450|    238|          m_has_value(false)
  451|    238|    {
  452|    238|    }
_ZN3scn2v46detail26expected_default_ctor_baseINSt3__14pairINS0_4impl27counted_width_iterator_impl22counted_width_iteratorIPKcS9_EElEENS0_10scan_errorELb1EEC2ENS1_22non_default_ctor_tag_tE:
 1315|  4.68k|    {
 1316|  4.68k|    }
_ZN3scn2v48expectedINSt3__14pairINS0_4impl27counted_width_iterator_impl22counted_width_iteratorIPKcS8_EElEENS0_10scan_errorEEC2ISA_vEEOT_:
 1569|  4.45k|        : base(std::in_place, std::forward<U>(val)),
 1570|  4.45k|          ctor_base(detail::non_default_ctor_tag_t{})
 1571|  4.45k|    {
 1572|  4.45k|    }
_ZN3scn2v46detail21expected_storage_baseINSt3__14pairINS0_4impl27counted_width_iterator_impl22counted_width_iteratorIPKcS9_EElEENS0_10scan_errorELb1EEC2IJSB_EvEENS3_10in_place_tEDpOT_:
  440|  4.45k|        : m_value(std::forward<Args>(args)...), m_has_value(true)
  441|  4.45k|    {
  442|  4.45k|    }
_ZNO3scn2v48expectedINS0_4impl27counted_width_iterator_impl22counted_width_iteratorIPKcS6_EENS2_9eof_errorEE15transform_errorIRFNS0_10scan_errorES8_EEEDTclsr6detailE20transform_error_impldefpTclsr3stdE7forwardIT_Efp_EEEOSE_:
 1978|    860|    {
 1979|    860|        return detail::transform_error_impl(std::move(*this),
 1980|    860|                                            std::forward<F>(f));
 1981|    860|    }
_ZN3scn2v46detail20transform_error_implINS0_8expectedINS0_4impl27counted_width_iterator_impl22counted_width_iteratorIPKcS8_EENS4_9eof_errorEEERFNS0_10scan_errorESA_ETnPNSt3__19enable_ifIXntsr11is_exp_voidIT_EE5valueEvE4typeELPv0ESC_EEDaOSH_OT0_:
 1461|    860|{
 1462|       |    if constexpr (std::is_void_v<Ret>) {
 1463|       |        using result = expected<expected_value_type<Exp>, monostate>;
 1464|       |        if (SCN_LIKELY(exp.has_value())) {
 1465|       |            return result(*std::forward<Exp>(exp));
 1466|       |        }
 1467|       |
 1468|       |        trivial_invoke(std::forward<F>(f), std::forward<Exp>(exp).error());
 1469|       |        return result(unexpect, monostate{});
 1470|       |    }
 1471|    860|    else {
 1472|    860|        using result = expected<expected_value_type<Exp>, remove_cvref_t<Ret>>;
 1473|    860|        return SCN_LIKELY(exp.has_value())
  ------------------
  |  |  864|    860|#define SCN_LIKELY(x)   __builtin_expect(!!(x), 1)
  |  |  ------------------
  |  |  |  Branch (864:25): [True: 860, False: 0]
  |  |  ------------------
  ------------------
 1474|    860|                   ? result(*std::forward<Exp>(exp))
 1475|    860|                   : result(unexpect,
 1476|      0|                            trivial_invoke(std::forward<F>(f),
 1477|      0|                                           std::forward<Exp>(exp).error()));
 1478|    860|    }
 1479|    860|}
_ZNO3scn2v48expectedINS0_4impl27counted_width_iterator_impl22counted_width_iteratorIPKcS6_EENS2_9eof_errorEEdeIS7_TnPNSt3__19enable_ifIXntsr3stdE9is_void_vIT_EEvE4typeELPv0EEEOSD_v:
 1804|  2.74k|    {
 1805|  2.74k|        return std::move(value());
 1806|  2.74k|    }
_ZN3scn2v48expectedINS0_4impl27counted_width_iterator_impl22counted_width_iteratorIPKcS6_EENS0_10scan_errorEEC2IS7_vEEOT_:
 1569|  2.50k|        : base(std::in_place, std::forward<U>(val)),
 1570|  2.50k|          ctor_base(detail::non_default_ctor_tag_t{})
 1571|  2.50k|    {
 1572|  2.50k|    }
_ZN3scn2v46detail21expected_storage_baseINS0_4impl27counted_width_iterator_impl22counted_width_iteratorIPKcS7_EENS0_10scan_errorELb1EEC2IJS8_EvEENSt3__110in_place_tEDpOT_:
  440|  2.50k|        : m_value(std::forward<Args>(args)...), m_has_value(true)
  441|  2.50k|    {
  442|  2.50k|    }
_ZN3scn2v46detail26expected_default_ctor_baseINS0_4impl27counted_width_iterator_impl22counted_width_iteratorIPKcS7_EENS0_10scan_errorELb1EEC2ENS1_22non_default_ctor_tag_tE:
 1315|  9.31k|    {
 1316|  9.31k|    }
_ZNO3scn2v48expectedINS0_4impl27counted_width_iterator_impl22counted_width_iteratorIPKcS6_EENS2_9eof_errorEE5errorEv:
 1755|    400|    {
 1756|    400|        SCN_EXPECT(!has_value());
  ------------------
  |  |  930|    400|#define SCN_EXPECT(cond) SCN_ASSERT(cond, "Precondition violation")
  |  |  ------------------
  |  |  |  |  927|    400|#define SCN_ASSERT(cond, msg) assert((cond) && msg)
  |  |  ------------------
  ------------------
 1757|    400|        return std::move(this->get_unexpected().error());
 1758|    400|    }
_ZNR3scn2v46detail21expected_storage_baseINS0_4impl27counted_width_iterator_impl22counted_width_iteratorIPKcS7_EENS3_9eof_errorELb1EE14get_unexpectedEv:
  472|    400|    {
  473|    400|        return m_unexpected;
  474|    400|    }
_ZN3scn2v48expectedINS0_4impl27counted_width_iterator_impl22counted_width_iteratorIPKcS6_EENS0_10scan_errorEEC2IJS8_EvEENS0_10unexpect_tEDpOT_:
 1625|  1.70k|        : base(unexpect, std::forward<Args>(args)...),
 1626|  1.70k|          ctor_base(detail::non_default_ctor_tag_t{})
 1627|  1.70k|    {
 1628|  1.70k|    }
_ZN3scn2v46detail21expected_storage_baseINS0_4impl27counted_width_iterator_impl22counted_width_iteratorIPKcS7_EENS0_10scan_errorELb1EEC2IJS9_EvEENS0_10unexpect_tEDpOT_:
  449|  6.03k|        : m_unexpected(std::in_place, std::forward<Args>(args)...),
  450|  6.03k|          m_has_value(false)
  451|  6.03k|    {
  452|  6.03k|    }
_ZNK3scn2v46ranges6detail6begin_2fnclIRNS2_9subrange_8subrangeINS0_4impl27counted_width_iterator_impl22counted_width_iteratorIPKcSC_EESD_EEEEDTclsr2fnE4implscDtfp_Efp_tlNS0_6detail12priority_tagILm3EEEEEEOT_:
 2868|  2.07k|    {
 2869|  2.07k|        return fn::impl(SCN_FWD(t), priority_tag<3>{});
  ------------------
  |  |  936|  2.07k|#define SCN_FWD(x)          static_cast<decltype(x)&&>(x)
  ------------------
 2870|  2.07k|    }
_ZN3scn2v46ranges6detail6begin_2fn4implIRNS2_9subrange_8subrangeINS0_4impl27counted_width_iterator_impl22counted_width_iteratorIPKcSC_EESD_EEEENSt3__19enable_ifIX24input_or_output_iteratorIDTcl10decay_copycldtscDtfp_Efp_5beginEEEEESJ_E4typeEOT_NS0_6detail12priority_tagILm1EEE:
 2849|  2.07k|    {
 2850|  2.07k|        return decay_copy(t.begin());
 2851|  2.07k|    }
_ZN3scn2v46ranges6detail10decay_copyINS0_4impl27counted_width_iterator_impl22counted_width_iteratorIPKcS8_EEEEu7__decayIT_EOSA_:
 2093|  4.48k|{
 2094|  4.48k|    return SCN_FWD(t);
  ------------------
  |  |  936|  4.48k|#define SCN_FWD(x)          static_cast<decltype(x)&&>(x)
  ------------------
 2095|  4.48k|}
_ZNK3scn2v46ranges6detail9subrange_8subrangeINS0_4impl27counted_width_iterator_impl22counted_width_iteratorIPKcS9_EESA_E5beginEv:
 3479|  2.07k|    {
 3480|  2.07k|        return m_iterator;
 3481|  2.07k|    }
_ZNK3scn2v46ranges6detail4end_2fnclIRNS2_9subrange_8subrangeINS0_4impl27counted_width_iterator_impl22counted_width_iteratorIPKcSC_EESD_EEEEDTclsr2fnE4implscDtfp_Efp_tlNS0_6detail12priority_tagILm3EEEEEEOT_:
 2925|  2.07k|    {
 2926|  2.07k|        return fn::impl(SCN_FWD(t), priority_tag<3>{});
  ------------------
  |  |  936|  2.07k|#define SCN_FWD(x)          static_cast<decltype(x)&&>(x)
  ------------------
 2927|  2.07k|    }
_ZN3scn2v46ranges6detail4end_2fn4implIRNS2_9subrange_8subrangeINS0_4impl27counted_width_iterator_impl22counted_width_iteratorIPKcSC_EESD_EESD_SD_EENSt3__19enable_ifIX12sentinel_forIT0_T1_EEDTcl10decay_copycldtscDtfp_Efp_3endEEEE4typeEOT_NS0_6detail12priority_tagILm1EEE:
 2907|  2.07k|    {
 2908|  2.07k|        return decay_copy(SCN_FWD(t).end());
  ------------------
  |  |  936|  2.07k|#define SCN_FWD(x)          static_cast<decltype(x)&&>(x)
  ------------------
 2909|  2.07k|    }
_ZNK3scn2v46ranges6detail9subrange_8subrangeINS0_4impl27counted_width_iterator_impl22counted_width_iteratorIPKcS9_EESA_E3endEv:
 3483|  2.07k|    {
 3484|  2.07k|        return m_sentinel;
 3485|  2.07k|    }
_ZN3scn2v46ranges6detail9subrange_8subrangeINS0_4impl27counted_width_iterator_impl22counted_width_iteratorIPKcS9_EESA_EC2ISA_TnPNSt3__19enable_ifIXsr3stdE16is_convertible_vIT_SA_EEvE4typeELPv0EEESF_SA_:
 3464|  2.07k|        : m_iterator(SCN_MOVE(i)), m_sentinel(SCN_MOVE(s))
  ------------------
  |  |  934|  2.07k|    static_cast<    \
  |  |  935|  2.07k|        typename ::scn::detail::remove_reference<decltype(x)>::type&&>(x)
  ------------------
                      : m_iterator(SCN_MOVE(i)), m_sentinel(SCN_MOVE(s))
  ------------------
  |  |  934|  2.07k|    static_cast<    \
  |  |  935|  2.07k|        typename ::scn::detail::remove_reference<decltype(x)>::type&&>(x)
  ------------------
 3465|  2.07k|    {
 3466|  2.07k|    }
_ZNK3scn2v48expectedINSt3__14pairINS0_4impl27counted_width_iterator_impl22counted_width_iteratorIPKcS8_EElEENS0_10scan_errorEEcvbEv:
 1739|  4.68k|    {
 1740|  4.68k|        return has_value();
 1741|  4.68k|    }
_ZNK3scn2v46detail21expected_storage_baseINSt3__14pairINS0_4impl27counted_width_iterator_impl22counted_width_iteratorIPKcS9_EElEENS0_10scan_errorELb1EE9has_valueEv:
  489|  9.37k|    {
  490|  9.37k|        return m_has_value;
  491|  9.37k|    }
_ZNR3scn2v48expectedINSt3__14pairINS0_4impl27counted_width_iterator_impl22counted_width_iteratorIPKcS8_EElEENS0_10scan_errorEE5errorEv:
 1745|    238|    {
 1746|    238|        SCN_EXPECT(!has_value());
  ------------------
  |  |  930|    238|#define SCN_EXPECT(cond) SCN_ASSERT(cond, "Precondition violation")
  |  |  ------------------
  |  |  |  |  927|    238|#define SCN_ASSERT(cond, msg) assert((cond) && msg)
  |  |  ------------------
  ------------------
 1747|    238|        return this->get_unexpected().error();
 1748|    238|    }
_ZNR3scn2v46detail21expected_storage_baseINSt3__14pairINS0_4impl27counted_width_iterator_impl22counted_width_iteratorIPKcS9_EElEENS0_10scan_errorELb1EE14get_unexpectedEv:
  472|    238|    {
  473|    238|        return m_unexpected;
  474|    238|    }
_ZNO3scn2v48expectedINSt3__14pairINS0_4impl27counted_width_iterator_impl22counted_width_iteratorIPKcS8_EElEENS0_10scan_errorEEdeISA_TnPNS2_9enable_ifIXntsr3stdE9is_void_vIT_EEvE4typeELPv0EEEOSF_v:
 1804|  4.45k|    {
 1805|  4.45k|        return std::move(value());
 1806|  4.45k|    }
_ZNR3scn2v48expectedINSt3__14pairINS0_4impl27counted_width_iterator_impl22counted_width_iteratorIPKcS8_EElEENS0_10scan_errorEE5valueISA_TnPNS2_9enable_ifIXntsr3stdE9is_void_vIT_EEvE4typeELPv0EEERSF_v:
 1768|  4.45k|    {
 1769|  4.45k|        SCN_EXPECT(has_value());
  ------------------
  |  |  930|  4.45k|#define SCN_EXPECT(cond) SCN_ASSERT(cond, "Precondition violation")
  |  |  ------------------
  |  |  |  |  927|  4.45k|#define SCN_ASSERT(cond, msg) assert((cond) && msg)
  |  |  ------------------
  ------------------
 1770|  4.45k|        return this->get_value();
 1771|  4.45k|    }
_ZNR3scn2v46detail21expected_storage_baseINSt3__14pairINS0_4impl27counted_width_iterator_impl22counted_width_iteratorIPKcS9_EElEENS0_10scan_errorELb1EE9get_valueEv:
  455|  4.45k|    {
  456|  4.45k|        return m_value;
  457|  4.45k|    }
_ZN3scn2v46detail26expected_default_ctor_baseINSt3__14pairIPKclEENS0_10scan_errorELb1EEC2ENS1_22non_default_ctor_tag_tE:
 1315|  9.00k|    {
 1316|  9.00k|    }
_ZN3scn2v48expectedINSt3__14pairIPKclEENS0_10scan_errorEEC2IS6_vEEOT_:
 1569|  9.00k|        : base(std::in_place, std::forward<U>(val)),
 1570|  9.00k|          ctor_base(detail::non_default_ctor_tag_t{})
 1571|  9.00k|    {
 1572|  9.00k|    }
_ZN3scn2v46detail21expected_storage_baseINSt3__14pairIPKclEENS0_10scan_errorELb1EEC2IJS7_EvEENS3_10in_place_tEDpOT_:
  440|  9.00k|        : m_value(std::forward<Args>(args)...), m_has_value(true)
  441|  9.00k|    {
  442|  9.00k|    }
_ZNK3scn2v48expectedINSt3__14pairIPKclEENS0_10scan_errorEEcvbEv:
 1739|  9.00k|    {
 1740|  9.00k|        return has_value();
 1741|  9.00k|    }
_ZNK3scn2v46detail21expected_storage_baseINSt3__14pairIPKclEENS0_10scan_errorELb1EE9has_valueEv:
  489|  18.0k|    {
  490|  18.0k|        return m_has_value;
  491|  18.0k|    }
_ZNO3scn2v48expectedINSt3__14pairIPKclEENS0_10scan_errorEEdeIS6_TnPNS2_9enable_ifIXntsr3stdE9is_void_vIT_EEvE4typeELPv0EEEOSB_v:
 1804|  9.00k|    {
 1805|  9.00k|        return std::move(value());
 1806|  9.00k|    }
_ZNR3scn2v48expectedINSt3__14pairIPKclEENS0_10scan_errorEE5valueIS6_TnPNS2_9enable_ifIXntsr3stdE9is_void_vIT_EEvE4typeELPv0EEERSB_v:
 1768|  9.00k|    {
 1769|  9.00k|        SCN_EXPECT(has_value());
  ------------------
  |  |  930|  9.00k|#define SCN_EXPECT(cond) SCN_ASSERT(cond, "Precondition violation")
  |  |  ------------------
  |  |  |  |  927|  9.00k|#define SCN_ASSERT(cond, msg) assert((cond) && msg)
  |  |  ------------------
  ------------------
 1770|  9.00k|        return this->get_value();
 1771|  9.00k|    }
_ZNR3scn2v46detail21expected_storage_baseINSt3__14pairIPKclEENS0_10scan_errorELb1EE9get_valueEv:
  455|  9.00k|    {
  456|  9.00k|        return m_value;
  457|  9.00k|    }
_ZN3scn2v48expectedINS0_4impl27counted_width_iterator_impl22counted_width_iteratorIPKcS6_EENS0_10scan_errorEEC2IS8_TnPNSt3__19enable_ifIXsr3stdE18is_constructible_vIS8_OT_EEvE4typeELPv0ETnPNSC_IXsr3stdE16is_convertible_vISE_S8_EEvE4typeELSI_0EEEONS0_10unexpectedISD_EE:
 1615|  4.33k|        : base(unexpect, std::move(e.error())),
 1616|  4.33k|          ctor_base(detail::non_default_ctor_tag_t{})
 1617|  4.33k|    {
 1618|  4.33k|    }
_ZN3scn2v48expectedINS0_4impl27counted_width_iterator_impl22counted_width_iteratorIPKcS6_EENS2_11parse_errorEEC2IS8_TnPNSt3__19enable_ifIXsr3stdE18is_constructible_vIS8_OT_EEvE4typeELPv0ETnPNSC_IXsr3stdE16is_convertible_vISE_S8_EEvE4typeELSI_0EEEONS0_10unexpectedISD_EE:
 1615|    752|        : base(unexpect, std::move(e.error())),
 1616|    752|          ctor_base(detail::non_default_ctor_tag_t{})
 1617|    752|    {
 1618|    752|    }
_ZN3scn2v46detail21expected_storage_baseINS0_4impl27counted_width_iterator_impl22counted_width_iteratorIPKcS7_EENS3_11parse_errorELb1EEC2IJS9_EvEENS0_10unexpect_tEDpOT_:
  449|  1.15k|        : m_unexpected(std::in_place, std::forward<Args>(args)...),
  450|  1.15k|          m_has_value(false)
  451|  1.15k|    {
  452|  1.15k|    }
_ZN3scn2v46detail26expected_default_ctor_baseINS0_4impl27counted_width_iterator_impl22counted_width_iteratorIPKcS7_EENS3_11parse_errorELb1EEC2ENS1_22non_default_ctor_tag_tE:
 1315|  8.41k|    {
 1316|  8.41k|    }
_ZN3scn2v48expectedINS0_4impl27counted_width_iterator_impl22counted_width_iteratorIPKcS6_EENS2_11parse_errorEEC2INS8_4codeETnPNSt3__19enable_ifIXsr3stdE18is_constructible_vIS8_OT_EEvE4typeELPv0ETnPNSD_IXsr3stdE16is_convertible_vISF_S8_EEvE4typeELSJ_0EEEONS0_10unexpectedISE_EE:
 1615|  5.38k|        : base(unexpect, std::move(e.error())),
 1616|  5.38k|          ctor_base(detail::non_default_ctor_tag_t{})
 1617|  5.38k|    {
 1618|  5.38k|    }
_ZN3scn2v46detail21expected_storage_baseINS0_4impl27counted_width_iterator_impl22counted_width_iteratorIPKcS7_EENS3_11parse_errorELb1EEC2IJNS9_4codeEEvEENS0_10unexpect_tEDpOT_:
  449|  5.38k|        : m_unexpected(std::in_place, std::forward<Args>(args)...),
  450|  5.38k|          m_has_value(false)
  451|  5.38k|    {
  452|  5.38k|    }
_ZNK3scn2v48expectedINS0_4impl27counted_width_iterator_impl22counted_width_iteratorIPKcS6_EENS2_11parse_errorEEcvbEv:
 1739|  7.76k|    {
 1740|  7.76k|        return has_value();
 1741|  7.76k|    }
_ZNK3scn2v46detail21expected_storage_baseINS0_4impl27counted_width_iterator_impl22counted_width_iteratorIPKcS7_EENS3_11parse_errorELb1EE9has_valueEv:
  489|  15.1k|    {
  490|  15.1k|        return m_has_value;
  491|  15.1k|    }
_ZNR3scn2v48expectedINS0_4impl27counted_width_iterator_impl22counted_width_iteratorIPKcS6_EENS2_11parse_errorEE5errorEv:
 1745|  2.83k|    {
 1746|  2.83k|        SCN_EXPECT(!has_value());
  ------------------
  |  |  930|  2.83k|#define SCN_EXPECT(cond) SCN_ASSERT(cond, "Precondition violation")
  |  |  ------------------
  |  |  |  |  927|  2.83k|#define SCN_ASSERT(cond, msg) assert((cond) && msg)
  |  |  ------------------
  ------------------
 1747|  2.83k|        return this->get_unexpected().error();
 1748|  2.83k|    }
_ZNR3scn2v46detail21expected_storage_baseINS0_4impl27counted_width_iterator_impl22counted_width_iteratorIPKcS7_EENS3_11parse_errorELb1EE14get_unexpectedEv:
  472|  3.83k|    {
  473|  3.83k|        return m_unexpected;
  474|  3.83k|    }
_ZN3scn2v48expectedINSt3__14pairINS0_4impl27counted_width_iterator_impl22counted_width_iteratorIPKcS8_EENS4_9sign_typeEEENS4_9eof_errorEEC2ISB_vEEOT_:
 1569|  1.37k|        : base(std::in_place, std::forward<U>(val)),
 1570|  1.37k|          ctor_base(detail::non_default_ctor_tag_t{})
 1571|  1.37k|    {
 1572|  1.37k|    }
_ZN3scn2v46detail21expected_storage_baseINSt3__14pairINS0_4impl27counted_width_iterator_impl22counted_width_iteratorIPKcS9_EENS5_9sign_typeEEENS5_9eof_errorELb1EEC2IJSC_EvEENS3_10in_place_tEDpOT_:
  440|  1.37k|        : m_value(std::forward<Args>(args)...), m_has_value(true)
  441|  1.37k|    {
  442|  1.37k|    }
_ZN3scn2v46detail26expected_default_ctor_baseINSt3__14pairINS0_4impl27counted_width_iterator_impl22counted_width_iteratorIPKcS9_EENS5_9sign_typeEEENS5_9eof_errorELb1EEC2ENS1_22non_default_ctor_tag_tE:
 1315|  1.37k|    {
 1316|  1.37k|    }
_ZNR3scn2v48expectedINS0_4impl27counted_width_iterator_impl22counted_width_iteratorIPKcS6_EENS2_11parse_errorEE5valueIS7_TnPNSt3__19enable_ifIXntsr3stdE9is_void_vIT_EEvE4typeELPv0EEERSD_v:
 1768|  1.88k|    {
 1769|  1.88k|        SCN_EXPECT(has_value());
  ------------------
  |  |  930|  1.88k|#define SCN_EXPECT(cond) SCN_ASSERT(cond, "Precondition violation")
  |  |  ------------------
  |  |  |  |  927|  1.88k|#define SCN_ASSERT(cond, msg) assert((cond) && msg)
  |  |  ------------------
  ------------------
 1770|  1.88k|        return this->get_value();
 1771|  1.88k|    }
_ZNR3scn2v46detail21expected_storage_baseINS0_4impl27counted_width_iterator_impl22counted_width_iteratorIPKcS7_EENS3_11parse_errorELb1EE9get_valueEv:
  455|  1.88k|    {
  456|  1.88k|        return m_value;
  457|  1.88k|    }
_ZNK3scn2v48expectedINSt3__14pairINS0_4impl27counted_width_iterator_impl22counted_width_iteratorIPKcS8_EENS4_9sign_typeEEENS4_9eof_errorEEcvbEv:
 1739|  1.02k|    {
 1740|  1.02k|        return has_value();
 1741|  1.02k|    }
_ZNK3scn2v46detail21expected_storage_baseINSt3__14pairINS0_4impl27counted_width_iterator_impl22counted_width_iteratorIPKcS9_EENS5_9sign_typeEEENS5_9eof_errorELb1EE9has_valueEv:
  489|  2.75k|    {
  490|  2.75k|        return m_has_value;
  491|  2.75k|    }
_ZN3scn2v46detail26expected_default_ctor_baseINS0_4impl27parse_integer_prefix_resultINS3_27counted_width_iterator_impl22counted_width_iteratorIPKcS8_EEEENS3_9eof_errorELb1EEC2ENS1_22non_default_ctor_tag_tE:
 1315|  1.02k|    {
 1316|  1.02k|    }
_ZNO3scn2v48expectedINSt3__14pairINS0_4impl27counted_width_iterator_impl22counted_width_iteratorIPKcS8_EENS4_9sign_typeEEENS4_9eof_errorEEdeISB_TnPNS2_9enable_ifIXntsr3stdE9is_void_vIT_EEvE4typeELPv0EEEOSG_v:
 1804|  1.37k|    {
 1805|  1.37k|        return std::move(value());
 1806|  1.37k|    }
_ZNR3scn2v48expectedINSt3__14pairINS0_4impl27counted_width_iterator_impl22counted_width_iteratorIPKcS8_EENS4_9sign_typeEEENS4_9eof_errorEE5valueISB_TnPNS2_9enable_ifIXntsr3stdE9is_void_vIT_EEvE4typeELPv0EEERSG_v:
 1768|  1.37k|    {
 1769|  1.37k|        SCN_EXPECT(has_value());
  ------------------
  |  |  930|  1.37k|#define SCN_EXPECT(cond) SCN_ASSERT(cond, "Precondition violation")
  |  |  ------------------
  |  |  |  |  927|  1.37k|#define SCN_ASSERT(cond, msg) assert((cond) && msg)
  |  |  ------------------
  ------------------
 1770|  1.37k|        return this->get_value();
 1771|  1.37k|    }
_ZNR3scn2v46detail21expected_storage_baseINSt3__14pairINS0_4impl27counted_width_iterator_impl22counted_width_iteratorIPKcS9_EENS5_9sign_typeEEENS5_9eof_errorELb1EE9get_valueEv:
  455|  1.37k|    {
  456|  1.37k|        return m_value;
  457|  1.37k|    }
_ZNK3scn2v46ranges6detail9subrange_8subrangeINS0_4impl27counted_width_iterator_impl22counted_width_iteratorIPKcS9_EENS5_15take_width_viewINS4_IS9_S9_EEE8sentinelILb1EEEE3endEv:
 3483|  84.9k|    {
 3484|  84.9k|        return m_sentinel;
 3485|  84.9k|    }
_ZNO3scn2v48expectedINS0_4impl27counted_width_iterator_impl22counted_width_iteratorIPKcS6_EENS2_9eof_errorEE15transform_errorIRFNS2_11parse_errorES8_EEEDTclsr6detailE20transform_error_impldefpTclsr3stdE7forwardIT_Efp_EEEOSE_:
 1978|  2.28k|    {
 1979|  2.28k|        return detail::transform_error_impl(std::move(*this),
 1980|  2.28k|                                            std::forward<F>(f));
 1981|  2.28k|    }
_ZN3scn2v46detail20transform_error_implINS0_8expectedINS0_4impl27counted_width_iterator_impl22counted_width_iteratorIPKcS8_EENS4_9eof_errorEEERFNS4_11parse_errorESA_ETnPNSt3__19enable_ifIXntsr11is_exp_voidIT_EE5valueEvE4typeELPv0ESC_EEDaOSH_OT0_:
 1461|  2.28k|{
 1462|       |    if constexpr (std::is_void_v<Ret>) {
 1463|       |        using result = expected<expected_value_type<Exp>, monostate>;
 1464|       |        if (SCN_LIKELY(exp.has_value())) {
 1465|       |            return result(*std::forward<Exp>(exp));
 1466|       |        }
 1467|       |
 1468|       |        trivial_invoke(std::forward<F>(f), std::forward<Exp>(exp).error());
 1469|       |        return result(unexpect, monostate{});
 1470|       |    }
 1471|  2.28k|    else {
 1472|  2.28k|        using result = expected<expected_value_type<Exp>, remove_cvref_t<Ret>>;
 1473|  2.28k|        return SCN_LIKELY(exp.has_value())
  ------------------
  |  |  864|  2.28k|#define SCN_LIKELY(x)   __builtin_expect(!!(x), 1)
  |  |  ------------------
  |  |  |  Branch (864:25): [True: 1.88k, False: 400]
  |  |  ------------------
  ------------------
 1474|  2.28k|                   ? result(*std::forward<Exp>(exp))
 1475|  2.28k|                   : result(unexpect,
 1476|    400|                            trivial_invoke(std::forward<F>(f),
 1477|    400|                                           std::forward<Exp>(exp).error()));
 1478|  2.28k|    }
 1479|  2.28k|}
_ZN3scn2v48expectedINS0_4impl27counted_width_iterator_impl22counted_width_iteratorIPKcS6_EENS2_11parse_errorEEC2IS7_vEEOT_:
 1569|  1.88k|        : base(std::in_place, std::forward<U>(val)),
 1570|  1.88k|          ctor_base(detail::non_default_ctor_tag_t{})
 1571|  1.88k|    {
 1572|  1.88k|    }
_ZN3scn2v46detail21expected_storage_baseINS0_4impl27counted_width_iterator_impl22counted_width_iteratorIPKcS7_EENS3_11parse_errorELb1EEC2IJS8_EvEENSt3__110in_place_tEDpOT_:
  440|  1.88k|        : m_value(std::forward<Args>(args)...), m_has_value(true)
  441|  1.88k|    {
  442|  1.88k|    }
_ZN3scn2v48expectedINS0_4impl27counted_width_iterator_impl22counted_width_iteratorIPKcS6_EENS2_11parse_errorEEC2IJS8_EvEENS0_10unexpect_tEDpOT_:
 1625|    400|        : base(unexpect, std::forward<Args>(args)...),
 1626|    400|          ctor_base(detail::non_default_ctor_tag_t{})
 1627|    400|    {
 1628|    400|    }
_ZNO3scn2v48expectedINS0_4impl27counted_width_iterator_impl22counted_width_iteratorIPKcS6_EENS2_11parse_errorEEdeIS7_TnPNSt3__19enable_ifIXntsr3stdE9is_void_vIT_EEvE4typeELPv0EEEOSD_v:
 1804|  1.88k|    {
 1805|  1.88k|        return std::move(value());
 1806|  1.88k|    }
_ZNK3scn2v46ranges6detail9subrange_8subrangeINS0_4impl27counted_width_iterator_impl22counted_width_iteratorIPKcS9_EENS5_15take_width_viewINS4_IS9_S9_EEE8sentinelILb1EEEE5beginEv:
 3479|   101k|    {
 3480|   101k|        return m_iterator;
 3481|   101k|    }
_ZN3scn2v48expectedINS0_4impl27parse_integer_prefix_resultINS2_27counted_width_iterator_impl22counted_width_iteratorIPKcS7_EEEENS2_9eof_errorEEC2IS9_vEEOT_:
 1569|  1.02k|        : base(std::in_place, std::forward<U>(val)),
 1570|  1.02k|          ctor_base(detail::non_default_ctor_tag_t{})
 1571|  1.02k|    {
 1572|  1.02k|    }
_ZN3scn2v46detail21expected_storage_baseINS0_4impl27parse_integer_prefix_resultINS3_27counted_width_iterator_impl22counted_width_iteratorIPKcS8_EEEENS3_9eof_errorELb1EEC2IJSA_EvEENSt3__110in_place_tEDpOT_:
  440|  1.02k|        : m_value(std::forward<Args>(args)...), m_has_value(true)
  441|  1.02k|    {
  442|  1.02k|    }
_ZNO3scn2v48expectedINS0_4impl27parse_integer_prefix_resultINS2_27counted_width_iterator_impl22counted_width_iteratorIPKcS7_EEEENS2_9eof_errorEE15transform_errorIRFNS0_10scan_errorESA_EEEDTclsr6detailE20transform_error_impldefpTclsr3stdE7forwardIT_Efp_EEEOSG_:
 1978|  1.02k|    {
 1979|  1.02k|        return detail::transform_error_impl(std::move(*this),
 1980|  1.02k|                                            std::forward<F>(f));
 1981|  1.02k|    }
_ZN3scn2v46detail20transform_error_implINS0_8expectedINS0_4impl27parse_integer_prefix_resultINS4_27counted_width_iterator_impl22counted_width_iteratorIPKcS9_EEEENS4_9eof_errorEEERFNS0_10scan_errorESC_ETnPNSt3__19enable_ifIXntsr11is_exp_voidIT_EE5valueEvE4typeELPv0ESE_EEDaOSJ_OT0_:
 1461|  1.02k|{
 1462|       |    if constexpr (std::is_void_v<Ret>) {
 1463|       |        using result = expected<expected_value_type<Exp>, monostate>;
 1464|       |        if (SCN_LIKELY(exp.has_value())) {
 1465|       |            return result(*std::forward<Exp>(exp));
 1466|       |        }
 1467|       |
 1468|       |        trivial_invoke(std::forward<F>(f), std::forward<Exp>(exp).error());
 1469|       |        return result(unexpect, monostate{});
 1470|       |    }
 1471|  1.02k|    else {
 1472|  1.02k|        using result = expected<expected_value_type<Exp>, remove_cvref_t<Ret>>;
 1473|  1.02k|        return SCN_LIKELY(exp.has_value())
  ------------------
  |  |  864|  1.02k|#define SCN_LIKELY(x)   __builtin_expect(!!(x), 1)
  |  |  ------------------
  |  |  |  Branch (864:25): [True: 1.02k, False: 0]
  |  |  ------------------
  ------------------
 1474|  1.02k|                   ? result(*std::forward<Exp>(exp))
 1475|  1.02k|                   : result(unexpect,
 1476|      0|                            trivial_invoke(std::forward<F>(f),
 1477|      0|                                           std::forward<Exp>(exp).error()));
 1478|  1.02k|    }
 1479|  1.02k|}
_ZNK3scn2v46detail21expected_storage_baseINS0_4impl27parse_integer_prefix_resultINS3_27counted_width_iterator_impl22counted_width_iteratorIPKcS8_EEEENS3_9eof_errorELb1EE9has_valueEv:
  489|  2.04k|    {
  490|  2.04k|        return m_has_value;
  491|  2.04k|    }
_ZNO3scn2v48expectedINS0_4impl27parse_integer_prefix_resultINS2_27counted_width_iterator_impl22counted_width_iteratorIPKcS7_EEEENS2_9eof_errorEEdeIS9_TnPNSt3__19enable_ifIXntsr3stdE9is_void_vIT_EEvE4typeELPv0EEEOSF_v:
 1804|  1.02k|    {
 1805|  1.02k|        return std::move(value());
 1806|  1.02k|    }
_ZNR3scn2v48expectedINS0_4impl27parse_integer_prefix_resultINS2_27counted_width_iterator_impl22counted_width_iteratorIPKcS7_EEEENS2_9eof_errorEE5valueIS9_TnPNSt3__19enable_ifIXntsr3stdE9is_void_vIT_EEvE4typeELPv0EEERSF_v:
 1768|  1.02k|    {
 1769|  1.02k|        SCN_EXPECT(has_value());
  ------------------
  |  |  930|  1.02k|#define SCN_EXPECT(cond) SCN_ASSERT(cond, "Precondition violation")
  |  |  ------------------
  |  |  |  |  927|  1.02k|#define SCN_ASSERT(cond, msg) assert((cond) && msg)
  |  |  ------------------
  ------------------
 1770|  1.02k|        return this->get_value();
 1771|  1.02k|    }
_ZNR3scn2v46detail21expected_storage_baseINS0_4impl27parse_integer_prefix_resultINS3_27counted_width_iterator_impl22counted_width_iteratorIPKcS8_EEEENS3_9eof_errorELb1EE9get_valueEv:
  455|  1.02k|    {
  456|  1.02k|        return m_value;
  457|  1.02k|    }
_ZN3scn2v48expectedINS0_4impl27parse_integer_prefix_resultINS2_27counted_width_iterator_impl22counted_width_iteratorIPKcS7_EEEENS0_10scan_errorEEC2IS9_vEEOT_:
 1569|  1.02k|        : base(std::in_place, std::forward<U>(val)),
 1570|  1.02k|          ctor_base(detail::non_default_ctor_tag_t{})
 1571|  1.02k|    {
 1572|  1.02k|    }
_ZN3scn2v46detail21expected_storage_baseINS0_4impl27parse_integer_prefix_resultINS3_27counted_width_iterator_impl22counted_width_iteratorIPKcS8_EEEENS0_10scan_errorELb1EEC2IJSA_EvEENSt3__110in_place_tEDpOT_:
  440|  1.02k|        : m_value(std::forward<Args>(args)...), m_has_value(true)
  441|  1.02k|    {
  442|  1.02k|    }
_ZN3scn2v46detail26expected_default_ctor_baseINS0_4impl27parse_integer_prefix_resultINS3_27counted_width_iterator_impl22counted_width_iteratorIPKcS8_EEEENS0_10scan_errorELb1EEC2ENS1_22non_default_ctor_tag_tE:
 1315|  1.02k|    {
 1316|  1.02k|    }
_ZNK3scn2v48expectedINS0_4impl27parse_integer_prefix_resultINS2_27counted_width_iterator_impl22counted_width_iteratorIPKcS7_EEEENS0_10scan_errorEEcvbEv:
 1739|  1.02k|    {
 1740|  1.02k|        return has_value();
 1741|  1.02k|    }
_ZNK3scn2v46detail21expected_storage_baseINS0_4impl27parse_integer_prefix_resultINS3_27counted_width_iterator_impl22counted_width_iteratorIPKcS8_EEEENS0_10scan_errorELb1EE9has_valueEv:
  489|  2.04k|    {
  490|  2.04k|        return m_has_value;
  491|  2.04k|    }
_ZNO3scn2v48expectedINS0_4impl27parse_integer_prefix_resultINS2_27counted_width_iterator_impl22counted_width_iteratorIPKcS7_EEEENS0_10scan_errorEEdeIS9_TnPNSt3__19enable_ifIXntsr3stdE9is_void_vIT_EEvE4typeELPv0EEEOSF_v:
 1804|  1.02k|    {
 1805|  1.02k|        return std::move(value());
 1806|  1.02k|    }
_ZNR3scn2v48expectedINS0_4impl27parse_integer_prefix_resultINS2_27counted_width_iterator_impl22counted_width_iteratorIPKcS7_EEEENS0_10scan_errorEE5valueIS9_TnPNSt3__19enable_ifIXntsr3stdE9is_void_vIT_EEvE4typeELPv0EEERSF_v:
 1768|  1.02k|    {
 1769|  1.02k|        SCN_EXPECT(has_value());
  ------------------
  |  |  930|  1.02k|#define SCN_EXPECT(cond) SCN_ASSERT(cond, "Precondition violation")
  |  |  ------------------
  |  |  |  |  927|  1.02k|#define SCN_ASSERT(cond, msg) assert((cond) && msg)
  |  |  ------------------
  ------------------
 1770|  1.02k|        return this->get_value();
 1771|  1.02k|    }
_ZNR3scn2v46detail21expected_storage_baseINS0_4impl27parse_integer_prefix_resultINS3_27counted_width_iterator_impl22counted_width_iteratorIPKcS8_EEEENS0_10scan_errorELb1EE9get_valueEv:
  455|  1.02k|    {
  456|  1.02k|        return m_value;
  457|  1.02k|    }
_ZNO3scn2v48expectedINS0_4impl27counted_width_iterator_impl22counted_width_iteratorIPKcS6_EENS2_11parse_errorEE15transform_errorIZNS2_29map_parse_error_to_scan_errorENS0_10scan_error4codeES6_EUlS8_E_EEDTclsr6detailE20transform_error_impldefpTclsr3stdE7forwardIT_Efp_EEEOSE_:
 1978|  1.00k|    {
 1979|  1.00k|        return detail::transform_error_impl(std::move(*this),
 1980|  1.00k|                                            std::forward<F>(f));
 1981|  1.00k|    }
_ZN3scn2v46detail20transform_error_implINS0_8expectedINS0_4impl27counted_width_iterator_impl22counted_width_iteratorIPKcS8_EENS4_11parse_errorEEEZNS4_29map_parse_error_to_scan_errorENS0_10scan_error4codeES8_EUlSA_E_TnPNSt3__19enable_ifIXntsr11is_exp_voidIT_EE5valueEvE4typeELPv0ESC_EEDaOSH_OT0_:
 1461|  1.00k|{
 1462|       |    if constexpr (std::is_void_v<Ret>) {
 1463|       |        using result = expected<expected_value_type<Exp>, monostate>;
 1464|       |        if (SCN_LIKELY(exp.has_value())) {
 1465|       |            return result(*std::forward<Exp>(exp));
 1466|       |        }
 1467|       |
 1468|       |        trivial_invoke(std::forward<F>(f), std::forward<Exp>(exp).error());
 1469|       |        return result(unexpect, monostate{});
 1470|       |    }
 1471|  1.00k|    else {
 1472|  1.00k|        using result = expected<expected_value_type<Exp>, remove_cvref_t<Ret>>;
 1473|  1.00k|        return SCN_LIKELY(exp.has_value())
  ------------------
  |  |  864|  1.00k|#define SCN_LIKELY(x)   __builtin_expect(!!(x), 1)
  |  |  ------------------
  |  |  |  Branch (864:25): [True: 0, False: 1.00k]
  |  |  ------------------
  ------------------
 1474|  1.00k|                   ? result(*std::forward<Exp>(exp))
 1475|  1.00k|                   : result(unexpect,
 1476|  1.00k|                            trivial_invoke(std::forward<F>(f),
 1477|  1.00k|                                           std::forward<Exp>(exp).error()));
 1478|  1.00k|    }
 1479|  1.00k|}
_ZNO3scn2v48expectedINS0_4impl27counted_width_iterator_impl22counted_width_iteratorIPKcS6_EENS2_11parse_errorEE5errorEv:
 1755|  1.00k|    {
 1756|  1.00k|        SCN_EXPECT(!has_value());
  ------------------
  |  |  930|  1.00k|#define SCN_EXPECT(cond) SCN_ASSERT(cond, "Precondition violation")
  |  |  ------------------
  |  |  |  |  927|  1.00k|#define SCN_ASSERT(cond, msg) assert((cond) && msg)
  |  |  ------------------
  ------------------
 1757|  1.00k|        return std::move(this->get_unexpected().error());
 1758|  1.00k|    }
_ZN3scn2v413scan_expectedINS0_4impl27counted_width_iterator_impl22counted_width_iteratorIPKcS6_EEEC2EONS0_8expectedIS7_NS0_10scan_errorEEE:
 3910|  1.70k|        : expected<T, scan_error>(SCN_MOVE(other))
  ------------------
  |  |  934|  1.70k|    static_cast<    \
  |  |  935|  1.70k|        typename ::scn::detail::remove_reference<decltype(x)>::type&&>(x)
  ------------------
 3911|  1.70k|    {
 3912|  1.70k|    }
_ZN3scn2v46ranges6detail9subrange_8subrangeINS0_4impl27counted_width_iterator_impl22counted_width_iteratorIPKcS9_EENS5_15take_width_viewINS4_IS9_S9_EEE8sentinelILb1EEEEC2ISA_TnPNSt3__19enable_ifIXsr3stdE16is_convertible_vIT_SA_EEvE4typeELPv0EEESK_SF_:
 3464|  40.5k|        : m_iterator(SCN_MOVE(i)), m_sentinel(SCN_MOVE(s))
  ------------------
  |  |  934|  40.5k|    static_cast<    \
  |  |  935|  40.5k|        typename ::scn::detail::remove_reference<decltype(x)>::type&&>(x)
  ------------------
                      : m_iterator(SCN_MOVE(i)), m_sentinel(SCN_MOVE(s))
  ------------------
  |  |  934|  40.5k|    static_cast<    \
  |  |  935|  40.5k|        typename ::scn::detail::remove_reference<decltype(x)>::type&&>(x)
  ------------------
 3465|  40.5k|    {
 3466|  40.5k|    }
_ZN3scn2v48expectedINSt3__15tupleIJNS0_4impl27counted_width_iterator_impl22counted_width_iteratorIPKcS8_EENS2_12basic_stringIcNS2_11char_traitsIcEENS2_9allocatorIcEEEESF_EEENS0_10scan_errorEEC2ISH_TnPNS2_9enable_ifIXsr3stdE18is_constructible_vISH_OT_EEvE4typeELPv0ETnPNSK_IXsr3stdE16is_convertible_vISM_SH_EEvE4typeELSQ_0EEEONS0_10unexpectedISL_EE:
 1615|     24|        : base(unexpect, std::move(e.error())),
 1616|     24|          ctor_base(detail::non_default_ctor_tag_t{})
 1617|     24|    {
 1618|     24|    }
_ZN3scn2v46detail21expected_storage_baseINSt3__15tupleIJNS0_4impl27counted_width_iterator_impl22counted_width_iteratorIPKcS9_EENS3_12basic_stringIcNS3_11char_traitsIcEENS3_9allocatorIcEEEESG_EEENS0_10scan_errorELb0EEC2IJSI_EvEENS0_10unexpect_tEDpOT_:
  636|     24|        : m_has_value(false)
  637|     24|    {
  638|     24|        construct_unexpected(std::in_place, std::forward<Args>(args)...);
  639|     24|    }
_ZN3scn2v46detail21expected_storage_baseINSt3__15tupleIJNS0_4impl27counted_width_iterator_impl22counted_width_iteratorIPKcS9_EENS3_12basic_stringIcNS3_11char_traitsIcEENS3_9allocatorIcEEEESG_EEENS0_10scan_errorELb0EE20construct_unexpectedIJRKNS3_10in_place_tESI_EEEvDpOT_:
  700|     24|    {
  701|     24|        scn::detail::construct_at(unexpected_ptr(),
  702|     24|                                  std::forward<Args>(args)...);
  703|     24|        m_has_value = false;
  704|     24|    }
_ZN3scn2v46detail21expected_storage_baseINSt3__15tupleIJNS0_4impl27counted_width_iterator_impl22counted_width_iteratorIPKcS9_EENS3_12basic_stringIcNS3_11char_traitsIcEENS3_9allocatorIcEEEESG_EEENS0_10scan_errorELb0EE14unexpected_ptrEv:
  729|     72|    {
  730|     72|        return reinterpret_cast<unexpected<E>*>(
  731|     72|            SCN_ASSUME_ALIGNED(m_memory, alignof(unexpected<E>)));
  ------------------
  |  |  900|     72|#define SCN_ASSUME_ALIGNED(x, n) __builtin_assume_aligned(x, n)
  ------------------
  732|     72|    }
_ZN3scn2v46detail26expected_default_ctor_baseINSt3__15tupleIJNS0_4impl27counted_width_iterator_impl22counted_width_iteratorIPKcS9_EENS3_12basic_stringIcNS3_11char_traitsIcEENS3_9allocatorIcEEEESG_EEENS0_10scan_errorELb1EEC2ENS1_22non_default_ctor_tag_tE:
 1315|     24|    {
 1316|     24|    }
_ZNK3scn2v48expectedINSt3__15tupleIJNS0_4impl27counted_width_iterator_impl22counted_width_iteratorIPKcS8_EENS2_12basic_stringIcNS2_11char_traitsIcEENS2_9allocatorIcEEEESF_EEENS0_10scan_errorEEcvbEv:
 1739|     24|    {
 1740|     24|        return has_value();
 1741|     24|    }
_ZNK3scn2v46detail21expected_storage_baseINSt3__15tupleIJNS0_4impl27counted_width_iterator_impl22counted_width_iteratorIPKcS9_EENS3_12basic_stringIcNS3_11char_traitsIcEENS3_9allocatorIcEEEESG_EEENS0_10scan_errorELb0EE9has_valueEv:
  686|     72|    {
  687|     72|        return m_has_value;
  688|     72|    }
_ZNR3scn2v48expectedINSt3__15tupleIJNS0_4impl27counted_width_iterator_impl22counted_width_iteratorIPKcS8_EENS2_12basic_stringIcNS2_11char_traitsIcEENS2_9allocatorIcEEEESF_EEENS0_10scan_errorEE5errorEv:
 1745|     24|    {
 1746|     24|        SCN_EXPECT(!has_value());
  ------------------
  |  |  930|     24|#define SCN_EXPECT(cond) SCN_ASSERT(cond, "Precondition violation")
  |  |  ------------------
  |  |  |  |  927|     24|#define SCN_ASSERT(cond, msg) assert((cond) && msg)
  |  |  ------------------
  ------------------
 1747|     24|        return this->get_unexpected().error();
 1748|     24|    }
_ZNR3scn2v46detail21expected_storage_baseINSt3__15tupleIJNS0_4impl27counted_width_iterator_impl22counted_width_iteratorIPKcS9_EENS3_12basic_stringIcNS3_11char_traitsIcEENS3_9allocatorIcEEEESG_EEENS0_10scan_errorELb0EE14get_unexpectedEv:
  669|     24|    {
  670|     24|        return *unexpected_ptr();
  671|     24|    }
_ZN3scn2v46detail21expected_storage_baseINSt3__15tupleIJNS0_4impl27counted_width_iterator_impl22counted_width_iteratorIPKcS9_EENS3_12basic_stringIcNS3_11char_traitsIcEENS3_9allocatorIcEEEESG_EEENS0_10scan_errorELb0EED2Ev:
  642|     24|    {
  643|     24|        if (has_value()) {
  ------------------
  |  Branch (643:13): [True: 0, False: 24]
  ------------------
  644|      0|            destroy_value();
  645|      0|        }
  646|     24|        else {
  647|     24|            destroy_unexpected();
  648|     24|        }
  649|     24|    }
_ZN3scn2v46detail21expected_storage_baseINSt3__15tupleIJNS0_4impl27counted_width_iterator_impl22counted_width_iteratorIPKcS9_EENS3_12basic_stringIcNS3_11char_traitsIcEENS3_9allocatorIcEEEESG_EEENS0_10scan_errorELb0EE18destroy_unexpectedEv:
  711|     24|    {
  712|     24|        scn::detail::destroy_at(unexpected_ptr());
  713|     24|    }
_ZNK3scn2v48expectedINS0_4impl27counted_width_iterator_impl22counted_width_iteratorIPKcS6_EENS0_10scan_errorEEcvbEv:
 1739|  9.66k|    {
 1740|  9.66k|        return has_value();
 1741|  9.66k|    }
_ZNK3scn2v46detail21expected_storage_baseINS0_4impl27counted_width_iterator_impl22counted_width_iteratorIPKcS7_EENS0_10scan_errorELb1EE9has_valueEv:
  489|  18.6k|    {
  490|  18.6k|        return m_has_value;
  491|  18.6k|    }
_ZNR3scn2v48expectedINS0_4impl27counted_width_iterator_impl22counted_width_iteratorIPKcS6_EENS0_10scan_errorEE5errorEv:
 1745|  5.68k|    {
 1746|  5.68k|        SCN_EXPECT(!has_value());
  ------------------
  |  |  930|  5.68k|#define SCN_EXPECT(cond) SCN_ASSERT(cond, "Precondition violation")
  |  |  ------------------
  |  |  |  |  927|  5.68k|#define SCN_ASSERT(cond, msg) assert((cond) && msg)
  |  |  ------------------
  ------------------
 1747|  5.68k|        return this->get_unexpected().error();
 1748|  5.68k|    }
_ZNR3scn2v46detail21expected_storage_baseINS0_4impl27counted_width_iterator_impl22counted_width_iteratorIPKcS7_EENS0_10scan_errorELb1EE14get_unexpectedEv:
  472|  5.68k|    {
  473|  5.68k|        return m_unexpected;
  474|  5.68k|    }
_ZNO3scn2v48expectedINS0_4impl27counted_width_iterator_impl22counted_width_iteratorIPKcS6_EENS0_10scan_errorEEdeIS7_TnPNSt3__19enable_ifIXntsr3stdE9is_void_vIT_EEvE4typeELPv0EEEOSD_v:
 1804|  2.50k|    {
 1805|  2.50k|        return std::move(value());
 1806|  2.50k|    }
_ZNR3scn2v48expectedINS0_4impl27counted_width_iterator_impl22counted_width_iteratorIPKcS6_EENS0_10scan_errorEE5valueIS7_TnPNSt3__19enable_ifIXntsr3stdE9is_void_vIT_EEvE4typeELPv0EEERSD_v:
 1768|  3.27k|    {
 1769|  3.27k|        SCN_EXPECT(has_value());
  ------------------
  |  |  930|  3.27k|#define SCN_EXPECT(cond) SCN_ASSERT(cond, "Precondition violation")
  |  |  ------------------
  |  |  |  |  927|  3.27k|#define SCN_ASSERT(cond, msg) assert((cond) && msg)
  |  |  ------------------
  ------------------
 1770|  3.27k|        return this->get_value();
 1771|  3.27k|    }
_ZNR3scn2v46detail21expected_storage_baseINS0_4impl27counted_width_iterator_impl22counted_width_iteratorIPKcS7_EENS0_10scan_errorELb1EE9get_valueEv:
  455|  3.27k|    {
  456|  3.27k|        return m_value;
  457|  3.27k|    }
_ZN3scn2v48expectedIPKcNS0_4impl11parse_errorEEC2IS5_TnPNSt3__19enable_ifIXsr3stdE18is_constructible_vIS5_OT_EEvE4typeELPv0ETnPNS9_IXsr3stdE16is_convertible_vISB_S5_EEvE4typeELSF_0EEEONS0_10unexpectedISA_EE:
 1615|  1.01k|        : base(unexpect, std::move(e.error())),
 1616|  1.01k|          ctor_base(detail::non_default_ctor_tag_t{})
 1617|  1.01k|    {
 1618|  1.01k|    }
_ZN3scn2v46detail21expected_storage_baseIPKcNS0_4impl11parse_errorELb1EEC2IJS6_EvEENS0_10unexpect_tEDpOT_:
  449|  1.11k|        : m_unexpected(std::in_place, std::forward<Args>(args)...),
  450|  1.11k|          m_has_value(false)
  451|  1.11k|    {
  452|  1.11k|    }
_ZN3scn2v46detail26expected_default_ctor_baseIPKcNS0_4impl11parse_errorELb1EEC2ENS1_22non_default_ctor_tag_tE:
 1315|  14.0k|    {
 1316|  14.0k|    }
_ZN3scn2v48expectedIPKcNS0_4impl11parse_errorEEC2INS5_4codeETnPNSt3__19enable_ifIXsr3stdE18is_constructible_vIS5_OT_EEvE4typeELPv0ETnPNSA_IXsr3stdE16is_convertible_vISC_S5_EEvE4typeELSG_0EEEONS0_10unexpectedISB_EE:
 1615|  11.0k|        : base(unexpect, std::move(e.error())),
 1616|  11.0k|          ctor_base(detail::non_default_ctor_tag_t{})
 1617|  11.0k|    {
 1618|  11.0k|    }
_ZN3scn2v46detail21expected_storage_baseIPKcNS0_4impl11parse_errorELb1EEC2IJNS6_4codeEEvEENS0_10unexpect_tEDpOT_:
  449|  11.0k|        : m_unexpected(std::in_place, std::forward<Args>(args)...),
  450|  11.0k|          m_has_value(false)
  451|  11.0k|    {
  452|  11.0k|    }
_ZNK3scn2v48expectedIPKcNS0_4impl11parse_errorEEcvbEv:
 1739|  14.9k|    {
 1740|  14.9k|        return has_value();
 1741|  14.9k|    }
_ZNK3scn2v46detail21expected_storage_baseIPKcNS0_4impl11parse_errorELb1EE9has_valueEv:
  489|  23.3k|    {
  490|  23.3k|        return m_has_value;
  491|  23.3k|    }
_ZNR3scn2v48expectedIPKcNS0_4impl11parse_errorEE5errorEv:
 1745|  5.53k|    {
 1746|  5.53k|        SCN_EXPECT(!has_value());
  ------------------
  |  |  930|  5.53k|#define SCN_EXPECT(cond) SCN_ASSERT(cond, "Precondition violation")
  |  |  ------------------
  |  |  |  |  927|  5.53k|#define SCN_ASSERT(cond, msg) assert((cond) && msg)
  |  |  ------------------
  ------------------
 1747|  5.53k|        return this->get_unexpected().error();
 1748|  5.53k|    }
_ZNR3scn2v46detail21expected_storage_baseIPKcNS0_4impl11parse_errorELb1EE14get_unexpectedEv:
  472|  5.53k|    {
  473|  5.53k|        return m_unexpected;
  474|  5.53k|    }
_ZN3scn2v48expectedINSt3__14pairIPKcNS0_4impl9sign_typeEEENS6_9eof_errorEEC2IS8_vEEOT_:
 1569|  3.60k|        : base(std::in_place, std::forward<U>(val)),
 1570|  3.60k|          ctor_base(detail::non_default_ctor_tag_t{})
 1571|  3.60k|    {
 1572|  3.60k|    }
_ZN3scn2v46detail21expected_storage_baseINSt3__14pairIPKcNS0_4impl9sign_typeEEENS7_9eof_errorELb1EEC2IJS9_EvEENS3_10in_place_tEDpOT_:
  440|  3.60k|        : m_value(std::forward<Args>(args)...), m_has_value(true)
  441|  3.60k|    {
  442|  3.60k|    }
_ZN3scn2v46detail26expected_default_ctor_baseINSt3__14pairIPKcNS0_4impl9sign_typeEEENS7_9eof_errorELb1EEC2ENS1_22non_default_ctor_tag_tE:
 1315|  3.60k|    {
 1316|  3.60k|    }
_ZNR3scn2v48expectedIPKcNS0_4impl11parse_errorEE5valueIS3_TnPNSt3__19enable_ifIXntsr3stdE9is_void_vIT_EEvE4typeELPv0EEERSA_v:
 1768|  1.91k|    {
 1769|  1.91k|        SCN_EXPECT(has_value());
  ------------------
  |  |  930|  1.91k|#define SCN_EXPECT(cond) SCN_ASSERT(cond, "Precondition violation")
  |  |  ------------------
  |  |  |  |  927|  1.91k|#define SCN_ASSERT(cond, msg) assert((cond) && msg)
  |  |  ------------------
  ------------------
 1770|  1.91k|        return this->get_value();
 1771|  1.91k|    }
_ZNR3scn2v46detail21expected_storage_baseIPKcNS0_4impl11parse_errorELb1EE9get_valueEv:
  455|  1.91k|    {
  456|  1.91k|        return m_value;
  457|  1.91k|    }
_ZNK3scn2v48expectedINSt3__14pairIPKcNS0_4impl9sign_typeEEENS6_9eof_errorEEcvbEv:
 1739|  2.70k|    {
 1740|  2.70k|        return has_value();
 1741|  2.70k|    }
_ZNK3scn2v46detail21expected_storage_baseINSt3__14pairIPKcNS0_4impl9sign_typeEEENS7_9eof_errorELb1EE9has_valueEv:
  489|  7.20k|    {
  490|  7.20k|        return m_has_value;
  491|  7.20k|    }
_ZN3scn2v46detail26expected_default_ctor_baseINS0_4impl27parse_integer_prefix_resultIPKcEENS3_9eof_errorELb1EEC2ENS1_22non_default_ctor_tag_tE:
 1315|  2.70k|    {
 1316|  2.70k|    }
_ZNO3scn2v48expectedINSt3__14pairIPKcNS0_4impl9sign_typeEEENS6_9eof_errorEEdeIS8_TnPNS2_9enable_ifIXntsr3stdE9is_void_vIT_EEvE4typeELPv0EEEOSD_v:
 1804|  3.60k|    {
 1805|  3.60k|        return std::move(value());
 1806|  3.60k|    }
_ZNR3scn2v48expectedINSt3__14pairIPKcNS0_4impl9sign_typeEEENS6_9eof_errorEE5valueIS8_TnPNS2_9enable_ifIXntsr3stdE9is_void_vIT_EEvE4typeELPv0EEERSD_v:
 1768|  3.60k|    {
 1769|  3.60k|        SCN_EXPECT(has_value());
  ------------------
  |  |  930|  3.60k|#define SCN_EXPECT(cond) SCN_ASSERT(cond, "Precondition violation")
  |  |  ------------------
  |  |  |  |  927|  3.60k|#define SCN_ASSERT(cond, msg) assert((cond) && msg)
  |  |  ------------------
  ------------------
 1770|  3.60k|        return this->get_value();
 1771|  3.60k|    }
_ZNR3scn2v46detail21expected_storage_baseINSt3__14pairIPKcNS0_4impl9sign_typeEEENS7_9eof_errorELb1EE9get_valueEv:
  455|  3.60k|    {
  456|  3.60k|        return m_value;
  457|  3.60k|    }
_ZN3scn2v46ranges14view_interfaceINS1_6detail9subrange_8subrangeIPKcS7_EEE4dataIS8_vEEDav:
 3374|   126k|    {
 3375|   126k|        return detail::to_address(ranges::begin(derived()));
 3376|   126k|    }
_ZNK3scn2v46ranges6detail6begin_2fnclIRNS2_9subrange_8subrangeIPKcS9_EEEEDTclsr2fnE4implscDtfp_Efp_tlNS0_6detail12priority_tagILm3EEEEEEOT_:
 2868|   126k|    {
 2869|   126k|        return fn::impl(SCN_FWD(t), priority_tag<3>{});
  ------------------
  |  |  936|   126k|#define SCN_FWD(x)          static_cast<decltype(x)&&>(x)
  ------------------
 2870|   126k|    }
_ZN3scn2v46ranges6detail6begin_2fn4implIRNS2_9subrange_8subrangeIPKcS9_EEEENSt3__19enable_ifIX24input_or_output_iteratorIDTcl10decay_copycldtscDtfp_Efp_5beginEEEEESF_E4typeEOT_NS0_6detail12priority_tagILm1EEE:
 2849|   126k|    {
 2850|   126k|        return decay_copy(t.begin());
 2851|   126k|    }
_ZN3scn2v46ranges14view_interfaceINS1_6detail9subrange_8subrangeIPKcS7_EEE7derivedEv:
 3333|   126k|    {
 3334|   126k|        return static_cast<D&>(*this);
 3335|   126k|    }
_ZN3scn2v48expectedIPKcNS0_4impl11parse_errorEEC2IS3_vEEOT_:
 1569|  1.91k|        : base(std::in_place, std::forward<U>(val)),
 1570|  1.91k|          ctor_base(detail::non_default_ctor_tag_t{})
 1571|  1.91k|    {
 1572|  1.91k|    }
_ZN3scn2v46detail21expected_storage_baseIPKcNS0_4impl11parse_errorELb1EEC2IJS4_EvEENSt3__110in_place_tEDpOT_:
  440|  1.91k|        : m_value(std::forward<Args>(args)...), m_has_value(true)
  441|  1.91k|    {
  442|  1.91k|    }
_ZN3scn2v48expectedINS0_4impl27parse_integer_prefix_resultIPKcEENS2_9eof_errorEEC2IS6_vEEOT_:
 1569|  2.70k|        : base(std::in_place, std::forward<U>(val)),
 1570|  2.70k|          ctor_base(detail::non_default_ctor_tag_t{})
 1571|  2.70k|    {
 1572|  2.70k|    }
_ZN3scn2v46detail21expected_storage_baseINS0_4impl27parse_integer_prefix_resultIPKcEENS3_9eof_errorELb1EEC2IJS7_EvEENSt3__110in_place_tEDpOT_:
  440|  2.70k|        : m_value(std::forward<Args>(args)...), m_has_value(true)
  441|  2.70k|    {
  442|  2.70k|    }
_ZNO3scn2v48expectedINS0_4impl27parse_integer_prefix_resultIPKcEENS2_9eof_errorEE15transform_errorIRFNS0_10scan_errorES7_EEEDTclsr6detailE20transform_error_impldefpTclsr3stdE7forwardIT_Efp_EEEOSD_:
 1978|  2.70k|    {
 1979|  2.70k|        return detail::transform_error_impl(std::move(*this),
 1980|  2.70k|                                            std::forward<F>(f));
 1981|  2.70k|    }
_ZN3scn2v46detail20transform_error_implINS0_8expectedINS0_4impl27parse_integer_prefix_resultIPKcEENS4_9eof_errorEEERFNS0_10scan_errorES9_ETnPNSt3__19enable_ifIXntsr11is_exp_voidIT_EE5valueEvE4typeELPv0ESB_EEDaOSG_OT0_:
 1461|  2.70k|{
 1462|       |    if constexpr (std::is_void_v<Ret>) {
 1463|       |        using result = expected<expected_value_type<Exp>, monostate>;
 1464|       |        if (SCN_LIKELY(exp.has_value())) {
 1465|       |            return result(*std::forward<Exp>(exp));
 1466|       |        }
 1467|       |
 1468|       |        trivial_invoke(std::forward<F>(f), std::forward<Exp>(exp).error());
 1469|       |        return result(unexpect, monostate{});
 1470|       |    }
 1471|  2.70k|    else {
 1472|  2.70k|        using result = expected<expected_value_type<Exp>, remove_cvref_t<Ret>>;
 1473|  2.70k|        return SCN_LIKELY(exp.has_value())
  ------------------
  |  |  864|  2.70k|#define SCN_LIKELY(x)   __builtin_expect(!!(x), 1)
  |  |  ------------------
  |  |  |  Branch (864:25): [True: 2.70k, False: 0]
  |  |  ------------------
  ------------------
 1474|  2.70k|                   ? result(*std::forward<Exp>(exp))
 1475|  2.70k|                   : result(unexpect,
 1476|      0|                            trivial_invoke(std::forward<F>(f),
 1477|      0|                                           std::forward<Exp>(exp).error()));
 1478|  2.70k|    }
 1479|  2.70k|}
_ZNK3scn2v46detail21expected_storage_baseINS0_4impl27parse_integer_prefix_resultIPKcEENS3_9eof_errorELb1EE9has_valueEv:
  489|  5.40k|    {
  490|  5.40k|        return m_has_value;
  491|  5.40k|    }
_ZNO3scn2v48expectedINS0_4impl27parse_integer_prefix_resultIPKcEENS2_9eof_errorEEdeIS6_TnPNSt3__19enable_ifIXntsr3stdE9is_void_vIT_EEvE4typeELPv0EEEOSC_v:
 1804|  2.70k|    {
 1805|  2.70k|        return std::move(value());
 1806|  2.70k|    }
_ZNR3scn2v48expectedINS0_4impl27parse_integer_prefix_resultIPKcEENS2_9eof_errorEE5valueIS6_TnPNSt3__19enable_ifIXntsr3stdE9is_void_vIT_EEvE4typeELPv0EEERSC_v:
 1768|  2.70k|    {
 1769|  2.70k|        SCN_EXPECT(has_value());
  ------------------
  |  |  930|  2.70k|#define SCN_EXPECT(cond) SCN_ASSERT(cond, "Precondition violation")
  |  |  ------------------
  |  |  |  |  927|  2.70k|#define SCN_ASSERT(cond, msg) assert((cond) && msg)
  |  |  ------------------
  ------------------
 1770|  2.70k|        return this->get_value();
 1771|  2.70k|    }
_ZNR3scn2v46detail21expected_storage_baseINS0_4impl27parse_integer_prefix_resultIPKcEENS3_9eof_errorELb1EE9get_valueEv:
  455|  2.70k|    {
  456|  2.70k|        return m_value;
  457|  2.70k|    }
_ZN3scn2v48expectedINS0_4impl27parse_integer_prefix_resultIPKcEENS0_10scan_errorEEC2IS6_vEEOT_:
 1569|  2.70k|        : base(std::in_place, std::forward<U>(val)),
 1570|  2.70k|          ctor_base(detail::non_default_ctor_tag_t{})
 1571|  2.70k|    {
 1572|  2.70k|    }
_ZN3scn2v46detail21expected_storage_baseINS0_4impl27parse_integer_prefix_resultIPKcEENS0_10scan_errorELb1EEC2IJS7_EvEENSt3__110in_place_tEDpOT_:
  440|  2.70k|        : m_value(std::forward<Args>(args)...), m_has_value(true)
  441|  2.70k|    {
  442|  2.70k|    }
_ZN3scn2v46detail26expected_default_ctor_baseINS0_4impl27parse_integer_prefix_resultIPKcEENS0_10scan_errorELb1EEC2ENS1_22non_default_ctor_tag_tE:
 1315|  2.70k|    {
 1316|  2.70k|    }
_ZNK3scn2v48expectedINS0_4impl27parse_integer_prefix_resultIPKcEENS0_10scan_errorEEcvbEv:
 1739|  2.70k|    {
 1740|  2.70k|        return has_value();
 1741|  2.70k|    }
_ZNK3scn2v46detail21expected_storage_baseINS0_4impl27parse_integer_prefix_resultIPKcEENS0_10scan_errorELb1EE9has_valueEv:
  489|  5.40k|    {
  490|  5.40k|        return m_has_value;
  491|  5.40k|    }
_ZNO3scn2v48expectedINS0_4impl27parse_integer_prefix_resultIPKcEENS0_10scan_errorEEdeIS6_TnPNSt3__19enable_ifIXntsr3stdE9is_void_vIT_EEvE4typeELPv0EEEOSC_v:
 1804|  2.70k|    {
 1805|  2.70k|        return std::move(value());
 1806|  2.70k|    }
_ZNR3scn2v48expectedINS0_4impl27parse_integer_prefix_resultIPKcEENS0_10scan_errorEE5valueIS6_TnPNSt3__19enable_ifIXntsr3stdE9is_void_vIT_EEvE4typeELPv0EEERSC_v:
 1768|  2.70k|    {
 1769|  2.70k|        SCN_EXPECT(has_value());
  ------------------
  |  |  930|  2.70k|#define SCN_EXPECT(cond) SCN_ASSERT(cond, "Precondition violation")
  |  |  ------------------
  |  |  |  |  927|  2.70k|#define SCN_ASSERT(cond, msg) assert((cond) && msg)
  |  |  ------------------
  ------------------
 1770|  2.70k|        return this->get_value();
 1771|  2.70k|    }
_ZNR3scn2v46detail21expected_storage_baseINS0_4impl27parse_integer_prefix_resultIPKcEENS0_10scan_errorELb1EE9get_valueEv:
  455|  2.70k|    {
  456|  2.70k|        return m_value;
  457|  2.70k|    }
_ZN3scn2v48expectedINSt3__15tupleIJPKcNS2_12basic_stringIcNS2_11char_traitsIcEENS2_9allocatorIcEEEESB_EEENS0_10scan_errorEEC2ISD_TnPNS2_9enable_ifIXsr3stdE18is_constructible_vISD_OT_EEvE4typeELPv0ETnPNSG_IXsr3stdE16is_convertible_vISI_SD_EEvE4typeELSM_0EEEONS0_10unexpectedISH_EE:
 1615|     20|        : base(unexpect, std::move(e.error())),
 1616|     20|          ctor_base(detail::non_default_ctor_tag_t{})
 1617|     20|    {
 1618|     20|    }
_ZN3scn2v46detail21expected_storage_baseINSt3__15tupleIJPKcNS3_12basic_stringIcNS3_11char_traitsIcEENS3_9allocatorIcEEEESC_EEENS0_10scan_errorELb0EEC2IJSE_EvEENS0_10unexpect_tEDpOT_:
  636|     20|        : m_has_value(false)
  637|     20|    {
  638|     20|        construct_unexpected(std::in_place, std::forward<Args>(args)...);
  639|     20|    }
_ZN3scn2v46detail21expected_storage_baseINSt3__15tupleIJPKcNS3_12basic_stringIcNS3_11char_traitsIcEENS3_9allocatorIcEEEESC_EEENS0_10scan_errorELb0EE20construct_unexpectedIJRKNS3_10in_place_tESE_EEEvDpOT_:
  700|     20|    {
  701|     20|        scn::detail::construct_at(unexpected_ptr(),
  702|     20|                                  std::forward<Args>(args)...);
  703|     20|        m_has_value = false;
  704|     20|    }
_ZN3scn2v46detail21expected_storage_baseINSt3__15tupleIJPKcNS3_12basic_stringIcNS3_11char_traitsIcEENS3_9allocatorIcEEEESC_EEENS0_10scan_errorELb0EE14unexpected_ptrEv:
  729|     60|    {
  730|     60|        return reinterpret_cast<unexpected<E>*>(
  731|     60|            SCN_ASSUME_ALIGNED(m_memory, alignof(unexpected<E>)));
  ------------------
  |  |  900|     60|#define SCN_ASSUME_ALIGNED(x, n) __builtin_assume_aligned(x, n)
  ------------------
  732|     60|    }
_ZN3scn2v46detail26expected_default_ctor_baseINSt3__15tupleIJPKcNS3_12basic_stringIcNS3_11char_traitsIcEENS3_9allocatorIcEEEESC_EEENS0_10scan_errorELb1EEC2ENS1_22non_default_ctor_tag_tE:
 1315|     20|    {
 1316|     20|    }
_ZNK3scn2v48expectedINSt3__15tupleIJPKcNS2_12basic_stringIcNS2_11char_traitsIcEENS2_9allocatorIcEEEESB_EEENS0_10scan_errorEEcvbEv:
 1739|     20|    {
 1740|     20|        return has_value();
 1741|     20|    }
_ZNK3scn2v46detail21expected_storage_baseINSt3__15tupleIJPKcNS3_12basic_stringIcNS3_11char_traitsIcEENS3_9allocatorIcEEEESC_EEENS0_10scan_errorELb0EE9has_valueEv:
  686|     60|    {
  687|     60|        return m_has_value;
  688|     60|    }
_ZNR3scn2v48expectedINSt3__15tupleIJPKcNS2_12basic_stringIcNS2_11char_traitsIcEENS2_9allocatorIcEEEESB_EEENS0_10scan_errorEE5errorEv:
 1745|     20|    {
 1746|     20|        SCN_EXPECT(!has_value());
  ------------------
  |  |  930|     20|#define SCN_EXPECT(cond) SCN_ASSERT(cond, "Precondition violation")
  |  |  ------------------
  |  |  |  |  927|     20|#define SCN_ASSERT(cond, msg) assert((cond) && msg)
  |  |  ------------------
  ------------------
 1747|     20|        return this->get_unexpected().error();
 1748|     20|    }
_ZNR3scn2v46detail21expected_storage_baseINSt3__15tupleIJPKcNS3_12basic_stringIcNS3_11char_traitsIcEENS3_9allocatorIcEEEESC_EEENS0_10scan_errorELb0EE14get_unexpectedEv:
  669|     20|    {
  670|     20|        return *unexpected_ptr();
  671|     20|    }
_ZN3scn2v46detail21expected_storage_baseINSt3__15tupleIJPKcNS3_12basic_stringIcNS3_11char_traitsIcEENS3_9allocatorIcEEEESC_EEENS0_10scan_errorELb0EED2Ev:
  642|     20|    {
  643|     20|        if (has_value()) {
  ------------------
  |  Branch (643:13): [True: 0, False: 20]
  ------------------
  644|      0|            destroy_value();
  645|      0|        }
  646|     20|        else {
  647|     20|            destroy_unexpected();
  648|     20|        }
  649|     20|    }
_ZN3scn2v46detail21expected_storage_baseINSt3__15tupleIJPKcNS3_12basic_stringIcNS3_11char_traitsIcEENS3_9allocatorIcEEEESC_EEENS0_10scan_errorELb0EE18destroy_unexpectedEv:
  711|     20|    {
  712|     20|        scn::detail::destroy_at(unexpected_ptr());
  713|     20|    }
_ZNK3scn2v46ranges6detail5data_2fnclIRNS2_9subrange_8subrangeIPKcS9_EEEEDTclsr2fnE4implscDtfp_Efp_tlNS0_6detail12priority_tagILm1EEEEEEOT_:
 2999|   122k|    {
 3000|   122k|        return fn::impl(SCN_FWD(t), priority_tag<1>{});
  ------------------
  |  |  936|   122k|#define SCN_FWD(x)          static_cast<decltype(x)&&>(x)
  ------------------
 3001|   122k|    }
_ZN3scn2v46ranges6detail5data_2fn4implINS2_9subrange_8subrangeIPKcS9_EES9_EENSt3__19enable_ifIX19is_object_pointer_vIT0_EESD_E4typeERT_NS0_6detail12priority_tagILm1EEE:
 2980|   122k|    {
 2981|   122k|        return t.data();
 2982|   122k|    }
_ZN3scn2v48expectedIlNS0_10scan_errorEEC2IlvEEOT_:
 1569|  3.15k|        : base(std::in_place, std::forward<U>(val)),
 1570|  3.15k|          ctor_base(detail::non_default_ctor_tag_t{})
 1571|  3.15k|    {
 1572|  3.15k|    }
_ZN3scn2v46detail21expected_storage_baseIlNS0_10scan_errorELb1EEC2IJlEvEENSt3__110in_place_tEDpOT_:
  440|  3.15k|        : m_value(std::forward<Args>(args)...), m_has_value(true)
  441|  3.15k|    {
  442|  3.15k|    }
_ZN3scn2v46detail14trivial_invokeIZNS0_4impl29map_parse_error_to_scan_errorENS0_10scan_error4codeEPKcEUlNS3_11parse_errorEE_JRS8_EvEEDcOT_DpOT0_:
 1349|  2.66k|{
 1350|  2.66k|    return std::forward<F>(f)(std::forward<Args>(args)...);
 1351|  2.66k|}
_ZNO3scn2v48expectedINSt3__14pairINS0_4impl27counted_width_iterator_impl22counted_width_iteratorIPKcS8_EENS4_9sign_typeEEENS4_9eof_errorEE15transform_errorIRFNS0_10scan_errorESC_EEEDTclsr6detailE20transform_error_impldefpTclsr3stdE7forwardIT_Efp_EEEOSI_:
 1978|    352|    {
 1979|    352|        return detail::transform_error_impl(std::move(*this),
 1980|    352|                                            std::forward<F>(f));
 1981|    352|    }
_ZN3scn2v46detail20transform_error_implINS0_8expectedINSt3__14pairINS0_4impl27counted_width_iterator_impl22counted_width_iteratorIPKcSA_EENS6_9sign_typeEEENS6_9eof_errorEEERFNS0_10scan_errorESE_ETnPNS4_9enable_ifIXntsr11is_exp_voidIT_EE5valueEvE4typeELPv0ESG_EEDaOSK_OT0_:
 1461|    352|{
 1462|       |    if constexpr (std::is_void_v<Ret>) {
 1463|       |        using result = expected<expected_value_type<Exp>, monostate>;
 1464|       |        if (SCN_LIKELY(exp.has_value())) {
 1465|       |            return result(*std::forward<Exp>(exp));
 1466|       |        }
 1467|       |
 1468|       |        trivial_invoke(std::forward<F>(f), std::forward<Exp>(exp).error());
 1469|       |        return result(unexpect, monostate{});
 1470|       |    }
 1471|    352|    else {
 1472|    352|        using result = expected<expected_value_type<Exp>, remove_cvref_t<Ret>>;
 1473|    352|        return SCN_LIKELY(exp.has_value())
  ------------------
  |  |  864|    352|#define SCN_LIKELY(x)   __builtin_expect(!!(x), 1)
  |  |  ------------------
  |  |  |  Branch (864:25): [True: 352, False: 0]
  |  |  ------------------
  ------------------
 1474|    352|                   ? result(*std::forward<Exp>(exp))
 1475|    352|                   : result(unexpect,
 1476|      0|                            trivial_invoke(std::forward<F>(f),
 1477|      0|                                           std::forward<Exp>(exp).error()));
 1478|    352|    }
 1479|    352|}
_ZN3scn2v48expectedINSt3__14pairINS0_4impl27counted_width_iterator_impl22counted_width_iteratorIPKcS8_EENS4_9sign_typeEEENS0_10scan_errorEEC2ISB_vEEOT_:
 1569|    352|        : base(std::in_place, std::forward<U>(val)),
 1570|    352|          ctor_base(detail::non_default_ctor_tag_t{})
 1571|    352|    {
 1572|    352|    }
_ZN3scn2v46detail21expected_storage_baseINSt3__14pairINS0_4impl27counted_width_iterator_impl22counted_width_iteratorIPKcS9_EENS5_9sign_typeEEENS0_10scan_errorELb1EEC2IJSC_EvEENS3_10in_place_tEDpOT_:
  440|    352|        : m_value(std::forward<Args>(args)...), m_has_value(true)
  441|    352|    {
  442|    352|    }
_ZN3scn2v46detail26expected_default_ctor_baseINSt3__14pairINS0_4impl27counted_width_iterator_impl22counted_width_iteratorIPKcS9_EENS5_9sign_typeEEENS0_10scan_errorELb1EEC2ENS1_22non_default_ctor_tag_tE:
 1315|    352|    {
 1316|    352|    }
_ZNK3scn2v48expectedINSt3__14pairINS0_4impl27counted_width_iterator_impl22counted_width_iteratorIPKcS8_EENS4_9sign_typeEEENS0_10scan_errorEEcvbEv:
 1739|    352|    {
 1740|    352|        return has_value();
 1741|    352|    }
_ZNK3scn2v46detail21expected_storage_baseINSt3__14pairINS0_4impl27counted_width_iterator_impl22counted_width_iteratorIPKcS9_EENS5_9sign_typeEEENS0_10scan_errorELb1EE9has_valueEv:
  489|    704|    {
  490|    704|        return m_has_value;
  491|    704|    }
_ZNO3scn2v48expectedINSt3__14pairINS0_4impl27counted_width_iterator_impl22counted_width_iteratorIPKcS8_EENS4_9sign_typeEEENS0_10scan_errorEEdeISB_TnPNS2_9enable_ifIXntsr3stdE9is_void_vIT_EEvE4typeELPv0EEEOSG_v:
 1804|    352|    {
 1805|    352|        return std::move(value());
 1806|    352|    }
_ZNR3scn2v48expectedINSt3__14pairINS0_4impl27counted_width_iterator_impl22counted_width_iteratorIPKcS8_EENS4_9sign_typeEEENS0_10scan_errorEE5valueISB_TnPNS2_9enable_ifIXntsr3stdE9is_void_vIT_EEvE4typeELPv0EEERSG_v:
 1768|    352|    {
 1769|    352|        SCN_EXPECT(has_value());
  ------------------
  |  |  930|    352|#define SCN_EXPECT(cond) SCN_ASSERT(cond, "Precondition violation")
  |  |  ------------------
  |  |  |  |  927|    352|#define SCN_ASSERT(cond, msg) assert((cond) && msg)
  |  |  ------------------
  ------------------
 1770|    352|        return this->get_value();
 1771|    352|    }
_ZNR3scn2v46detail21expected_storage_baseINSt3__14pairINS0_4impl27counted_width_iterator_impl22counted_width_iteratorIPKcS9_EENS5_9sign_typeEEENS0_10scan_errorELb1EE9get_valueEv:
  455|    352|    {
  456|    352|        return m_value;
  457|    352|    }
_ZNR3scn2v48expectedINS0_4impl27counted_width_iterator_impl22counted_width_iteratorIPKcS6_EENS2_11parse_errorEE15transform_errorIZNS2_29map_parse_error_to_scan_errorENS0_10scan_error4codeES6_EUlS8_E_EEDTclsr6detailE20transform_error_impldefpTclsr3stdE7forwardIT_Efp_EEEOSE_:
 1964|    704|    {
 1965|    704|        return detail::transform_error_impl(*this, std::forward<F>(f));
 1966|    704|    }
_ZN3scn2v46detail20transform_error_implIRNS0_8expectedINS0_4impl27counted_width_iterator_impl22counted_width_iteratorIPKcS8_EENS4_11parse_errorEEEZNS4_29map_parse_error_to_scan_errorENS0_10scan_error4codeES8_EUlSA_E_TnPNSt3__19enable_ifIXntsr11is_exp_voidIT_EE5valueEvE4typeELPv0ESD_EEDaOSI_OT0_:
 1461|    704|{
 1462|       |    if constexpr (std::is_void_v<Ret>) {
 1463|       |        using result = expected<expected_value_type<Exp>, monostate>;
 1464|       |        if (SCN_LIKELY(exp.has_value())) {
 1465|       |            return result(*std::forward<Exp>(exp));
 1466|       |        }
 1467|       |
 1468|       |        trivial_invoke(std::forward<F>(f), std::forward<Exp>(exp).error());
 1469|       |        return result(unexpect, monostate{});
 1470|       |    }
 1471|    704|    else {
 1472|    704|        using result = expected<expected_value_type<Exp>, remove_cvref_t<Ret>>;
 1473|    704|        return SCN_LIKELY(exp.has_value())
  ------------------
  |  |  864|    704|#define SCN_LIKELY(x)   __builtin_expect(!!(x), 1)
  |  |  ------------------
  |  |  |  Branch (864:25): [True: 0, False: 704]
  |  |  ------------------
  ------------------
 1474|    704|                   ? result(*std::forward<Exp>(exp))
 1475|    704|                   : result(unexpect,
 1476|    704|                            trivial_invoke(std::forward<F>(f),
 1477|    704|                                           std::forward<Exp>(exp).error()));
 1478|    704|    }
 1479|    704|}
_ZNR3scn2v48expectedINS0_4impl27counted_width_iterator_impl22counted_width_iteratorIPKcS6_EENS0_10scan_errorEEdeIS7_TnPNSt3__19enable_ifIXntsr3stdE9is_void_vIT_EEvE4typeELPv0EEERSD_v:
 1794|    774|    {
 1795|    774|        return value();
 1796|    774|    }
_ZZN3scn2v44impl12float_readerIcE16read_source_implINS1_15take_width_viewINS0_6ranges6detail9subrange_8subrangeIPKcSB_EEEEEENS0_13scan_expectedIDTclL_ZNS6_5beginEEclsr3stdE7declvalIRNSt3__19add_constIT_E4typeEEEEEEESH_ENKUlRKSH_E0_clINS9_INS1_27counted_width_iterator_impl22counted_width_iteratorISB_SB_EENSD_8sentinelILb1EEEEEEEDaSO_:
 3935|     12|    auto&& SCN_TRY_TMP = (x);                          \
_ZNK3scn2v46ranges6detail6begin_2fnclIRNS2_9subrange_8subrangeINS0_4impl27counted_width_iterator_impl22counted_width_iteratorIPKcSC_EENS8_15take_width_viewINS7_ISC_SC_EEE8sentinelILb1EEEEEEEDTclsr2fnE4implscDtfp_Efp_tlNS0_6detail12priority_tagILm3EEEEEEOT_:
 2868|    340|    {
 2869|    340|        return fn::impl(SCN_FWD(t), priority_tag<3>{});
  ------------------
  |  |  936|    340|#define SCN_FWD(x)          static_cast<decltype(x)&&>(x)
  ------------------
 2870|    340|    }
_ZN3scn2v46ranges6detail6begin_2fn4implIRNS2_9subrange_8subrangeINS0_4impl27counted_width_iterator_impl22counted_width_iteratorIPKcSC_EENS8_15take_width_viewINS7_ISC_SC_EEE8sentinelILb1EEEEEEENSt3__19enable_ifIX24input_or_output_iteratorIDTcl10decay_copycldtscDtfp_Efp_5beginEEEEESO_E4typeEOT_NS0_6detail12priority_tagILm1EEE:
 2849|    340|    {
 2850|    340|        return decay_copy(t.begin());
 2851|    340|    }
_ZZN3scn2v44impl12float_readerIcE16read_source_implINS1_15take_width_viewINS0_6ranges6detail9subrange_8subrangeIPKcSB_EEEEEENS0_13scan_expectedIDTclL_ZNS6_5beginEEclsr3stdE7declvalIRNSt3__19add_constIT_E4typeEEEEEEESH_ENKUlRKSH_E_clINS9_INS1_27counted_width_iterator_impl22counted_width_iteratorISB_SB_EENSD_8sentinelILb1EEEEEEEDaSO_:
 3935|    314|    auto&& SCN_TRY_TMP = (x);                          \
_ZNO3scn2v48expectedINSt3__14pairIPKcNS0_4impl9sign_typeEEENS6_9eof_errorEE15transform_errorIRFNS0_10scan_errorES9_EEEDTclsr6detailE20transform_error_impldefpTclsr3stdE7forwardIT_Efp_EEEOSF_:
 1978|    902|    {
 1979|    902|        return detail::transform_error_impl(std::move(*this),
 1980|    902|                                            std::forward<F>(f));
 1981|    902|    }
_ZN3scn2v46detail20transform_error_implINS0_8expectedINSt3__14pairIPKcNS0_4impl9sign_typeEEENS8_9eof_errorEEERFNS0_10scan_errorESB_ETnPNS4_9enable_ifIXntsr11is_exp_voidIT_EE5valueEvE4typeELPv0ESD_EEDaOSH_OT0_:
 1461|    902|{
 1462|       |    if constexpr (std::is_void_v<Ret>) {
 1463|       |        using result = expected<expected_value_type<Exp>, monostate>;
 1464|       |        if (SCN_LIKELY(exp.has_value())) {
 1465|       |            return result(*std::forward<Exp>(exp));
 1466|       |        }
 1467|       |
 1468|       |        trivial_invoke(std::forward<F>(f), std::forward<Exp>(exp).error());
 1469|       |        return result(unexpect, monostate{});
 1470|       |    }
 1471|    902|    else {
 1472|    902|        using result = expected<expected_value_type<Exp>, remove_cvref_t<Ret>>;
 1473|    902|        return SCN_LIKELY(exp.has_value())
  ------------------
  |  |  864|    902|#define SCN_LIKELY(x)   __builtin_expect(!!(x), 1)
  |  |  ------------------
  |  |  |  Branch (864:25): [True: 902, False: 0]
  |  |  ------------------
  ------------------
 1474|    902|                   ? result(*std::forward<Exp>(exp))
 1475|    902|                   : result(unexpect,
 1476|      0|                            trivial_invoke(std::forward<F>(f),
 1477|      0|                                           std::forward<Exp>(exp).error()));
 1478|    902|    }
 1479|    902|}
_ZN3scn2v48expectedINSt3__14pairIPKcNS0_4impl9sign_typeEEENS0_10scan_errorEEC2IS8_vEEOT_:
 1569|    902|        : base(std::in_place, std::forward<U>(val)),
 1570|    902|          ctor_base(detail::non_default_ctor_tag_t{})
 1571|    902|    {
 1572|    902|    }
_ZN3scn2v46detail21expected_storage_baseINSt3__14pairIPKcNS0_4impl9sign_typeEEENS0_10scan_errorELb1EEC2IJS9_EvEENS3_10in_place_tEDpOT_:
  440|    902|        : m_value(std::forward<Args>(args)...), m_has_value(true)
  441|    902|    {
  442|    902|    }
_ZN3scn2v46detail26expected_default_ctor_baseINSt3__14pairIPKcNS0_4impl9sign_typeEEENS0_10scan_errorELb1EEC2ENS1_22non_default_ctor_tag_tE:
 1315|    902|    {
 1316|    902|    }
_ZNK3scn2v48expectedINSt3__14pairIPKcNS0_4impl9sign_typeEEENS0_10scan_errorEEcvbEv:
 1739|    902|    {
 1740|    902|        return has_value();
 1741|    902|    }
_ZNK3scn2v46detail21expected_storage_baseINSt3__14pairIPKcNS0_4impl9sign_typeEEENS0_10scan_errorELb1EE9has_valueEv:
  489|  1.80k|    {
  490|  1.80k|        return m_has_value;
  491|  1.80k|    }
_ZNO3scn2v48expectedINSt3__14pairIPKcNS0_4impl9sign_typeEEENS0_10scan_errorEEdeIS8_TnPNS2_9enable_ifIXntsr3stdE9is_void_vIT_EEvE4typeELPv0EEEOSD_v:
 1804|    902|    {
 1805|    902|        return std::move(value());
 1806|    902|    }
_ZNR3scn2v48expectedINSt3__14pairIPKcNS0_4impl9sign_typeEEENS0_10scan_errorEE5valueIS8_TnPNS2_9enable_ifIXntsr3stdE9is_void_vIT_EEvE4typeELPv0EEERSD_v:
 1768|    902|    {
 1769|    902|        SCN_EXPECT(has_value());
  ------------------
  |  |  930|    902|#define SCN_EXPECT(cond) SCN_ASSERT(cond, "Precondition violation")
  |  |  ------------------
  |  |  |  |  927|    902|#define SCN_ASSERT(cond, msg) assert((cond) && msg)
  |  |  ------------------
  ------------------
 1770|    902|        return this->get_value();
 1771|    902|    }
_ZNR3scn2v46detail21expected_storage_baseINSt3__14pairIPKcNS0_4impl9sign_typeEEENS0_10scan_errorELb1EE9get_valueEv:
  455|    902|    {
  456|    902|        return m_value;
  457|    902|    }
_ZNR3scn2v48expectedIPKcNS0_4impl11parse_errorEE15transform_errorIZNS4_29map_parse_error_to_scan_errorENS0_10scan_error4codeES3_EUlS5_E_EEDTclsr6detailE20transform_error_impldefpTclsr3stdE7forwardIT_Efp_EEEOSB_:
 1964|    924|    {
 1965|    924|        return detail::transform_error_impl(*this, std::forward<F>(f));
 1966|    924|    }
_ZN3scn2v46detail20transform_error_implIRNS0_8expectedIPKcNS0_4impl11parse_errorEEEZNS6_29map_parse_error_to_scan_errorENS0_10scan_error4codeES5_EUlS7_E_TnPNSt3__19enable_ifIXntsr11is_exp_voidIT_EE5valueEvE4typeELPv0ESA_EEDaOSF_OT0_:
 1461|    924|{
 1462|       |    if constexpr (std::is_void_v<Ret>) {
 1463|       |        using result = expected<expected_value_type<Exp>, monostate>;
 1464|       |        if (SCN_LIKELY(exp.has_value())) {
 1465|       |            return result(*std::forward<Exp>(exp));
 1466|       |        }
 1467|       |
 1468|       |        trivial_invoke(std::forward<F>(f), std::forward<Exp>(exp).error());
 1469|       |        return result(unexpect, monostate{});
 1470|       |    }
 1471|    924|    else {
 1472|    924|        using result = expected<expected_value_type<Exp>, remove_cvref_t<Ret>>;
 1473|    924|        return SCN_LIKELY(exp.has_value())
  ------------------
  |  |  864|    924|#define SCN_LIKELY(x)   __builtin_expect(!!(x), 1)
  |  |  ------------------
  |  |  |  Branch (864:25): [True: 0, False: 924]
  |  |  ------------------
  ------------------
 1474|    924|                   ? result(*std::forward<Exp>(exp))
 1475|    924|                   : result(unexpect,
 1476|    924|                            trivial_invoke(std::forward<F>(f),
 1477|    924|                                           std::forward<Exp>(exp).error()));
 1478|    924|    }
 1479|    924|}
_ZN3scn2v413scan_expectedIPKcEC2EONS0_8expectedIS3_NS0_10scan_errorEEE:
 3910|    924|        : expected<T, scan_error>(SCN_MOVE(other))
  ------------------
  |  |  934|    924|    static_cast<    \
  |  |  935|    924|        typename ::scn::detail::remove_reference<decltype(x)>::type&&>(x)
  ------------------
 3911|    924|    {
 3912|    924|    }
_ZNR3scn2v48expectedIPKcNS0_10scan_errorEEdeIS3_TnPNSt3__19enable_ifIXntsr3stdE9is_void_vIT_EEvE4typeELPv0EEERS9_v:
 1794|  7.06k|    {
 1795|  7.06k|        return value();
 1796|  7.06k|    }
_ZN3scn2v46detail22parse_presentation_setIcRNS0_4impl22nonascii_specs_handlerEEENSt3__117basic_string_viewIT_NS6_11char_traitsIS8_EEEERPKS8_SD_OT0_:
 7444|  2.77k|{
 7445|  2.77k|    SCN_EXPECT(begin != end);
  ------------------
  |  |  930|  2.77k|#define SCN_EXPECT(cond) SCN_ASSERT(cond, "Precondition violation")
  |  |  ------------------
  |  |  |  |  927|  2.77k|#define SCN_ASSERT(cond, msg) assert((cond) && msg)
  |  |  ------------------
  ------------------
 7446|  2.77k|    SCN_EXPECT(*begin == CharT{'['});
  ------------------
  |  |  930|  2.77k|#define SCN_EXPECT(cond) SCN_ASSERT(cond, "Precondition violation")
  |  |  ------------------
  |  |  |  |  927|  2.77k|#define SCN_ASSERT(cond, msg) assert((cond) && msg)
  |  |  ------------------
  ------------------
 7447|       |
 7448|  2.77k|    auto start = begin;
 7449|  2.77k|    ++begin;
 7450|       |
 7451|  2.77k|    if (SCN_UNLIKELY(begin == end)) {
  ------------------
  |  |  865|  2.77k|#define SCN_UNLIKELY(x) __builtin_expect(!!(x), 0)
  |  |  ------------------
  |  |  |  Branch (865:25): [True: 0, False: 2.77k]
  |  |  ------------------
  ------------------
 7452|       |        // clang-format off
 7453|      0|        handler.on_error("Unexpected end of [character set] specifier in format string");
 7454|       |        // clang-format on
 7455|      0|        return {};
 7456|      0|    }
 7457|  2.77k|    if (*begin == CharT{'^'}) {
  ------------------
  |  Branch (7457:9): [True: 432, False: 2.34k]
  ------------------
 7458|    432|        handler.on_charset_inverted();
 7459|    432|        ++begin;
 7460|    432|        if (SCN_UNLIKELY(begin == end)) {
  ------------------
  |  |  865|    432|#define SCN_UNLIKELY(x) __builtin_expect(!!(x), 0)
  |  |  ------------------
  |  |  |  Branch (865:25): [True: 0, False: 432]
  |  |  ------------------
  ------------------
 7461|       |            // clang-format off
 7462|      0|            handler.on_error("Unexpected end of [character set] specifier in format string");
 7463|       |            // clang-format on
 7464|      0|            return {};
 7465|      0|        }
 7466|    432|        if (*begin == CharT{']'}) {
  ------------------
  |  Branch (7466:13): [True: 6, False: 426]
  ------------------
 7467|      6|            handler.on_charset_single(char32_t{']'});
 7468|      6|            ++begin;
 7469|      6|        }
 7470|    432|    }
 7471|  2.34k|    else if (*begin == CharT{']'}) {
  ------------------
  |  Branch (7471:14): [True: 0, False: 2.34k]
  ------------------
 7472|      0|        return {start, static_cast<size_t>(std::distance(start, ++begin))};
 7473|      0|    }
 7474|       |
 7475|   377k|    while (begin != end) {
  ------------------
  |  Branch (7475:12): [True: 377k, False: 0]
  ------------------
 7476|   377k|        if (SCN_UNLIKELY(!handler.get_error())) {
  ------------------
  |  |  865|   377k|#define SCN_UNLIKELY(x) __builtin_expect(!!(x), 0)
  |  |  ------------------
  |  |  |  Branch (865:25): [True: 0, False: 377k]
  |  |  ------------------
  ------------------
 7477|      0|            break;
 7478|      0|        }
 7479|       |
 7480|   377k|        if (*begin == CharT{']'}) {
  ------------------
  |  Branch (7480:13): [True: 2.77k, False: 374k]
  ------------------
 7481|  2.77k|            return {start, static_cast<size_t>(std::distance(start, ++begin))};
 7482|  2.77k|        }
 7483|       |
 7484|   374k|        parse_presentation_set_literal(begin, end, handler);
 7485|   374k|    }
 7486|       |
 7487|      0|    SCN_UNLIKELY_ATTR
 7488|      0|    handler.on_error("Invalid [character set] specifier in format string");
 7489|      0|    return {};
 7490|  2.77k|}
_ZN3scn2v46detail30parse_presentation_set_literalIcRNS0_4impl22nonascii_specs_handlerEEEvRPKT_S8_OT0_:
 7408|   374k|{
 7409|   374k|    SCN_EXPECT(begin != end);
  ------------------
  |  |  930|   374k|#define SCN_EXPECT(cond) SCN_ASSERT(cond, "Precondition violation")
  |  |  ------------------
  |  |  |  |  927|   374k|#define SCN_ASSERT(cond, msg) assert((cond) && msg)
  |  |  ------------------
  ------------------
 7410|       |
 7411|   374k|    auto cp_first = parse_presentation_set_code_point(begin, end, handler);
 7412|   374k|    if (SCN_UNLIKELY(cp_first >= invalid_code_point)) {
  ------------------
  |  |  865|   374k|#define SCN_UNLIKELY(x) __builtin_expect(!!(x), 0)
  |  |  ------------------
  |  |  |  Branch (865:25): [True: 0, False: 374k]
  |  |  ------------------
  ------------------
 7413|      0|        return;
 7414|      0|    }
 7415|       |
 7416|   374k|    if (begin != end && *begin == CharT{'-'} && (begin + 1) != end &&
  ------------------
  |  Branch (7416:9): [True: 374k, False: 0]
  |  Branch (7416:25): [True: 3.24k, False: 371k]
  |  Branch (7416:49): [True: 3.24k, False: 0]
  ------------------
 7417|   374k|        *(begin + 1) != CharT{']'}) {
  ------------------
  |  Branch (7417:9): [True: 3.18k, False: 66]
  ------------------
 7418|  3.18k|        ++begin;
 7419|       |
 7420|  3.18k|        auto cp_second = parse_presentation_set_code_point(begin, end, handler);
 7421|  3.18k|        if (SCN_UNLIKELY(cp_second >= invalid_code_point)) {
  ------------------
  |  |  865|  3.18k|#define SCN_UNLIKELY(x) __builtin_expect(!!(x), 0)
  |  |  ------------------
  |  |  |  Branch (865:25): [True: 0, False: 3.18k]
  |  |  ------------------
  ------------------
 7422|      0|            return;
 7423|      0|        }
 7424|       |
 7425|  3.18k|        if (SCN_UNLIKELY(cp_second < cp_first)) {
  ------------------
  |  |  865|  3.18k|#define SCN_UNLIKELY(x) __builtin_expect(!!(x), 0)
  |  |  ------------------
  |  |  |  Branch (865:25): [True: 0, False: 3.18k]
  |  |  ------------------
  ------------------
 7426|       |            // clang-format off
 7427|      0|            handler.on_error("Invalid range in [character set] format string argument: Range end before the beginning");
 7428|       |            // clang-format on
 7429|      0|            return;
 7430|      0|        }
 7431|       |
 7432|  3.18k|        handler.on_charset_range(cp_first, cp_second + 1);
 7433|  3.18k|        return;
 7434|  3.18k|    }
 7435|       |
 7436|   371k|    handler.on_charset_single(cp_first);
 7437|   371k|}
_ZN3scn2v46detail33parse_presentation_set_code_pointIcRNS0_4impl22nonascii_specs_handlerEEEDiRPKT_S8_OT0_:
 7384|   377k|{
 7385|   377k|    SCN_EXPECT(begin != end);
  ------------------
  |  |  930|   377k|#define SCN_EXPECT(cond) SCN_ASSERT(cond, "Precondition violation")
  |  |  ------------------
  |  |  |  |  927|   377k|#define SCN_ASSERT(cond, msg) assert((cond) && msg)
  |  |  ------------------
  ------------------
 7386|       |
 7387|   377k|    auto len = code_point_length_by_starting_code_unit(*begin);
 7388|   377k|    if (SCN_UNLIKELY(len == 0 || static_cast<size_t>(end - begin) < len)) {
  ------------------
  |  |  865|   755k|#define SCN_UNLIKELY(x) __builtin_expect(!!(x), 0)
  |  |  ------------------
  |  |  |  Branch (865:25): [True: 0, False: 377k]
  |  |  |  Branch (865:45): [True: 0, False: 377k]
  |  |  |  Branch (865:45): [True: 0, False: 377k]
  |  |  ------------------
  ------------------
 7389|      0|        handler.on_error("Invalid encoding in format string");
 7390|      0|        return invalid_code_point;
 7391|      0|    }
 7392|       |
 7393|   377k|    const auto cp =
 7394|   377k|        decode_code_point_exhaustive(std::basic_string_view<CharT>{begin, len});
 7395|   377k|    if (SCN_UNLIKELY(cp >= invalid_code_point)) {
  ------------------
  |  |  865|   377k|#define SCN_UNLIKELY(x) __builtin_expect(!!(x), 0)
  |  |  ------------------
  |  |  |  Branch (865:25): [True: 0, False: 377k]
  |  |  ------------------
  ------------------
 7396|      0|        handler.on_error("Invalid encoding in format string");
 7397|      0|        return invalid_code_point;
 7398|      0|    }
 7399|       |
 7400|   377k|    begin += len;
 7401|   377k|    return cp;
 7402|   377k|}
_ZNK3scn2v46detail12format_specs14charset_stringIcEENSt3__117basic_string_viewIT_NS4_11char_traitsIS6_EEEEv:
 7003|  3.25k|    {
 7004|  3.25k|        return {reinterpret_cast<const CharT*>(charset_string_data),
 7005|  3.25k|                charset_string_size};
 7006|  3.25k|    }
_ZN3scn2v48expectedINS0_4impl27counted_width_iterator_impl22counted_width_iteratorIPKcS6_EENS0_10scan_errorEEC2IRKS7_vEEOT_:
 1569|    774|        : base(std::in_place, std::forward<U>(val)),
 1570|    774|          ctor_base(detail::non_default_ctor_tag_t{})
 1571|    774|    {
 1572|    774|    }
_ZN3scn2v46detail21expected_storage_baseINS0_4impl27counted_width_iterator_impl22counted_width_iteratorIPKcS7_EENS0_10scan_errorELb1EEC2IJRKS8_EvEENSt3__110in_place_tEDpOT_:
  440|    774|        : m_value(std::forward<Args>(args)...), m_has_value(true)
  441|    774|    {
  442|    774|    }
_ZN3scn2v48expectedIPKcNS0_10scan_errorEEC2IRKS3_vEEOT_:
 1569|  1.51k|        : base(std::in_place, std::forward<U>(val)),
 1570|  1.51k|          ctor_base(detail::non_default_ctor_tag_t{})
 1571|  1.51k|    {
 1572|  1.51k|    }
_ZN3scn2v46detail21expected_storage_baseIPKcNS0_10scan_errorELb1EEC2IJRKS4_EvEENSt3__110in_place_tEDpOT_:
  440|  1.51k|        : m_value(std::forward<Args>(args)...), m_has_value(true)
  441|  1.51k|    {
  442|  1.51k|    }
_ZN3scn2v46detail34decode_code_point_exhaustive_validIcEEDiNSt3__117basic_string_viewIT_NS3_11char_traitsIS5_EEEE:
 4293|   104k|{
 4294|   104k|    if constexpr (sizeof(CharT) == 1) {
 4295|   104k|        return decode_utf8_code_point_exhaustive_valid(input);
 4296|       |    }
 4297|       |    else if constexpr (sizeof(CharT) == 2) {
 4298|       |        return decode_utf16_code_point_exhaustive_valid(input);
 4299|       |    }
 4300|       |    else {
 4301|       |        SCN_EXPECT(input.size() == 1);
 4302|       |        return static_cast<char32_t>(input.front());
 4303|       |    }
 4304|   104k|}
_ZZN3scn2v46detail39decode_utf8_code_point_exhaustive_validENSt3__117basic_string_viewIcNS2_11char_traitsIcEEEEENKUlcE_clEc:
 4171|  15.0k|    const auto is_trailing_code_unit = [](char ch) {
 4172|  15.0k|        return static_cast<unsigned char>(ch) >> 6 == 0x2;
 4173|  15.0k|    };
_ZNK3scn2v46detail9fill_type13get_code_unitIwEET_v:
 6938|    884|    {
 6939|    884|        SCN_EXPECT(m_size <= sizeof(CharT));
  ------------------
  |  |  930|    884|#define SCN_EXPECT(cond) SCN_ASSERT(cond, "Precondition violation")
  |  |  ------------------
  |  |  |  |  927|    884|#define SCN_ASSERT(cond, msg) assert((cond) && msg)
  |  |  ------------------
  ------------------
 6940|    884|        CharT r{};
 6941|    884|        std::memcpy(&r, m_data, m_size);
 6942|    884|        return r;
 6943|    884|    }
_ZN3scn2v46detail39code_point_length_by_starting_code_unitIwEEmT_:
 4067|   189M|{
 4068|       |    if constexpr (sizeof(U) == 1) {
 4069|       |        return utf8_code_point_length_by_starting_code_unit(ch);
 4070|       |    }
 4071|       |    else if constexpr (sizeof(U) == 2) {
 4072|       |        return utf16_code_point_length_by_starting_code_unit(ch);
 4073|       |    }
 4074|   189M|    else {
 4075|       |        // utf-32
 4076|   189M|        static_assert(sizeof(U) == 4);
 4077|   189M|        SCN_UNUSED(ch);
  ------------------
  |  |  915|   189M|#define SCN_UNUSED(x) static_cast<void>(sizeof(x))
  ------------------
 4078|   189M|        return 1;
 4079|   189M|    }
 4080|   189M|}
_ZN3scn2v46detail28decode_code_point_exhaustiveIwEEDiNSt3__117basic_string_viewIT_NS3_11char_traitsIS5_EEEE:
 4273|   189M|{
 4274|       |    if constexpr (sizeof(CharT) == 1) {
 4275|       |        return decode_utf8_code_point_exhaustive(input);
 4276|       |    }
 4277|       |    else if constexpr (sizeof(CharT) == 2) {
 4278|       |        return decode_utf16_code_point_exhaustive(input);
 4279|       |    }
 4280|   189M|    else {
 4281|   189M|        SCN_EXPECT(input.size() == 1);
  ------------------
  |  |  930|   189M|#define SCN_EXPECT(cond) SCN_ASSERT(cond, "Precondition violation")
  |  |  ------------------
  |  |  |  |  927|   189M|#define SCN_ASSERT(cond, msg) assert((cond) && msg)
  |  |  ------------------
  ------------------
 4282|   189M|        auto cp = static_cast<char32_t>(input.front());
 4283|   189M|        if (SCN_UNLIKELY(cp >= invalid_code_point)) {
  ------------------
  |  |  865|   189M|#define SCN_UNLIKELY(x) __builtin_expect(!!(x), 0)
  |  |  ------------------
  |  |  |  Branch (865:25): [True: 40.2k, False: 189M]
  |  |  ------------------
  ------------------
 4284|  40.2k|            return invalid_code_point;
 4285|  40.2k|        }
 4286|   189M|        return cp;
 4287|   189M|    }
 4288|   189M|}
_ZN3scn2v46detail31make_string_view_from_iteratorsIwEENSt3__117basic_string_viewIT_NS3_11char_traitsIS5_EEEENS8_8iteratorES9_:
 3959|  52.6k|{
 3960|       |    if constexpr (std::is_constructible_v<std::basic_string_view<CharT>,
 3961|       |                                          decltype(first), decltype(last)> &&
 3962|       |                  !SCN_MSVC_DEBUG_ITERATORS) {
 3963|       |        return {first, last};
 3964|       |    }
 3965|  52.6k|    else {
 3966|  52.6k|        return {to_address(first), static_cast<size_t>(std::distance(
 3967|  52.6k|                                       to_address(first), to_address(last)))};
 3968|  52.6k|    }
 3969|  52.6k|}
_ZN3scn2v46detail10to_addressIRPKwEEDTclgssr3scn6detailE15to_address_implscDtfp_Efp_tlNS1_12priority_tagILm2EEEEEEOT_:
  315|   168k|{
  316|   168k|    return ::scn::detail::to_address_impl(SCN_FWD(p), priority_tag<2>{});
  ------------------
  |  |  936|   168k|#define SCN_FWD(x)          static_cast<decltype(x)&&>(x)
  ------------------
  317|   168k|}
_ZN3scn2v46detail15to_address_implIKwEEPT_S5_NS1_12priority_tagILm2EEE:
  293|   364k|{
  294|   364k|    return p;
  295|   364k|}
_ZN3scn2v46detail25make_string_view_iteratorIwEENSt3__117basic_string_viewIT_NS3_11char_traitsIS5_EEE8iteratorES8_S9_:
 3990|  7.95k|{
 3991|       |    if constexpr (std::is_constructible_v<
 3992|       |                      typename std::basic_string_view<CharT>::iterator,
 3993|       |                      decltype(it)> &&
 3994|  7.95k|                  !SCN_MSVC_DEBUG_ITERATORS) {
 3995|  7.95k|        SCN_UNUSED(sv);
  ------------------
  |  |  915|  7.95k|#define SCN_UNUSED(x) static_cast<void>(sizeof(x))
  ------------------
 3996|  7.95k|        return it;
 3997|       |    }
 3998|       |    else {
 3999|       |        return sv.begin() + std::distance(sv.data(), detail::to_address(it));
 4000|       |    }
 4001|  7.95k|}
_ZN3scn2v46detail10to_addressIPKwEEDTclgssr3scn6detailE15to_address_implscDtfp_Efp_tlNS1_12priority_tagILm2EEEEEEOT_:
  315|   196k|{
  316|   196k|    return ::scn::detail::to_address_impl(SCN_FWD(p), priority_tag<2>{});
  ------------------
  |  |  936|   196k|#define SCN_FWD(x)          static_cast<decltype(x)&&>(x)
  ------------------
  317|   196k|}
_ZNK3scn2v46ranges6detail9subrange_8subrangeIPKwS6_E4sizeIS6_TnPNSt3__19enable_ifIX18sized_sentinel_forIS6_T_EEvE4typeELPv0EEEmv:
 3495|   106k|    {
 3496|   106k|        return static_cast<size_t>(m_sentinel - m_iterator);
 3497|   106k|    }
_ZN3scn2v48expectedIPKwNS0_4impl9eof_errorEEC2IS5_TnPNSt3__19enable_ifIXsr3stdE18is_constructible_vIS5_OT_EEvE4typeELPv0ETnPNS9_IXsr3stdE16is_convertible_vISB_S5_EEvE4typeELSF_0EEEONS0_10unexpectedISA_EE:
 1615|    140|        : base(unexpect, std::move(e.error())),
 1616|    140|          ctor_base(detail::non_default_ctor_tag_t{})
 1617|    140|    {
 1618|    140|    }
_ZN3scn2v46detail21expected_storage_baseIPKwNS0_4impl9eof_errorELb1EEC2IJS6_EvEENS0_10unexpect_tEDpOT_:
  449|    140|        : m_unexpected(std::in_place, std::forward<Args>(args)...),
  450|    140|          m_has_value(false)
  451|    140|    {
  452|    140|    }
_ZN3scn2v46detail26expected_default_ctor_baseIPKwNS0_4impl9eof_errorELb1EEC2ENS1_22non_default_ctor_tag_tE:
 1315|  17.3k|    {
 1316|  17.3k|    }
_ZN3scn2v48expectedIPKwNS0_4impl9eof_errorEEC2IS3_vEEOT_:
 1569|  17.2k|        : base(std::in_place, std::forward<U>(val)),
 1570|  17.2k|          ctor_base(detail::non_default_ctor_tag_t{})
 1571|  17.2k|    {
 1572|  17.2k|    }
_ZN3scn2v46detail21expected_storage_baseIPKwNS0_4impl9eof_errorELb1EEC2IJS4_EvEENSt3__110in_place_tEDpOT_:
  440|  17.2k|        : m_value(std::forward<Args>(args)...), m_has_value(true)
  441|  17.2k|    {
  442|  17.2k|    }
_ZNK3scn2v48expectedIPKwNS0_4impl9eof_errorEEcvbEv:
 1739|  4.86k|    {
 1740|  4.86k|        return has_value();
 1741|  4.86k|    }
_ZNK3scn2v46detail21expected_storage_baseIPKwNS0_4impl9eof_errorELb1EE9has_valueEv:
  489|  29.8k|    {
  490|  29.8k|        return m_has_value;
  491|  29.8k|    }
_ZNR3scn2v48expectedIPKwNS0_4impl9eof_errorEE5valueIS3_TnPNSt3__19enable_ifIXntsr3stdE9is_void_vIT_EEvE4typeELPv0EEERSA_v:
 1768|  12.3k|    {
 1769|  12.3k|        SCN_EXPECT(has_value());
  ------------------
  |  |  930|  12.3k|#define SCN_EXPECT(cond) SCN_ASSERT(cond, "Precondition violation")
  |  |  ------------------
  |  |  |  |  927|  12.3k|#define SCN_ASSERT(cond, msg) assert((cond) && msg)
  |  |  ------------------
  ------------------
 1770|  12.3k|        return this->get_value();
 1771|  12.3k|    }
_ZNR3scn2v46detail21expected_storage_baseIPKwNS0_4impl9eof_errorELb1EE9get_valueEv:
  455|  12.3k|    {
  456|  12.3k|        return m_value;
  457|  12.3k|    }
_ZN3scn2v48expectedINS0_4impl27counted_width_iterator_impl22counted_width_iteratorIPKwS6_EENS2_9eof_errorEEC2IS7_vEEOT_:
 1569|  1.84k|        : base(std::in_place, std::forward<U>(val)),
 1570|  1.84k|          ctor_base(detail::non_default_ctor_tag_t{})
 1571|  1.84k|    {
 1572|  1.84k|    }
_ZN3scn2v46detail21expected_storage_baseINS0_4impl27counted_width_iterator_impl22counted_width_iteratorIPKwS7_EENS3_9eof_errorELb1EEC2IJS8_EvEENSt3__110in_place_tEDpOT_:
  440|  1.84k|        : m_value(std::forward<Args>(args)...), m_has_value(true)
  441|  1.84k|    {
  442|  1.84k|    }
_ZN3scn2v46detail26expected_default_ctor_baseINS0_4impl27counted_width_iterator_impl22counted_width_iteratorIPKwS7_EENS3_9eof_errorELb1EEC2ENS1_22non_default_ctor_tag_tE:
 1315|  2.01k|    {
 1316|  2.01k|    }
_ZN3scn2v48expectedINS0_4impl27counted_width_iterator_impl22counted_width_iteratorIPKwS6_EENS2_9eof_errorEEC2IS8_TnPNSt3__19enable_ifIXsr3stdE18is_constructible_vIS8_OT_EEvE4typeELPv0ETnPNSC_IXsr3stdE16is_convertible_vISE_S8_EEvE4typeELSI_0EEEONS0_10unexpectedISD_EE:
 1615|    170|        : base(unexpect, std::move(e.error())),
 1616|    170|          ctor_base(detail::non_default_ctor_tag_t{})
 1617|    170|    {
 1618|    170|    }
_ZN3scn2v46detail21expected_storage_baseINS0_4impl27counted_width_iterator_impl22counted_width_iteratorIPKwS7_EENS3_9eof_errorELb1EEC2IJS9_EvEENS0_10unexpect_tEDpOT_:
  449|    170|        : m_unexpected(std::in_place, std::forward<Args>(args)...),
  450|    170|          m_has_value(false)
  451|    170|    {
  452|    170|    }
_ZNK3scn2v48expectedINS0_4impl27counted_width_iterator_impl22counted_width_iteratorIPKwS6_EENS2_9eof_errorEEcvbEv:
 1739|    794|    {
 1740|    794|        return has_value();
 1741|    794|    }
_ZNK3scn2v46detail21expected_storage_baseINS0_4impl27counted_width_iterator_impl22counted_width_iteratorIPKwS7_EENS3_9eof_errorELb1EE9has_valueEv:
  489|  3.24k|    {
  490|  3.24k|        return m_has_value;
  491|  3.24k|    }
_ZNR3scn2v48expectedINS0_4impl27counted_width_iterator_impl22counted_width_iteratorIPKwS6_EENS2_9eof_errorEE5valueIS7_TnPNSt3__19enable_ifIXntsr3stdE9is_void_vIT_EEvE4typeELPv0EEERSD_v:
 1768|  1.05k|    {
 1769|  1.05k|        SCN_EXPECT(has_value());
  ------------------
  |  |  930|  1.05k|#define SCN_EXPECT(cond) SCN_ASSERT(cond, "Precondition violation")
  |  |  ------------------
  |  |  |  |  927|  1.05k|#define SCN_ASSERT(cond, msg) assert((cond) && msg)
  |  |  ------------------
  ------------------
 1770|  1.05k|        return this->get_value();
 1771|  1.05k|    }
_ZNR3scn2v46detail21expected_storage_baseINS0_4impl27counted_width_iterator_impl22counted_width_iteratorIPKwS7_EENS3_9eof_errorELb1EE9get_valueEv:
  455|  1.05k|    {
  456|  1.05k|        return m_value;
  457|  1.05k|    }
_ZN3scn2v46detail26expected_default_ctor_baseINSt3__14pairINS0_4impl27counted_width_iterator_impl22counted_width_iteratorIPKwS9_EElEENS0_10scan_errorELb1EEC2ENS1_22non_default_ctor_tag_tE:
 1315|  1.61k|    {
 1316|  1.61k|    }
_ZN3scn2v48expectedINSt3__14pairINS0_4impl27counted_width_iterator_impl22counted_width_iteratorIPKwS8_EElEENS0_10scan_errorEEC2ISA_vEEOT_:
 1569|  1.61k|        : base(std::in_place, std::forward<U>(val)),
 1570|  1.61k|          ctor_base(detail::non_default_ctor_tag_t{})
 1571|  1.61k|    {
 1572|  1.61k|    }
_ZN3scn2v46detail21expected_storage_baseINSt3__14pairINS0_4impl27counted_width_iterator_impl22counted_width_iteratorIPKwS9_EElEENS0_10scan_errorELb1EEC2IJSB_EvEENS3_10in_place_tEDpOT_:
  440|  1.61k|        : m_value(std::forward<Args>(args)...), m_has_value(true)
  441|  1.61k|    {
  442|  1.61k|    }
_ZNO3scn2v48expectedINS0_4impl27counted_width_iterator_impl22counted_width_iteratorIPKwS6_EENS2_9eof_errorEE15transform_errorIRFNS0_10scan_errorES8_EEEDTclsr6detailE20transform_error_impldefpTclsr3stdE7forwardIT_Efp_EEEOSE_:
 1978|    450|    {
 1979|    450|        return detail::transform_error_impl(std::move(*this),
 1980|    450|                                            std::forward<F>(f));
 1981|    450|    }
_ZN3scn2v46detail20transform_error_implINS0_8expectedINS0_4impl27counted_width_iterator_impl22counted_width_iteratorIPKwS8_EENS4_9eof_errorEEERFNS0_10scan_errorESA_ETnPNSt3__19enable_ifIXntsr11is_exp_voidIT_EE5valueEvE4typeELPv0ESC_EEDaOSH_OT0_:
 1461|    450|{
 1462|       |    if constexpr (std::is_void_v<Ret>) {
 1463|       |        using result = expected<expected_value_type<Exp>, monostate>;
 1464|       |        if (SCN_LIKELY(exp.has_value())) {
 1465|       |            return result(*std::forward<Exp>(exp));
 1466|       |        }
 1467|       |
 1468|       |        trivial_invoke(std::forward<F>(f), std::forward<Exp>(exp).error());
 1469|       |        return result(unexpect, monostate{});
 1470|       |    }
 1471|    450|    else {
 1472|    450|        using result = expected<expected_value_type<Exp>, remove_cvref_t<Ret>>;
 1473|    450|        return SCN_LIKELY(exp.has_value())
  ------------------
  |  |  864|    450|#define SCN_LIKELY(x)   __builtin_expect(!!(x), 1)
  |  |  ------------------
  |  |  |  Branch (864:25): [True: 450, False: 0]
  |  |  ------------------
  ------------------
 1474|    450|                   ? result(*std::forward<Exp>(exp))
 1475|    450|                   : result(unexpect,
 1476|      0|                            trivial_invoke(std::forward<F>(f),
 1477|      0|                                           std::forward<Exp>(exp).error()));
 1478|    450|    }
 1479|    450|}
_ZNO3scn2v48expectedINS0_4impl27counted_width_iterator_impl22counted_width_iteratorIPKwS6_EENS2_9eof_errorEEdeIS7_TnPNSt3__19enable_ifIXntsr3stdE9is_void_vIT_EEvE4typeELPv0EEEOSD_v:
 1804|  1.05k|    {
 1805|  1.05k|        return std::move(value());
 1806|  1.05k|    }
_ZN3scn2v48expectedINS0_4impl27counted_width_iterator_impl22counted_width_iteratorIPKwS6_EENS0_10scan_errorEEC2IS7_vEEOT_:
 1569|  1.20k|        : base(std::in_place, std::forward<U>(val)),
 1570|  1.20k|          ctor_base(detail::non_default_ctor_tag_t{})
 1571|  1.20k|    {
 1572|  1.20k|    }
_ZN3scn2v46detail21expected_storage_baseINS0_4impl27counted_width_iterator_impl22counted_width_iteratorIPKwS7_EENS0_10scan_errorELb1EEC2IJS8_EvEENSt3__110in_place_tEDpOT_:
  440|  1.20k|        : m_value(std::forward<Args>(args)...), m_has_value(true)
  441|  1.20k|    {
  442|  1.20k|    }
_ZN3scn2v46detail26expected_default_ctor_baseINS0_4impl27counted_width_iterator_impl22counted_width_iteratorIPKwS7_EENS0_10scan_errorELb1EEC2ENS1_22non_default_ctor_tag_tE:
 1315|  3.48k|    {
 1316|  3.48k|    }
_ZNO3scn2v48expectedINS0_4impl27counted_width_iterator_impl22counted_width_iteratorIPKwS6_EENS2_9eof_errorEE5errorEv:
 1755|    170|    {
 1756|    170|        SCN_EXPECT(!has_value());
  ------------------
  |  |  930|    170|#define SCN_EXPECT(cond) SCN_ASSERT(cond, "Precondition violation")
  |  |  ------------------
  |  |  |  |  927|    170|#define SCN_ASSERT(cond, msg) assert((cond) && msg)
  |  |  ------------------
  ------------------
 1757|    170|        return std::move(this->get_unexpected().error());
 1758|    170|    }
_ZNR3scn2v46detail21expected_storage_baseINS0_4impl27counted_width_iterator_impl22counted_width_iteratorIPKwS7_EENS3_9eof_errorELb1EE14get_unexpectedEv:
  472|    170|    {
  473|    170|        return m_unexpected;
  474|    170|    }
_ZN3scn2v48expectedINS0_4impl27counted_width_iterator_impl22counted_width_iteratorIPKwS6_EENS0_10scan_errorEEC2IJS8_EvEENS0_10unexpect_tEDpOT_:
 1625|    568|        : base(unexpect, std::forward<Args>(args)...),
 1626|    568|          ctor_base(detail::non_default_ctor_tag_t{})
 1627|    568|    {
 1628|    568|    }
_ZN3scn2v46detail21expected_storage_baseINS0_4impl27counted_width_iterator_impl22counted_width_iteratorIPKwS7_EENS0_10scan_errorELb1EEC2IJS9_EvEENS0_10unexpect_tEDpOT_:
  449|  1.87k|        : m_unexpected(std::in_place, std::forward<Args>(args)...),
  450|  1.87k|          m_has_value(false)
  451|  1.87k|    {
  452|  1.87k|    }
_ZNK3scn2v46ranges6detail6begin_2fnclIRNS2_9subrange_8subrangeINS0_4impl27counted_width_iterator_impl22counted_width_iteratorIPKwSC_EESD_EEEEDTclsr2fnE4implscDtfp_Efp_tlNS0_6detail12priority_tagILm3EEEEEEOT_:
 2868|    554|    {
 2869|    554|        return fn::impl(SCN_FWD(t), priority_tag<3>{});
  ------------------
  |  |  936|    554|#define SCN_FWD(x)          static_cast<decltype(x)&&>(x)
  ------------------
 2870|    554|    }
_ZN3scn2v46ranges6detail6begin_2fn4implIRNS2_9subrange_8subrangeINS0_4impl27counted_width_iterator_impl22counted_width_iteratorIPKwSC_EESD_EEEENSt3__19enable_ifIX24input_or_output_iteratorIDTcl10decay_copycldtscDtfp_Efp_5beginEEEEESJ_E4typeEOT_NS0_6detail12priority_tagILm1EEE:
 2849|    554|    {
 2850|    554|        return decay_copy(t.begin());
 2851|    554|    }
_ZN3scn2v46ranges6detail10decay_copyINS0_4impl27counted_width_iterator_impl22counted_width_iteratorIPKwS8_EEEEu7__decayIT_EOSA_:
 2093|  1.21k|{
 2094|  1.21k|    return SCN_FWD(t);
  ------------------
  |  |  936|  1.21k|#define SCN_FWD(x)          static_cast<decltype(x)&&>(x)
  ------------------
 2095|  1.21k|}
_ZNK3scn2v46ranges6detail9subrange_8subrangeINS0_4impl27counted_width_iterator_impl22counted_width_iteratorIPKwS9_EESA_E5beginEv:
 3479|    554|    {
 3480|    554|        return m_iterator;
 3481|    554|    }
_ZNK3scn2v46ranges6detail4end_2fnclIRNS2_9subrange_8subrangeINS0_4impl27counted_width_iterator_impl22counted_width_iteratorIPKwSC_EESD_EEEEDTclsr2fnE4implscDtfp_Efp_tlNS0_6detail12priority_tagILm3EEEEEEOT_:
 2925|    554|    {
 2926|    554|        return fn::impl(SCN_FWD(t), priority_tag<3>{});
  ------------------
  |  |  936|    554|#define SCN_FWD(x)          static_cast<decltype(x)&&>(x)
  ------------------
 2927|    554|    }
_ZN3scn2v46ranges6detail4end_2fn4implIRNS2_9subrange_8subrangeINS0_4impl27counted_width_iterator_impl22counted_width_iteratorIPKwSC_EESD_EESD_SD_EENSt3__19enable_ifIX12sentinel_forIT0_T1_EEDTcl10decay_copycldtscDtfp_Efp_3endEEEE4typeEOT_NS0_6detail12priority_tagILm1EEE:
 2907|    554|    {
 2908|    554|        return decay_copy(SCN_FWD(t).end());
  ------------------
  |  |  936|    554|#define SCN_FWD(x)          static_cast<decltype(x)&&>(x)
  ------------------
 2909|    554|    }
_ZNK3scn2v46ranges6detail9subrange_8subrangeINS0_4impl27counted_width_iterator_impl22counted_width_iteratorIPKwS9_EESA_E3endEv:
 3483|    554|    {
 3484|    554|        return m_sentinel;
 3485|    554|    }
_ZN3scn2v46ranges6detail9subrange_8subrangeINS0_4impl27counted_width_iterator_impl22counted_width_iteratorIPKwS9_EESA_EC2ISA_TnPNSt3__19enable_ifIXsr3stdE16is_convertible_vIT_SA_EEvE4typeELPv0EEESF_SA_:
 3464|    554|        : m_iterator(SCN_MOVE(i)), m_sentinel(SCN_MOVE(s))
  ------------------
  |  |  934|    554|    static_cast<    \
  |  |  935|    554|        typename ::scn::detail::remove_reference<decltype(x)>::type&&>(x)
  ------------------
                      : m_iterator(SCN_MOVE(i)), m_sentinel(SCN_MOVE(s))
  ------------------
  |  |  934|    554|    static_cast<    \
  |  |  935|    554|        typename ::scn::detail::remove_reference<decltype(x)>::type&&>(x)
  ------------------
 3465|    554|    {
 3466|    554|    }
_ZNK3scn2v48expectedINSt3__14pairINS0_4impl27counted_width_iterator_impl22counted_width_iteratorIPKwS8_EElEENS0_10scan_errorEEcvbEv:
 1739|  1.61k|    {
 1740|  1.61k|        return has_value();
 1741|  1.61k|    }
_ZNK3scn2v46detail21expected_storage_baseINSt3__14pairINS0_4impl27counted_width_iterator_impl22counted_width_iteratorIPKwS9_EElEENS0_10scan_errorELb1EE9has_valueEv:
  489|  3.22k|    {
  490|  3.22k|        return m_has_value;
  491|  3.22k|    }
_ZNO3scn2v48expectedINSt3__14pairINS0_4impl27counted_width_iterator_impl22counted_width_iteratorIPKwS8_EElEENS0_10scan_errorEEdeISA_TnPNS2_9enable_ifIXntsr3stdE9is_void_vIT_EEvE4typeELPv0EEEOSF_v:
 1804|  1.61k|    {
 1805|  1.61k|        return std::move(value());
 1806|  1.61k|    }
_ZNR3scn2v48expectedINSt3__14pairINS0_4impl27counted_width_iterator_impl22counted_width_iteratorIPKwS8_EElEENS0_10scan_errorEE5valueISA_TnPNS2_9enable_ifIXntsr3stdE9is_void_vIT_EEvE4typeELPv0EEERSF_v:
 1768|  1.61k|    {
 1769|  1.61k|        SCN_EXPECT(has_value());
  ------------------
  |  |  930|  1.61k|#define SCN_EXPECT(cond) SCN_ASSERT(cond, "Precondition violation")
  |  |  ------------------
  |  |  |  |  927|  1.61k|#define SCN_ASSERT(cond, msg) assert((cond) && msg)
  |  |  ------------------
  ------------------
 1770|  1.61k|        return this->get_value();
 1771|  1.61k|    }
_ZNR3scn2v46detail21expected_storage_baseINSt3__14pairINS0_4impl27counted_width_iterator_impl22counted_width_iteratorIPKwS9_EElEENS0_10scan_errorELb1EE9get_valueEv:
  455|  1.61k|    {
  456|  1.61k|        return m_value;
  457|  1.61k|    }
_ZN3scn2v46detail26expected_default_ctor_baseINSt3__14pairIPKwlEENS0_10scan_errorELb1EEC2ENS1_22non_default_ctor_tag_tE:
 1315|  5.15k|    {
 1316|  5.15k|    }
_ZN3scn2v48expectedINSt3__14pairIPKwlEENS0_10scan_errorEEC2IS6_vEEOT_:
 1569|  5.15k|        : base(std::in_place, std::forward<U>(val)),
 1570|  5.15k|          ctor_base(detail::non_default_ctor_tag_t{})
 1571|  5.15k|    {
 1572|  5.15k|    }
_ZN3scn2v46detail21expected_storage_baseINSt3__14pairIPKwlEENS0_10scan_errorELb1EEC2IJS7_EvEENS3_10in_place_tEDpOT_:
  440|  5.15k|        : m_value(std::forward<Args>(args)...), m_has_value(true)
  441|  5.15k|    {
  442|  5.15k|    }
_ZNO3scn2v48expectedIPKwNS0_4impl9eof_errorEE15transform_errorIRFNS0_10scan_errorES5_EEEDTclsr6detailE20transform_error_impldefpTclsr3stdE7forwardIT_Efp_EEEOSB_:
 1978|  7.61k|    {
 1979|  7.61k|        return detail::transform_error_impl(std::move(*this),
 1980|  7.61k|                                            std::forward<F>(f));
 1981|  7.61k|    }
_ZN3scn2v46detail20transform_error_implINS0_8expectedIPKwNS0_4impl9eof_errorEEERFNS0_10scan_errorES7_ETnPNSt3__19enable_ifIXntsr11is_exp_voidIT_EE5valueEvE4typeELPv0ES9_EEDaOSE_OT0_:
 1461|  7.61k|{
 1462|       |    if constexpr (std::is_void_v<Ret>) {
 1463|       |        using result = expected<expected_value_type<Exp>, monostate>;
 1464|       |        if (SCN_LIKELY(exp.has_value())) {
 1465|       |            return result(*std::forward<Exp>(exp));
 1466|       |        }
 1467|       |
 1468|       |        trivial_invoke(std::forward<F>(f), std::forward<Exp>(exp).error());
 1469|       |        return result(unexpect, monostate{});
 1470|       |    }
 1471|  7.61k|    else {
 1472|  7.61k|        using result = expected<expected_value_type<Exp>, remove_cvref_t<Ret>>;
 1473|  7.61k|        return SCN_LIKELY(exp.has_value())
  ------------------
  |  |  864|  7.61k|#define SCN_LIKELY(x)   __builtin_expect(!!(x), 1)
  |  |  ------------------
  |  |  |  Branch (864:25): [True: 7.61k, False: 0]
  |  |  ------------------
  ------------------
 1474|  7.61k|                   ? result(*std::forward<Exp>(exp))
 1475|  7.61k|                   : result(unexpect,
 1476|      0|                            trivial_invoke(std::forward<F>(f),
 1477|      0|                                           std::forward<Exp>(exp).error()));
 1478|  7.61k|    }
 1479|  7.61k|}
_ZNO3scn2v48expectedIPKwNS0_4impl9eof_errorEEdeIS3_TnPNSt3__19enable_ifIXntsr3stdE9is_void_vIT_EEvE4typeELPv0EEEOSA_v:
 1804|  12.3k|    {
 1805|  12.3k|        return std::move(value());
 1806|  12.3k|    }
_ZNO3scn2v48expectedIPKwNS0_4impl9eof_errorEE5errorEv:
 1755|    140|    {
 1756|    140|        SCN_EXPECT(!has_value());
  ------------------
  |  |  930|    140|#define SCN_EXPECT(cond) SCN_ASSERT(cond, "Precondition violation")
  |  |  ------------------
  |  |  |  |  927|    140|#define SCN_ASSERT(cond, msg) assert((cond) && msg)
  |  |  ------------------
  ------------------
 1757|    140|        return std::move(this->get_unexpected().error());
 1758|    140|    }
_ZNR3scn2v46detail21expected_storage_baseIPKwNS0_4impl9eof_errorELb1EE14get_unexpectedEv:
  472|    140|    {
  473|    140|        return m_unexpected;
  474|    140|    }
_ZN3scn2v48expectedIPKwNS0_10scan_errorEEC2IJS4_EvEENS0_10unexpect_tEDpOT_:
 1625|    804|        : base(unexpect, std::forward<Args>(args)...),
 1626|    804|          ctor_base(detail::non_default_ctor_tag_t{})
 1627|    804|    {
 1628|    804|    }
_ZNK3scn2v48expectedINSt3__14pairIPKwlEENS0_10scan_errorEEcvbEv:
 1739|  5.15k|    {
 1740|  5.15k|        return has_value();
 1741|  5.15k|    }
_ZNK3scn2v46detail21expected_storage_baseINSt3__14pairIPKwlEENS0_10scan_errorELb1EE9has_valueEv:
  489|  10.3k|    {
  490|  10.3k|        return m_has_value;
  491|  10.3k|    }
_ZNO3scn2v48expectedINSt3__14pairIPKwlEENS0_10scan_errorEEdeIS6_TnPNS2_9enable_ifIXntsr3stdE9is_void_vIT_EEvE4typeELPv0EEEOSB_v:
 1804|  5.15k|    {
 1805|  5.15k|        return std::move(value());
 1806|  5.15k|    }
_ZNR3scn2v48expectedINSt3__14pairIPKwlEENS0_10scan_errorEE5valueIS6_TnPNS2_9enable_ifIXntsr3stdE9is_void_vIT_EEvE4typeELPv0EEERSB_v:
 1768|  5.15k|    {
 1769|  5.15k|        SCN_EXPECT(has_value());
  ------------------
  |  |  930|  5.15k|#define SCN_EXPECT(cond) SCN_ASSERT(cond, "Precondition violation")
  |  |  ------------------
  |  |  |  |  927|  5.15k|#define SCN_ASSERT(cond, msg) assert((cond) && msg)
  |  |  ------------------
  ------------------
 1770|  5.15k|        return this->get_value();
 1771|  5.15k|    }
_ZNR3scn2v46detail21expected_storage_baseINSt3__14pairIPKwlEENS0_10scan_errorELb1EE9get_valueEv:
  455|  5.15k|    {
  456|  5.15k|        return m_value;
  457|  5.15k|    }
_ZN3scn2v48expectedINS0_4impl27counted_width_iterator_impl22counted_width_iteratorIPKwS6_EENS0_10scan_errorEEC2IS8_TnPNSt3__19enable_ifIXsr3stdE18is_constructible_vIS8_OT_EEvE4typeELPv0ETnPNSC_IXsr3stdE16is_convertible_vISE_S8_EEvE4typeELSI_0EEEONS0_10unexpectedISD_EE:
 1615|  1.30k|        : base(unexpect, std::move(e.error())),
 1616|  1.30k|          ctor_base(detail::non_default_ctor_tag_t{})
 1617|  1.30k|    {
 1618|  1.30k|    }
_ZN3scn2v48expectedINS0_4impl27counted_width_iterator_impl22counted_width_iteratorIPKwS6_EENS2_11parse_errorEEC2IS8_TnPNSt3__19enable_ifIXsr3stdE18is_constructible_vIS8_OT_EEvE4typeELPv0ETnPNSC_IXsr3stdE16is_convertible_vISE_S8_EEvE4typeELSI_0EEEONS0_10unexpectedISD_EE:
 1615|    284|        : base(unexpect, std::move(e.error())),
 1616|    284|          ctor_base(detail::non_default_ctor_tag_t{})
 1617|    284|    {
 1618|    284|    }
_ZN3scn2v46detail21expected_storage_baseINS0_4impl27counted_width_iterator_impl22counted_width_iteratorIPKwS7_EENS3_11parse_errorELb1EEC2IJS9_EvEENS0_10unexpect_tEDpOT_:
  449|    454|        : m_unexpected(std::in_place, std::forward<Args>(args)...),
  450|    454|          m_has_value(false)
  451|    454|    {
  452|    454|    }
_ZN3scn2v46detail26expected_default_ctor_baseINS0_4impl27counted_width_iterator_impl22counted_width_iteratorIPKwS7_EENS3_11parse_errorELb1EEC2ENS1_22non_default_ctor_tag_tE:
 1315|  2.95k|    {
 1316|  2.95k|    }
_ZN3scn2v48expectedINS0_4impl27counted_width_iterator_impl22counted_width_iteratorIPKwS6_EENS2_11parse_errorEEC2INS8_4codeETnPNSt3__19enable_ifIXsr3stdE18is_constructible_vIS8_OT_EEvE4typeELPv0ETnPNSD_IXsr3stdE16is_convertible_vISF_S8_EEvE4typeELSJ_0EEEONS0_10unexpectedISE_EE:
 1615|  1.89k|        : base(unexpect, std::move(e.error())),
 1616|  1.89k|          ctor_base(detail::non_default_ctor_tag_t{})
 1617|  1.89k|    {
 1618|  1.89k|    }
_ZN3scn2v46detail21expected_storage_baseINS0_4impl27counted_width_iterator_impl22counted_width_iteratorIPKwS7_EENS3_11parse_errorELb1EEC2IJNS9_4codeEEvEENS0_10unexpect_tEDpOT_:
  449|  1.89k|        : m_unexpected(std::in_place, std::forward<Args>(args)...),
  450|  1.89k|          m_has_value(false)
  451|  1.89k|    {
  452|  1.89k|    }
_ZNK3scn2v48expectedINS0_4impl27counted_width_iterator_impl22counted_width_iteratorIPKwS6_EENS2_11parse_errorEEcvbEv:
 1739|  2.72k|    {
 1740|  2.72k|        return has_value();
 1741|  2.72k|    }
_ZNK3scn2v46detail21expected_storage_baseINS0_4impl27counted_width_iterator_impl22counted_width_iteratorIPKwS7_EENS3_11parse_errorELb1EE9has_valueEv:
  489|  5.24k|    {
  490|  5.24k|        return m_has_value;
  491|  5.24k|    }
_ZNR3scn2v48expectedINS0_4impl27counted_width_iterator_impl22counted_width_iteratorIPKwS6_EENS2_11parse_errorEE5errorEv:
 1745|  1.00k|    {
 1746|  1.00k|        SCN_EXPECT(!has_value());
  ------------------
  |  |  930|  1.00k|#define SCN_EXPECT(cond) SCN_ASSERT(cond, "Precondition violation")
  |  |  ------------------
  |  |  |  |  927|  1.00k|#define SCN_ASSERT(cond, msg) assert((cond) && msg)
  |  |  ------------------
  ------------------
 1747|  1.00k|        return this->get_unexpected().error();
 1748|  1.00k|    }
_ZNR3scn2v46detail21expected_storage_baseINS0_4impl27counted_width_iterator_impl22counted_width_iteratorIPKwS7_EENS3_11parse_errorELb1EE14get_unexpectedEv:
  472|  1.34k|    {
  473|  1.34k|        return m_unexpected;
  474|  1.34k|    }
_ZN3scn2v48expectedINSt3__14pairINS0_4impl27counted_width_iterator_impl22counted_width_iteratorIPKwS8_EENS4_9sign_typeEEENS4_9eof_errorEEC2ISB_vEEOT_:
 1569|    490|        : base(std::in_place, std::forward<U>(val)),
 1570|    490|          ctor_base(detail::non_default_ctor_tag_t{})
 1571|    490|    {
 1572|    490|    }
_ZN3scn2v46detail21expected_storage_baseINSt3__14pairINS0_4impl27counted_width_iterator_impl22counted_width_iteratorIPKwS9_EENS5_9sign_typeEEENS5_9eof_errorELb1EEC2IJSC_EvEENS3_10in_place_tEDpOT_:
  440|    490|        : m_value(std::forward<Args>(args)...), m_has_value(true)
  441|    490|    {
  442|    490|    }
_ZN3scn2v46detail26expected_default_ctor_baseINSt3__14pairINS0_4impl27counted_width_iterator_impl22counted_width_iteratorIPKwS9_EENS5_9sign_typeEEENS5_9eof_errorELb1EEC2ENS1_22non_default_ctor_tag_tE:
 1315|    490|    {
 1316|    490|    }
_ZNR3scn2v48expectedINS0_4impl27counted_width_iterator_impl22counted_width_iteratorIPKwS6_EENS2_11parse_errorEE5valueIS7_TnPNSt3__19enable_ifIXntsr3stdE9is_void_vIT_EEvE4typeELPv0EEERSD_v:
 1768|    604|    {
 1769|    604|        SCN_EXPECT(has_value());
  ------------------
  |  |  930|    604|#define SCN_EXPECT(cond) SCN_ASSERT(cond, "Precondition violation")
  |  |  ------------------
  |  |  |  |  927|    604|#define SCN_ASSERT(cond, msg) assert((cond) && msg)
  |  |  ------------------
  ------------------
 1770|    604|        return this->get_value();
 1771|    604|    }
_ZNR3scn2v46detail21expected_storage_baseINS0_4impl27counted_width_iterator_impl22counted_width_iteratorIPKwS7_EENS3_11parse_errorELb1EE9get_valueEv:
  455|    604|    {
  456|    604|        return m_value;
  457|    604|    }
_ZNK3scn2v48expectedINSt3__14pairINS0_4impl27counted_width_iterator_impl22counted_width_iteratorIPKwS8_EENS4_9sign_typeEEENS4_9eof_errorEEcvbEv:
 1739|    376|    {
 1740|    376|        return has_value();
 1741|    376|    }
_ZNK3scn2v46detail21expected_storage_baseINSt3__14pairINS0_4impl27counted_width_iterator_impl22counted_width_iteratorIPKwS9_EENS5_9sign_typeEEENS5_9eof_errorELb1EE9has_valueEv:
  489|    980|    {
  490|    980|        return m_has_value;
  491|    980|    }
_ZN3scn2v46detail26expected_default_ctor_baseINS0_4impl27parse_integer_prefix_resultINS3_27counted_width_iterator_impl22counted_width_iteratorIPKwS8_EEEENS3_9eof_errorELb1EEC2ENS1_22non_default_ctor_tag_tE:
 1315|    376|    {
 1316|    376|    }
_ZNO3scn2v48expectedINSt3__14pairINS0_4impl27counted_width_iterator_impl22counted_width_iteratorIPKwS8_EENS4_9sign_typeEEENS4_9eof_errorEEdeISB_TnPNS2_9enable_ifIXntsr3stdE9is_void_vIT_EEvE4typeELPv0EEEOSG_v:
 1804|    490|    {
 1805|    490|        return std::move(value());
 1806|    490|    }
_ZNR3scn2v48expectedINSt3__14pairINS0_4impl27counted_width_iterator_impl22counted_width_iteratorIPKwS8_EENS4_9sign_typeEEENS4_9eof_errorEE5valueISB_TnPNS2_9enable_ifIXntsr3stdE9is_void_vIT_EEvE4typeELPv0EEERSG_v:
 1768|    490|    {
 1769|    490|        SCN_EXPECT(has_value());
  ------------------
  |  |  930|    490|#define SCN_EXPECT(cond) SCN_ASSERT(cond, "Precondition violation")
  |  |  ------------------
  |  |  |  |  927|    490|#define SCN_ASSERT(cond, msg) assert((cond) && msg)
  |  |  ------------------
  ------------------
 1770|    490|        return this->get_value();
 1771|    490|    }
_ZNR3scn2v46detail21expected_storage_baseINSt3__14pairINS0_4impl27counted_width_iterator_impl22counted_width_iteratorIPKwS9_EENS5_9sign_typeEEENS5_9eof_errorELb1EE9get_valueEv:
  455|    490|    {
  456|    490|        return m_value;
  457|    490|    }
_ZNK3scn2v46ranges6detail9subrange_8subrangeINS0_4impl27counted_width_iterator_impl22counted_width_iteratorIPKwS9_EENS5_15take_width_viewINS4_IS9_S9_EEE8sentinelILb1EEEE3endEv:
 3483|  21.5k|    {
 3484|  21.5k|        return m_sentinel;
 3485|  21.5k|    }
_ZNO3scn2v48expectedINS0_4impl27counted_width_iterator_impl22counted_width_iteratorIPKwS6_EENS2_9eof_errorEE15transform_errorIRFNS2_11parse_errorES8_EEEDTclsr6detailE20transform_error_impldefpTclsr3stdE7forwardIT_Efp_EEEOSE_:
 1978|    774|    {
 1979|    774|        return detail::transform_error_impl(std::move(*this),
 1980|    774|                                            std::forward<F>(f));
 1981|    774|    }
_ZN3scn2v46detail20transform_error_implINS0_8expectedINS0_4impl27counted_width_iterator_impl22counted_width_iteratorIPKwS8_EENS4_9eof_errorEEERFNS4_11parse_errorESA_ETnPNSt3__19enable_ifIXntsr11is_exp_voidIT_EE5valueEvE4typeELPv0ESC_EEDaOSH_OT0_:
 1461|    774|{
 1462|       |    if constexpr (std::is_void_v<Ret>) {
 1463|       |        using result = expected<expected_value_type<Exp>, monostate>;
 1464|       |        if (SCN_LIKELY(exp.has_value())) {
 1465|       |            return result(*std::forward<Exp>(exp));
 1466|       |        }
 1467|       |
 1468|       |        trivial_invoke(std::forward<F>(f), std::forward<Exp>(exp).error());
 1469|       |        return result(unexpect, monostate{});
 1470|       |    }
 1471|    774|    else {
 1472|    774|        using result = expected<expected_value_type<Exp>, remove_cvref_t<Ret>>;
 1473|    774|        return SCN_LIKELY(exp.has_value())
  ------------------
  |  |  864|    774|#define SCN_LIKELY(x)   __builtin_expect(!!(x), 1)
  |  |  ------------------
  |  |  |  Branch (864:25): [True: 604, False: 170]
  |  |  ------------------
  ------------------
 1474|    774|                   ? result(*std::forward<Exp>(exp))
 1475|    774|                   : result(unexpect,
 1476|    170|                            trivial_invoke(std::forward<F>(f),
 1477|    170|                                           std::forward<Exp>(exp).error()));
 1478|    774|    }
 1479|    774|}
_ZN3scn2v48expectedINS0_4impl27counted_width_iterator_impl22counted_width_iteratorIPKwS6_EENS2_11parse_errorEEC2IS7_vEEOT_:
 1569|    604|        : base(std::in_place, std::forward<U>(val)),
 1570|    604|          ctor_base(detail::non_default_ctor_tag_t{})
 1571|    604|    {
 1572|    604|    }
_ZN3scn2v46detail21expected_storage_baseINS0_4impl27counted_width_iterator_impl22counted_width_iteratorIPKwS7_EENS3_11parse_errorELb1EEC2IJS8_EvEENSt3__110in_place_tEDpOT_:
  440|    604|        : m_value(std::forward<Args>(args)...), m_has_value(true)
  441|    604|    {
  442|    604|    }
_ZN3scn2v48expectedINS0_4impl27counted_width_iterator_impl22counted_width_iteratorIPKwS6_EENS2_11parse_errorEEC2IJS8_EvEENS0_10unexpect_tEDpOT_:
 1625|    170|        : base(unexpect, std::forward<Args>(args)...),
 1626|    170|          ctor_base(detail::non_default_ctor_tag_t{})
 1627|    170|    {
 1628|    170|    }
_ZNO3scn2v48expectedINS0_4impl27counted_width_iterator_impl22counted_width_iteratorIPKwS6_EENS2_11parse_errorEEdeIS7_TnPNSt3__19enable_ifIXntsr3stdE9is_void_vIT_EEvE4typeELPv0EEEOSD_v:
 1804|    604|    {
 1805|    604|        return std::move(value());
 1806|    604|    }
_ZNK3scn2v46ranges6detail9subrange_8subrangeINS0_4impl27counted_width_iterator_impl22counted_width_iteratorIPKwS9_EENS5_15take_width_viewINS4_IS9_S9_EEE8sentinelILb1EEEE5beginEv:
 3479|  32.8k|    {
 3480|  32.8k|        return m_iterator;
 3481|  32.8k|    }
_ZN3scn2v48expectedINS0_4impl27parse_integer_prefix_resultINS2_27counted_width_iterator_impl22counted_width_iteratorIPKwS7_EEEENS2_9eof_errorEEC2IS9_vEEOT_:
 1569|    376|        : base(std::in_place, std::forward<U>(val)),
 1570|    376|          ctor_base(detail::non_default_ctor_tag_t{})
 1571|    376|    {
 1572|    376|    }
_ZN3scn2v46detail21expected_storage_baseINS0_4impl27parse_integer_prefix_resultINS3_27counted_width_iterator_impl22counted_width_iteratorIPKwS8_EEEENS3_9eof_errorELb1EEC2IJSA_EvEENSt3__110in_place_tEDpOT_:
  440|    376|        : m_value(std::forward<Args>(args)...), m_has_value(true)
  441|    376|    {
  442|    376|    }
_ZNO3scn2v48expectedINS0_4impl27parse_integer_prefix_resultINS2_27counted_width_iterator_impl22counted_width_iteratorIPKwS7_EEEENS2_9eof_errorEE15transform_errorIRFNS0_10scan_errorESA_EEEDTclsr6detailE20transform_error_impldefpTclsr3stdE7forwardIT_Efp_EEEOSG_:
 1978|    376|    {
 1979|    376|        return detail::transform_error_impl(std::move(*this),
 1980|    376|                                            std::forward<F>(f));
 1981|    376|    }
_ZN3scn2v46detail20transform_error_implINS0_8expectedINS0_4impl27parse_integer_prefix_resultINS4_27counted_width_iterator_impl22counted_width_iteratorIPKwS9_EEEENS4_9eof_errorEEERFNS0_10scan_errorESC_ETnPNSt3__19enable_ifIXntsr11is_exp_voidIT_EE5valueEvE4typeELPv0ESE_EEDaOSJ_OT0_:
 1461|    376|{
 1462|       |    if constexpr (std::is_void_v<Ret>) {
 1463|       |        using result = expected<expected_value_type<Exp>, monostate>;
 1464|       |        if (SCN_LIKELY(exp.has_value())) {
 1465|       |            return result(*std::forward<Exp>(exp));
 1466|       |        }
 1467|       |
 1468|       |        trivial_invoke(std::forward<F>(f), std::forward<Exp>(exp).error());
 1469|       |        return result(unexpect, monostate{});
 1470|       |    }
 1471|    376|    else {
 1472|    376|        using result = expected<expected_value_type<Exp>, remove_cvref_t<Ret>>;
 1473|    376|        return SCN_LIKELY(exp.has_value())
  ------------------
  |  |  864|    376|#define SCN_LIKELY(x)   __builtin_expect(!!(x), 1)
  |  |  ------------------
  |  |  |  Branch (864:25): [True: 376, False: 0]
  |  |  ------------------
  ------------------
 1474|    376|                   ? result(*std::forward<Exp>(exp))
 1475|    376|                   : result(unexpect,
 1476|      0|                            trivial_invoke(std::forward<F>(f),
 1477|      0|                                           std::forward<Exp>(exp).error()));
 1478|    376|    }
 1479|    376|}
_ZNK3scn2v46detail21expected_storage_baseINS0_4impl27parse_integer_prefix_resultINS3_27counted_width_iterator_impl22counted_width_iteratorIPKwS8_EEEENS3_9eof_errorELb1EE9has_valueEv:
  489|    752|    {
  490|    752|        return m_has_value;
  491|    752|    }
_ZNO3scn2v48expectedINS0_4impl27parse_integer_prefix_resultINS2_27counted_width_iterator_impl22counted_width_iteratorIPKwS7_EEEENS2_9eof_errorEEdeIS9_TnPNSt3__19enable_ifIXntsr3stdE9is_void_vIT_EEvE4typeELPv0EEEOSF_v:
 1804|    376|    {
 1805|    376|        return std::move(value());
 1806|    376|    }
_ZNR3scn2v48expectedINS0_4impl27parse_integer_prefix_resultINS2_27counted_width_iterator_impl22counted_width_iteratorIPKwS7_EEEENS2_9eof_errorEE5valueIS9_TnPNSt3__19enable_ifIXntsr3stdE9is_void_vIT_EEvE4typeELPv0EEERSF_v:
 1768|    376|    {
 1769|    376|        SCN_EXPECT(has_value());
  ------------------
  |  |  930|    376|#define SCN_EXPECT(cond) SCN_ASSERT(cond, "Precondition violation")
  |  |  ------------------
  |  |  |  |  927|    376|#define SCN_ASSERT(cond, msg) assert((cond) && msg)
  |  |  ------------------
  ------------------
 1770|    376|        return this->get_value();
 1771|    376|    }
_ZNR3scn2v46detail21expected_storage_baseINS0_4impl27parse_integer_prefix_resultINS3_27counted_width_iterator_impl22counted_width_iteratorIPKwS8_EEEENS3_9eof_errorELb1EE9get_valueEv:
  455|    376|    {
  456|    376|        return m_value;
  457|    376|    }
_ZN3scn2v48expectedINS0_4impl27parse_integer_prefix_resultINS2_27counted_width_iterator_impl22counted_width_iteratorIPKwS7_EEEENS0_10scan_errorEEC2IS9_vEEOT_:
 1569|    376|        : base(std::in_place, std::forward<U>(val)),
 1570|    376|          ctor_base(detail::non_default_ctor_tag_t{})
 1571|    376|    {
 1572|    376|    }
_ZN3scn2v46detail21expected_storage_baseINS0_4impl27parse_integer_prefix_resultINS3_27counted_width_iterator_impl22counted_width_iteratorIPKwS8_EEEENS0_10scan_errorELb1EEC2IJSA_EvEENSt3__110in_place_tEDpOT_:
  440|    376|        : m_value(std::forward<Args>(args)...), m_has_value(true)
  441|    376|    {
  442|    376|    }
_ZN3scn2v46detail26expected_default_ctor_baseINS0_4impl27parse_integer_prefix_resultINS3_27counted_width_iterator_impl22counted_width_iteratorIPKwS8_EEEENS0_10scan_errorELb1EEC2ENS1_22non_default_ctor_tag_tE:
 1315|    376|    {
 1316|    376|    }
_ZNK3scn2v48expectedINS0_4impl27parse_integer_prefix_resultINS2_27counted_width_iterator_impl22counted_width_iteratorIPKwS7_EEEENS0_10scan_errorEEcvbEv:
 1739|    376|    {
 1740|    376|        return has_value();
 1741|    376|    }
_ZNK3scn2v46detail21expected_storage_baseINS0_4impl27parse_integer_prefix_resultINS3_27counted_width_iterator_impl22counted_width_iteratorIPKwS8_EEEENS0_10scan_errorELb1EE9has_valueEv:
  489|    752|    {
  490|    752|        return m_has_value;
  491|    752|    }
_ZNO3scn2v48expectedINS0_4impl27parse_integer_prefix_resultINS2_27counted_width_iterator_impl22counted_width_iteratorIPKwS7_EEEENS0_10scan_errorEEdeIS9_TnPNSt3__19enable_ifIXntsr3stdE9is_void_vIT_EEvE4typeELPv0EEEOSF_v:
 1804|    376|    {
 1805|    376|        return std::move(value());
 1806|    376|    }
_ZNR3scn2v48expectedINS0_4impl27parse_integer_prefix_resultINS2_27counted_width_iterator_impl22counted_width_iteratorIPKwS7_EEEENS0_10scan_errorEE5valueIS9_TnPNSt3__19enable_ifIXntsr3stdE9is_void_vIT_EEvE4typeELPv0EEERSF_v:
 1768|    376|    {
 1769|    376|        SCN_EXPECT(has_value());
  ------------------
  |  |  930|    376|#define SCN_EXPECT(cond) SCN_ASSERT(cond, "Precondition violation")
  |  |  ------------------
  |  |  |  |  927|    376|#define SCN_ASSERT(cond, msg) assert((cond) && msg)
  |  |  ------------------
  ------------------
 1770|    376|        return this->get_value();
 1771|    376|    }
_ZNR3scn2v46detail21expected_storage_baseINS0_4impl27parse_integer_prefix_resultINS3_27counted_width_iterator_impl22counted_width_iteratorIPKwS8_EEEENS0_10scan_errorELb1EE9get_valueEv:
  455|    376|    {
  456|    376|        return m_value;
  457|    376|    }
_ZNO3scn2v48expectedINS0_4impl27counted_width_iterator_impl22counted_width_iteratorIPKwS6_EENS2_11parse_errorEE15transform_errorIZNS2_29map_parse_error_to_scan_errorENS0_10scan_error4codeEPKcEUlS8_E_EEDTclsr6detailE20transform_error_impldefpTclsr3stdE7forwardIT_Efp_EEEOSG_:
 1978|    340|    {
 1979|    340|        return detail::transform_error_impl(std::move(*this),
 1980|    340|                                            std::forward<F>(f));
 1981|    340|    }
_ZN3scn2v46detail20transform_error_implINS0_8expectedINS0_4impl27counted_width_iterator_impl22counted_width_iteratorIPKwS8_EENS4_11parse_errorEEEZNS4_29map_parse_error_to_scan_errorENS0_10scan_error4codeEPKcEUlSA_E_TnPNSt3__19enable_ifIXntsr11is_exp_voidIT_EE5valueEvE4typeELPv0ESC_EEDaOSJ_OT0_:
 1461|    340|{
 1462|       |    if constexpr (std::is_void_v<Ret>) {
 1463|       |        using result = expected<expected_value_type<Exp>, monostate>;
 1464|       |        if (SCN_LIKELY(exp.has_value())) {
 1465|       |            return result(*std::forward<Exp>(exp));
 1466|       |        }
 1467|       |
 1468|       |        trivial_invoke(std::forward<F>(f), std::forward<Exp>(exp).error());
 1469|       |        return result(unexpect, monostate{});
 1470|       |    }
 1471|    340|    else {
 1472|    340|        using result = expected<expected_value_type<Exp>, remove_cvref_t<Ret>>;
 1473|    340|        return SCN_LIKELY(exp.has_value())
  ------------------
  |  |  864|    340|#define SCN_LIKELY(x)   __builtin_expect(!!(x), 1)
  |  |  ------------------
  |  |  |  Branch (864:25): [True: 0, False: 340]
  |  |  ------------------
  ------------------
 1474|    340|                   ? result(*std::forward<Exp>(exp))
 1475|    340|                   : result(unexpect,
 1476|    340|                            trivial_invoke(std::forward<F>(f),
 1477|    340|                                           std::forward<Exp>(exp).error()));
 1478|    340|    }
 1479|    340|}
_ZNO3scn2v48expectedINS0_4impl27counted_width_iterator_impl22counted_width_iteratorIPKwS6_EENS2_11parse_errorEE5errorEv:
 1755|    340|    {
 1756|    340|        SCN_EXPECT(!has_value());
  ------------------
  |  |  930|    340|#define SCN_EXPECT(cond) SCN_ASSERT(cond, "Precondition violation")
  |  |  ------------------
  |  |  |  |  927|    340|#define SCN_ASSERT(cond, msg) assert((cond) && msg)
  |  |  ------------------
  ------------------
 1757|    340|        return std::move(this->get_unexpected().error());
 1758|    340|    }
_ZN3scn2v413scan_expectedINS0_4impl27counted_width_iterator_impl22counted_width_iteratorIPKwS6_EEEC2EONS0_8expectedIS7_NS0_10scan_errorEEE:
 3910|    568|        : expected<T, scan_error>(SCN_MOVE(other))
  ------------------
  |  |  934|    568|    static_cast<    \
  |  |  935|    568|        typename ::scn::detail::remove_reference<decltype(x)>::type&&>(x)
  ------------------
 3911|    568|    {
 3912|    568|    }
_ZN3scn2v46ranges6detail9subrange_8subrangeINS0_4impl27counted_width_iterator_impl22counted_width_iteratorIPKwS9_EENS5_15take_width_viewINS4_IS9_S9_EEE8sentinelILb1EEEEC2ISA_TnPNSt3__19enable_ifIXsr3stdE16is_convertible_vIT_SA_EEvE4typeELPv0EEESK_SF_:
 3464|  11.2k|        : m_iterator(SCN_MOVE(i)), m_sentinel(SCN_MOVE(s))
  ------------------
  |  |  934|  11.2k|    static_cast<    \
  |  |  935|  11.2k|        typename ::scn::detail::remove_reference<decltype(x)>::type&&>(x)
  ------------------
                      : m_iterator(SCN_MOVE(i)), m_sentinel(SCN_MOVE(s))
  ------------------
  |  |  934|  11.2k|    static_cast<    \
  |  |  935|  11.2k|        typename ::scn::detail::remove_reference<decltype(x)>::type&&>(x)
  ------------------
 3465|  11.2k|    {
 3466|  11.2k|    }
_ZN3scn2v48expectedINSt3__15tupleIJNS0_4impl27counted_width_iterator_impl22counted_width_iteratorIPKwS8_EENS2_12basic_stringIwNS2_11char_traitsIwEENS2_9allocatorIwEEEENSA_IcNSB_IcEENSD_IcEEEEEEENS0_10scan_errorEEC2ISK_TnPNS2_9enable_ifIXsr3stdE18is_constructible_vISK_OT_EEvE4typeELPv0ETnPNSN_IXsr3stdE16is_convertible_vISP_SK_EEvE4typeELST_0EEEONS0_10unexpectedISO_EE:
 1615|     36|        : base(unexpect, std::move(e.error())),
 1616|     36|          ctor_base(detail::non_default_ctor_tag_t{})
 1617|     36|    {
 1618|     36|    }
_ZN3scn2v46detail21expected_storage_baseINSt3__15tupleIJNS0_4impl27counted_width_iterator_impl22counted_width_iteratorIPKwS9_EENS3_12basic_stringIwNS3_11char_traitsIwEENS3_9allocatorIwEEEENSB_IcNSC_IcEENSE_IcEEEEEEENS0_10scan_errorELb0EEC2IJSL_EvEENS0_10unexpect_tEDpOT_:
  636|     36|        : m_has_value(false)
  637|     36|    {
  638|     36|        construct_unexpected(std::in_place, std::forward<Args>(args)...);
  639|     36|    }
_ZN3scn2v46detail21expected_storage_baseINSt3__15tupleIJNS0_4impl27counted_width_iterator_impl22counted_width_iteratorIPKwS9_EENS3_12basic_stringIwNS3_11char_traitsIwEENS3_9allocatorIwEEEENSB_IcNSC_IcEENSE_IcEEEEEEENS0_10scan_errorELb0EE20construct_unexpectedIJRKNS3_10in_place_tESL_EEEvDpOT_:
  700|     36|    {
  701|     36|        scn::detail::construct_at(unexpected_ptr(),
  702|     36|                                  std::forward<Args>(args)...);
  703|     36|        m_has_value = false;
  704|     36|    }
_ZN3scn2v46detail21expected_storage_baseINSt3__15tupleIJNS0_4impl27counted_width_iterator_impl22counted_width_iteratorIPKwS9_EENS3_12basic_stringIwNS3_11char_traitsIwEENS3_9allocatorIwEEEENSB_IcNSC_IcEENSE_IcEEEEEEENS0_10scan_errorELb0EE14unexpected_ptrEv:
  729|    108|    {
  730|    108|        return reinterpret_cast<unexpected<E>*>(
  731|    108|            SCN_ASSUME_ALIGNED(m_memory, alignof(unexpected<E>)));
  ------------------
  |  |  900|    108|#define SCN_ASSUME_ALIGNED(x, n) __builtin_assume_aligned(x, n)
  ------------------
  732|    108|    }
_ZN3scn2v46detail26expected_default_ctor_baseINSt3__15tupleIJNS0_4impl27counted_width_iterator_impl22counted_width_iteratorIPKwS9_EENS3_12basic_stringIwNS3_11char_traitsIwEENS3_9allocatorIwEEEENSB_IcNSC_IcEENSE_IcEEEEEEENS0_10scan_errorELb1EEC2ENS1_22non_default_ctor_tag_tE:
 1315|     36|    {
 1316|     36|    }
_ZNK3scn2v48expectedINSt3__15tupleIJNS0_4impl27counted_width_iterator_impl22counted_width_iteratorIPKwS8_EENS2_12basic_stringIwNS2_11char_traitsIwEENS2_9allocatorIwEEEENSA_IcNSB_IcEENSD_IcEEEEEEENS0_10scan_errorEEcvbEv:
 1739|     36|    {
 1740|     36|        return has_value();
 1741|     36|    }
_ZNK3scn2v46detail21expected_storage_baseINSt3__15tupleIJNS0_4impl27counted_width_iterator_impl22counted_width_iteratorIPKwS9_EENS3_12basic_stringIwNS3_11char_traitsIwEENS3_9allocatorIwEEEENSB_IcNSC_IcEENSE_IcEEEEEEENS0_10scan_errorELb0EE9has_valueEv:
  686|    108|    {
  687|    108|        return m_has_value;
  688|    108|    }
_ZNR3scn2v48expectedINSt3__15tupleIJNS0_4impl27counted_width_iterator_impl22counted_width_iteratorIPKwS8_EENS2_12basic_stringIwNS2_11char_traitsIwEENS2_9allocatorIwEEEENSA_IcNSB_IcEENSD_IcEEEEEEENS0_10scan_errorEE5errorEv:
 1745|     36|    {
 1746|     36|        SCN_EXPECT(!has_value());
  ------------------
  |  |  930|     36|#define SCN_EXPECT(cond) SCN_ASSERT(cond, "Precondition violation")
  |  |  ------------------
  |  |  |  |  927|     36|#define SCN_ASSERT(cond, msg) assert((cond) && msg)
  |  |  ------------------
  ------------------
 1747|     36|        return this->get_unexpected().error();
 1748|     36|    }
_ZNR3scn2v46detail21expected_storage_baseINSt3__15tupleIJNS0_4impl27counted_width_iterator_impl22counted_width_iteratorIPKwS9_EENS3_12basic_stringIwNS3_11char_traitsIwEENS3_9allocatorIwEEEENSB_IcNSC_IcEENSE_IcEEEEEEENS0_10scan_errorELb0EE14get_unexpectedEv:
  669|     36|    {
  670|     36|        return *unexpected_ptr();
  671|     36|    }
_ZN3scn2v46detail21expected_storage_baseINSt3__15tupleIJNS0_4impl27counted_width_iterator_impl22counted_width_iteratorIPKwS9_EENS3_12basic_stringIwNS3_11char_traitsIwEENS3_9allocatorIwEEEENSB_IcNSC_IcEENSE_IcEEEEEEENS0_10scan_errorELb0EED2Ev:
  642|     36|    {
  643|     36|        if (has_value()) {
  ------------------
  |  Branch (643:13): [True: 0, False: 36]
  ------------------
  644|      0|            destroy_value();
  645|      0|        }
  646|     36|        else {
  647|     36|            destroy_unexpected();
  648|     36|        }
  649|     36|    }
_ZN3scn2v46detail21expected_storage_baseINSt3__15tupleIJNS0_4impl27counted_width_iterator_impl22counted_width_iteratorIPKwS9_EENS3_12basic_stringIwNS3_11char_traitsIwEENS3_9allocatorIwEEEENSB_IcNSC_IcEENSE_IcEEEEEEENS0_10scan_errorELb0EE18destroy_unexpectedEv:
  711|     36|    {
  712|     36|        scn::detail::destroy_at(unexpected_ptr());
  713|     36|    }
_ZNK3scn2v48expectedINS0_4impl27counted_width_iterator_impl22counted_width_iteratorIPKwS6_EENS0_10scan_errorEEcvbEv:
 1739|  3.60k|    {
 1740|  3.60k|        return has_value();
 1741|  3.60k|    }
_ZNK3scn2v46detail21expected_storage_baseINS0_4impl27counted_width_iterator_impl22counted_width_iteratorIPKwS7_EENS0_10scan_errorELb1EE9has_valueEv:
  489|  6.97k|    {
  490|  6.97k|        return m_has_value;
  491|  6.97k|    }
_ZNR3scn2v48expectedINS0_4impl27counted_width_iterator_impl22counted_width_iteratorIPKwS6_EENS0_10scan_errorEE5errorEv:
 1745|  1.75k|    {
 1746|  1.75k|        SCN_EXPECT(!has_value());
  ------------------
  |  |  930|  1.75k|#define SCN_EXPECT(cond) SCN_ASSERT(cond, "Precondition violation")
  |  |  ------------------
  |  |  |  |  927|  1.75k|#define SCN_ASSERT(cond, msg) assert((cond) && msg)
  |  |  ------------------
  ------------------
 1747|  1.75k|        return this->get_unexpected().error();
 1748|  1.75k|    }
_ZNR3scn2v46detail21expected_storage_baseINS0_4impl27counted_width_iterator_impl22counted_width_iteratorIPKwS7_EENS0_10scan_errorELb1EE14get_unexpectedEv:
  472|  1.75k|    {
  473|  1.75k|        return m_unexpected;
  474|  1.75k|    }
_ZNO3scn2v48expectedINS0_4impl27counted_width_iterator_impl22counted_width_iteratorIPKwS6_EENS0_10scan_errorEEdeIS7_TnPNSt3__19enable_ifIXntsr3stdE9is_void_vIT_EEvE4typeELPv0EEEOSD_v:
 1804|  1.20k|    {
 1805|  1.20k|        return std::move(value());
 1806|  1.20k|    }
_ZNR3scn2v48expectedINS0_4impl27counted_width_iterator_impl22counted_width_iteratorIPKwS6_EENS0_10scan_errorEE5valueIS7_TnPNSt3__19enable_ifIXntsr3stdE9is_void_vIT_EEvE4typeELPv0EEERSD_v:
 1768|  1.61k|    {
 1769|  1.61k|        SCN_EXPECT(has_value());
  ------------------
  |  |  930|  1.61k|#define SCN_EXPECT(cond) SCN_ASSERT(cond, "Precondition violation")
  |  |  ------------------
  |  |  |  |  927|  1.61k|#define SCN_ASSERT(cond, msg) assert((cond) && msg)
  |  |  ------------------
  ------------------
 1770|  1.61k|        return this->get_value();
 1771|  1.61k|    }
_ZNR3scn2v46detail21expected_storage_baseINS0_4impl27counted_width_iterator_impl22counted_width_iteratorIPKwS7_EENS0_10scan_errorELb1EE9get_valueEv:
  455|  1.61k|    {
  456|  1.61k|        return m_value;
  457|  1.61k|    }
_ZN3scn2v48expectedIPKwNS0_4impl11parse_errorEEC2IS5_TnPNSt3__19enable_ifIXsr3stdE18is_constructible_vIS5_OT_EEvE4typeELPv0ETnPNS9_IXsr3stdE16is_convertible_vISB_S5_EEvE4typeELSF_0EEEONS0_10unexpectedISA_EE:
 1615|    934|        : base(unexpect, std::move(e.error())),
 1616|    934|          ctor_base(detail::non_default_ctor_tag_t{})
 1617|    934|    {
 1618|    934|    }
_ZN3scn2v46detail21expected_storage_baseIPKwNS0_4impl11parse_errorELb1EEC2IJS6_EvEENS0_10unexpect_tEDpOT_:
  449|  1.07k|        : m_unexpected(std::in_place, std::forward<Args>(args)...),
  450|  1.07k|          m_has_value(false)
  451|  1.07k|    {
  452|  1.07k|    }
_ZN3scn2v46detail26expected_default_ctor_baseIPKwNS0_4impl11parse_errorELb1EEC2ENS1_22non_default_ctor_tag_tE:
 1315|  15.4k|    {
 1316|  15.4k|    }
_ZN3scn2v48expectedIPKwNS0_4impl11parse_errorEEC2INS5_4codeETnPNSt3__19enable_ifIXsr3stdE18is_constructible_vIS5_OT_EEvE4typeELPv0ETnPNSA_IXsr3stdE16is_convertible_vISC_S5_EEvE4typeELSG_0EEEONS0_10unexpectedISB_EE:
 1615|  9.66k|        : base(unexpect, std::move(e.error())),
 1616|  9.66k|          ctor_base(detail::non_default_ctor_tag_t{})
 1617|  9.66k|    {
 1618|  9.66k|    }
_ZN3scn2v46detail21expected_storage_baseIPKwNS0_4impl11parse_errorELb1EEC2IJNS6_4codeEEvEENS0_10unexpect_tEDpOT_:
  449|  9.66k|        : m_unexpected(std::in_place, std::forward<Args>(args)...),
  450|  9.66k|          m_has_value(false)
  451|  9.66k|    {
  452|  9.66k|    }
_ZNK3scn2v48expectedIPKwNS0_4impl11parse_errorEEcvbEv:
 1739|  16.2k|    {
 1740|  16.2k|        return has_value();
 1741|  16.2k|    }
_ZNK3scn2v46detail21expected_storage_baseIPKwNS0_4impl11parse_errorELb1EE9has_valueEv:
  489|  26.8k|    {
  490|  26.8k|        return m_has_value;
  491|  26.8k|    }
_ZNR3scn2v48expectedIPKwNS0_4impl11parse_errorEE5errorEv:
 1745|  4.95k|    {
 1746|  4.95k|        SCN_EXPECT(!has_value());
  ------------------
  |  |  930|  4.95k|#define SCN_EXPECT(cond) SCN_ASSERT(cond, "Precondition violation")
  |  |  ------------------
  |  |  |  |  927|  4.95k|#define SCN_ASSERT(cond, msg) assert((cond) && msg)
  |  |  ------------------
  ------------------
 1747|  4.95k|        return this->get_unexpected().error();
 1748|  4.95k|    }
_ZNR3scn2v46detail21expected_storage_baseIPKwNS0_4impl11parse_errorELb1EE14get_unexpectedEv:
  472|  4.95k|    {
  473|  4.95k|        return m_unexpected;
  474|  4.95k|    }
_ZN3scn2v48expectedINSt3__14pairIPKwNS0_4impl9sign_typeEEENS6_9eof_errorEEC2IS8_vEEOT_:
 1569|  3.21k|        : base(std::in_place, std::forward<U>(val)),
 1570|  3.21k|          ctor_base(detail::non_default_ctor_tag_t{})
 1571|  3.21k|    {
 1572|  3.21k|    }
_ZN3scn2v46detail21expected_storage_baseINSt3__14pairIPKwNS0_4impl9sign_typeEEENS7_9eof_errorELb1EEC2IJS9_EvEENS3_10in_place_tEDpOT_:
  440|  3.21k|        : m_value(std::forward<Args>(args)...), m_has_value(true)
  441|  3.21k|    {
  442|  3.21k|    }
_ZN3scn2v46detail26expected_default_ctor_baseINSt3__14pairIPKwNS0_4impl9sign_typeEEENS7_9eof_errorELb1EEC2ENS1_22non_default_ctor_tag_tE:
 1315|  3.21k|    {
 1316|  3.21k|    }
_ZNR3scn2v48expectedIPKwNS0_4impl11parse_errorEE5valueIS3_TnPNSt3__19enable_ifIXntsr3stdE9is_void_vIT_EEvE4typeELPv0EEERSA_v:
 1768|  4.76k|    {
 1769|  4.76k|        SCN_EXPECT(has_value());
  ------------------
  |  |  930|  4.76k|#define SCN_EXPECT(cond) SCN_ASSERT(cond, "Precondition violation")
  |  |  ------------------
  |  |  |  |  927|  4.76k|#define SCN_ASSERT(cond, msg) assert((cond) && msg)
  |  |  ------------------
  ------------------
 1770|  4.76k|        return this->get_value();
 1771|  4.76k|    }
_ZNR3scn2v46detail21expected_storage_baseIPKwNS0_4impl11parse_errorELb1EE9get_valueEv:
  455|  4.76k|    {
  456|  4.76k|        return m_value;
  457|  4.76k|    }
_ZNK3scn2v48expectedINSt3__14pairIPKwNS0_4impl9sign_typeEEENS6_9eof_errorEEcvbEv:
 1739|  2.41k|    {
 1740|  2.41k|        return has_value();
 1741|  2.41k|    }
_ZNK3scn2v46detail21expected_storage_baseINSt3__14pairIPKwNS0_4impl9sign_typeEEENS7_9eof_errorELb1EE9has_valueEv:
  489|  6.42k|    {
  490|  6.42k|        return m_has_value;
  491|  6.42k|    }
_ZN3scn2v46detail26expected_default_ctor_baseINS0_4impl27parse_integer_prefix_resultIPKwEENS3_9eof_errorELb1EEC2ENS1_22non_default_ctor_tag_tE:
 1315|  2.41k|    {
 1316|  2.41k|    }
_ZNO3scn2v48expectedINSt3__14pairIPKwNS0_4impl9sign_typeEEENS6_9eof_errorEEdeIS8_TnPNS2_9enable_ifIXntsr3stdE9is_void_vIT_EEvE4typeELPv0EEEOSD_v:
 1804|  3.21k|    {
 1805|  3.21k|        return std::move(value());
 1806|  3.21k|    }
_ZNR3scn2v48expectedINSt3__14pairIPKwNS0_4impl9sign_typeEEENS6_9eof_errorEE5valueIS8_TnPNS2_9enable_ifIXntsr3stdE9is_void_vIT_EEvE4typeELPv0EEERSD_v:
 1768|  3.21k|    {
 1769|  3.21k|        SCN_EXPECT(has_value());
  ------------------
  |  |  930|  3.21k|#define SCN_EXPECT(cond) SCN_ASSERT(cond, "Precondition violation")
  |  |  ------------------
  |  |  |  |  927|  3.21k|#define SCN_ASSERT(cond, msg) assert((cond) && msg)
  |  |  ------------------
  ------------------
 1770|  3.21k|        return this->get_value();
 1771|  3.21k|    }
_ZNR3scn2v46detail21expected_storage_baseINSt3__14pairIPKwNS0_4impl9sign_typeEEENS7_9eof_errorELb1EE9get_valueEv:
  455|  3.21k|    {
  456|  3.21k|        return m_value;
  457|  3.21k|    }
_ZNO3scn2v48expectedIPKwNS0_4impl9eof_errorEE15transform_errorIRFNS4_11parse_errorES5_EEEDTclsr6detailE20transform_error_impldefpTclsr3stdE7forwardIT_Efp_EEEOSB_:
 1978|  4.90k|    {
 1979|  4.90k|        return detail::transform_error_impl(std::move(*this),
 1980|  4.90k|                                            std::forward<F>(f));
 1981|  4.90k|    }
