_ZZN3scn2v44impl35read_matching_string_classic_nocaseINS0_6ranges6detail9subrange_8subrangeINS0_6detail17basic_scan_bufferIcE16forward_iteratorENS3_18default_sentinel_tEEEEENS1_14parse_expectedIDTclL_ZNS3_5beginEEclsr3stdE7declvalIRNSt3__19add_constIT_E4typeEEEEEEESG_NSE_17basic_string_viewIcNSE_11char_traitsIcEEEEENKUlSG_T0_E_clIccEEDaSG_SQ_:
 1014|  1.67M|#define SCN_UNLIKELY(x) __builtin_expect(!!(x), 0)
_ZZN3scn2v44impl35read_matching_string_classic_nocaseINS0_6ranges6detail9subrange_8subrangeINS0_6detail17basic_scan_bufferIwE16forward_iteratorENS3_18default_sentinel_tEEEEENS1_14parse_expectedIDTclL_ZNS3_5beginEEclsr3stdE7declvalIRNSt3__19add_constIT_E4typeEEEEEEESG_NSE_17basic_string_viewIcNSE_11char_traitsIcEEEEENKUlSG_T0_E_clIwcEEDaSG_SQ_:
 1014|  1.52M|#define SCN_UNLIKELY(x) __builtin_expect(!!(x), 0)
_ZZN3scn2v44impl35read_matching_string_classic_nocaseINS0_6ranges6detail9subrange_8subrangeIPKwS8_EEEENS1_14parse_expectedIDTclL_ZNS3_5beginEEclsr3stdE7declvalIRNSt3__19add_constIT_E4typeEEEEEEESD_NSB_17basic_string_viewIcNSB_11char_traitsIcEEEEENKUlSD_T0_E_clIwcEEDaSD_SN_:
 1014|  1.52M|#define SCN_UNLIKELY(x) __builtin_expect(!!(x), 0)

_ZN3scn2v46detail39code_point_length_by_starting_code_unitIcEEmT_:
 4123|  1.63M|{
 4124|  1.63M|    if constexpr (sizeof(U) == 1) {
 4125|  1.63M|        return utf8_code_point_length_by_starting_code_unit(ch);
 4126|       |    }
 4127|       |    else if constexpr (sizeof(U) == 2) {
 4128|       |        return utf16_code_point_length_by_starting_code_unit(ch);
 4129|       |    }
 4130|       |    else {
 4131|       |        // utf-32
 4132|       |        static_assert(sizeof(U) == 4);
 4133|       |        SCN_UNUSED(ch);
 4134|       |        return 1;
 4135|       |    }
 4136|  1.63M|}
_ZN3scn2v46detail44utf8_code_point_length_by_starting_code_unitIcEEmT_:
 4087|  1.63M|{
 4088|  1.63M|    static_assert(sizeof(U8) == 1);
 4089|       |
 4090|  1.63M|    SCN_GCC_COMPAT_PUSH
 4091|  1.63M|    SCN_GCC_COMPAT_IGNORE("-Wsign-conversion")
 4092|  1.63M|    constexpr char lengths[] =
 4093|  1.63M|        "\1\1\1\1\1\1\1\1"  // highest bit is 0 -> single-byte
 4094|  1.63M|        "\1\1\1\1\1\1\1\1"
 4095|  1.63M|        "\0\0\0\0\0\0\0\0"  // highest bits 10 -> error, non-initial
 4096|       |                            // byte
 4097|  1.63M|        "\2\2\2\2"          // highest bits 110 -> 2-byte cp
 4098|  1.63M|        "\3\3"              // highest bits 1110 -> 3-byte cp
 4099|  1.63M|        "\4";               // highest bits 11110 -> 4-byte cp
 4100|  1.63M|    return lengths[static_cast<unsigned char>(ch) >> 3];
 4101|  1.63M|    SCN_GCC_COMPAT_POP
 4102|  1.63M|}
_ZN3scn2v46detail28decode_code_point_exhaustiveIcEEDiNSt3__117basic_string_viewIT_NS3_11char_traitsIS5_EEEE:
 4329|  1.47M|{
 4330|  1.47M|    if constexpr (sizeof(CharT) == 1) {
 4331|  1.47M|        return decode_utf8_code_point_exhaustive(input);
 4332|       |    }
 4333|       |    else if constexpr (sizeof(CharT) == 2) {
 4334|       |        return decode_utf16_code_point_exhaustive(input);
 4335|       |    }
 4336|       |    else {
 4337|       |        SCN_EXPECT(input.size() == 1);
 4338|       |        auto cp = static_cast<char32_t>(input.front());
 4339|       |        if (SCN_UNLIKELY(cp >= invalid_code_point)) {
 4340|       |            return invalid_code_point;
 4341|       |        }
 4342|       |        return cp;
 4343|       |    }
 4344|  1.47M|}
_ZN3scn2v46detail33decode_utf8_code_point_exhaustiveENSt3__117basic_string_viewIcNS2_11char_traitsIcEEEE:
 4142|  1.47M|{
 4143|  1.47M|    SCN_EXPECT(!input.empty() && input.size() <= 4);
  ------------------
  |  | 1079|  1.47M|#define SCN_EXPECT(cond) SCN_ASSERT(cond, "Precondition violation")
  |  |  ------------------
  |  |  |  | 1076|  1.47M|#define SCN_ASSERT(cond, msg) assert((cond) && msg)
  |  |  ------------------
  ------------------
 4144|       |
 4145|  1.47M|    const auto is_trailing_code_unit = [](char ch) {
 4146|  1.47M|        return static_cast<unsigned char>(ch) >> 6 == 0x2;
 4147|  1.47M|    };
 4148|       |
 4149|  1.47M|    if (input.size() == 1) {
  ------------------
  |  Branch (4149:9): [True: 1.42M, False: 48.3k]
  ------------------
 4150|  1.42M|        if (static_cast<unsigned char>(input[0]) >= 0x80) {
  ------------------
  |  Branch (4150:13): [True: 474, False: 1.42M]
  ------------------
 4151|    474|            SCN_UNLIKELY_ATTR
 4152|    474|            return invalid_code_point;
 4153|    474|        }
 4154|  1.42M|        return static_cast<char32_t>(input[0]);
 4155|  1.42M|    }
 4156|       |
 4157|  48.3k|    if (input.size() == 2) {
  ------------------
  |  Branch (4157:9): [True: 41.4k, False: 6.92k]
  ------------------
 4158|  41.4k|        if ((static_cast<unsigned char>(input[0]) & 0xe0) != 0xc0) {
  ------------------
  |  Branch (4158:13): [True: 144, False: 41.3k]
  ------------------
 4159|    144|            SCN_UNLIKELY_ATTR
 4160|    144|            return invalid_code_point;
 4161|    144|        }
 4162|  41.3k|        if (!is_trailing_code_unit(input[1])) {
  ------------------
  |  Branch (4162:13): [True: 8.76k, False: 32.5k]
  ------------------
 4163|  8.76k|            SCN_UNLIKELY_ATTR
 4164|  8.76k|            return invalid_code_point;
 4165|  8.76k|        }
 4166|       |
 4167|  32.5k|        char32_t cp{};
 4168|  32.5k|        cp |= (static_cast<char32_t>(input[0]) & 0x1f) << 6;
 4169|  32.5k|        cp |= (static_cast<char32_t>(input[1]) & 0x3f) << 0;
 4170|  32.5k|        return cp;
 4171|  41.3k|    }
 4172|       |
 4173|  6.92k|    if (input.size() == 3) {
  ------------------
  |  Branch (4173:9): [True: 4.51k, False: 2.40k]
  ------------------
 4174|  4.51k|        if ((static_cast<unsigned char>(input[0]) & 0xf0) != 0xe0) {
  ------------------
  |  Branch (4174:13): [True: 143, False: 4.37k]
  ------------------
 4175|    143|            SCN_UNLIKELY_ATTR
 4176|    143|            return invalid_code_point;
 4177|    143|        }
 4178|  4.37k|        if (!is_trailing_code_unit(input[1]) ||
  ------------------
  |  Branch (4178:13): [True: 1.42k, False: 2.94k]
  ------------------
 4179|  4.37k|            !is_trailing_code_unit(input[2])) {
  ------------------
  |  Branch (4179:13): [True: 1.96k, False: 985]
  ------------------
 4180|  3.38k|            SCN_UNLIKELY_ATTR
 4181|  3.38k|            return invalid_code_point;
 4182|  3.38k|        }
 4183|       |
 4184|    985|        char32_t cp{};
 4185|    985|        cp |= (static_cast<char32_t>(input[0]) & 0x0f) << 12;
 4186|    985|        cp |= (static_cast<char32_t>(input[1]) & 0x3f) << 6;
 4187|    985|        cp |= (static_cast<char32_t>(input[2]) & 0x3f) << 0;
 4188|    985|        return cp;
 4189|  4.37k|    }
 4190|       |
 4191|  2.40k|    if (input.size() == 4) {
  ------------------
  |  Branch (4191:9): [True: 2.40k, False: 0]
  ------------------
 4192|  2.40k|        if ((static_cast<unsigned char>(input[0]) & 0xf8) != 0xf0) {
  ------------------
  |  Branch (4192:13): [True: 0, False: 2.40k]
  ------------------
 4193|      0|            SCN_UNLIKELY_ATTR
 4194|      0|            return invalid_code_point;
 4195|      0|        }
 4196|  2.40k|        if (static_cast<unsigned char>(input[0]) > 0xf4) {
  ------------------
  |  Branch (4196:13): [True: 319, False: 2.09k]
  ------------------
 4197|    319|            SCN_UNLIKELY_ATTR
 4198|    319|            return invalid_code_point;
 4199|    319|        }
 4200|  2.09k|        if (!is_trailing_code_unit(input[1]) ||
  ------------------
  |  Branch (4200:13): [True: 558, False: 1.53k]
  ------------------
 4201|  2.09k|            !is_trailing_code_unit(input[2]) ||
  ------------------
  |  Branch (4201:13): [True: 561, False: 971]
  ------------------
 4202|  2.09k|            !is_trailing_code_unit(input[3])) {
  ------------------
  |  Branch (4202:13): [True: 691, False: 280]
  ------------------
 4203|  1.81k|            SCN_UNLIKELY_ATTR
 4204|  1.81k|            return invalid_code_point;
 4205|  1.81k|        }
 4206|       |
 4207|    280|        char32_t cp{};
 4208|    280|        cp |= (static_cast<char32_t>(input[0]) & 0x07) << 18;
 4209|    280|        cp |= (static_cast<char32_t>(input[1]) & 0x3f) << 12;
 4210|    280|        cp |= (static_cast<char32_t>(input[2]) & 0x3f) << 6;
 4211|    280|        cp |= (static_cast<char32_t>(input[3]) & 0x3f) << 0;
 4212|    280|        return cp;
 4213|  2.09k|    }
 4214|       |
 4215|      0|#if !SCN_GCC || SCN_GCC >= SCN_COMPILER(8, 0, 0)
 4216|       |    // gcc 7 thinks we'll get here, even when we won't
 4217|      0|    SCN_EXPECT(false);
  ------------------
  |  | 1079|      0|#define SCN_EXPECT(cond) SCN_ASSERT(cond, "Precondition violation")
  |  |  ------------------
  |  |  |  | 1076|      0|#define SCN_ASSERT(cond, msg) assert((cond) && msg)
  |  |  ------------------
  ------------------
 4218|      0|#endif
 4219|      0|    SCN_UNREACHABLE;
  ------------------
  |  | 1042|      0|#define SCN_UNREACHABLE __builtin_unreachable()
  ------------------
 4220|      0|}
_ZZN3scn2v46detail33decode_utf8_code_point_exhaustiveENSt3__117basic_string_viewIcNS2_11char_traitsIcEEEEENKUlcE_clEc:
 4145|  53.2k|    const auto is_trailing_code_unit = [](char ch) {
 4146|  53.2k|        return static_cast<unsigned char>(ch) >> 6 == 0x2;
 4147|  53.2k|    };
_ZN3scn2v46detail31make_string_view_from_iteratorsIcEENSt3__117basic_string_viewIT_NS3_11char_traitsIS5_EEEENS8_8iteratorES9_:
 4015|  3.16M|{
 4016|       |    if constexpr (std::is_constructible_v<std::basic_string_view<CharT>,
 4017|       |                                          decltype(first), decltype(last)> &&
 4018|       |                  !SCN_MSVC_DEBUG_ITERATORS) {
 4019|       |        return {first, last};
 4020|       |    }
 4021|  3.16M|    else {
 4022|  3.16M|        return {to_address(first), static_cast<size_t>(std::distance(
 4023|  3.16M|                                       to_address(first), to_address(last)))};
 4024|  3.16M|    }
 4025|  3.16M|}
_ZN3scn2v46detail10to_addressIRPKcEEDTclgssr3scn6detailE15to_address_implscDtfp_Efp_tlNS1_12priority_tagILm2EEEEEEOT_:
  340|  9.70M|{
  341|  9.70M|    return ::scn::detail::to_address_impl(SCN_FWD(p), priority_tag<2>{});
  ------------------
  |  | 1085|  9.70M|#define SCN_FWD(x)          static_cast<decltype(x)&&>(x)
  ------------------
  342|  9.70M|}
_ZN3scn2v46detail15to_address_implIKcEEPT_S5_NS1_12priority_tagILm2EEE:
  318|  14.2M|{
  319|  14.2M|    return p;
  320|  14.2M|}
_ZN3scn2v46detail25make_string_view_iteratorIcEENSt3__117basic_string_viewIT_NS3_11char_traitsIS5_EEE8iteratorES8_S9_:
 4046|  4.84M|{
 4047|       |    if constexpr (std::is_constructible_v<
 4048|       |                      typename std::basic_string_view<CharT>::iterator,
 4049|       |                      decltype(it)> &&
 4050|  4.84M|                  !SCN_MSVC_DEBUG_ITERATORS) {
 4051|  4.84M|        SCN_UNUSED(sv);
  ------------------
  |  | 1064|  4.84M|#define SCN_UNUSED(x) static_cast<void>(sizeof(x))
  ------------------
 4052|  4.84M|        return it;
 4053|       |    }
 4054|       |    else {
 4055|       |        return sv.begin() + std::distance(sv.data(), detail::to_address(it));
 4056|       |    }
 4057|  4.84M|}
_ZNK3scn2v46ranges6detail6begin_2fnclIRNSt3__117basic_string_viewIcNS6_11char_traitsIcEEEEEEDTclsr2fnE4implscDtfp_Efp_tlNS0_6detail12priority_tagILm3EEEEEEOT_:
 2900|  70.5k|    {
 2901|  70.5k|        return fn::impl(SCN_FWD(t), priority_tag<3>{});
  ------------------
  |  | 1085|  70.5k|#define SCN_FWD(x)          static_cast<decltype(x)&&>(x)
  ------------------
 2902|  70.5k|    }
_ZN3scn2v46ranges6detail6begin_2fn4implIRNSt3__117basic_string_viewIcNS6_11char_traitsIcEEEEEENS6_9enable_ifIX24input_or_output_iteratorIDTcl10decay_copycldtscDtfp_Efp_5beginEEEEESE_E4typeEOT_NS0_6detail12priority_tagILm1EEE:
 2881|  70.5k|    {
 2882|  70.5k|        return decay_copy(t.begin());
 2883|  70.5k|    }
_ZN3scn2v46ranges6detail10decay_copyIPKcEEu7__decayIT_EOS6_:
 2125|  6.28M|{
 2126|  6.28M|    return SCN_FWD(t);
  ------------------
  |  | 1085|  6.28M|#define SCN_FWD(x)          static_cast<decltype(x)&&>(x)
  ------------------
 2127|  6.28M|}
_ZNK3scn2v46ranges6detail4end_2fnclIRNSt3__117basic_string_viewIcNS6_11char_traitsIcEEEEEEDTclsr2fnE4implscDtfp_Efp_tlNS0_6detail12priority_tagILm3EEEEEEOT_:
 2957|  1.05M|    {
 2958|  1.05M|        return fn::impl(SCN_FWD(t), priority_tag<3>{});
  ------------------
  |  | 1085|  1.05M|#define SCN_FWD(x)          static_cast<decltype(x)&&>(x)
  ------------------
 2959|  1.05M|    }
_ZN3scn2v46ranges6detail4end_2fn4implIRNSt3__117basic_string_viewIcNS6_11char_traitsIcEEEEPKcSD_EENS6_9enable_ifIX12sentinel_forIT0_T1_EEDTcl10decay_copycldtscDtfp_Efp_3endEEEE4typeEOT_NS0_6detail12priority_tagILm1EEE:
 2939|  1.05M|    {
 2940|  1.05M|        return decay_copy(SCN_FWD(t).end());
  ------------------
  |  | 1085|  1.05M|#define SCN_FWD(x)          static_cast<decltype(x)&&>(x)
  ------------------
 2941|  1.05M|    }
_ZN3scn2v44scanIJfENS0_6ranges6detail9subrange_8subrangeIPKcS7_EEvEENS0_13scan_expectedINS0_11scan_resultINSt3__111conditionalIXsr3stdE9is_same_vIu11__remove_cvIu20__remove_reference_tIT0_EEP8_IO_FILEEESH_NS0_6detail22borrowed_tail_subrangeISD_Xsr6rangesE14borrowed_rangeISD_EEE4typeEE4typeEJDpT_EEEEEOSD_NS0_24basic_scan_format_stringIcNSI_13type_identityISD_E4typeEJDpNSU_ISO_E4typeEEEE:
10004|  77.4k|{
10005|  77.4k|    auto result = make_scan_result<Source, Args...>();
10006|  77.4k|    fill_scan_result(result, vscan(SCN_FWD(source), format,
  ------------------
  |  | 1085|  77.4k|#define SCN_FWD(x)          static_cast<decltype(x)&&>(x)
  ------------------
10007|  77.4k|                                   make_scan_args(result->values())));
10008|  77.4k|    return result;
10009|  77.4k|}
_ZN3scn2v416make_scan_resultINS0_6ranges6detail9subrange_8subrangeIPKcS7_EEJfEEEDav:
 9960|   171k|{
 9961|   171k|    return scan_result_type<Source, Args...>();
 9962|   171k|}
_ZN3scn2v48expectedINS0_11scan_resultINS0_6ranges6detail9subrange_8subrangeIPKcS8_EEJfEEENS0_10scan_errorEEC2Ev:
 1583|   171k|    constexpr expected() = default;
_ZN3scn2v46detail21expected_storage_baseINS0_11scan_resultINS0_6ranges6detail9subrange_8subrangeIPKcS9_EEJfEEENS0_10scan_errorELb1EEC2Ev:
  459|   171k|        : m_value(T{}), m_has_value(true)
  460|   171k|    {
  461|   171k|    }
_ZN3scn2v411scan_resultINS0_6ranges6detail9subrange_8subrangeIPKcS7_EEJfEEC2Ev:
 6775|   171k|    constexpr scan_result() = default;
_ZN3scn2v46detail25scan_result_range_storageINS0_6ranges6detail9subrange_8subrangeIPKcS8_EEEC2Ev:
 6618|   529k|    constexpr scan_result_range_storage() = default;
_ZN3scn2v46ranges6detail9subrange_8subrangeIPKcS6_EC2Ev:
 3491|   529k|    subrange() = default;
_ZN3scn2v46detail25scan_result_value_storageIJfEEC2Ev:
 6549|   674k|    constexpr scan_result_value_storage() = default;
_ZN3scn2v416fill_scan_resultINS0_11scan_resultINS0_6ranges6detail9subrange_8subrangeIPKcS8_EEJfEEES9_TnPNSt3__19enable_ifIXsr3stdE13conjunction_vINS0_6detail25is_specialization_of_implIu11__remove_cvIu20__remove_reference_tIT_EES2_EENSB_7is_sameINSF_10range_typeET0_EEEEvE4typeELPv0EEEvRNS0_13scan_expectedISF_EEONSR_ISL_EE:
 9945|   171k|{
 9946|   171k|    if (SCN_UNLIKELY(!in)) {
  ------------------
  |  | 1014|   171k|#define SCN_UNLIKELY(x) __builtin_expect(!!(x), 0)
  |  |  ------------------
  |  |  |  Branch (1014:25): [True: 22.9k, False: 148k]
  |  |  ------------------
  ------------------
 9947|  22.9k|        out = unexpected(in.error());
 9948|  22.9k|    }
 9949|   148k|    else {
 9950|   148k|        out->set_range(SCN_MOVE(*in));
  ------------------
  |  | 1083|   148k|    static_cast<    \
  |  | 1084|   148k|        typename ::scn::detail::remove_reference<decltype(x)>::type&&>(x)
  ------------------
 9951|   148k|    }
 9952|   171k|}
_ZNK3scn2v48expectedINS0_6ranges6detail9subrange_8subrangeIPKcS7_EENS0_10scan_errorEEcvbEv:
 1771|   529k|    {
 1772|   529k|        return has_value();
 1773|   529k|    }
_ZNK3scn2v46detail21expected_storage_baseINS0_6ranges6detail9subrange_8subrangeIPKcS8_EENS0_10scan_errorELb1EE9has_valueEv:
  522|  1.05M|    {
  523|  1.05M|        return m_has_value;
  524|  1.05M|    }
_ZNR3scn2v48expectedINS0_6ranges6detail9subrange_8subrangeIPKcS7_EENS0_10scan_errorEE5errorEv:
 1777|  68.7k|    {
 1778|  68.7k|        SCN_EXPECT(!has_value());
  ------------------
  |  | 1079|  68.7k|#define SCN_EXPECT(cond) SCN_ASSERT(cond, "Precondition violation")
  |  |  ------------------
  |  |  |  | 1076|  68.7k|#define SCN_ASSERT(cond, msg) assert((cond) && msg)
  |  |  ------------------
  ------------------
 1779|  68.7k|        return this->get_unexpected().error();
 1780|  68.7k|    }
_ZNR3scn2v46detail21expected_storage_baseINS0_6ranges6detail9subrange_8subrangeIPKcS8_EENS0_10scan_errorELb1EE14get_unexpectedEv:
  505|  68.7k|    {
  506|  68.7k|        return m_unexpected;
  507|  68.7k|    }
_ZNR3scn2v410unexpectedINS0_10scan_errorEE5errorEv:
  397|  10.2M|    {
  398|  10.2M|        return m_unexpected;
  399|  10.2M|    }
_ZN3scn2v410unexpectedINS0_10scan_errorEEC2IRS2_vEEOT_:
  380|  2.69M|        : m_unexpected(std::forward<Err>(e))
  381|  2.69M|    {
  382|  2.69M|        SCN_UNLIKELY_ATTR SCN_UNUSED(m_unexpected);
  ------------------
  |  | 1064|  2.69M|#define SCN_UNUSED(x) static_cast<void>(sizeof(x))
  ------------------
  383|  2.69M|    }
_ZN3scn2v48expectedINS0_11scan_resultINS0_6ranges6detail9subrange_8subrangeIPKcS8_EEJfEEENS0_10scan_errorEEC2ISB_TnPNSt3__19enable_ifIXsr3stdE18is_constructible_vISB_OT_EEvE4typeELPv0ETnPNSF_IXsr3stdE16is_convertible_vISH_SB_EEvE4typeELSL_0EEEONS0_10unexpectedISG_EE:
 1647|  22.9k|        : base(unexpect, std::move(e.error())),
 1648|  22.9k|          ctor_base(detail::non_default_ctor_tag_t{})
 1649|  22.9k|    {
 1650|  22.9k|    }
_ZN3scn2v46detail21expected_storage_baseINS0_11scan_resultINS0_6ranges6detail9subrange_8subrangeIPKcS9_EEJfEEENS0_10scan_errorELb1EEC2IJSC_EvEENS0_10unexpect_tEDpOT_:
  482|  22.9k|        : m_unexpected(std::in_place, std::forward<Args>(args)...),
  483|  22.9k|          m_has_value(false)
  484|  22.9k|    {
  485|  22.9k|    }
_ZN3scn2v410unexpectedINS0_10scan_errorEEC2IJS2_EvEENSt3__110in_place_tEDpOT_:
  391|  7.41M|        : m_unexpected(std::forward<Args>(args)...)
  392|  7.41M|    {
  393|  7.41M|        SCN_UNLIKELY_ATTR SCN_UNUSED(m_unexpected);
  ------------------
  |  | 1064|  7.41M|#define SCN_UNUSED(x) static_cast<void>(sizeof(x))
  ------------------
  394|  7.41M|    }
_ZN3scn2v46detail26expected_default_ctor_baseINS0_11scan_resultINS0_6ranges6detail9subrange_8subrangeIPKcS9_EEJfEEENS0_10scan_errorELb1EEC2ENS1_22non_default_ctor_tag_tE:
 1347|  22.9k|    {
 1348|  22.9k|    }
_ZN3scn2v48expectedINS0_11scan_resultINS0_6ranges6detail9subrange_8subrangeIPKcS8_EEJfEEENS0_10scan_errorEEaSEOSC_:
 1588|  22.9k|    constexpr expected& operator=(expected&&) = default;
_ZN3scn2v46detail24expected_operations_baseINS0_11scan_resultINS0_6ranges6detail9subrange_8subrangeIPKcS9_EEJfEEENS0_10scan_errorEvEaSEOSD_:
  934|  22.9k|    {
  935|  22.9k|        assign_common(std::move(other));
  936|  22.9k|        return *this;
  937|  22.9k|    }
_ZN3scn2v46detail24expected_operations_baseINS0_11scan_resultINS0_6ranges6detail9subrange_8subrangeIPKcS9_EEJfEEENS0_10scan_errorEvE13assign_commonISD_EEvOT_:
  981|  22.9k|    {
  982|  22.9k|        if (this->has_value()) {
  ------------------
  |  Branch (982:13): [True: 22.9k, False: 0]
  ------------------
  983|  22.9k|            if (other.has_value()) {
  ------------------
  |  Branch (983:17): [True: 0, False: 22.9k]
  ------------------
  984|      0|                return reassign_value(std::forward<Other>(other));
  985|      0|            }
  986|  22.9k|            return assign_unexpected_over_value(std::forward<Other>(other));
  987|  22.9k|        }
  988|       |
  989|      0|        if (other.has_value()) {
  ------------------
  |  Branch (989:13): [True: 0, False: 0]
  ------------------
  990|      0|            return assign_value_over_unexpected(std::forward<Other>(other));
  991|      0|        }
  992|      0|        return reassign_unexpected(std::forward<Other>(other));
  993|      0|    }
_ZNK3scn2v46detail21expected_storage_baseINS0_11scan_resultINS0_6ranges6detail9subrange_8subrangeIPKcS9_EEJfEEENS0_10scan_errorELb1EE9has_valueEv:
  522|   684k|    {
  523|   684k|        return m_has_value;
  524|   684k|    }
_ZNR3scn2v46detail21expected_storage_baseINS0_11scan_resultINS0_6ranges6detail9subrange_8subrangeIPKcS9_EEJfEEENS0_10scan_errorELb1EE9get_valueEv:
  488|   467k|    {
  489|   467k|        return m_value;
  490|   467k|    }
_ZN3scn2v46detail24expected_operations_baseINS0_11scan_resultINS0_6ranges6detail9subrange_8subrangeIPKcS9_EEJfEEENS0_10scan_errorEvE28assign_unexpected_over_valueISD_EEvOT_:
 1077|  22.9k|    {
 1078|  22.9k|        this->destroy_value();
 1079|  22.9k|        this->construct_unexpected(std::forward<Other>(other).get_unexpected());
 1080|  22.9k|    }
_ZN3scn2v46detail21expected_storage_baseINS0_11scan_resultINS0_6ranges6detail9subrange_8subrangeIPKcS9_EEJfEEENS0_10scan_errorELb1EE13destroy_valueEv:
  543|  22.9k|    static constexpr void destroy_value() noexcept {}
_ZN3scn2v46detail21expected_storage_baseINS0_11scan_resultINS0_6ranges6detail9subrange_8subrangeIPKcS9_EEJfEEENS0_10scan_errorELb1EE20construct_unexpectedIJNS0_10unexpectedISC_EEEEEvDpOT_:
  536|  22.9k|    {
  537|  22.9k|        scn::detail::construct_at(&get_unexpected(),
  538|  22.9k|                                  std::forward<Args>(args)...);
  539|  22.9k|        m_has_value = false;
  540|  22.9k|    }
_ZN3scn2v46detail12construct_atINS0_10unexpectedINS0_10scan_errorEEEJS5_EEEPT_S7_DpOT0_:
  428|   412k|{
  429|   412k|    return ::new (const_cast<void*>(static_cast<const volatile void*>(p)))
  430|   412k|        T(std::forward<Args>(args)...);
  431|   412k|}
_ZNR3scn2v46detail21expected_storage_baseINS0_11scan_resultINS0_6ranges6detail9subrange_8subrangeIPKcS9_EEJfEEENS0_10scan_errorELb1EE14get_unexpectedEv:
  505|  22.9k|    {
  506|  22.9k|        return m_unexpected;
  507|  22.9k|    }
_ZNO3scn2v46detail21expected_storage_baseINS0_11scan_resultINS0_6ranges6detail9subrange_8subrangeIPKcS9_EEJfEEENS0_10scan_errorELb1EE14get_unexpectedEv:
  513|  22.9k|    {
  514|  22.9k|        return std::move(m_unexpected);
  515|  22.9k|    }
_ZN3scn2v46detail25scan_result_range_storageINS0_6ranges6detail9subrange_8subrangeIPKcS8_EEE9set_rangeIS9_EEvOT_:
 6649|   460k|    {
 6650|   460k|        m_range = std::forward<Other>(r);
 6651|   460k|    }
_ZNR3scn2v48expectedINS0_6ranges6detail9subrange_8subrangeIPKcS7_EENS0_10scan_errorEEdeIS8_TnPNSt3__19enable_ifIXntsr3stdE9is_void_vIT_EEvE4typeELPv0EEERSE_v:
 1826|   460k|    {
 1827|   460k|        return value();
 1828|   460k|    }
_ZNR3scn2v48expectedINS0_6ranges6detail9subrange_8subrangeIPKcS7_EENS0_10scan_errorEE5valueIS8_TnPNSt3__19enable_ifIXntsr3stdE9is_void_vIT_EEvE4typeELPv0EEERSE_v:
 1800|   460k|    {
 1801|   460k|        SCN_EXPECT(has_value());
  ------------------
  |  | 1079|   460k|#define SCN_EXPECT(cond) SCN_ASSERT(cond, "Precondition violation")
  |  |  ------------------
  |  |  |  | 1076|   460k|#define SCN_ASSERT(cond, msg) assert((cond) && msg)
  |  |  ------------------
  ------------------
 1802|   460k|        return this->get_value();
 1803|   460k|    }
_ZNR3scn2v46detail21expected_storage_baseINS0_6ranges6detail9subrange_8subrangeIPKcS8_EENS0_10scan_errorELb1EE9get_valueEv:
  488|   460k|    {
  489|   460k|        return m_value;
  490|   460k|    }
_ZN3scn2v45vscanINS0_6ranges6detail9subrange_8subrangeIPKcS7_EEEENS0_13scan_expectedINSt3__111conditionalIXsr3stdE9is_same_vIu11__remove_cvIu20__remove_reference_tIT_EEP8_IO_FILEEESG_NS0_6detail22borrowed_tail_subrangeISC_Xsr6rangesE14borrowed_rangeISC_EEE4typeEE4typeEEEOSC_NSA_17basic_string_viewIcNSA_11char_traitsIcEEEENS0_15basic_scan_argsINS0_18basic_scan_contextINSH_16buffer_range_tagEcEEEE:
 9766|   239k|{
 9767|   239k|    return detail::vscan_generic(SCN_FWD(source), format, args);
  ------------------
  |  | 1085|   239k|#define SCN_FWD(x)          static_cast<decltype(x)&&>(x)
  ------------------
 9768|   239k|}
_ZN3scn2v46detail13vscan_genericINS0_6ranges6detail9subrange_8subrangeIPKcS8_EEcEENS0_13scan_expectedINSt3__111conditionalIXsr3stdE9is_same_vIu11__remove_cvIu20__remove_reference_tIT_EEP8_IO_FILEEESH_NS1_22borrowed_tail_subrangeISD_Xsr6rangesE14borrowed_rangeISD_EEE4typeEE4typeEEEOSD_NSB_17basic_string_viewIT0_NSB_11char_traitsISQ_EEEENS0_15basic_scan_argsINS0_18basic_scan_contextINS1_16buffer_range_tagESQ_EEEE:
 9703|   239k|{
 9704|   239k|    auto buffer = make_scan_buffer(range);
 9705|       |
 9706|   239k|    auto result = vscan_impl(buffer, format, args);
 9707|   239k|    if (SCN_UNLIKELY(!result)) {
  ------------------
  |  | 1014|   239k|#define SCN_UNLIKELY(x) __builtin_expect(!!(x), 0)
  |  |  ------------------
  |  |  |  Branch (1014:25): [True: 31.7k, False: 207k]
  |  |  ------------------
  ------------------
 9708|  31.7k|        return unexpected(result.error());
 9709|  31.7k|    }
 9710|   207k|    return make_vscan_result_range(SCN_FWD(range), *result);
  ------------------
  |  | 1085|   207k|#define SCN_FWD(x)          static_cast<decltype(x)&&>(x)
  ------------------
 9711|   239k|}
_ZN3scn2v46detail16make_scan_bufferINS0_6ranges6detail9subrange_8subrangeIPKcS8_EEEEDaRKT_:
 5465|   529k|{
 5466|   529k|    using T = decltype(_make_scan_buffer::impl(range, priority_tag<4>{}));
 5467|       |
 5468|   529k|    static_assert(!std::is_same_v<T, invalid_char_type>,
 5469|   529k|                  "\n"
 5470|   529k|                  "Unsupported range type given as input to a scanning "
 5471|   529k|                  "function.\n"
 5472|   529k|                  "A range needs to have a character type (value type) "
 5473|   529k|                  "of either `char` or `wchar_t` to be scannable.\n"
 5474|   529k|                  "For proper `wchar_t` support, <scn/xchar.h> needs "
 5475|   529k|                  "to be included.\n"
 5476|   529k|                  "See the scnlib documentation for more details.");
 5477|   529k|    static_assert(
 5478|   529k|        !std::is_same_v<T, custom_char_traits>,
 5479|   529k|        "\n"
 5480|   529k|        "Unsupported range type given as input to a scanning "
 5481|   529k|        "function.\n"
 5482|   529k|        "String types (std::basic_string, and std::basic_string_view) "
 5483|   529k|        "need to use std::char_traits. Strings with custom Traits are "
 5484|   529k|        "not supported.");
 5485|   529k|    static_assert(!std::is_same_v<T, file_marker_found>,
 5486|   529k|                  "\n"
 5487|   529k|                  "Unsupported range type given as input to a scanning "
 5488|   529k|                  "function.\n"
 5489|   529k|                  "file_marker_found cannot be used as an "
 5490|   529k|                  "source range type to scn::scan.\n"
 5491|   529k|                  "To read from stdin, use scn::input or scn::prompt, "
 5492|   529k|                  "and do not provide an explicit source range, "
 5493|   529k|                  "or use scn::scan with a FILE* directly.");
 5494|   529k|    static_assert(!std::is_same_v<T, insufficient_range>,
 5495|   529k|                  "\n"
 5496|   529k|                  "Unsupported range type given as input to a scanning "
 5497|   529k|                  "function.\n"
 5498|   529k|                  "In order to be scannable, a range needs to satisfy "
 5499|   529k|                  "`forward_range`. `input_range` is not sufficient.");
 5500|   529k|    static_assert(!std::is_same_v<T, invalid_input_range>,
 5501|   529k|                  "\n"
 5502|   529k|                  "Unsupported range type given as input to a scanning "
 5503|   529k|                  "function.\n"
 5504|   529k|                  "A range needs to model forward_range and have a valid "
 5505|   529k|                  "character type (char or wchar_t) to be scannable.\n"
 5506|   529k|                  "Examples of scannable ranges are std::string, "
 5507|   529k|                  "std::string_view, "
 5508|   529k|                  "std::vector<char>, and scn::istreambuf_view.\n"
 5509|   529k|                  "See the scnlib documentation for more details.");
 5510|       |
 5511|   529k|    return _make_scan_buffer::impl(range, priority_tag<4>{});
 5512|   529k|}
_ZN3scn2v46detail17_make_scan_buffer4implINS0_6ranges6detail9subrange_8subrangeIPKcS9_EETnPNSt3__19enable_ifIXaasr6rangesE16contiguous_rangeIT_Esr6rangesE11sized_rangeISD_EEvE4typeELPv0EEEDaRKSD_NS1_12priority_tagILm2EEE:
 5403|   529k|{
 5404|   529k|    if constexpr (is_valid_char_type<detail::char_t<Range>>) {
 5405|   529k|        return std::basic_string_view<detail::char_t<Range>>{ranges::data(r),
 5406|   529k|                                                             ranges::size(r)};
 5407|       |    }
 5408|       |    else {
 5409|       |        return invalid_char_type{};
 5410|       |    }
 5411|   529k|}
_ZNK3scn2v46ranges6detail5data_2fnclIRKNS2_9subrange_8subrangeIPKcS9_EEEEDTclsr2fnE4implscDtfp_Efp_tlNS0_6detail12priority_tagILm1EEEEEEOT_:
 3031|   529k|    {
 3032|   529k|        return fn::impl(SCN_FWD(t), priority_tag<1>{});
  ------------------
  |  | 1085|   529k|#define SCN_FWD(x)          static_cast<decltype(x)&&>(x)
  ------------------
 3033|   529k|    }
_ZN3scn2v46ranges6detail5data_2fn4implIKNS2_9subrange_8subrangeIPKcS9_EES9_EENSt3__19enable_ifIX19is_object_pointer_vIT0_EESE_E4typeERT_NS0_6detail12priority_tagILm1EEE:
 3012|   529k|    {
 3013|   529k|        return t.data();
 3014|   529k|    }
_ZNK3scn2v46ranges14view_interfaceINS1_6detail9subrange_8subrangeIPKcS7_EEE4dataIS8_vEEDav:
 3414|   529k|    {
 3415|   529k|        return detail::to_address(ranges::begin(derived()));
 3416|   529k|    }
_ZN3scn2v46detail10to_addressIPKcEEDTclgssr3scn6detailE15to_address_implscDtfp_Efp_tlNS1_12priority_tagILm2EEEEEEOT_:
  340|  4.56M|{
  341|  4.56M|    return ::scn::detail::to_address_impl(SCN_FWD(p), priority_tag<2>{});
  ------------------
  |  | 1085|  4.56M|#define SCN_FWD(x)          static_cast<decltype(x)&&>(x)
  ------------------
  342|  4.56M|}
_ZNK3scn2v46ranges6detail6begin_2fnclIRKNS2_9subrange_8subrangeIPKcS9_EEEEDTclsr2fnE4implscDtfp_Efp_tlNS0_6detail12priority_tagILm3EEEEEEOT_:
 2900|   989k|    {
 2901|   989k|        return fn::impl(SCN_FWD(t), priority_tag<3>{});
  ------------------
  |  | 1085|   989k|#define SCN_FWD(x)          static_cast<decltype(x)&&>(x)
  ------------------
 2902|   989k|    }
_ZN3scn2v46ranges6detail6begin_2fn4implIRKNS2_9subrange_8subrangeIPKcS9_EEEENSt3__19enable_ifIX24input_or_output_iteratorIDTcl10decay_copycldtscDtfp_Efp_5beginEEEEESG_E4typeEOT_NS0_6detail12priority_tagILm1EEE:
 2881|   989k|    {
 2882|   989k|        return decay_copy(t.begin());
 2883|   989k|    }
_ZNK3scn2v46ranges6detail9subrange_8subrangeIPKcS6_E5beginEv:
 3512|  13.4M|    {
 3513|  13.4M|        return m_iterator;
 3514|  13.4M|    }
_ZNK3scn2v46ranges14view_interfaceINS1_6detail9subrange_8subrangeIPKcS7_EEE7derivedEv:
 3370|   529k|    {
 3371|   529k|        return static_cast<const D&>(*this);
 3372|   529k|    }
_ZNK3scn2v46ranges6detail5size_2fnclIRKNS2_9subrange_8subrangeIPKcS9_EEEEDTclsr2fnE4implclsr3stdE7forwardIT_Efp_EtlNS0_6detail12priority_tagILm3EEEEEEOSD_:
 3106|   529k|    {
 3107|   529k|        return fn::impl(std::forward<T>(t), priority_tag<3>{});
 3108|   529k|    }
_ZN3scn2v46ranges6detail5size_2fn4implIRKNS2_9subrange_8subrangeIPKcS9_EEmEENSt3__19enable_ifIXaasr3stdE13is_integral_vIT0_Ent19disable_sized_rangeIu11__remove_cvIu20__remove_reference_tIT_EEEESF_E4typeEOSG_NS0_6detail12priority_tagILm2EEE:
 3072|   529k|    {
 3073|   529k|        return decay_copy(SCN_FWD(t).size());
  ------------------
  |  | 1085|   529k|#define SCN_FWD(x)          static_cast<decltype(x)&&>(x)
  ------------------
 3074|   529k|    }
_ZN3scn2v46ranges6detail10decay_copyImEEu7__decayIT_EOS4_:
 2125|  3.52M|{
 2126|  3.52M|    return SCN_FWD(t);
  ------------------
  |  | 1085|  3.52M|#define SCN_FWD(x)          static_cast<decltype(x)&&>(x)
  ------------------
 2127|  3.52M|}
_ZNK3scn2v46ranges6detail9subrange_8subrangeIPKcS6_E4sizeIS6_TnPNSt3__19enable_ifIX18sized_sentinel_forIS6_T_EEvE4typeELPv0EEEmv:
 3529|  3.28M|    {
 3530|  3.28M|        return static_cast<size_t>(m_sentinel - m_iterator);
 3531|  3.28M|    }
_ZNK3scn2v48expectedIlNS0_10scan_errorEEcvbEv:
 1771|  8.70M|    {
 1772|  8.70M|        return has_value();
 1773|  8.70M|    }
_ZNK3scn2v46detail21expected_storage_baseIlNS0_10scan_errorELb1EE9has_valueEv:
  522|  15.5M|    {
  523|  15.5M|        return m_has_value;
  524|  15.5M|    }
_ZNR3scn2v48expectedIlNS0_10scan_errorEE5errorEv:
 1777|   848k|    {
 1778|   848k|        SCN_EXPECT(!has_value());
  ------------------
  |  | 1079|   848k|#define SCN_EXPECT(cond) SCN_ASSERT(cond, "Precondition violation")
  |  |  ------------------
  |  |  |  | 1076|   848k|#define SCN_ASSERT(cond, msg) assert((cond) && msg)
  |  |  ------------------
  ------------------
 1779|   848k|        return this->get_unexpected().error();
 1780|   848k|    }
_ZNR3scn2v46detail21expected_storage_baseIlNS0_10scan_errorELb1EE14get_unexpectedEv:
  505|   848k|    {
  506|   848k|        return m_unexpected;
  507|   848k|    }
_ZN3scn2v48expectedINS0_6ranges6detail9subrange_8subrangeIPKcS7_EENS0_10scan_errorEEC2IS9_TnPNSt3__19enable_ifIXsr3stdE18is_constructible_vIS9_OT_EEvE4typeELPv0ETnPNSD_IXsr3stdE16is_convertible_vISF_S9_EEvE4typeELSJ_0EEEONS0_10unexpectedISE_EE:
 1647|  68.7k|        : base(unexpect, std::move(e.error())),
 1648|  68.7k|          ctor_base(detail::non_default_ctor_tag_t{})
 1649|  68.7k|    {
 1650|  68.7k|    }
_ZN3scn2v46detail21expected_storage_baseINS0_6ranges6detail9subrange_8subrangeIPKcS8_EENS0_10scan_errorELb1EEC2IJSA_EvEENS0_10unexpect_tEDpOT_:
  482|  68.7k|        : m_unexpected(std::in_place, std::forward<Args>(args)...),
  483|  68.7k|          m_has_value(false)
  484|  68.7k|    {
  485|  68.7k|    }
_ZN3scn2v46detail26expected_default_ctor_baseINS0_6ranges6detail9subrange_8subrangeIPKcS8_EENS0_10scan_errorELb1EEC2ENS1_22non_default_ctor_tag_tE:
 1347|   529k|    {
 1348|   529k|    }
_ZN3scn2v46detail23make_vscan_result_rangeINS0_6ranges6detail9subrange_8subrangeIPKcS8_EEEENS1_22borrowed_tail_subrangeIT_Xsr6rangesE14borrowed_rangeISB_EEE4typeEOSB_l:
 6879|   460k|{
 6880|       |    if constexpr (ranges::random_access_iterator<
 6881|   460k|                      ranges::iterator_t<SourceRange>>) {
 6882|   460k|        return {ranges::begin(source) + n, make_vscan_result_range_end(source)};
 6883|       |    }
 6884|       |    else {
 6885|       |        auto it = ranges::begin(source);
 6886|       |        while (n > 0) {
 6887|       |            --n;
 6888|       |            ++it;
 6889|       |        }
 6890|       |        return {SCN_MOVE(it), make_vscan_result_range_end(source)};
 6891|       |    }
 6892|   460k|}
_ZNK3scn2v46ranges6detail6begin_2fnclIRNS2_9subrange_8subrangeIPKcS9_EEEEDTclsr2fnE4implscDtfp_Efp_tlNS0_6detail12priority_tagILm3EEEEEEOT_:
 2900|  3.70M|    {
 2901|  3.70M|        return fn::impl(SCN_FWD(t), priority_tag<3>{});
  ------------------
  |  | 1085|  3.70M|#define SCN_FWD(x)          static_cast<decltype(x)&&>(x)
  ------------------
 2902|  3.70M|    }
_ZN3scn2v46ranges6detail6begin_2fn4implIRNS2_9subrange_8subrangeIPKcS9_EEEENSt3__19enable_ifIX24input_or_output_iteratorIDTcl10decay_copycldtscDtfp_Efp_5beginEEEEESF_E4typeEOT_NS0_6detail12priority_tagILm1EEE:
 2881|  3.70M|    {
 2882|  3.70M|        return decay_copy(t.begin());
 2883|  3.70M|    }
_ZN3scn2v46detail27make_vscan_result_range_endINS0_6ranges6detail9subrange_8subrangeIPKcS8_EEEEDaRT_:
 6866|   460k|{
 6867|   460k|    return ranges::end(source);
 6868|   460k|}
_ZNK3scn2v46ranges6detail4end_2fnclIRNS2_9subrange_8subrangeIPKcS9_EEEEDTclsr2fnE4implscDtfp_Efp_tlNS0_6detail12priority_tagILm3EEEEEEOT_:
 2957|   460k|    {
 2958|   460k|        return fn::impl(SCN_FWD(t), priority_tag<3>{});
  ------------------
  |  | 1085|   460k|#define SCN_FWD(x)          static_cast<decltype(x)&&>(x)
  ------------------
 2959|   460k|    }
_ZN3scn2v46ranges6detail4end_2fn4implIRNS2_9subrange_8subrangeIPKcS9_EES9_S9_EENSt3__19enable_ifIX12sentinel_forIT0_T1_EEDTcl10decay_copycldtscDtfp_Efp_3endEEEE4typeEOT_NS0_6detail12priority_tagILm1EEE:
 2939|   460k|    {
 2940|   460k|        return decay_copy(SCN_FWD(t).end());
  ------------------
  |  | 1085|   460k|#define SCN_FWD(x)          static_cast<decltype(x)&&>(x)
  ------------------
 2941|   460k|    }
_ZNK3scn2v46ranges6detail9subrange_8subrangeIPKcS6_E3endEv:
 3517|  6.18M|    {
 3518|  6.18M|        return m_sentinel;
 3519|  6.18M|    }
_ZNR3scn2v48expectedIlNS0_10scan_errorEEdeIlTnPNSt3__19enable_ifIXntsr3stdE9is_void_vIT_EEvE4typeELPv0EEERS7_v:
 1826|  2.59M|    {
 1827|  2.59M|        return value();
 1828|  2.59M|    }
_ZNR3scn2v48expectedIlNS0_10scan_errorEE5valueIlTnPNSt3__19enable_ifIXntsr3stdE9is_void_vIT_EEvE4typeELPv0EEERS7_v:
 1800|  6.03M|    {
 1801|  6.03M|        SCN_EXPECT(has_value());
  ------------------
  |  | 1079|  6.03M|#define SCN_EXPECT(cond) SCN_ASSERT(cond, "Precondition violation")
  |  |  ------------------
  |  |  |  | 1076|  6.03M|#define SCN_ASSERT(cond, msg) assert((cond) && msg)
  |  |  ------------------
  ------------------
 1802|  6.03M|        return this->get_value();
 1803|  6.03M|    }
_ZNR3scn2v46detail21expected_storage_baseIlNS0_10scan_errorELb1EE9get_valueEv:
  488|  6.03M|    {
  489|  6.03M|        return m_value;
  490|  6.03M|    }
_ZN3scn2v48expectedINS0_6ranges6detail9subrange_8subrangeIPKcS7_EENS0_10scan_errorEEC2IS8_vEEOT_:
 1601|   460k|        : base(std::in_place, std::forward<U>(val)),
 1602|   460k|          ctor_base(detail::non_default_ctor_tag_t{})
 1603|   460k|    {
 1604|   460k|    }
_ZN3scn2v46detail21expected_storage_baseINS0_6ranges6detail9subrange_8subrangeIPKcS8_EENS0_10scan_errorELb1EEC2IJS9_EvEENSt3__110in_place_tEDpOT_:
  473|   460k|        : m_value(std::forward<Args>(args)...), m_has_value(true)
  474|   460k|    {
  475|   460k|    }
_ZNK3scn2v424basic_scan_format_stringIcNS0_6ranges6detail9subrange_8subrangeIPKcS7_EEJfEEcvNSt3__117basic_string_viewIcNSA_11char_traitsIcEEEEEv:
 8962|   154k|    {
 8963|   154k|        return m_str;
 8964|   154k|    }
_ZN3scn2v414make_scan_argsINS0_18basic_scan_contextINS0_6detail16buffer_range_tagEcEEJfEEEDaRNSt3__15tupleIJDpT0_EEE:
 6274|   321k|{
 6275|   321k|    detail::check_scan_arg_types<Args...>();
 6276|   321k|    return detail::scan_arg_store<Context, Args...>(values);
 6277|   321k|}
_ZN3scn2v46detail20check_scan_arg_typesIJfEEEbv:
 5985|   674k|{
 5986|   674k|    constexpr bool default_constructible_constraint =
 5987|   674k|        std::conjunction_v<std::is_default_constructible<Args>...>;
 5988|   674k|    static_assert(default_constructible_constraint,
 5989|   674k|                  "Scan argument types must be default constructible");
 5990|       |
 5991|   674k|    constexpr bool destructible_constraint =
 5992|   674k|        std::conjunction_v<std::is_destructible<Args>...>;
 5993|   674k|    static_assert(destructible_constraint,
 5994|   674k|                  "Scan argument types must be Destructible");
 5995|       |
 5996|   674k|    constexpr bool non_reference_constraint =
 5997|   674k|        !std::conjunction_v<std::false_type, std::is_reference<Args>...>;
 5998|   674k|    static_assert(non_reference_constraint,
 5999|   674k|                  "Scan argument types must not be references");
 6000|       |
 6001|   674k|    constexpr bool movable_constraint =
 6002|   674k|        std::conjunction_v<std::is_move_constructible<Args>...>;
 6003|   674k|    static_assert(movable_constraint,
 6004|   674k|                  "Scan argument types must be move constructible");
 6005|       |
 6006|   674k|    return default_constructible_constraint && destructible_constraint &&
  ------------------
  |  Branch (6006:12): [Folded - Ignored]
  |  Branch (6006:48): [Folded - Ignored]
  ------------------
 6007|   674k|           non_reference_constraint && movable_constraint;
  ------------------
  |  Branch (6007:12): [Folded - Ignored]
  |  Branch (6007:40): [Folded - Ignored]
  ------------------
 6008|   674k|}
_ZN3scn2v46detail14scan_arg_storeINS0_18basic_scan_contextINS1_16buffer_range_tagEcEEJfEEC2ERNSt3__15tupleIJfEEE:
 6250|   321k|        : args(std::apply(make_argptrs<Args...>, a))
 6251|   321k|    {
 6252|   321k|    }
_ZN3scn2v46detail14scan_arg_storeINS0_18basic_scan_contextINS1_16buffer_range_tagEcEEJfEE12make_argptrsIJfEEENSt3__15arrayIPvLm1EEEDpRT_:
 6259|   321k|    {
 6260|   321k|        return {detail::make_arg<
 6261|   321k|            kind, Context,
 6262|   321k|            mapped_type_constant<remove_cvref_t<A>,
 6263|   321k|                                 typename Context::char_type>::value>(args)...};
 6264|   321k|    }
_ZN3scn2v46detail8make_argILNS1_19scan_arg_store_kindE0ENS0_18basic_scan_contextINS1_16buffer_range_tagEcEELNS1_8arg_typeE18EfvEEPvRT2_:
 6035|   321k|{
 6036|   321k|    return make_value<Context>(value).ref_value;
 6037|   321k|}
_ZN3scn2v46detail10make_valueINS0_18basic_scan_contextINS1_16buffer_range_tagEcEEfEEDaRT0_:
 5970|   354k|{
 5971|   354k|    auto&& arg = arg_mapper<typename Context::char_type>().map(value);
 5972|       |
 5973|       |    if constexpr (!std::is_same_v<remove_cvref_t<decltype(arg)>,
 5974|   354k|                                  needs_context_tag>) {
 5975|   354k|        return make_value_impl<T>(SCN_FWD(arg));
  ------------------
  |  | 1085|   354k|#define SCN_FWD(x)          static_cast<decltype(x)&&>(x)
  ------------------
 5976|       |    }
 5977|       |    else {
 5978|       |        return make_value_impl<T>(arg_mapper<typename Context::char_type>().map(
 5979|       |            value, context_tag<Context>{}));
 5980|       |    }
 5981|   354k|}
_ZN3scn2v46detail10arg_mapperIcE3mapERf:
 5772|   354k|    {                                                                        \
 5773|   354k|        return val;                                                          \
 5774|   354k|    }
_ZN3scn2v46detail15make_value_implIfRfEEDaOT0_:
 5939|   674k|{
 5940|   674k|    using arg_nocvref_t = remove_cvref_t<Arg>;
 5941|   674k|    static_assert(!std::is_same_v<arg_nocvref_t, needs_context_tag>);
 5942|       |
 5943|   674k|    constexpr bool scannable_char =
 5944|   674k|        !std::is_same_v<arg_nocvref_t, unscannable_char>;
 5945|   674k|    static_assert(scannable_char,
 5946|   674k|                  "Cannot scan an argument of an unsupported character "
 5947|   674k|                  "type (i.e. char from a wchar_t source)");
 5948|       |
 5949|   674k|    constexpr bool scannable_const =
 5950|   674k|        !std::is_same_v<arg_nocvref_t, unscannable_const>;
 5951|   674k|    static_assert(scannable_const, "Cannot scan a const argument");
 5952|       |
 5953|   674k|    constexpr bool scannable_disabled =
 5954|   674k|        !std::is_same_v<arg_nocvref_t, unscannable_disabled>;
 5955|   674k|    static_assert(scannable_disabled,
 5956|   674k|                  "Cannot scan an argument that has been disabled by "
 5957|   674k|                  "flag (SCN_DISABLE_TYPE_*)");
 5958|       |
 5959|   674k|    constexpr bool scannable = !std::is_same_v<arg_nocvref_t, unscannable>;
 5960|   674k|    static_assert(
 5961|   674k|        scannable,
 5962|   674k|        "Cannot scan an argument. To make a type T scannable, provide "
 5963|   674k|        "a scn::scanner<T, CharT> specialization.");
 5964|       |
 5965|   674k|    return arg_value{arg};
 5966|   674k|}
_ZN3scn2v46detail9arg_valueC2IfEERT_:
 5715|   674k|    explicit constexpr arg_value(T& val) : ref_value{std::addressof(val)}
 5716|   674k|    {
 5717|   674k|    }
_ZNR3scn2v46detail25scan_result_value_storageIJfEE6valuesEv:
 6558|   613k|    {
 6559|   613k|        return m_values;
 6560|   613k|    }
_ZN3scn2v415basic_scan_argsINS0_18basic_scan_contextINS0_6detail16buffer_range_tagEcEEEC2IJfEEERKNS3_14scan_arg_storeIS5_JDpT_EEE:
 6300|   321k|        : basic_scan_args(store.desc, store.args.data())
 6301|   321k|    {
 6302|   321k|    }
_ZN3scn2v415basic_scan_argsINS0_18basic_scan_contextINS0_6detail16buffer_range_tagEcEEEC2EmPKPv:
 6352|   992k|        : m_desc(desc), m_builtin_values(data)
 6353|   992k|    {
 6354|   992k|    }
_ZN3scn2v46ranges6detail9subrange_8subrangeIPKcS6_EC2IS6_TnPNSt3__19enable_ifIXsr3stdE16is_convertible_vIT_S6_EEvE4typeELPv0EEESB_S6_:
 3496|  5.34M|        : m_iterator(SCN_MOVE(i)), m_sentinel(SCN_MOVE(s))
  ------------------
  |  | 1083|  5.34M|    static_cast<    \
  |  | 1084|  5.34M|        typename ::scn::detail::remove_reference<decltype(x)>::type&&>(x)
  ------------------
                      : m_iterator(SCN_MOVE(i)), m_sentinel(SCN_MOVE(s))
  ------------------
  |  | 1083|  5.34M|    static_cast<    \
  |  | 1084|  5.34M|        typename ::scn::detail::remove_reference<decltype(x)>::type&&>(x)
  ------------------
 3497|  5.34M|    {
 3498|  5.34M|    }
_ZN3scn2v414runtime_formatENSt3__117basic_string_viewIcNS1_11char_traitsIcEEEE:
 8639|   992k|{
 8640|   992k|    return s;
 8641|   992k|}
_ZN3scn2v46detail27basic_runtime_format_stringIcEC2ENSt3__117basic_string_viewIcNS4_11char_traitsIcEEEE:
 8616|   992k|    basic_runtime_format_string(std::basic_string_view<CharT> s) : str(s) {}
_ZN3scn2v424basic_scan_format_stringIcNS0_6ranges6detail9subrange_8subrangeIPKcS7_EEJfEEC2ENS0_6detail27basic_runtime_format_stringIcEE:
 8957|   154k|        : m_str(r.str)
 8958|   154k|    {
 8959|   154k|    }
_ZNK3scn2v48expectedINS0_11scan_resultINS0_6ranges6detail9subrange_8subrangeIPKcS8_EEJfEEENS0_10scan_errorEEcvbEv:
 1771|   171k|    {
 1772|   171k|        return has_value();
 1773|   171k|    }
_ZN3scn2v48expectedINS0_11scan_resultINS0_6ranges6detail9subrange_8subrangeIPKcS8_EEJfEEENS0_10scan_errorEEptEv:
 1846|   467k|    {
 1847|   467k|        return &value();
 1848|   467k|    }
_ZNR3scn2v48expectedINS0_11scan_resultINS0_6ranges6detail9subrange_8subrangeIPKcS8_EEJfEEENS0_10scan_errorEE5valueISA_TnPNSt3__19enable_ifIXntsr3stdE9is_void_vIT_EEvE4typeELPv0EEERSG_v:
 1800|   467k|    {
 1801|   467k|        SCN_EXPECT(has_value());
  ------------------
  |  | 1079|   467k|#define SCN_EXPECT(cond) SCN_ASSERT(cond, "Precondition violation")
  |  |  ------------------
  |  |  |  | 1076|   467k|#define SCN_ASSERT(cond, msg) assert((cond) && msg)
  |  |  ------------------
  ------------------
 1802|   467k|        return this->get_value();
 1803|   467k|    }
_ZNK3scn2v46detail25scan_result_range_storageINS0_6ranges6detail9subrange_8subrangeIPKcS8_EEE5beginEv:
 6638|   460k|    {
 6639|   460k|        return ranges::begin(m_range);
 6640|   460k|    }
_ZN3scn2v44scanIJfENSt3__16localeENS0_6ranges6detail9subrange_8subrangeIPKcS9_EEvvEENS0_13scan_expectedINS0_11scan_resultINS2_11conditionalIXsr3stdE9is_same_vIu11__remove_cvIu20__remove_reference_tIT1_EEP8_IO_FILEEESI_NS0_6detail22borrowed_tail_subrangeISE_Xsr6rangesE14borrowed_rangeISE_EEE4typeEE4typeEJDpT_EEEEERKT0_OSE_NS0_24basic_scan_format_stringIcNSJ_13type_identityISE_E4typeEJDpNSY_ISP_E4typeEEEE:
10073|  77.4k|{
10074|  77.4k|    auto result = make_scan_result<Source, Args...>();
10075|  77.4k|    fill_scan_result(result, vscan(loc, SCN_FWD(source), format,
  ------------------
  |  | 1085|  77.4k|#define SCN_FWD(x)          static_cast<decltype(x)&&>(x)
  ------------------
10076|  77.4k|                                   make_scan_args(result->values())));
10077|  77.4k|    return result;
10078|  77.4k|}
_ZN3scn2v45vscanINS0_6ranges6detail9subrange_8subrangeIPKcS7_EENSt3__16localeEvEENS0_13scan_expectedINS9_11conditionalIXsr3stdE9is_same_vIu11__remove_cvIu20__remove_reference_tIT_EEP8_IO_FILEEESH_NS0_6detail22borrowed_tail_subrangeISD_Xsr6rangesE14borrowed_rangeISD_EEE4typeEE4typeEEERKT0_OSD_NS9_17basic_string_viewIcNS9_11char_traitsIcEEEENS0_15basic_scan_argsINS0_18basic_scan_contextINSI_16buffer_range_tagEcEEEE:
 9784|   239k|{
 9785|   239k|    return detail::vscan_localized_generic(loc, SCN_FWD(source), format, args);
  ------------------
  |  | 1085|   239k|#define SCN_FWD(x)          static_cast<decltype(x)&&>(x)
  ------------------
 9786|   239k|}
_ZN3scn2v46detail23vscan_localized_genericINSt3__16localeENS0_6ranges6detail9subrange_8subrangeIPKcSA_EEcEENS0_13scan_expectedINS3_11conditionalIXsr3stdE9is_same_vIu11__remove_cvIu20__remove_reference_tIT0_EEP8_IO_FILEEESI_NS1_22borrowed_tail_subrangeISE_Xsr6rangesE14borrowed_rangeISE_EEE4typeEE4typeEEERKT_OSE_NS3_17basic_string_viewIT1_NS3_11char_traitsISU_EEEENS0_15basic_scan_argsINS0_18basic_scan_contextINS1_16buffer_range_tagESU_EEEE:
 9719|   239k|{
 9720|   239k|#if !SCN_DISABLE_LOCALE
 9721|   239k|    auto buffer = detail::make_scan_buffer(range);
 9722|       |
 9723|   239k|    SCN_CLANG_PUSH_IGNORE_UNDEFINED_TEMPLATE
 9724|   239k|    auto result = detail::vscan_localized_impl(loc, buffer, format, args);
 9725|   239k|    SCN_CLANG_POP_IGNORE_UNDEFINED_TEMPLATE
 9726|       |
 9727|   239k|    if (SCN_UNLIKELY(!result)) {
  ------------------
  |  | 1014|   239k|#define SCN_UNLIKELY(x) __builtin_expect(!!(x), 0)
  |  |  ------------------
  |  |  |  Branch (1014:25): [True: 31.7k, False: 207k]
  |  |  ------------------
  ------------------
 9728|  31.7k|        return unexpected(result.error());
 9729|  31.7k|    }
 9730|   207k|    return detail::make_vscan_result_range(SCN_FWD(range), *result);
  ------------------
  |  | 1085|   207k|#define SCN_FWD(x)          static_cast<decltype(x)&&>(x)
  ------------------
 9731|       |#else
 9732|       |    static_assert(dependent_false<Locale>::value,
 9733|       |                  "Can't use scan(locale, ...) with SCN_DISABLE_LOCALE on");
 9734|       |
 9735|       |    return {};
 9736|       |#endif
 9737|   239k|}
_ZN3scn2v410scan_valueIfNS0_6ranges6detail9subrange_8subrangeIPKcS7_EEvEENS0_13scan_expectedINS0_11scan_resultINSt3__111conditionalIXsr3stdE9is_same_vIu11__remove_cvIu20__remove_reference_tIT0_EEP8_IO_FILEEESH_NS0_6detail22borrowed_tail_subrangeISD_Xsr6rangesE14borrowed_rangeISD_EEE4typeEE4typeEJT_EEEEEOSD_:
10114|  16.2k|{
10115|  16.2k|    auto result = make_scan_result<Source, T>();
10116|  16.2k|    fill_scan_result(
10117|  16.2k|        result, vscan_value(SCN_FWD(source),
  ------------------
  |  | 1085|  16.2k|#define SCN_FWD(x)          static_cast<decltype(x)&&>(x)
  ------------------
10118|  16.2k|                            detail::make_arg<scan_context>(result->value())));
10119|  16.2k|    return result;
10120|  16.2k|}
_ZN3scn2v411vscan_valueINS0_6ranges6detail9subrange_8subrangeIPKcS7_EEEENS0_13scan_expectedINSt3__111conditionalIXsr3stdE9is_same_vIu11__remove_cvIu20__remove_reference_tIT_EEP8_IO_FILEEESG_NS0_6detail22borrowed_tail_subrangeISC_Xsr6rangesE14borrowed_rangeISC_EEE4typeEE4typeEEEOSC_NS0_14basic_scan_argINS0_18basic_scan_contextINSH_16buffer_range_tagEcEEEE:
 9797|  50.7k|{
 9798|  50.7k|    return detail::vscan_value_generic(SCN_FWD(source), arg);
  ------------------
  |  | 1085|  50.7k|#define SCN_FWD(x)          static_cast<decltype(x)&&>(x)
  ------------------
 9799|  50.7k|}
_ZN3scn2v46detail19vscan_value_genericINS0_6ranges6detail9subrange_8subrangeIPKcS8_EEcEENS0_13scan_expectedINSt3__111conditionalIXsr3stdE9is_same_vIu11__remove_cvIu20__remove_reference_tIT_EEP8_IO_FILEEESH_NS1_22borrowed_tail_subrangeISD_Xsr6rangesE14borrowed_rangeISD_EEE4typeEE4typeEEEOSD_NS0_14basic_scan_argINS0_18basic_scan_contextINS1_16buffer_range_tagET0_EEEE:
 9743|  50.7k|{
 9744|  50.7k|    auto buffer = detail::make_scan_buffer(range);
 9745|       |
 9746|  50.7k|    auto result = detail::vscan_value_impl(buffer, arg);
 9747|  50.7k|    if (SCN_UNLIKELY(!result)) {
  ------------------
  |  | 1014|  50.7k|#define SCN_UNLIKELY(x) __builtin_expect(!!(x), 0)
  |  |  ------------------
  |  |  |  Branch (1014:25): [True: 5.29k, False: 45.5k]
  |  |  ------------------
  ------------------
 9748|  5.29k|        return unexpected(result.error());
 9749|  5.29k|    }
 9750|  45.5k|    return detail::make_vscan_result_range(SCN_FWD(range), *result);
  ------------------
  |  | 1085|  45.5k|#define SCN_FWD(x)          static_cast<decltype(x)&&>(x)
  ------------------
 9751|  50.7k|}
_ZN3scn2v46detail8make_argINS0_18basic_scan_contextINS1_16buffer_range_tagEcEEfEENS0_14basic_scan_argIT_EERT0_:
 6020|  32.9k|{
 6021|  32.9k|    check_scan_arg_types<T>();
 6022|       |
 6023|  32.9k|    basic_scan_arg<Context> arg;
 6024|  32.9k|    arg.m_type = mapped_type_constant<T, typename Context::char_type>::value;
 6025|  32.9k|    arg.m_value = make_value<Context>(value);
 6026|  32.9k|    return arg;
 6027|  32.9k|}
_ZN3scn2v414basic_scan_argINS0_18basic_scan_contextINS0_6detail16buffer_range_tagEcEEEC2Ev:
 6118|  1.09M|    constexpr basic_scan_arg() = default;
_ZN3scn2v46detail9arg_valueC2Ev:
 5711|  2.13M|    arg_value() = default;
_ZNR3scn2v46detail25scan_result_value_storageIJfEE5valueILm1ETnPNSt3__19enable_ifIXeqT_Li1EEvE4typeELPv0EEEDcv:
 6580|  60.5k|    {
 6581|  60.5k|        return std::get<0>(m_values);
 6582|  60.5k|    }
_ZN3scn2v44scanIJdENS0_6ranges6detail9subrange_8subrangeIPKcS7_EEvEENS0_13scan_expectedINS0_11scan_resultINSt3__111conditionalIXsr3stdE9is_same_vIu11__remove_cvIu20__remove_reference_tIT0_EEP8_IO_FILEEESH_NS0_6detail22borrowed_tail_subrangeISD_Xsr6rangesE14borrowed_rangeISD_EEE4typeEE4typeEJDpT_EEEEEOSD_NS0_24basic_scan_format_stringIcNSI_13type_identityISD_E4typeEJDpNSU_ISO_E4typeEEEE:
10004|  80.1k|{
10005|  80.1k|    auto result = make_scan_result<Source, Args...>();
10006|  80.1k|    fill_scan_result(result, vscan(SCN_FWD(source), format,
  ------------------
  |  | 1085|  80.1k|#define SCN_FWD(x)          static_cast<decltype(x)&&>(x)
  ------------------
10007|  80.1k|                                   make_scan_args(result->values())));
10008|  80.1k|    return result;
10009|  80.1k|}
_ZN3scn2v416make_scan_resultINS0_6ranges6detail9subrange_8subrangeIPKcS7_EEJdEEEDav:
 9960|   177k|{
 9961|   177k|    return scan_result_type<Source, Args...>();
 9962|   177k|}
_ZN3scn2v48expectedINS0_11scan_resultINS0_6ranges6detail9subrange_8subrangeIPKcS8_EEJdEEENS0_10scan_errorEEC2Ev:
 1583|   177k|    constexpr expected() = default;
_ZN3scn2v46detail21expected_storage_baseINS0_11scan_resultINS0_6ranges6detail9subrange_8subrangeIPKcS9_EEJdEEENS0_10scan_errorELb1EEC2Ev:
  459|   177k|        : m_value(T{}), m_has_value(true)
  460|   177k|    {
  461|   177k|    }
_ZN3scn2v411scan_resultINS0_6ranges6detail9subrange_8subrangeIPKcS7_EEJdEEC2Ev:
 6775|   177k|    constexpr scan_result() = default;
_ZN3scn2v46detail25scan_result_value_storageIJdEEC2Ev:
 6549|   721k|    constexpr scan_result_value_storage() = default;
_ZN3scn2v416fill_scan_resultINS0_11scan_resultINS0_6ranges6detail9subrange_8subrangeIPKcS8_EEJdEEES9_TnPNSt3__19enable_ifIXsr3stdE13conjunction_vINS0_6detail25is_specialization_of_implIu11__remove_cvIu20__remove_reference_tIT_EES2_EENSB_7is_sameINSF_10range_typeET0_EEEEvE4typeELPv0EEEvRNS0_13scan_expectedISF_EEONSR_ISL_EE:
 9945|   177k|{
 9946|   177k|    if (SCN_UNLIKELY(!in)) {
  ------------------
  |  | 1014|   177k|#define SCN_UNLIKELY(x) __builtin_expect(!!(x), 0)
  |  |  ------------------
  |  |  |  Branch (1014:25): [True: 22.9k, False: 154k]
  |  |  ------------------
  ------------------
 9947|  22.9k|        out = unexpected(in.error());
 9948|  22.9k|    }
 9949|   154k|    else {
 9950|   154k|        out->set_range(SCN_MOVE(*in));
  ------------------
  |  | 1083|   154k|    static_cast<    \
  |  | 1084|   154k|        typename ::scn::detail::remove_reference<decltype(x)>::type&&>(x)
  ------------------
 9951|   154k|    }
 9952|   177k|}
_ZN3scn2v48expectedINS0_11scan_resultINS0_6ranges6detail9subrange_8subrangeIPKcS8_EEJdEEENS0_10scan_errorEEC2ISB_TnPNSt3__19enable_ifIXsr3stdE18is_constructible_vISB_OT_EEvE4typeELPv0ETnPNSF_IXsr3stdE16is_convertible_vISH_SB_EEvE4typeELSL_0EEEONS0_10unexpectedISG_EE:
 1647|  22.9k|        : base(unexpect, std::move(e.error())),
 1648|  22.9k|          ctor_base(detail::non_default_ctor_tag_t{})
 1649|  22.9k|    {
 1650|  22.9k|    }
_ZN3scn2v46detail21expected_storage_baseINS0_11scan_resultINS0_6ranges6detail9subrange_8subrangeIPKcS9_EEJdEEENS0_10scan_errorELb1EEC2IJSC_EvEENS0_10unexpect_tEDpOT_:
  482|  22.9k|        : m_unexpected(std::in_place, std::forward<Args>(args)...),
  483|  22.9k|          m_has_value(false)
  484|  22.9k|    {
  485|  22.9k|    }
_ZN3scn2v46detail26expected_default_ctor_baseINS0_11scan_resultINS0_6ranges6detail9subrange_8subrangeIPKcS9_EEJdEEENS0_10scan_errorELb1EEC2ENS1_22non_default_ctor_tag_tE:
 1347|  22.9k|    {
 1348|  22.9k|    }
_ZN3scn2v48expectedINS0_11scan_resultINS0_6ranges6detail9subrange_8subrangeIPKcS8_EEJdEEENS0_10scan_errorEEaSEOSC_:
 1588|  22.9k|    constexpr expected& operator=(expected&&) = default;
_ZN3scn2v46detail24expected_operations_baseINS0_11scan_resultINS0_6ranges6detail9subrange_8subrangeIPKcS9_EEJdEEENS0_10scan_errorEvEaSEOSD_:
  934|  22.9k|    {
  935|  22.9k|        assign_common(std::move(other));
  936|  22.9k|        return *this;
  937|  22.9k|    }
_ZN3scn2v46detail24expected_operations_baseINS0_11scan_resultINS0_6ranges6detail9subrange_8subrangeIPKcS9_EEJdEEENS0_10scan_errorEvE13assign_commonISD_EEvOT_:
  981|  22.9k|    {
  982|  22.9k|        if (this->has_value()) {
  ------------------
  |  Branch (982:13): [True: 22.9k, False: 0]
  ------------------
  983|  22.9k|            if (other.has_value()) {
  ------------------
  |  Branch (983:17): [True: 0, False: 22.9k]
  ------------------
  984|      0|                return reassign_value(std::forward<Other>(other));
  985|      0|            }
  986|  22.9k|            return assign_unexpected_over_value(std::forward<Other>(other));
  987|  22.9k|        }
  988|       |
  989|      0|        if (other.has_value()) {
  ------------------
  |  Branch (989:13): [True: 0, False: 0]
  ------------------
  990|      0|            return assign_value_over_unexpected(std::forward<Other>(other));
  991|      0|        }
  992|      0|        return reassign_unexpected(std::forward<Other>(other));
  993|      0|    }
_ZNK3scn2v46detail21expected_storage_baseINS0_11scan_resultINS0_6ranges6detail9subrange_8subrangeIPKcS9_EEJdEEENS0_10scan_errorELb1EE9has_valueEv:
  522|   709k|    {
  523|   709k|        return m_has_value;
  524|   709k|    }
_ZNR3scn2v46detail21expected_storage_baseINS0_11scan_resultINS0_6ranges6detail9subrange_8subrangeIPKcS9_EEJdEEENS0_10scan_errorELb1EE9get_valueEv:
  488|   486k|    {
  489|   486k|        return m_value;
  490|   486k|    }
_ZN3scn2v46detail24expected_operations_baseINS0_11scan_resultINS0_6ranges6detail9subrange_8subrangeIPKcS9_EEJdEEENS0_10scan_errorEvE28assign_unexpected_over_valueISD_EEvOT_:
 1077|  22.9k|    {
 1078|  22.9k|        this->destroy_value();
 1079|  22.9k|        this->construct_unexpected(std::forward<Other>(other).get_unexpected());
 1080|  22.9k|    }
_ZN3scn2v46detail21expected_storage_baseINS0_11scan_resultINS0_6ranges6detail9subrange_8subrangeIPKcS9_EEJdEEENS0_10scan_errorELb1EE13destroy_valueEv:
  543|  22.9k|    static constexpr void destroy_value() noexcept {}
_ZN3scn2v46detail21expected_storage_baseINS0_11scan_resultINS0_6ranges6detail9subrange_8subrangeIPKcS9_EEJdEEENS0_10scan_errorELb1EE20construct_unexpectedIJNS0_10unexpectedISC_EEEEEvDpOT_:
  536|  22.9k|    {
  537|  22.9k|        scn::detail::construct_at(&get_unexpected(),
  538|  22.9k|                                  std::forward<Args>(args)...);
  539|  22.9k|        m_has_value = false;
  540|  22.9k|    }
_ZNR3scn2v46detail21expected_storage_baseINS0_11scan_resultINS0_6ranges6detail9subrange_8subrangeIPKcS9_EEJdEEENS0_10scan_errorELb1EE14get_unexpectedEv:
  505|  22.9k|    {
  506|  22.9k|        return m_unexpected;
  507|  22.9k|    }
_ZNO3scn2v46detail21expected_storage_baseINS0_11scan_resultINS0_6ranges6detail9subrange_8subrangeIPKcS9_EEJdEEENS0_10scan_errorELb1EE14get_unexpectedEv:
  513|  22.9k|    {
  514|  22.9k|        return std::move(m_unexpected);
  515|  22.9k|    }
_ZNK3scn2v424basic_scan_format_stringIcNS0_6ranges6detail9subrange_8subrangeIPKcS7_EEJdEEcvNSt3__117basic_string_viewIcNSA_11char_traitsIcEEEEEv:
 8962|   160k|    {
 8963|   160k|        return m_str;
 8964|   160k|    }
_ZN3scn2v414make_scan_argsINS0_18basic_scan_contextINS0_6detail16buffer_range_tagEcEEJdEEEDaRNSt3__15tupleIJDpT0_EEE:
 6274|   333k|{
 6275|   333k|    detail::check_scan_arg_types<Args...>();
 6276|   333k|    return detail::scan_arg_store<Context, Args...>(values);
 6277|   333k|}
_ZN3scn2v46detail20check_scan_arg_typesIJdEEEbv:
 5985|   721k|{
 5986|   721k|    constexpr bool default_constructible_constraint =
 5987|   721k|        std::conjunction_v<std::is_default_constructible<Args>...>;
 5988|   721k|    static_assert(default_constructible_constraint,
 5989|   721k|                  "Scan argument types must be default constructible");
 5990|       |
 5991|   721k|    constexpr bool destructible_constraint =
 5992|   721k|        std::conjunction_v<std::is_destructible<Args>...>;
 5993|   721k|    static_assert(destructible_constraint,
 5994|   721k|                  "Scan argument types must be Destructible");
 5995|       |
 5996|   721k|    constexpr bool non_reference_constraint =
 5997|   721k|        !std::conjunction_v<std::false_type, std::is_reference<Args>...>;
 5998|   721k|    static_assert(non_reference_constraint,
 5999|   721k|                  "Scan argument types must not be references");
 6000|       |
 6001|   721k|    constexpr bool movable_constraint =
 6002|   721k|        std::conjunction_v<std::is_move_constructible<Args>...>;
 6003|   721k|    static_assert(movable_constraint,
 6004|   721k|                  "Scan argument types must be move constructible");
 6005|       |
 6006|   721k|    return default_constructible_constraint && destructible_constraint &&
  ------------------
  |  Branch (6006:12): [Folded - Ignored]
  |  Branch (6006:48): [Folded - Ignored]
  ------------------
 6007|   721k|           non_reference_constraint && movable_constraint;
  ------------------
  |  Branch (6007:12): [Folded - Ignored]
  |  Branch (6007:40): [Folded - Ignored]
  ------------------
 6008|   721k|}
_ZN3scn2v46detail14scan_arg_storeINS0_18basic_scan_contextINS1_16buffer_range_tagEcEEJdEEC2ERNSt3__15tupleIJdEEE:
 6250|   333k|        : args(std::apply(make_argptrs<Args...>, a))
 6251|   333k|    {
 6252|   333k|    }
_ZN3scn2v46detail14scan_arg_storeINS0_18basic_scan_contextINS1_16buffer_range_tagEcEEJdEE12make_argptrsIJdEEENSt3__15arrayIPvLm1EEEDpRT_:
 6259|   333k|    {
 6260|   333k|        return {detail::make_arg<
 6261|   333k|            kind, Context,
 6262|   333k|            mapped_type_constant<remove_cvref_t<A>,
 6263|   333k|                                 typename Context::char_type>::value>(args)...};
 6264|   333k|    }
_ZN3scn2v46detail8make_argILNS1_19scan_arg_store_kindE0ENS0_18basic_scan_contextINS1_16buffer_range_tagEcEELNS1_8arg_typeE19EdvEEPvRT2_:
 6035|   333k|{
 6036|   333k|    return make_value<Context>(value).ref_value;
 6037|   333k|}
_ZN3scn2v46detail10make_valueINS0_18basic_scan_contextINS1_16buffer_range_tagEcEEdEEDaRT0_:
 5970|   367k|{
 5971|   367k|    auto&& arg = arg_mapper<typename Context::char_type>().map(value);
 5972|       |
 5973|       |    if constexpr (!std::is_same_v<remove_cvref_t<decltype(arg)>,
 5974|   367k|                                  needs_context_tag>) {
 5975|   367k|        return make_value_impl<T>(SCN_FWD(arg));
  ------------------
  |  | 1085|   367k|#define SCN_FWD(x)          static_cast<decltype(x)&&>(x)
  ------------------
 5976|       |    }
 5977|       |    else {
 5978|       |        return make_value_impl<T>(arg_mapper<typename Context::char_type>().map(
 5979|       |            value, context_tag<Context>{}));
 5980|       |    }
 5981|   367k|}
_ZN3scn2v46detail10arg_mapperIcE3mapERd:
 5772|   367k|    {                                                                        \
 5773|   367k|        return val;                                                          \
 5774|   367k|    }
_ZN3scn2v46detail15make_value_implIdRdEEDaOT0_:
 5939|   721k|{
 5940|   721k|    using arg_nocvref_t = remove_cvref_t<Arg>;
 5941|   721k|    static_assert(!std::is_same_v<arg_nocvref_t, needs_context_tag>);
 5942|       |
 5943|   721k|    constexpr bool scannable_char =
 5944|   721k|        !std::is_same_v<arg_nocvref_t, unscannable_char>;
 5945|   721k|    static_assert(scannable_char,
 5946|   721k|                  "Cannot scan an argument of an unsupported character "
 5947|   721k|                  "type (i.e. char from a wchar_t source)");
 5948|       |
 5949|   721k|    constexpr bool scannable_const =
 5950|   721k|        !std::is_same_v<arg_nocvref_t, unscannable_const>;
 5951|   721k|    static_assert(scannable_const, "Cannot scan a const argument");
 5952|       |
 5953|   721k|    constexpr bool scannable_disabled =
 5954|   721k|        !std::is_same_v<arg_nocvref_t, unscannable_disabled>;
 5955|   721k|    static_assert(scannable_disabled,
 5956|   721k|                  "Cannot scan an argument that has been disabled by "
 5957|   721k|                  "flag (SCN_DISABLE_TYPE_*)");
 5958|       |
 5959|   721k|    constexpr bool scannable = !std::is_same_v<arg_nocvref_t, unscannable>;
 5960|   721k|    static_assert(
 5961|   721k|        scannable,
 5962|   721k|        "Cannot scan an argument. To make a type T scannable, provide "
 5963|   721k|        "a scn::scanner<T, CharT> specialization.");
 5964|       |
 5965|   721k|    return arg_value{arg};
 5966|   721k|}
_ZN3scn2v46detail9arg_valueC2IdEERT_:
 5715|   721k|    explicit constexpr arg_value(T& val) : ref_value{std::addressof(val)}
 5716|   721k|    {
 5717|   721k|    }
_ZNR3scn2v46detail25scan_result_value_storageIJdEE6valuesEv:
 6558|   654k|    {
 6559|   654k|        return m_values;
 6560|   654k|    }
_ZN3scn2v415basic_scan_argsINS0_18basic_scan_contextINS0_6detail16buffer_range_tagEcEEEC2IJdEEERKNS3_14scan_arg_storeIS5_JDpT_EEE:
 6300|   333k|        : basic_scan_args(store.desc, store.args.data())
 6301|   333k|    {
 6302|   333k|    }
_ZN3scn2v424basic_scan_format_stringIcNS0_6ranges6detail9subrange_8subrangeIPKcS7_EEJdEEC2ENS0_6detail27basic_runtime_format_stringIcEE:
 8957|   160k|        : m_str(r.str)
 8958|   160k|    {
 8959|   160k|    }
_ZNK3scn2v48expectedINS0_11scan_resultINS0_6ranges6detail9subrange_8subrangeIPKcS8_EEJdEEENS0_10scan_errorEEcvbEv:
 1771|   177k|    {
 1772|   177k|        return has_value();
 1773|   177k|    }
_ZN3scn2v48expectedINS0_11scan_resultINS0_6ranges6detail9subrange_8subrangeIPKcS8_EEJdEEENS0_10scan_errorEEptEv:
 1846|   486k|    {
 1847|   486k|        return &value();
 1848|   486k|    }
_ZNR3scn2v48expectedINS0_11scan_resultINS0_6ranges6detail9subrange_8subrangeIPKcS8_EEJdEEENS0_10scan_errorEE5valueISA_TnPNSt3__19enable_ifIXntsr3stdE9is_void_vIT_EEvE4typeELPv0EEERSG_v:
 1800|   486k|    {
 1801|   486k|        SCN_EXPECT(has_value());
  ------------------
  |  | 1079|   486k|#define SCN_EXPECT(cond) SCN_ASSERT(cond, "Precondition violation")
  |  |  ------------------
  |  |  |  | 1076|   486k|#define SCN_ASSERT(cond, msg) assert((cond) && msg)
  |  |  ------------------
  ------------------
 1802|   486k|        return this->get_value();
 1803|   486k|    }
_ZN3scn2v44scanIJdENSt3__16localeENS0_6ranges6detail9subrange_8subrangeIPKcS9_EEvvEENS0_13scan_expectedINS0_11scan_resultINS2_11conditionalIXsr3stdE9is_same_vIu11__remove_cvIu20__remove_reference_tIT1_EEP8_IO_FILEEESI_NS0_6detail22borrowed_tail_subrangeISE_Xsr6rangesE14borrowed_rangeISE_EEE4typeEE4typeEJDpT_EEEEERKT0_OSE_NS0_24basic_scan_format_stringIcNSJ_13type_identityISE_E4typeEJDpNSY_ISP_E4typeEEEE:
10073|  80.1k|{
10074|  80.1k|    auto result = make_scan_result<Source, Args...>();
10075|  80.1k|    fill_scan_result(result, vscan(loc, SCN_FWD(source), format,
  ------------------
  |  | 1085|  80.1k|#define SCN_FWD(x)          static_cast<decltype(x)&&>(x)
  ------------------
10076|  80.1k|                                   make_scan_args(result->values())));
10077|  80.1k|    return result;
10078|  80.1k|}
_ZN3scn2v410scan_valueIdNS0_6ranges6detail9subrange_8subrangeIPKcS7_EEvEENS0_13scan_expectedINS0_11scan_resultINSt3__111conditionalIXsr3stdE9is_same_vIu11__remove_cvIu20__remove_reference_tIT0_EEP8_IO_FILEEESH_NS0_6detail22borrowed_tail_subrangeISD_Xsr6rangesE14borrowed_rangeISD_EEE4typeEE4typeEJT_EEEEEOSD_:
10114|  17.0k|{
10115|  17.0k|    auto result = make_scan_result<Source, T>();
10116|  17.0k|    fill_scan_result(
10117|  17.0k|        result, vscan_value(SCN_FWD(source),
  ------------------
  |  | 1085|  17.0k|#define SCN_FWD(x)          static_cast<decltype(x)&&>(x)
  ------------------
10118|  17.0k|                            detail::make_arg<scan_context>(result->value())));
10119|  17.0k|    return result;
10120|  17.0k|}
_ZN3scn2v46detail8make_argINS0_18basic_scan_contextINS1_16buffer_range_tagEcEEdEENS0_14basic_scan_argIT_EERT0_:
 6020|  34.5k|{
 6021|  34.5k|    check_scan_arg_types<T>();
 6022|       |
 6023|  34.5k|    basic_scan_arg<Context> arg;
 6024|  34.5k|    arg.m_type = mapped_type_constant<T, typename Context::char_type>::value;
 6025|  34.5k|    arg.m_value = make_value<Context>(value);
 6026|  34.5k|    return arg;
 6027|  34.5k|}
_ZNR3scn2v46detail25scan_result_value_storageIJdEE5valueILm1ETnPNSt3__19enable_ifIXeqT_Li1EEvE4typeELPv0EEEDcv:
 6580|  66.8k|    {
 6581|  66.8k|        return std::get<0>(m_values);
 6582|  66.8k|    }
_ZN3scn2v44scanIJeENS0_6ranges6detail9subrange_8subrangeIPKcS7_EEvEENS0_13scan_expectedINS0_11scan_resultINSt3__111conditionalIXsr3stdE9is_same_vIu11__remove_cvIu20__remove_reference_tIT0_EEP8_IO_FILEEESH_NS0_6detail22borrowed_tail_subrangeISD_Xsr6rangesE14borrowed_rangeISD_EEE4typeEE4typeEJDpT_EEEEEOSD_NS0_24basic_scan_format_stringIcNSI_13type_identityISD_E4typeEJDpNSU_ISO_E4typeEEEE:
10004|  81.5k|{
10005|  81.5k|    auto result = make_scan_result<Source, Args...>();
10006|  81.5k|    fill_scan_result(result, vscan(SCN_FWD(source), format,
  ------------------
  |  | 1085|  81.5k|#define SCN_FWD(x)          static_cast<decltype(x)&&>(x)
  ------------------
10007|  81.5k|                                   make_scan_args(result->values())));
10008|  81.5k|    return result;
10009|  81.5k|}
_ZN3scn2v416make_scan_resultINS0_6ranges6detail9subrange_8subrangeIPKcS7_EEJeEEEDav:
 9960|   180k|{
 9961|   180k|    return scan_result_type<Source, Args...>();
 9962|   180k|}
_ZN3scn2v48expectedINS0_11scan_resultINS0_6ranges6detail9subrange_8subrangeIPKcS8_EEJeEEENS0_10scan_errorEEC2Ev:
 1583|   180k|    constexpr expected() = default;
_ZN3scn2v46detail21expected_storage_baseINS0_11scan_resultINS0_6ranges6detail9subrange_8subrangeIPKcS9_EEJeEEENS0_10scan_errorELb1EEC2Ev:
  459|   180k|        : m_value(T{}), m_has_value(true)
  460|   180k|    {
  461|   180k|    }
_ZN3scn2v411scan_resultINS0_6ranges6detail9subrange_8subrangeIPKcS7_EEJeEEC2Ev:
 6775|   180k|    constexpr scan_result() = default;
_ZN3scn2v46detail25scan_result_value_storageIJeEEC2Ev:
 6549|   736k|    constexpr scan_result_value_storage() = default;
_ZN3scn2v416fill_scan_resultINS0_11scan_resultINS0_6ranges6detail9subrange_8subrangeIPKcS8_EEJeEEES9_TnPNSt3__19enable_ifIXsr3stdE13conjunction_vINS0_6detail25is_specialization_of_implIu11__remove_cvIu20__remove_reference_tIT_EES2_EENSB_7is_sameINSF_10range_typeET0_EEEEvE4typeELPv0EEEvRNS0_13scan_expectedISF_EEONSR_ISL_EE:
 9945|   180k|{
 9946|   180k|    if (SCN_UNLIKELY(!in)) {
  ------------------
  |  | 1014|   180k|#define SCN_UNLIKELY(x) __builtin_expect(!!(x), 0)
  |  |  ------------------
  |  |  |  Branch (1014:25): [True: 22.9k, False: 157k]
  |  |  ------------------
  ------------------
 9947|  22.9k|        out = unexpected(in.error());
 9948|  22.9k|    }
 9949|   157k|    else {
 9950|   157k|        out->set_range(SCN_MOVE(*in));
  ------------------
  |  | 1083|   157k|    static_cast<    \
  |  | 1084|   157k|        typename ::scn::detail::remove_reference<decltype(x)>::type&&>(x)
  ------------------
 9951|   157k|    }
 9952|   180k|}
_ZN3scn2v48expectedINS0_11scan_resultINS0_6ranges6detail9subrange_8subrangeIPKcS8_EEJeEEENS0_10scan_errorEEC2ISB_TnPNSt3__19enable_ifIXsr3stdE18is_constructible_vISB_OT_EEvE4typeELPv0ETnPNSF_IXsr3stdE16is_convertible_vISH_SB_EEvE4typeELSL_0EEEONS0_10unexpectedISG_EE:
 1647|  22.9k|        : base(unexpect, std::move(e.error())),
 1648|  22.9k|          ctor_base(detail::non_default_ctor_tag_t{})
 1649|  22.9k|    {
 1650|  22.9k|    }
_ZN3scn2v46detail21expected_storage_baseINS0_11scan_resultINS0_6ranges6detail9subrange_8subrangeIPKcS9_EEJeEEENS0_10scan_errorELb1EEC2IJSC_EvEENS0_10unexpect_tEDpOT_:
  482|  22.9k|        : m_unexpected(std::in_place, std::forward<Args>(args)...),
  483|  22.9k|          m_has_value(false)
  484|  22.9k|    {
  485|  22.9k|    }
_ZN3scn2v46detail26expected_default_ctor_baseINS0_11scan_resultINS0_6ranges6detail9subrange_8subrangeIPKcS9_EEJeEEENS0_10scan_errorELb1EEC2ENS1_22non_default_ctor_tag_tE:
 1347|  22.9k|    {
 1348|  22.9k|    }
_ZN3scn2v48expectedINS0_11scan_resultINS0_6ranges6detail9subrange_8subrangeIPKcS8_EEJeEEENS0_10scan_errorEEaSEOSC_:
 1588|  22.9k|    constexpr expected& operator=(expected&&) = default;
_ZN3scn2v46detail24expected_operations_baseINS0_11scan_resultINS0_6ranges6detail9subrange_8subrangeIPKcS9_EEJeEEENS0_10scan_errorEvEaSEOSD_:
  934|  22.9k|    {
  935|  22.9k|        assign_common(std::move(other));
  936|  22.9k|        return *this;
  937|  22.9k|    }
_ZN3scn2v46detail24expected_operations_baseINS0_11scan_resultINS0_6ranges6detail9subrange_8subrangeIPKcS9_EEJeEEENS0_10scan_errorEvE13assign_commonISD_EEvOT_:
  981|  22.9k|    {
  982|  22.9k|        if (this->has_value()) {
  ------------------
  |  Branch (982:13): [True: 22.9k, False: 0]
  ------------------
  983|  22.9k|            if (other.has_value()) {
  ------------------
  |  Branch (983:17): [True: 0, False: 22.9k]
  ------------------
  984|      0|                return reassign_value(std::forward<Other>(other));
  985|      0|            }
  986|  22.9k|            return assign_unexpected_over_value(std::forward<Other>(other));
  987|  22.9k|        }
  988|       |
  989|      0|        if (other.has_value()) {
  ------------------
  |  Branch (989:13): [True: 0, False: 0]
  ------------------
  990|      0|            return assign_value_over_unexpected(std::forward<Other>(other));
  991|      0|        }
  992|      0|        return reassign_unexpected(std::forward<Other>(other));
  993|      0|    }
_ZNK3scn2v46detail21expected_storage_baseINS0_11scan_resultINS0_6ranges6detail9subrange_8subrangeIPKcS9_EEJeEEENS0_10scan_errorELb1EE9has_valueEv:
  522|   722k|    {
  523|   722k|        return m_has_value;
  524|   722k|    }
_ZNR3scn2v46detail21expected_storage_baseINS0_11scan_resultINS0_6ranges6detail9subrange_8subrangeIPKcS9_EEJeEEENS0_10scan_errorELb1EE9get_valueEv:
  488|   495k|    {
  489|   495k|        return m_value;
  490|   495k|    }
_ZN3scn2v46detail24expected_operations_baseINS0_11scan_resultINS0_6ranges6detail9subrange_8subrangeIPKcS9_EEJeEEENS0_10scan_errorEvE28assign_unexpected_over_valueISD_EEvOT_:
 1077|  22.9k|    {
 1078|  22.9k|        this->destroy_value();
 1079|  22.9k|        this->construct_unexpected(std::forward<Other>(other).get_unexpected());
 1080|  22.9k|    }
_ZN3scn2v46detail21expected_storage_baseINS0_11scan_resultINS0_6ranges6detail9subrange_8subrangeIPKcS9_EEJeEEENS0_10scan_errorELb1EE13destroy_valueEv:
  543|  22.9k|    static constexpr void destroy_value() noexcept {}
_ZN3scn2v46detail21expected_storage_baseINS0_11scan_resultINS0_6ranges6detail9subrange_8subrangeIPKcS9_EEJeEEENS0_10scan_errorELb1EE20construct_unexpectedIJNS0_10unexpectedISC_EEEEEvDpOT_:
  536|  22.9k|    {
  537|  22.9k|        scn::detail::construct_at(&get_unexpected(),
  538|  22.9k|                                  std::forward<Args>(args)...);
  539|  22.9k|        m_has_value = false;
  540|  22.9k|    }
_ZNR3scn2v46detail21expected_storage_baseINS0_11scan_resultINS0_6ranges6detail9subrange_8subrangeIPKcS9_EEJeEEENS0_10scan_errorELb1EE14get_unexpectedEv:
  505|  22.9k|    {
  506|  22.9k|        return m_unexpected;
  507|  22.9k|    }
_ZNO3scn2v46detail21expected_storage_baseINS0_11scan_resultINS0_6ranges6detail9subrange_8subrangeIPKcS9_EEJeEEENS0_10scan_errorELb1EE14get_unexpectedEv:
  513|  22.9k|    {
  514|  22.9k|        return std::move(m_unexpected);
  515|  22.9k|    }
_ZNK3scn2v424basic_scan_format_stringIcNS0_6ranges6detail9subrange_8subrangeIPKcS7_EEJeEEcvNSt3__117basic_string_viewIcNSA_11char_traitsIcEEEEEv:
 8962|   163k|    {
 8963|   163k|        return m_str;
 8964|   163k|    }
_ZN3scn2v414make_scan_argsINS0_18basic_scan_contextINS0_6detail16buffer_range_tagEcEEJeEEEDaRNSt3__15tupleIJDpT0_EEE:
 6274|   338k|{
 6275|   338k|    detail::check_scan_arg_types<Args...>();
 6276|   338k|    return detail::scan_arg_store<Context, Args...>(values);
 6277|   338k|}
_ZN3scn2v46detail20check_scan_arg_typesIJeEEEbv:
 5985|   736k|{
 5986|   736k|    constexpr bool default_constructible_constraint =
 5987|   736k|        std::conjunction_v<std::is_default_constructible<Args>...>;
 5988|   736k|    static_assert(default_constructible_constraint,
 5989|   736k|                  "Scan argument types must be default constructible");
 5990|       |
 5991|   736k|    constexpr bool destructible_constraint =
 5992|   736k|        std::conjunction_v<std::is_destructible<Args>...>;
 5993|   736k|    static_assert(destructible_constraint,
 5994|   736k|                  "Scan argument types must be Destructible");
 5995|       |
 5996|   736k|    constexpr bool non_reference_constraint =
 5997|   736k|        !std::conjunction_v<std::false_type, std::is_reference<Args>...>;
 5998|   736k|    static_assert(non_reference_constraint,
 5999|   736k|                  "Scan argument types must not be references");
 6000|       |
 6001|   736k|    constexpr bool movable_constraint =
 6002|   736k|        std::conjunction_v<std::is_move_constructible<Args>...>;
 6003|   736k|    static_assert(movable_constraint,
 6004|   736k|                  "Scan argument types must be move constructible");
 6005|       |
 6006|   736k|    return default_constructible_constraint && destructible_constraint &&
  ------------------
  |  Branch (6006:12): [Folded - Ignored]
  |  Branch (6006:48): [Folded - Ignored]
  ------------------
 6007|   736k|           non_reference_constraint && movable_constraint;
  ------------------
  |  Branch (6007:12): [Folded - Ignored]
  |  Branch (6007:40): [Folded - Ignored]
  ------------------
 6008|   736k|}
_ZN3scn2v46detail14scan_arg_storeINS0_18basic_scan_contextINS1_16buffer_range_tagEcEEJeEEC2ERNSt3__15tupleIJeEEE:
 6250|   338k|        : args(std::apply(make_argptrs<Args...>, a))
 6251|   338k|    {
 6252|   338k|    }
_ZN3scn2v46detail14scan_arg_storeINS0_18basic_scan_contextINS1_16buffer_range_tagEcEEJeEE12make_argptrsIJeEEENSt3__15arrayIPvLm1EEEDpRT_:
 6259|   338k|    {
 6260|   338k|        return {detail::make_arg<
 6261|   338k|            kind, Context,
 6262|   338k|            mapped_type_constant<remove_cvref_t<A>,
 6263|   338k|                                 typename Context::char_type>::value>(args)...};
 6264|   338k|    }
_ZN3scn2v46detail8make_argILNS1_19scan_arg_store_kindE0ENS0_18basic_scan_contextINS1_16buffer_range_tagEcEELNS1_8arg_typeE20EevEEPvRT2_:
 6035|   338k|{
 6036|   338k|    return make_value<Context>(value).ref_value;
 6037|   338k|}
_ZN3scn2v46detail10make_valueINS0_18basic_scan_contextINS1_16buffer_range_tagEcEEeEEDaRT0_:
 5970|   373k|{
 5971|   373k|    auto&& arg = arg_mapper<typename Context::char_type>().map(value);
 5972|       |
 5973|       |    if constexpr (!std::is_same_v<remove_cvref_t<decltype(arg)>,
 5974|   373k|                                  needs_context_tag>) {
 5975|   373k|        return make_value_impl<T>(SCN_FWD(arg));
  ------------------
  |  | 1085|   373k|#define SCN_FWD(x)          static_cast<decltype(x)&&>(x)
  ------------------
 5976|       |    }
 5977|       |    else {
 5978|       |        return make_value_impl<T>(arg_mapper<typename Context::char_type>().map(
 5979|       |            value, context_tag<Context>{}));
 5980|       |    }
 5981|   373k|}
_ZN3scn2v46detail10arg_mapperIcE3mapERe:
 5772|   373k|    {                                                                        \
 5773|   373k|        return val;                                                          \
 5774|   373k|    }
_ZN3scn2v46detail15make_value_implIeReEEDaOT0_:
 5939|   736k|{
 5940|   736k|    using arg_nocvref_t = remove_cvref_t<Arg>;
 5941|   736k|    static_assert(!std::is_same_v<arg_nocvref_t, needs_context_tag>);
 5942|       |
 5943|   736k|    constexpr bool scannable_char =
 5944|   736k|        !std::is_same_v<arg_nocvref_t, unscannable_char>;
 5945|   736k|    static_assert(scannable_char,
 5946|   736k|                  "Cannot scan an argument of an unsupported character "
 5947|   736k|                  "type (i.e. char from a wchar_t source)");
 5948|       |
 5949|   736k|    constexpr bool scannable_const =
 5950|   736k|        !std::is_same_v<arg_nocvref_t, unscannable_const>;
 5951|   736k|    static_assert(scannable_const, "Cannot scan a const argument");
 5952|       |
 5953|   736k|    constexpr bool scannable_disabled =
 5954|   736k|        !std::is_same_v<arg_nocvref_t, unscannable_disabled>;
 5955|   736k|    static_assert(scannable_disabled,
 5956|   736k|                  "Cannot scan an argument that has been disabled by "
 5957|   736k|                  "flag (SCN_DISABLE_TYPE_*)");
 5958|       |
 5959|   736k|    constexpr bool scannable = !std::is_same_v<arg_nocvref_t, unscannable>;
 5960|   736k|    static_assert(
 5961|   736k|        scannable,
 5962|   736k|        "Cannot scan an argument. To make a type T scannable, provide "
 5963|   736k|        "a scn::scanner<T, CharT> specialization.");
 5964|       |
 5965|   736k|    return arg_value{arg};
 5966|   736k|}
_ZN3scn2v46detail9arg_valueC2IeEERT_:
 5715|   736k|    explicit constexpr arg_value(T& val) : ref_value{std::addressof(val)}
 5716|   736k|    {
 5717|   736k|    }
_ZNR3scn2v46detail25scan_result_value_storageIJeEE6valuesEv:
 6558|   667k|    {
 6559|   667k|        return m_values;
 6560|   667k|    }
_ZN3scn2v415basic_scan_argsINS0_18basic_scan_contextINS0_6detail16buffer_range_tagEcEEEC2IJeEEERKNS3_14scan_arg_storeIS5_JDpT_EEE:
 6300|   338k|        : basic_scan_args(store.desc, store.args.data())
 6301|   338k|    {
 6302|   338k|    }
_ZN3scn2v424basic_scan_format_stringIcNS0_6ranges6detail9subrange_8subrangeIPKcS7_EEJeEEC2ENS0_6detail27basic_runtime_format_stringIcEE:
 8957|   163k|        : m_str(r.str)
 8958|   163k|    {
 8959|   163k|    }
_ZNK3scn2v48expectedINS0_11scan_resultINS0_6ranges6detail9subrange_8subrangeIPKcS8_EEJeEEENS0_10scan_errorEEcvbEv:
 1771|   180k|    {
 1772|   180k|        return has_value();
 1773|   180k|    }
_ZN3scn2v48expectedINS0_11scan_resultINS0_6ranges6detail9subrange_8subrangeIPKcS8_EEJeEEENS0_10scan_errorEEptEv:
 1846|   495k|    {
 1847|   495k|        return &value();
 1848|   495k|    }
_ZNR3scn2v48expectedINS0_11scan_resultINS0_6ranges6detail9subrange_8subrangeIPKcS8_EEJeEEENS0_10scan_errorEE5valueISA_TnPNSt3__19enable_ifIXntsr3stdE9is_void_vIT_EEvE4typeELPv0EEERSG_v:
 1800|   495k|    {
 1801|   495k|        SCN_EXPECT(has_value());
  ------------------
  |  | 1079|   495k|#define SCN_EXPECT(cond) SCN_ASSERT(cond, "Precondition violation")
  |  |  ------------------
  |  |  |  | 1076|   495k|#define SCN_ASSERT(cond, msg) assert((cond) && msg)
  |  |  ------------------
  ------------------
 1802|   495k|        return this->get_value();
 1803|   495k|    }
_ZN3scn2v44scanIJeENSt3__16localeENS0_6ranges6detail9subrange_8subrangeIPKcS9_EEvvEENS0_13scan_expectedINS0_11scan_resultINS2_11conditionalIXsr3stdE9is_same_vIu11__remove_cvIu20__remove_reference_tIT1_EEP8_IO_FILEEESI_NS0_6detail22borrowed_tail_subrangeISE_Xsr6rangesE14borrowed_rangeISE_EEE4typeEE4typeEJDpT_EEEEERKT0_OSE_NS0_24basic_scan_format_stringIcNSJ_13type_identityISE_E4typeEJDpNSY_ISP_E4typeEEEE:
10073|  81.5k|{
10074|  81.5k|    auto result = make_scan_result<Source, Args...>();
10075|  81.5k|    fill_scan_result(result, vscan(loc, SCN_FWD(source), format,
  ------------------
  |  | 1085|  81.5k|#define SCN_FWD(x)          static_cast<decltype(x)&&>(x)
  ------------------
10076|  81.5k|                                   make_scan_args(result->values())));
10077|  81.5k|    return result;
10078|  81.5k|}
_ZN3scn2v410scan_valueIeNS0_6ranges6detail9subrange_8subrangeIPKcS7_EEvEENS0_13scan_expectedINS0_11scan_resultINSt3__111conditionalIXsr3stdE9is_same_vIu11__remove_cvIu20__remove_reference_tIT0_EEP8_IO_FILEEESH_NS0_6detail22borrowed_tail_subrangeISD_Xsr6rangesE14borrowed_rangeISD_EEE4typeEE4typeEJT_EEEEEOSD_:
10114|  17.5k|{
10115|  17.5k|    auto result = make_scan_result<Source, T>();
10116|  17.5k|    fill_scan_result(
10117|  17.5k|        result, vscan_value(SCN_FWD(source),
  ------------------
  |  | 1085|  17.5k|#define SCN_FWD(x)          static_cast<decltype(x)&&>(x)
  ------------------
10118|  17.5k|                            detail::make_arg<scan_context>(result->value())));
10119|  17.5k|    return result;
10120|  17.5k|}
_ZN3scn2v46detail8make_argINS0_18basic_scan_contextINS1_16buffer_range_tagEcEEeEENS0_14basic_scan_argIT_EERT0_:
 6020|  35.3k|{
 6021|  35.3k|    check_scan_arg_types<T>();
 6022|       |
 6023|  35.3k|    basic_scan_arg<Context> arg;
 6024|  35.3k|    arg.m_type = mapped_type_constant<T, typename Context::char_type>::value;
 6025|  35.3k|    arg.m_value = make_value<Context>(value);
 6026|  35.3k|    return arg;
 6027|  35.3k|}
_ZNR3scn2v46detail25scan_result_value_storageIJeEE5valueILm1ETnPNSt3__19enable_ifIXeqT_Li1EEvE4typeELPv0EEEDcv:
 6580|  68.8k|    {
 6581|  68.8k|        return std::get<0>(m_values);
 6582|  68.8k|    }
_ZNK3scn2v46ranges6detail6begin_2fnclIRKNSt3__15dequeIcNS6_9allocatorIcEEEEEEDTclsr2fnE4implscDtfp_Efp_tlNS0_6detail12priority_tagILm3EEEEEEOT_:
 2900|  68.7k|    {
 2901|  68.7k|        return fn::impl(SCN_FWD(t), priority_tag<3>{});
  ------------------
  |  | 1085|  68.7k|#define SCN_FWD(x)          static_cast<decltype(x)&&>(x)
  ------------------
 2902|  68.7k|    }
_ZN3scn2v46ranges6detail6begin_2fn4implIRKNSt3__15dequeIcNS6_9allocatorIcEEEEEENS6_9enable_ifIX24input_or_output_iteratorIDTcl10decay_copycldtscDtfp_Efp_5beginEEEEESF_E4typeEOT_NS0_6detail12priority_tagILm1EEE:
 2881|  68.7k|    {
 2882|  68.7k|        return decay_copy(t.begin());
 2883|  68.7k|    }
_ZN3scn2v46ranges6detail10decay_copyINSt3__116__deque_iteratorIcPKcRS6_PKS7_lLl4096EEEEEu7__decayIT_EOSC_:
 2125|  18.3M|{
 2126|  18.3M|    return SCN_FWD(t);
  ------------------
  |  | 1085|  18.3M|#define SCN_FWD(x)          static_cast<decltype(x)&&>(x)
  ------------------
 2127|  18.3M|}
_ZNK3scn2v46ranges6detail4end_2fnclIRKNSt3__15dequeIcNS6_9allocatorIcEEEEEEDTclsr2fnE4implscDtfp_Efp_tlNS0_6detail12priority_tagILm3EEEEEEOT_:
 2957|  1.13M|    {
 2958|  1.13M|        return fn::impl(SCN_FWD(t), priority_tag<3>{});
  ------------------
  |  | 1085|  1.13M|#define SCN_FWD(x)          static_cast<decltype(x)&&>(x)
  ------------------
 2959|  1.13M|    }
_ZN3scn2v46ranges6detail4end_2fn4implIRKNSt3__15dequeIcNS6_9allocatorIcEEEENS6_16__deque_iteratorIcPKcRSE_PKSF_lLl4096EEESJ_EENS6_9enable_ifIX12sentinel_forIT0_T1_EEDTcl10decay_copycldtscDtfp_Efp_3endEEEE4typeEOT_NS0_6detail12priority_tagILm1EEE:
 2939|  1.13M|    {
 2940|  1.13M|        return decay_copy(SCN_FWD(t).end());
  ------------------
  |  | 1085|  1.13M|#define SCN_FWD(x)          static_cast<decltype(x)&&>(x)
  ------------------
 2941|  1.13M|    }
_ZN3scn2v44scanIJfENS0_6ranges6detail9subrange_8subrangeINSt3__116__deque_iteratorIcPKcRS8_PKS9_lLl4096EEESD_EEvEENS0_13scan_expectedINS0_11scan_resultINS6_11conditionalIXsr3stdE9is_same_vIu11__remove_cvIu20__remove_reference_tIT0_EEP8_IO_FILEEESM_NS0_6detail22borrowed_tail_subrangeISI_Xsr6rangesE14borrowed_rangeISI_EEE4typeEE4typeEJDpT_EEEEEOSI_NS0_24basic_scan_format_stringIcNSN_13type_identityISI_E4typeEJDpNSZ_IST_E4typeEEEE:
10004|  83.1k|{
10005|  83.1k|    auto result = make_scan_result<Source, Args...>();
10006|  83.1k|    fill_scan_result(result, vscan(SCN_FWD(source), format,
  ------------------
  |  | 1085|  83.1k|#define SCN_FWD(x)          static_cast<decltype(x)&&>(x)
  ------------------
10007|  83.1k|                                   make_scan_args(result->values())));
10008|  83.1k|    return result;
10009|  83.1k|}
_ZN3scn2v416make_scan_resultINS0_6ranges6detail9subrange_8subrangeINSt3__116__deque_iteratorIcPKcRS8_PKS9_lLl4096EEESD_EEJfEEEDav:
 9960|   183k|{
 9961|   183k|    return scan_result_type<Source, Args...>();
 9962|   183k|}
_ZN3scn2v48expectedINS0_11scan_resultINS0_6ranges6detail9subrange_8subrangeINSt3__116__deque_iteratorIcPKcRS9_PKSA_lLl4096EEESE_EEJfEEENS0_10scan_errorEEC2Ev:
 1583|   183k|    constexpr expected() = default;
_ZN3scn2v46detail21expected_storage_baseINS0_11scan_resultINS0_6ranges6detail9subrange_8subrangeINSt3__116__deque_iteratorIcPKcRSA_PKSB_lLl4096EEESF_EEJfEEENS0_10scan_errorELb1EEC2Ev:
  459|   183k|        : m_value(T{}), m_has_value(true)
  460|   183k|    {
  461|   183k|    }
_ZN3scn2v411scan_resultINS0_6ranges6detail9subrange_8subrangeINSt3__116__deque_iteratorIcPKcRS8_PKS9_lLl4096EEESD_EEJfEEC2Ev:
 6775|   183k|    constexpr scan_result() = default;
_ZN3scn2v46detail25scan_result_range_storageINS0_6ranges6detail9subrange_8subrangeINSt3__116__deque_iteratorIcPKcRS9_PKSA_lLl4096EEESE_EEEC2Ev:
 6618|   566k|    constexpr scan_result_range_storage() = default;
_ZN3scn2v46ranges6detail9subrange_8subrangeINSt3__116__deque_iteratorIcPKcRS7_PKS8_lLl4096EEESC_EC2Ev:
 3491|   566k|    subrange() = default;
_ZN3scn2v416fill_scan_resultINS0_11scan_resultINS0_6ranges6detail9subrange_8subrangeINSt3__116__deque_iteratorIcPKcRS9_PKSA_lLl4096EEESE_EEJfEEESF_TnPNS7_9enable_ifIXsr3stdE13conjunction_vINS0_6detail25is_specialization_of_implIu11__remove_cvIu20__remove_reference_tIT_EES2_EENS7_7is_sameINSK_10range_typeET0_EEEEvE4typeELPv0EEEvRNS0_13scan_expectedISK_EEONSW_ISQ_EE:
 9945|   183k|{
 9946|   183k|    if (SCN_UNLIKELY(!in)) {
  ------------------
  |  | 1014|   183k|#define SCN_UNLIKELY(x) __builtin_expect(!!(x), 0)
  |  |  ------------------
  |  |  |  Branch (1014:25): [True: 22.9k, False: 160k]
  |  |  ------------------
  ------------------
 9947|  22.9k|        out = unexpected(in.error());
 9948|  22.9k|    }
 9949|   160k|    else {
 9950|   160k|        out->set_range(SCN_MOVE(*in));
  ------------------
  |  | 1083|   160k|    static_cast<    \
  |  | 1084|   160k|        typename ::scn::detail::remove_reference<decltype(x)>::type&&>(x)
  ------------------
 9951|   160k|    }
 9952|   183k|}
_ZNK3scn2v48expectedINS0_6ranges6detail9subrange_8subrangeINSt3__116__deque_iteratorIcPKcRS8_PKS9_lLl4096EEESD_EENS0_10scan_errorEEcvbEv:
 1771|   566k|    {
 1772|   566k|        return has_value();
 1773|   566k|    }
_ZNK3scn2v46detail21expected_storage_baseINS0_6ranges6detail9subrange_8subrangeINSt3__116__deque_iteratorIcPKcRS9_PKSA_lLl4096EEESE_EENS0_10scan_errorELb1EE9has_valueEv:
  522|  1.13M|    {
  523|  1.13M|        return m_has_value;
  524|  1.13M|    }
_ZNR3scn2v48expectedINS0_6ranges6detail9subrange_8subrangeINSt3__116__deque_iteratorIcPKcRS8_PKS9_lLl4096EEESD_EENS0_10scan_errorEE5errorEv:
 1777|  68.7k|    {
 1778|  68.7k|        SCN_EXPECT(!has_value());
  ------------------
  |  | 1079|  68.7k|#define SCN_EXPECT(cond) SCN_ASSERT(cond, "Precondition violation")
  |  |  ------------------
  |  |  |  | 1076|  68.7k|#define SCN_ASSERT(cond, msg) assert((cond) && msg)
  |  |  ------------------
  ------------------
 1779|  68.7k|        return this->get_unexpected().error();
 1780|  68.7k|    }
_ZNR3scn2v46detail21expected_storage_baseINS0_6ranges6detail9subrange_8subrangeINSt3__116__deque_iteratorIcPKcRS9_PKSA_lLl4096EEESE_EENS0_10scan_errorELb1EE14get_unexpectedEv:
  505|  68.7k|    {
  506|  68.7k|        return m_unexpected;
  507|  68.7k|    }
_ZN3scn2v48expectedINS0_11scan_resultINS0_6ranges6detail9subrange_8subrangeINSt3__116__deque_iteratorIcPKcRS9_PKSA_lLl4096EEESE_EEJfEEENS0_10scan_errorEEC2ISH_TnPNS7_9enable_ifIXsr3stdE18is_constructible_vISH_OT_EEvE4typeELPv0ETnPNSK_IXsr3stdE16is_convertible_vISM_SH_EEvE4typeELSQ_0EEEONS0_10unexpectedISL_EE:
 1647|  22.9k|        : base(unexpect, std::move(e.error())),
 1648|  22.9k|          ctor_base(detail::non_default_ctor_tag_t{})
 1649|  22.9k|    {
 1650|  22.9k|    }
_ZN3scn2v46detail21expected_storage_baseINS0_11scan_resultINS0_6ranges6detail9subrange_8subrangeINSt3__116__deque_iteratorIcPKcRSA_PKSB_lLl4096EEESF_EEJfEEENS0_10scan_errorELb1EEC2IJSI_EvEENS0_10unexpect_tEDpOT_:
  482|  22.9k|        : m_unexpected(std::in_place, std::forward<Args>(args)...),
  483|  22.9k|          m_has_value(false)
  484|  22.9k|    {
  485|  22.9k|    }
_ZN3scn2v46detail26expected_default_ctor_baseINS0_11scan_resultINS0_6ranges6detail9subrange_8subrangeINSt3__116__deque_iteratorIcPKcRSA_PKSB_lLl4096EEESF_EEJfEEENS0_10scan_errorELb1EEC2ENS1_22non_default_ctor_tag_tE:
 1347|  22.9k|    {
 1348|  22.9k|    }
_ZN3scn2v48expectedINS0_11scan_resultINS0_6ranges6detail9subrange_8subrangeINSt3__116__deque_iteratorIcPKcRS9_PKSA_lLl4096EEESE_EEJfEEENS0_10scan_errorEEaSEOSI_:
 1588|  22.9k|    constexpr expected& operator=(expected&&) = default;
_ZN3scn2v46detail24expected_operations_baseINS0_11scan_resultINS0_6ranges6detail9subrange_8subrangeINSt3__116__deque_iteratorIcPKcRSA_PKSB_lLl4096EEESF_EEJfEEENS0_10scan_errorEvEaSEOSJ_:
  934|  22.9k|    {
  935|  22.9k|        assign_common(std::move(other));
  936|  22.9k|        return *this;
  937|  22.9k|    }
_ZN3scn2v46detail24expected_operations_baseINS0_11scan_resultINS0_6ranges6detail9subrange_8subrangeINSt3__116__deque_iteratorIcPKcRSA_PKSB_lLl4096EEESF_EEJfEEENS0_10scan_errorEvE13assign_commonISJ_EEvOT_:
  981|  22.9k|    {
  982|  22.9k|        if (this->has_value()) {
  ------------------
  |  Branch (982:13): [True: 22.9k, False: 0]
  ------------------
  983|  22.9k|            if (other.has_value()) {
  ------------------
  |  Branch (983:17): [True: 0, False: 22.9k]
  ------------------
  984|      0|                return reassign_value(std::forward<Other>(other));
  985|      0|            }
  986|  22.9k|            return assign_unexpected_over_value(std::forward<Other>(other));
  987|  22.9k|        }
  988|       |
  989|      0|        if (other.has_value()) {
  ------------------
  |  Branch (989:13): [True: 0, False: 0]
  ------------------
  990|      0|            return assign_value_over_unexpected(std::forward<Other>(other));
  991|      0|        }
  992|      0|        return reassign_unexpected(std::forward<Other>(other));
  993|      0|    }
_ZNK3scn2v46detail21expected_storage_baseINS0_11scan_resultINS0_6ranges6detail9subrange_8subrangeINSt3__116__deque_iteratorIcPKcRSA_PKSB_lLl4096EEESF_EEJfEEENS0_10scan_errorELb1EE9has_valueEv:
  522|   732k|    {
  523|   732k|        return m_has_value;
  524|   732k|    }
_ZNR3scn2v46detail21expected_storage_baseINS0_11scan_resultINS0_6ranges6detail9subrange_8subrangeINSt3__116__deque_iteratorIcPKcRSA_PKSB_lLl4096EEESF_EEJfEEENS0_10scan_errorELb1EE9get_valueEv:
  488|   503k|    {
  489|   503k|        return m_value;
  490|   503k|    }
_ZN3scn2v46detail24expected_operations_baseINS0_11scan_resultINS0_6ranges6detail9subrange_8subrangeINSt3__116__deque_iteratorIcPKcRSA_PKSB_lLl4096EEESF_EEJfEEENS0_10scan_errorEvE28assign_unexpected_over_valueISJ_EEvOT_:
 1077|  22.9k|    {
 1078|  22.9k|        this->destroy_value();
 1079|  22.9k|        this->construct_unexpected(std::forward<Other>(other).get_unexpected());
 1080|  22.9k|    }
_ZN3scn2v46detail21expected_storage_baseINS0_11scan_resultINS0_6ranges6detail9subrange_8subrangeINSt3__116__deque_iteratorIcPKcRSA_PKSB_lLl4096EEESF_EEJfEEENS0_10scan_errorELb1EE13destroy_valueEv:
  543|  22.9k|    static constexpr void destroy_value() noexcept {}
_ZN3scn2v46detail21expected_storage_baseINS0_11scan_resultINS0_6ranges6detail9subrange_8subrangeINSt3__116__deque_iteratorIcPKcRSA_PKSB_lLl4096EEESF_EEJfEEENS0_10scan_errorELb1EE20construct_unexpectedIJNS0_10unexpectedISI_EEEEEvDpOT_:
  536|  22.9k|    {
  537|  22.9k|        scn::detail::construct_at(&get_unexpected(),
  538|  22.9k|                                  std::forward<Args>(args)...);
  539|  22.9k|        m_has_value = false;
  540|  22.9k|    }
_ZNR3scn2v46detail21expected_storage_baseINS0_11scan_resultINS0_6ranges6detail9subrange_8subrangeINSt3__116__deque_iteratorIcPKcRSA_PKSB_lLl4096EEESF_EEJfEEENS0_10scan_errorELb1EE14get_unexpectedEv:
  505|  22.9k|    {
  506|  22.9k|        return m_unexpected;
  507|  22.9k|    }
_ZNO3scn2v46detail21expected_storage_baseINS0_11scan_resultINS0_6ranges6detail9subrange_8subrangeINSt3__116__deque_iteratorIcPKcRSA_PKSB_lLl4096EEESF_EEJfEEENS0_10scan_errorELb1EE14get_unexpectedEv:
  513|  22.9k|    {
  514|  22.9k|        return std::move(m_unexpected);
  515|  22.9k|    }
_ZN3scn2v46detail25scan_result_range_storageINS0_6ranges6detail9subrange_8subrangeINSt3__116__deque_iteratorIcPKcRS9_PKSA_lLl4096EEESE_EEE9set_rangeISF_EEvOT_:
 6649|   497k|    {
 6650|   497k|        m_range = std::forward<Other>(r);
 6651|   497k|    }
_ZNR3scn2v48expectedINS0_6ranges6detail9subrange_8subrangeINSt3__116__deque_iteratorIcPKcRS8_PKS9_lLl4096EEESD_EENS0_10scan_errorEEdeISE_TnPNS6_9enable_ifIXntsr3stdE9is_void_vIT_EEvE4typeELPv0EEERSJ_v:
 1826|   497k|    {
 1827|   497k|        return value();
 1828|   497k|    }
_ZNR3scn2v48expectedINS0_6ranges6detail9subrange_8subrangeINSt3__116__deque_iteratorIcPKcRS8_PKS9_lLl4096EEESD_EENS0_10scan_errorEE5valueISE_TnPNS6_9enable_ifIXntsr3stdE9is_void_vIT_EEvE4typeELPv0EEERSJ_v:
 1800|   497k|    {
 1801|   497k|        SCN_EXPECT(has_value());
  ------------------
  |  | 1079|   497k|#define SCN_EXPECT(cond) SCN_ASSERT(cond, "Precondition violation")
  |  |  ------------------
  |  |  |  | 1076|   497k|#define SCN_ASSERT(cond, msg) assert((cond) && msg)
  |  |  ------------------
  ------------------
 1802|   497k|        return this->get_value();
 1803|   497k|    }
_ZNR3scn2v46detail21expected_storage_baseINS0_6ranges6detail9subrange_8subrangeINSt3__116__deque_iteratorIcPKcRS9_PKSA_lLl4096EEESE_EENS0_10scan_errorELb1EE9get_valueEv:
  488|   497k|    {
  489|   497k|        return m_value;
  490|   497k|    }
_ZN3scn2v45vscanINS0_6ranges6detail9subrange_8subrangeINSt3__116__deque_iteratorIcPKcRS8_PKS9_lLl4096EEESD_EEEENS0_13scan_expectedINS6_11conditionalIXsr3stdE9is_same_vIu11__remove_cvIu20__remove_reference_tIT_EEP8_IO_FILEEESL_NS0_6detail22borrowed_tail_subrangeISH_Xsr6rangesE14borrowed_rangeISH_EEE4typeEE4typeEEEOSH_NS6_17basic_string_viewIcNS6_11char_traitsIcEEEENS0_15basic_scan_argsINS0_18basic_scan_contextINSM_16buffer_range_tagEcEEEE:
 9766|   257k|{
 9767|   257k|    return detail::vscan_generic(SCN_FWD(source), format, args);
  ------------------
  |  | 1085|   257k|#define SCN_FWD(x)          static_cast<decltype(x)&&>(x)
  ------------------
 9768|   257k|}
_ZN3scn2v46detail13vscan_genericINS0_6ranges6detail9subrange_8subrangeINSt3__116__deque_iteratorIcPKcRS9_PKSA_lLl4096EEESE_EEcEENS0_13scan_expectedINS7_11conditionalIXsr3stdE9is_same_vIu11__remove_cvIu20__remove_reference_tIT_EEP8_IO_FILEEESM_NS1_22borrowed_tail_subrangeISI_Xsr6rangesE14borrowed_rangeISI_EEE4typeEE4typeEEEOSI_NS7_17basic_string_viewIT0_NS7_11char_traitsISV_EEEENS0_15basic_scan_argsINS0_18basic_scan_contextINS1_16buffer_range_tagESV_EEEE:
 9703|   257k|{
 9704|   257k|    auto buffer = make_scan_buffer(range);
 9705|       |
 9706|   257k|    auto result = vscan_impl(buffer, format, args);
 9707|   257k|    if (SCN_UNLIKELY(!result)) {
  ------------------
  |  | 1014|   257k|#define SCN_UNLIKELY(x) __builtin_expect(!!(x), 0)
  |  |  ------------------
  |  |  |  Branch (1014:25): [True: 31.7k, False: 225k]
  |  |  ------------------
  ------------------
 9708|  31.7k|        return unexpected(result.error());
 9709|  31.7k|    }
 9710|   225k|    return make_vscan_result_range(SCN_FWD(range), *result);
  ------------------
  |  | 1085|   225k|#define SCN_FWD(x)          static_cast<decltype(x)&&>(x)
  ------------------
 9711|   257k|}
_ZN3scn2v46detail16make_scan_bufferINS0_6ranges6detail9subrange_8subrangeINSt3__116__deque_iteratorIcPKcRS9_PKSA_lLl4096EEESE_EEEEDaRKT_:
 5465|   566k|{
 5466|   566k|    using T = decltype(_make_scan_buffer::impl(range, priority_tag<4>{}));
 5467|       |
 5468|   566k|    static_assert(!std::is_same_v<T, invalid_char_type>,
 5469|   566k|                  "\n"
 5470|   566k|                  "Unsupported range type given as input to a scanning "
 5471|   566k|                  "function.\n"
 5472|   566k|                  "A range needs to have a character type (value type) "
 5473|   566k|                  "of either `char` or `wchar_t` to be scannable.\n"
 5474|   566k|                  "For proper `wchar_t` support, <scn/xchar.h> needs "
 5475|   566k|                  "to be included.\n"
 5476|   566k|                  "See the scnlib documentation for more details.");
 5477|   566k|    static_assert(
 5478|   566k|        !std::is_same_v<T, custom_char_traits>,
 5479|   566k|        "\n"
 5480|   566k|        "Unsupported range type given as input to a scanning "
 5481|   566k|        "function.\n"
 5482|   566k|        "String types (std::basic_string, and std::basic_string_view) "
 5483|   566k|        "need to use std::char_traits. Strings with custom Traits are "
 5484|   566k|        "not supported.");
 5485|   566k|    static_assert(!std::is_same_v<T, file_marker_found>,
 5486|   566k|                  "\n"
 5487|   566k|                  "Unsupported range type given as input to a scanning "
 5488|   566k|                  "function.\n"
 5489|   566k|                  "file_marker_found cannot be used as an "
 5490|   566k|                  "source range type to scn::scan.\n"
 5491|   566k|                  "To read from stdin, use scn::input or scn::prompt, "
 5492|   566k|                  "and do not provide an explicit source range, "
 5493|   566k|                  "or use scn::scan with a FILE* directly.");
 5494|   566k|    static_assert(!std::is_same_v<T, insufficient_range>,
 5495|   566k|                  "\n"
 5496|   566k|                  "Unsupported range type given as input to a scanning "
 5497|   566k|                  "function.\n"
 5498|   566k|                  "In order to be scannable, a range needs to satisfy "
 5499|   566k|                  "`forward_range`. `input_range` is not sufficient.");
 5500|   566k|    static_assert(!std::is_same_v<T, invalid_input_range>,
 5501|   566k|                  "\n"
 5502|   566k|                  "Unsupported range type given as input to a scanning "
 5503|   566k|                  "function.\n"
 5504|   566k|                  "A range needs to model forward_range and have a valid "
 5505|   566k|                  "character type (char or wchar_t) to be scannable.\n"
 5506|   566k|                  "Examples of scannable ranges are std::string, "
 5507|   566k|                  "std::string_view, "
 5508|   566k|                  "std::vector<char>, and scn::istreambuf_view.\n"
 5509|   566k|                  "See the scnlib documentation for more details.");
 5510|       |
 5511|   566k|    return _make_scan_buffer::impl(range, priority_tag<4>{});
 5512|   566k|}
_ZN3scn2v46detail17_make_scan_buffer4implINS0_6ranges6detail9subrange_8subrangeINSt3__116__deque_iteratorIcPKcRSA_PKSB_lLl4096EEESF_EEEEDaRKT_NS1_12priority_tagILm0EEE:
 5435|   566k|{
 5436|       |    if constexpr (std::is_same_v<Range, file_marker>) {
 5437|       |        return file_marker_found{};
 5438|       |    }
 5439|       |    else if constexpr (!ranges::forward_range<Range>) {
 5440|       |        if constexpr (ranges::range<Range>) {
 5441|       |            return insufficient_range{};
 5442|       |        }
 5443|       |        else {
 5444|       |            return invalid_input_range{};
 5445|       |        }
 5446|       |    }
 5447|       |    else if constexpr (!is_valid_char_type<detail::char_t<Range>>) {
 5448|       |        return invalid_char_type{};
 5449|       |    }
 5450|   566k|    else {
 5451|   566k|        return make_forward_scan_buffer(r);
 5452|   566k|    }
 5453|   566k|}
_ZN3scn2v46detail24make_forward_scan_bufferINS0_6ranges6detail9subrange_8subrangeINSt3__116__deque_iteratorIcPKcRS9_PKSA_lLl4096EEESE_EEEEDaRKT_:
 5268|   566k|{
 5269|   566k|    return basic_scan_forward_buffer_impl(range);
 5270|   566k|}
_ZN3scn2v46detail30basic_scan_forward_buffer_implINS0_6ranges6detail9subrange_8subrangeINSt3__116__deque_iteratorIcPKcRS9_PKSA_lLl4096EEESE_EEEC2IRKSF_TnPNS7_9enable_ifIXaa11is_not_selfIT_SG_Esr3stdE16is_convertible_vISL_SJ_EEvE4typeELPv0EEEOSL_:
 4828|   566k|        : m_range(std::addressof(static_cast<const Range&>(SCN_FWD(r)))),
  ------------------
  |  | 1085|   566k|#define SCN_FWD(x)          static_cast<decltype(x)&&>(x)
  ------------------
 4829|   566k|          m_cursor(ranges::begin(*m_range))
 4830|   566k|    {
 4831|   566k|    }
_ZN3scn2v46detail30basic_scan_forward_buffer_baseIcEC2Ev:
 4800|   566k|    basic_scan_forward_buffer_base() : base(typename base::non_contiguous_tag{})
 4801|   566k|    {
 4802|   566k|    }
_ZN3scn2v46detail17basic_scan_bufferIcEC2ENS3_18non_contiguous_tagENSt3__117basic_string_viewIcNS5_11char_traitsIcEEEE:
 4491|   566k|        : m_current_view(sv), m_is_contiguous(false)
 4492|   566k|    {
 4493|   566k|    }
_ZN3scn2v46detail17basic_scan_bufferIcED2Ev:
 4396|   566k|    virtual ~basic_scan_buffer() = default;
_ZNK3scn2v46ranges6detail6begin_2fnclIRKNS2_9subrange_8subrangeINSt3__116__deque_iteratorIcPKcRSA_PKSB_lLl4096EEESF_EEEEDTclsr2fnE4implscDtfp_Efp_tlNS0_6detail12priority_tagILm3EEEEEEOT_:
 2900|  1.06M|    {
 2901|  1.06M|        return fn::impl(SCN_FWD(t), priority_tag<3>{});
  ------------------
  |  | 1085|  1.06M|#define SCN_FWD(x)          static_cast<decltype(x)&&>(x)
  ------------------
 2902|  1.06M|    }
_ZN3scn2v46ranges6detail6begin_2fn4implIRKNS2_9subrange_8subrangeINSt3__116__deque_iteratorIcPKcRSA_PKSB_lLl4096EEESF_EEEENS8_9enable_ifIX24input_or_output_iteratorIDTcl10decay_copycldtscDtfp_Efp_5beginEEEEESL_E4typeEOT_NS0_6detail12priority_tagILm1EEE:
 2881|  1.06M|    {
 2882|  1.06M|        return decay_copy(t.begin());
 2883|  1.06M|    }
_ZNK3scn2v46ranges6detail9subrange_8subrangeINSt3__116__deque_iteratorIcPKcRS7_PKS8_lLl4096EEESC_E5beginEv:
 3512|  1.56M|    {
 3513|  1.56M|        return m_iterator;
 3514|  1.56M|    }
_ZN3scn2v46detail30basic_scan_forward_buffer_implINS0_6ranges6detail9subrange_8subrangeINSt3__116__deque_iteratorIcPKcRS9_PKSA_lLl4096EEESE_EEE4fillEv:
 4834|  5.16M|    {
 4835|  5.16M|        if (m_cursor == ranges::end(*m_range)) {
  ------------------
  |  Branch (4835:13): [True: 182k, False: 4.98M]
  ------------------
 4836|   182k|            return false;
 4837|   182k|        }
 4838|  4.98M|        if constexpr (mp_valid_v<less_than_compare, iterator, sentinel>) {
 4839|  4.98M|            SCN_EXPECT(m_cursor < ranges::end(*m_range));
  ------------------
  |  | 1079|  4.98M|#define SCN_EXPECT(cond) SCN_ASSERT(cond, "Precondition violation")
  |  |  ------------------
  |  |  |  | 1076|  4.98M|#define SCN_ASSERT(cond, msg) assert((cond) && msg)
  |  |  ------------------
  ------------------
 4840|  4.98M|        }
 4841|  4.98M|        if (!this->m_current_view.empty()) {
  ------------------
  |  Branch (4841:13): [True: 4.42M, False: 559k]
  ------------------
 4842|  4.42M|            this->m_putback_buffer.insert(this->m_putback_buffer.end(),
 4843|  4.42M|                                          this->m_current_view.begin(),
 4844|  4.42M|                                          this->m_current_view.end());
 4845|  4.42M|        }
 4846|  4.98M|        m_latest = *m_cursor;
 4847|  4.98M|        ++m_cursor;
 4848|  4.98M|        this->m_current_view = std::basic_string_view<char_type>{&m_latest, 1};
 4849|  4.98M|        if constexpr (mp_valid_v<less_than_compare, iterator, sentinel>) {
 4850|  4.98M|            SCN_EXPECT(m_cursor <= ranges::end(*m_range));
  ------------------
  |  | 1079|  4.98M|#define SCN_EXPECT(cond) SCN_ASSERT(cond, "Precondition violation")
  |  |  ------------------
  |  |  |  | 1076|  4.98M|#define SCN_ASSERT(cond, msg) assert((cond) && msg)
  |  |  ------------------
  ------------------
 4851|  4.98M|        }
 4852|  4.98M|        return true;
 4853|  5.16M|    }
_ZNK3scn2v46ranges6detail4end_2fnclIRKNS2_9subrange_8subrangeINSt3__116__deque_iteratorIcPKcRSA_PKSB_lLl4096EEESF_EEEEDTclsr2fnE4implscDtfp_Efp_tlNS0_6detail12priority_tagILm3EEEEEEOT_:
 2957|  15.1M|    {
 2958|  15.1M|        return fn::impl(SCN_FWD(t), priority_tag<3>{});
  ------------------
  |  | 1085|  15.1M|#define SCN_FWD(x)          static_cast<decltype(x)&&>(x)
  ------------------
 2959|  15.1M|    }
_ZN3scn2v46ranges6detail4end_2fn4implIRKNS2_9subrange_8subrangeINSt3__116__deque_iteratorIcPKcRSA_PKSB_lLl4096EEESF_EESF_SF_EENS8_9enable_ifIX12sentinel_forIT0_T1_EEDTcl10decay_copycldtscDtfp_Efp_3endEEEE4typeEOT_NS0_6detail12priority_tagILm1EEE:
 2939|  15.1M|    {
 2940|  15.1M|        return decay_copy(SCN_FWD(t).end());
  ------------------
  |  | 1085|  15.1M|#define SCN_FWD(x)          static_cast<decltype(x)&&>(x)
  ------------------
 2941|  15.1M|    }
_ZNK3scn2v46ranges6detail9subrange_8subrangeINSt3__116__deque_iteratorIcPKcRS7_PKS8_lLl4096EEESC_E3endEv:
 3517|  15.6M|    {
 3518|  15.6M|        return m_sentinel;
 3519|  15.6M|    }
_ZN3scn2v46detail17basic_scan_bufferIcE4syncEl:
 4401|   566k|    {
 4402|   566k|        SCN_UNUSED(position);
  ------------------
  |  | 1064|   566k|#define SCN_UNUSED(x) static_cast<void>(sizeof(x))
  ------------------
 4403|   566k|        return true;
 4404|   566k|    }
_ZN3scn2v48expectedINS0_6ranges6detail9subrange_8subrangeINSt3__116__deque_iteratorIcPKcRS8_PKS9_lLl4096EEESD_EENS0_10scan_errorEEC2ISF_TnPNS6_9enable_ifIXsr3stdE18is_constructible_vISF_OT_EEvE4typeELPv0ETnPNSI_IXsr3stdE16is_convertible_vISK_SF_EEvE4typeELSO_0EEEONS0_10unexpectedISJ_EE:
 1647|  68.7k|        : base(unexpect, std::move(e.error())),
 1648|  68.7k|          ctor_base(detail::non_default_ctor_tag_t{})
 1649|  68.7k|    {
 1650|  68.7k|    }
_ZN3scn2v46detail21expected_storage_baseINS0_6ranges6detail9subrange_8subrangeINSt3__116__deque_iteratorIcPKcRS9_PKSA_lLl4096EEESE_EENS0_10scan_errorELb1EEC2IJSG_EvEENS0_10unexpect_tEDpOT_:
  482|  68.7k|        : m_unexpected(std::in_place, std::forward<Args>(args)...),
  483|  68.7k|          m_has_value(false)
  484|  68.7k|    {
  485|  68.7k|    }
_ZN3scn2v46detail26expected_default_ctor_baseINS0_6ranges6detail9subrange_8subrangeINSt3__116__deque_iteratorIcPKcRS9_PKSA_lLl4096EEESE_EENS0_10scan_errorELb1EEC2ENS1_22non_default_ctor_tag_tE:
 1347|   566k|    {
 1348|   566k|    }
_ZN3scn2v46detail23make_vscan_result_rangeINS0_6ranges6detail9subrange_8subrangeINSt3__116__deque_iteratorIcPKcRS9_PKSA_lLl4096EEESE_EEEENS1_22borrowed_tail_subrangeIT_Xsr6rangesE14borrowed_rangeISH_EEE4typeEOSH_l:
 6879|   497k|{
 6880|       |    if constexpr (ranges::random_access_iterator<
 6881|   497k|                      ranges::iterator_t<SourceRange>>) {
 6882|   497k|        return {ranges::begin(source) + n, make_vscan_result_range_end(source)};
 6883|       |    }
 6884|       |    else {
 6885|       |        auto it = ranges::begin(source);
 6886|       |        while (n > 0) {
 6887|       |            --n;
 6888|       |            ++it;
 6889|       |        }
 6890|       |        return {SCN_MOVE(it), make_vscan_result_range_end(source)};
 6891|       |    }
 6892|   497k|}
_ZNK3scn2v46ranges6detail6begin_2fnclIRNS2_9subrange_8subrangeINSt3__116__deque_iteratorIcPKcRSA_PKSB_lLl4096EEESF_EEEEDTclsr2fnE4implscDtfp_Efp_tlNS0_6detail12priority_tagILm3EEEEEEOT_:
 2900|   497k|    {
 2901|   497k|        return fn::impl(SCN_FWD(t), priority_tag<3>{});
  ------------------
  |  | 1085|   497k|#define SCN_FWD(x)          static_cast<decltype(x)&&>(x)
  ------------------
 2902|   497k|    }
_ZN3scn2v46ranges6detail6begin_2fn4implIRNS2_9subrange_8subrangeINSt3__116__deque_iteratorIcPKcRSA_PKSB_lLl4096EEESF_EEEENS8_9enable_ifIX24input_or_output_iteratorIDTcl10decay_copycldtscDtfp_Efp_5beginEEEEESK_E4typeEOT_NS0_6detail12priority_tagILm1EEE:
 2881|   497k|    {
 2882|   497k|        return decay_copy(t.begin());
 2883|   497k|    }
_ZN3scn2v46detail27make_vscan_result_range_endINS0_6ranges6detail9subrange_8subrangeINSt3__116__deque_iteratorIcPKcRS9_PKSA_lLl4096EEESE_EEEEDaRT_:
 6866|   497k|{
 6867|   497k|    return ranges::end(source);
 6868|   497k|}
_ZNK3scn2v46ranges6detail4end_2fnclIRNS2_9subrange_8subrangeINSt3__116__deque_iteratorIcPKcRSA_PKSB_lLl4096EEESF_EEEEDTclsr2fnE4implscDtfp_Efp_tlNS0_6detail12priority_tagILm3EEEEEEOT_:
 2957|   497k|    {
 2958|   497k|        return fn::impl(SCN_FWD(t), priority_tag<3>{});
  ------------------
  |  | 1085|   497k|#define SCN_FWD(x)          static_cast<decltype(x)&&>(x)
  ------------------
 2959|   497k|    }
_ZN3scn2v46ranges6detail4end_2fn4implIRNS2_9subrange_8subrangeINSt3__116__deque_iteratorIcPKcRSA_PKSB_lLl4096EEESF_EESF_SF_EENS8_9enable_ifIX12sentinel_forIT0_T1_EEDTcl10decay_copycldtscDtfp_Efp_3endEEEE4typeEOT_NS0_6detail12priority_tagILm1EEE:
 2939|   497k|    {
 2940|   497k|        return decay_copy(SCN_FWD(t).end());
  ------------------
  |  | 1085|   497k|#define SCN_FWD(x)          static_cast<decltype(x)&&>(x)
  ------------------
 2941|   497k|    }
_ZN3scn2v48expectedINS0_6ranges6detail9subrange_8subrangeINSt3__116__deque_iteratorIcPKcRS8_PKS9_lLl4096EEESD_EENS0_10scan_errorEEC2ISE_vEEOT_:
 1601|   497k|        : base(std::in_place, std::forward<U>(val)),
 1602|   497k|          ctor_base(detail::non_default_ctor_tag_t{})
 1603|   497k|    {
 1604|   497k|    }
_ZN3scn2v46detail21expected_storage_baseINS0_6ranges6detail9subrange_8subrangeINSt3__116__deque_iteratorIcPKcRS9_PKSA_lLl4096EEESE_EENS0_10scan_errorELb1EEC2IJSF_EvEENS7_10in_place_tEDpOT_:
  473|   497k|        : m_value(std::forward<Args>(args)...), m_has_value(true)
  474|   497k|    {
  475|   497k|    }
_ZNK3scn2v424basic_scan_format_stringIcNS0_6ranges6detail9subrange_8subrangeINSt3__116__deque_iteratorIcPKcRS8_PKS9_lLl4096EEESD_EEJfEEcvNS6_17basic_string_viewIcNS6_11char_traitsIcEEEEEv:
 8962|   166k|    {
 8963|   166k|        return m_str;
 8964|   166k|    }
_ZN3scn2v46ranges6detail9subrange_8subrangeINSt3__116__deque_iteratorIcPKcRS7_PKS8_lLl4096EEESC_EC2ISC_TnPNS5_9enable_ifIXsr3stdE16is_convertible_vIT_SC_EEvE4typeELPv0EEESG_SC_:
 3496|  1.06M|        : m_iterator(SCN_MOVE(i)), m_sentinel(SCN_MOVE(s))
  ------------------
  |  | 1083|  1.06M|    static_cast<    \
  |  | 1084|  1.06M|        typename ::scn::detail::remove_reference<decltype(x)>::type&&>(x)
  ------------------
                      : m_iterator(SCN_MOVE(i)), m_sentinel(SCN_MOVE(s))
  ------------------
  |  | 1083|  1.06M|    static_cast<    \
  |  | 1084|  1.06M|        typename ::scn::detail::remove_reference<decltype(x)>::type&&>(x)
  ------------------
 3497|  1.06M|    {
 3498|  1.06M|    }
_ZN3scn2v424basic_scan_format_stringIcNS0_6ranges6detail9subrange_8subrangeINSt3__116__deque_iteratorIcPKcRS8_PKS9_lLl4096EEESD_EEJfEEC2ENS0_6detail27basic_runtime_format_stringIcEE:
 8957|   166k|        : m_str(r.str)
 8958|   166k|    {
 8959|   166k|    }
_ZNK3scn2v48expectedINS0_11scan_resultINS0_6ranges6detail9subrange_8subrangeINSt3__116__deque_iteratorIcPKcRS9_PKSA_lLl4096EEESE_EEJfEEENS0_10scan_errorEEcvbEv:
 1771|   183k|    {
 1772|   183k|        return has_value();
 1773|   183k|    }
_ZN3scn2v48expectedINS0_11scan_resultINS0_6ranges6detail9subrange_8subrangeINSt3__116__deque_iteratorIcPKcRS9_PKSA_lLl4096EEESE_EEJfEEENS0_10scan_errorEEptEv:
 1846|   503k|    {
 1847|   503k|        return &value();
 1848|   503k|    }
_ZNR3scn2v48expectedINS0_11scan_resultINS0_6ranges6detail9subrange_8subrangeINSt3__116__deque_iteratorIcPKcRS9_PKSA_lLl4096EEESE_EEJfEEENS0_10scan_errorEE5valueISG_TnPNS7_9enable_ifIXntsr3stdE9is_void_vIT_EEvE4typeELPv0EEERSL_v:
 1800|   503k|    {
 1801|   503k|        SCN_EXPECT(has_value());
  ------------------
  |  | 1079|   503k|#define SCN_EXPECT(cond) SCN_ASSERT(cond, "Precondition violation")
  |  |  ------------------
  |  |  |  | 1076|   503k|#define SCN_ASSERT(cond, msg) assert((cond) && msg)
  |  |  ------------------
  ------------------
 1802|   503k|        return this->get_value();
 1803|   503k|    }
_ZNK3scn2v46detail25scan_result_range_storageINS0_6ranges6detail9subrange_8subrangeINSt3__116__deque_iteratorIcPKcRS9_PKSA_lLl4096EEESE_EEE5beginEv:
 6638|   497k|    {
 6639|   497k|        return ranges::begin(m_range);
 6640|   497k|    }
_ZN3scn2v44scanIJfENSt3__16localeENS0_6ranges6detail9subrange_8subrangeINS2_16__deque_iteratorIcPKcRS9_PKSA_lLl4096EEESE_EEvvEENS0_13scan_expectedINS0_11scan_resultINS2_11conditionalIXsr3stdE9is_same_vIu11__remove_cvIu20__remove_reference_tIT1_EEP8_IO_FILEEESN_NS0_6detail22borrowed_tail_subrangeISJ_Xsr6rangesE14borrowed_rangeISJ_EEE4typeEE4typeEJDpT_EEEEERKT0_OSJ_NS0_24basic_scan_format_stringIcNSO_13type_identityISJ_E4typeEJDpNS13_ISU_E4typeEEEE:
10073|  83.1k|{
10074|  83.1k|    auto result = make_scan_result<Source, Args...>();
10075|  83.1k|    fill_scan_result(result, vscan(loc, SCN_FWD(source), format,
  ------------------
  |  | 1085|  83.1k|#define SCN_FWD(x)          static_cast<decltype(x)&&>(x)
  ------------------
10076|  83.1k|                                   make_scan_args(result->values())));
10077|  83.1k|    return result;
10078|  83.1k|}
_ZN3scn2v45vscanINS0_6ranges6detail9subrange_8subrangeINSt3__116__deque_iteratorIcPKcRS8_PKS9_lLl4096EEESD_EENS6_6localeEvEENS0_13scan_expectedINS6_11conditionalIXsr3stdE9is_same_vIu11__remove_cvIu20__remove_reference_tIT_EEP8_IO_FILEEESM_NS0_6detail22borrowed_tail_subrangeISI_Xsr6rangesE14borrowed_rangeISI_EEE4typeEE4typeEEERKT0_OSI_NS6_17basic_string_viewIcNS6_11char_traitsIcEEEENS0_15basic_scan_argsINS0_18basic_scan_contextINSN_16buffer_range_tagEcEEEE:
 9784|   257k|{
 9785|   257k|    return detail::vscan_localized_generic(loc, SCN_FWD(source), format, args);
  ------------------
  |  | 1085|   257k|#define SCN_FWD(x)          static_cast<decltype(x)&&>(x)
  ------------------
 9786|   257k|}
_ZN3scn2v46detail23vscan_localized_genericINSt3__16localeENS0_6ranges6detail9subrange_8subrangeINS3_16__deque_iteratorIcPKcRSA_PKSB_lLl4096EEESF_EEcEENS0_13scan_expectedINS3_11conditionalIXsr3stdE9is_same_vIu11__remove_cvIu20__remove_reference_tIT0_EEP8_IO_FILEEESN_NS1_22borrowed_tail_subrangeISJ_Xsr6rangesE14borrowed_rangeISJ_EEE4typeEE4typeEEERKT_OSJ_NS3_17basic_string_viewIT1_NS3_11char_traitsISZ_EEEENS0_15basic_scan_argsINS0_18basic_scan_contextINS1_16buffer_range_tagESZ_EEEE:
 9719|   257k|{
 9720|   257k|#if !SCN_DISABLE_LOCALE
 9721|   257k|    auto buffer = detail::make_scan_buffer(range);
 9722|       |
 9723|   257k|    SCN_CLANG_PUSH_IGNORE_UNDEFINED_TEMPLATE
 9724|   257k|    auto result = detail::vscan_localized_impl(loc, buffer, format, args);
 9725|   257k|    SCN_CLANG_POP_IGNORE_UNDEFINED_TEMPLATE
 9726|       |
 9727|   257k|    if (SCN_UNLIKELY(!result)) {
  ------------------
  |  | 1014|   257k|#define SCN_UNLIKELY(x) __builtin_expect(!!(x), 0)
  |  |  ------------------
  |  |  |  Branch (1014:25): [True: 31.7k, False: 225k]
  |  |  ------------------
  ------------------
 9728|  31.7k|        return unexpected(result.error());
 9729|  31.7k|    }
 9730|   225k|    return detail::make_vscan_result_range(SCN_FWD(range), *result);
  ------------------
  |  | 1085|   225k|#define SCN_FWD(x)          static_cast<decltype(x)&&>(x)
  ------------------
 9731|       |#else
 9732|       |    static_assert(dependent_false<Locale>::value,
 9733|       |                  "Can't use scan(locale, ...) with SCN_DISABLE_LOCALE on");
 9734|       |
 9735|       |    return {};
 9736|       |#endif
 9737|   257k|}
_ZN3scn2v410scan_valueIfNS0_6ranges6detail9subrange_8subrangeINSt3__116__deque_iteratorIcPKcRS8_PKS9_lLl4096EEESD_EEvEENS0_13scan_expectedINS0_11scan_resultINS6_11conditionalIXsr3stdE9is_same_vIu11__remove_cvIu20__remove_reference_tIT0_EEP8_IO_FILEEESM_NS0_6detail22borrowed_tail_subrangeISI_Xsr6rangesE14borrowed_rangeISI_EEE4typeEE4typeEJT_EEEEEOSI_:
10114|  16.7k|{
10115|  16.7k|    auto result = make_scan_result<Source, T>();
10116|  16.7k|    fill_scan_result(
10117|  16.7k|        result, vscan_value(SCN_FWD(source),
  ------------------
  |  | 1085|  16.7k|#define SCN_FWD(x)          static_cast<decltype(x)&&>(x)
  ------------------
10118|  16.7k|                            detail::make_arg<scan_context>(result->value())));
10119|  16.7k|    return result;
10120|  16.7k|}
_ZN3scn2v411vscan_valueINS0_6ranges6detail9subrange_8subrangeINSt3__116__deque_iteratorIcPKcRS8_PKS9_lLl4096EEESD_EEEENS0_13scan_expectedINS6_11conditionalIXsr3stdE9is_same_vIu11__remove_cvIu20__remove_reference_tIT_EEP8_IO_FILEEESL_NS0_6detail22borrowed_tail_subrangeISH_Xsr6rangesE14borrowed_rangeISH_EEE4typeEE4typeEEEOSH_NS0_14basic_scan_argINS0_18basic_scan_contextINSM_16buffer_range_tagEcEEEE:
 9797|  52.0k|{
 9798|  52.0k|    return detail::vscan_value_generic(SCN_FWD(source), arg);
  ------------------
  |  | 1085|  52.0k|#define SCN_FWD(x)          static_cast<decltype(x)&&>(x)
  ------------------
 9799|  52.0k|}
_ZN3scn2v46detail19vscan_value_genericINS0_6ranges6detail9subrange_8subrangeINSt3__116__deque_iteratorIcPKcRS9_PKSA_lLl4096EEESE_EEcEENS0_13scan_expectedINS7_11conditionalIXsr3stdE9is_same_vIu11__remove_cvIu20__remove_reference_tIT_EEP8_IO_FILEEESM_NS1_22borrowed_tail_subrangeISI_Xsr6rangesE14borrowed_rangeISI_EEE4typeEE4typeEEEOSI_NS0_14basic_scan_argINS0_18basic_scan_contextINS1_16buffer_range_tagET0_EEEE:
 9743|  52.0k|{
 9744|  52.0k|    auto buffer = detail::make_scan_buffer(range);
 9745|       |
 9746|  52.0k|    auto result = detail::vscan_value_impl(buffer, arg);
 9747|  52.0k|    if (SCN_UNLIKELY(!result)) {
  ------------------
  |  | 1014|  52.0k|#define SCN_UNLIKELY(x) __builtin_expect(!!(x), 0)
  |  |  ------------------
  |  |  |  Branch (1014:25): [True: 5.29k, False: 46.7k]
  |  |  ------------------
  ------------------
 9748|  5.29k|        return unexpected(result.error());
 9749|  5.29k|    }
 9750|  46.7k|    return detail::make_vscan_result_range(SCN_FWD(range), *result);
  ------------------
  |  | 1085|  46.7k|#define SCN_FWD(x)          static_cast<decltype(x)&&>(x)
  ------------------
 9751|  52.0k|}
_ZN3scn2v44scanIJdENS0_6ranges6detail9subrange_8subrangeINSt3__116__deque_iteratorIcPKcRS8_PKS9_lLl4096EEESD_EEvEENS0_13scan_expectedINS0_11scan_resultINS6_11conditionalIXsr3stdE9is_same_vIu11__remove_cvIu20__remove_reference_tIT0_EEP8_IO_FILEEESM_NS0_6detail22borrowed_tail_subrangeISI_Xsr6rangesE14borrowed_rangeISI_EEE4typeEE4typeEJDpT_EEEEEOSI_NS0_24basic_scan_format_stringIcNSN_13type_identityISI_E4typeEJDpNSZ_IST_E4typeEEEE:
10004|  86.3k|{
10005|  86.3k|    auto result = make_scan_result<Source, Args...>();
10006|  86.3k|    fill_scan_result(result, vscan(SCN_FWD(source), format,
  ------------------
  |  | 1085|  86.3k|#define SCN_FWD(x)          static_cast<decltype(x)&&>(x)
  ------------------
10007|  86.3k|                                   make_scan_args(result->values())));
10008|  86.3k|    return result;
10009|  86.3k|}
_ZN3scn2v416make_scan_resultINS0_6ranges6detail9subrange_8subrangeINSt3__116__deque_iteratorIcPKcRS8_PKS9_lLl4096EEESD_EEJdEEEDav:
 9960|   190k|{
 9961|   190k|    return scan_result_type<Source, Args...>();
 9962|   190k|}
_ZN3scn2v48expectedINS0_11scan_resultINS0_6ranges6detail9subrange_8subrangeINSt3__116__deque_iteratorIcPKcRS9_PKSA_lLl4096EEESE_EEJdEEENS0_10scan_errorEEC2Ev:
 1583|   190k|    constexpr expected() = default;
_ZN3scn2v46detail21expected_storage_baseINS0_11scan_resultINS0_6ranges6detail9subrange_8subrangeINSt3__116__deque_iteratorIcPKcRSA_PKSB_lLl4096EEESF_EEJdEEENS0_10scan_errorELb1EEC2Ev:
  459|   190k|        : m_value(T{}), m_has_value(true)
  460|   190k|    {
  461|   190k|    }
_ZN3scn2v411scan_resultINS0_6ranges6detail9subrange_8subrangeINSt3__116__deque_iteratorIcPKcRS8_PKS9_lLl4096EEESD_EEJdEEC2Ev:
 6775|   190k|    constexpr scan_result() = default;
_ZN3scn2v416fill_scan_resultINS0_11scan_resultINS0_6ranges6detail9subrange_8subrangeINSt3__116__deque_iteratorIcPKcRS9_PKSA_lLl4096EEESE_EEJdEEESF_TnPNS7_9enable_ifIXsr3stdE13conjunction_vINS0_6detail25is_specialization_of_implIu11__remove_cvIu20__remove_reference_tIT_EES2_EENS7_7is_sameINSK_10range_typeET0_EEEEvE4typeELPv0EEEvRNS0_13scan_expectedISK_EEONSW_ISQ_EE:
 9945|   190k|{
 9946|   190k|    if (SCN_UNLIKELY(!in)) {
  ------------------
  |  | 1014|   190k|#define SCN_UNLIKELY(x) __builtin_expect(!!(x), 0)
  |  |  ------------------
  |  |  |  Branch (1014:25): [True: 22.9k, False: 167k]
  |  |  ------------------
  ------------------
 9947|  22.9k|        out = unexpected(in.error());
 9948|  22.9k|    }
 9949|   167k|    else {
 9950|   167k|        out->set_range(SCN_MOVE(*in));
  ------------------
  |  | 1083|   167k|    static_cast<    \
  |  | 1084|   167k|        typename ::scn::detail::remove_reference<decltype(x)>::type&&>(x)
  ------------------
 9951|   167k|    }
 9952|   190k|}
_ZN3scn2v48expectedINS0_11scan_resultINS0_6ranges6detail9subrange_8subrangeINSt3__116__deque_iteratorIcPKcRS9_PKSA_lLl4096EEESE_EEJdEEENS0_10scan_errorEEC2ISH_TnPNS7_9enable_ifIXsr3stdE18is_constructible_vISH_OT_EEvE4typeELPv0ETnPNSK_IXsr3stdE16is_convertible_vISM_SH_EEvE4typeELSQ_0EEEONS0_10unexpectedISL_EE:
 1647|  22.9k|        : base(unexpect, std::move(e.error())),
 1648|  22.9k|          ctor_base(detail::non_default_ctor_tag_t{})
 1649|  22.9k|    {
 1650|  22.9k|    }
_ZN3scn2v46detail21expected_storage_baseINS0_11scan_resultINS0_6ranges6detail9subrange_8subrangeINSt3__116__deque_iteratorIcPKcRSA_PKSB_lLl4096EEESF_EEJdEEENS0_10scan_errorELb1EEC2IJSI_EvEENS0_10unexpect_tEDpOT_:
  482|  22.9k|        : m_unexpected(std::in_place, std::forward<Args>(args)...),
  483|  22.9k|          m_has_value(false)
  484|  22.9k|    {
  485|  22.9k|    }
_ZN3scn2v46detail26expected_default_ctor_baseINS0_11scan_resultINS0_6ranges6detail9subrange_8subrangeINSt3__116__deque_iteratorIcPKcRSA_PKSB_lLl4096EEESF_EEJdEEENS0_10scan_errorELb1EEC2ENS1_22non_default_ctor_tag_tE:
 1347|  22.9k|    {
 1348|  22.9k|    }
_ZN3scn2v48expectedINS0_11scan_resultINS0_6ranges6detail9subrange_8subrangeINSt3__116__deque_iteratorIcPKcRS9_PKSA_lLl4096EEESE_EEJdEEENS0_10scan_errorEEaSEOSI_:
 1588|  22.9k|    constexpr expected& operator=(expected&&) = default;
_ZN3scn2v46detail24expected_operations_baseINS0_11scan_resultINS0_6ranges6detail9subrange_8subrangeINSt3__116__deque_iteratorIcPKcRSA_PKSB_lLl4096EEESF_EEJdEEENS0_10scan_errorEvEaSEOSJ_:
  934|  22.9k|    {
  935|  22.9k|        assign_common(std::move(other));
  936|  22.9k|        return *this;
  937|  22.9k|    }
_ZN3scn2v46detail24expected_operations_baseINS0_11scan_resultINS0_6ranges6detail9subrange_8subrangeINSt3__116__deque_iteratorIcPKcRSA_PKSB_lLl4096EEESF_EEJdEEENS0_10scan_errorEvE13assign_commonISJ_EEvOT_:
  981|  22.9k|    {
  982|  22.9k|        if (this->has_value()) {
  ------------------
  |  Branch (982:13): [True: 22.9k, False: 0]
  ------------------
  983|  22.9k|            if (other.has_value()) {
  ------------------
  |  Branch (983:17): [True: 0, False: 22.9k]
  ------------------
  984|      0|                return reassign_value(std::forward<Other>(other));
  985|      0|            }
  986|  22.9k|            return assign_unexpected_over_value(std::forward<Other>(other));
  987|  22.9k|        }
  988|       |
  989|      0|        if (other.has_value()) {
  ------------------
  |  Branch (989:13): [True: 0, False: 0]
  ------------------
  990|      0|            return assign_value_over_unexpected(std::forward<Other>(other));
  991|      0|        }
  992|      0|        return reassign_unexpected(std::forward<Other>(other));
  993|      0|    }
_ZNK3scn2v46detail21expected_storage_baseINS0_11scan_resultINS0_6ranges6detail9subrange_8subrangeINSt3__116__deque_iteratorIcPKcRSA_PKSB_lLl4096EEESF_EEJdEEENS0_10scan_errorELb1EE9has_valueEv:
  522|   760k|    {
  523|   760k|        return m_has_value;
  524|   760k|    }
_ZNR3scn2v46detail21expected_storage_baseINS0_11scan_resultINS0_6ranges6detail9subrange_8subrangeINSt3__116__deque_iteratorIcPKcRSA_PKSB_lLl4096EEESF_EEJdEEENS0_10scan_errorELb1EE9get_valueEv:
  488|   524k|    {
  489|   524k|        return m_value;
  490|   524k|    }
_ZN3scn2v46detail24expected_operations_baseINS0_11scan_resultINS0_6ranges6detail9subrange_8subrangeINSt3__116__deque_iteratorIcPKcRSA_PKSB_lLl4096EEESF_EEJdEEENS0_10scan_errorEvE28assign_unexpected_over_valueISJ_EEvOT_:
 1077|  22.9k|    {
 1078|  22.9k|        this->destroy_value();
 1079|  22.9k|        this->construct_unexpected(std::forward<Other>(other).get_unexpected());
 1080|  22.9k|    }
_ZN3scn2v46detail21expected_storage_baseINS0_11scan_resultINS0_6ranges6detail9subrange_8subrangeINSt3__116__deque_iteratorIcPKcRSA_PKSB_lLl4096EEESF_EEJdEEENS0_10scan_errorELb1EE13destroy_valueEv:
  543|  22.9k|    static constexpr void destroy_value() noexcept {}
_ZN3scn2v46detail21expected_storage_baseINS0_11scan_resultINS0_6ranges6detail9subrange_8subrangeINSt3__116__deque_iteratorIcPKcRSA_PKSB_lLl4096EEESF_EEJdEEENS0_10scan_errorELb1EE20construct_unexpectedIJNS0_10unexpectedISI_EEEEEvDpOT_:
  536|  22.9k|    {
  537|  22.9k|        scn::detail::construct_at(&get_unexpected(),
  538|  22.9k|                                  std::forward<Args>(args)...);
  539|  22.9k|        m_has_value = false;
  540|  22.9k|    }
_ZNR3scn2v46detail21expected_storage_baseINS0_11scan_resultINS0_6ranges6detail9subrange_8subrangeINSt3__116__deque_iteratorIcPKcRSA_PKSB_lLl4096EEESF_EEJdEEENS0_10scan_errorELb1EE14get_unexpectedEv:
  505|  22.9k|    {
  506|  22.9k|        return m_unexpected;
  507|  22.9k|    }
_ZNO3scn2v46detail21expected_storage_baseINS0_11scan_resultINS0_6ranges6detail9subrange_8subrangeINSt3__116__deque_iteratorIcPKcRSA_PKSB_lLl4096EEESF_EEJdEEENS0_10scan_errorELb1EE14get_unexpectedEv:
  513|  22.9k|    {
  514|  22.9k|        return std::move(m_unexpected);
  515|  22.9k|    }
_ZNK3scn2v424basic_scan_format_stringIcNS0_6ranges6detail9subrange_8subrangeINSt3__116__deque_iteratorIcPKcRS8_PKS9_lLl4096EEESD_EEJdEEcvNS6_17basic_string_viewIcNS6_11char_traitsIcEEEEEv:
 8962|   172k|    {
 8963|   172k|        return m_str;
 8964|   172k|    }
_ZN3scn2v424basic_scan_format_stringIcNS0_6ranges6detail9subrange_8subrangeINSt3__116__deque_iteratorIcPKcRS8_PKS9_lLl4096EEESD_EEJdEEC2ENS0_6detail27basic_runtime_format_stringIcEE:
 8957|   172k|        : m_str(r.str)
 8958|   172k|    {
 8959|   172k|    }
_ZNK3scn2v48expectedINS0_11scan_resultINS0_6ranges6detail9subrange_8subrangeINSt3__116__deque_iteratorIcPKcRS9_PKSA_lLl4096EEESE_EEJdEEENS0_10scan_errorEEcvbEv:
 1771|   190k|    {
 1772|   190k|        return has_value();
 1773|   190k|    }
_ZN3scn2v48expectedINS0_11scan_resultINS0_6ranges6detail9subrange_8subrangeINSt3__116__deque_iteratorIcPKcRS9_PKSA_lLl4096EEESE_EEJdEEENS0_10scan_errorEEptEv:
 1846|   524k|    {
 1847|   524k|        return &value();
 1848|   524k|    }
_ZNR3scn2v48expectedINS0_11scan_resultINS0_6ranges6detail9subrange_8subrangeINSt3__116__deque_iteratorIcPKcRS9_PKSA_lLl4096EEESE_EEJdEEENS0_10scan_errorEE5valueISG_TnPNS7_9enable_ifIXntsr3stdE9is_void_vIT_EEvE4typeELPv0EEERSL_v:
 1800|   524k|    {
 1801|   524k|        SCN_EXPECT(has_value());
  ------------------
  |  | 1079|   524k|#define SCN_EXPECT(cond) SCN_ASSERT(cond, "Precondition violation")
  |  |  ------------------
  |  |  |  | 1076|   524k|#define SCN_ASSERT(cond, msg) assert((cond) && msg)
  |  |  ------------------
  ------------------
 1802|   524k|        return this->get_value();
 1803|   524k|    }
_ZN3scn2v44scanIJdENSt3__16localeENS0_6ranges6detail9subrange_8subrangeINS2_16__deque_iteratorIcPKcRS9_PKSA_lLl4096EEESE_EEvvEENS0_13scan_expectedINS0_11scan_resultINS2_11conditionalIXsr3stdE9is_same_vIu11__remove_cvIu20__remove_reference_tIT1_EEP8_IO_FILEEESN_NS0_6detail22borrowed_tail_subrangeISJ_Xsr6rangesE14borrowed_rangeISJ_EEE4typeEE4typeEJDpT_EEEEERKT0_OSJ_NS0_24basic_scan_format_stringIcNSO_13type_identityISJ_E4typeEJDpNS13_ISU_E4typeEEEE:
10073|  86.3k|{
10074|  86.3k|    auto result = make_scan_result<Source, Args...>();
10075|  86.3k|    fill_scan_result(result, vscan(loc, SCN_FWD(source), format,
  ------------------
  |  | 1085|  86.3k|#define SCN_FWD(x)          static_cast<decltype(x)&&>(x)
  ------------------
10076|  86.3k|                                   make_scan_args(result->values())));
10077|  86.3k|    return result;
10078|  86.3k|}
_ZN3scn2v410scan_valueIdNS0_6ranges6detail9subrange_8subrangeINSt3__116__deque_iteratorIcPKcRS8_PKS9_lLl4096EEESD_EEvEENS0_13scan_expectedINS0_11scan_resultINS6_11conditionalIXsr3stdE9is_same_vIu11__remove_cvIu20__remove_reference_tIT0_EEP8_IO_FILEEESM_NS0_6detail22borrowed_tail_subrangeISI_Xsr6rangesE14borrowed_rangeISI_EEE4typeEE4typeEJT_EEEEEOSI_:
10114|  17.4k|{
10115|  17.4k|    auto result = make_scan_result<Source, T>();
10116|  17.4k|    fill_scan_result(
10117|  17.4k|        result, vscan_value(SCN_FWD(source),
  ------------------
  |  | 1085|  17.4k|#define SCN_FWD(x)          static_cast<decltype(x)&&>(x)
  ------------------
10118|  17.4k|                            detail::make_arg<scan_context>(result->value())));
10119|  17.4k|    return result;
10120|  17.4k|}
_ZN3scn2v44scanIJeENS0_6ranges6detail9subrange_8subrangeINSt3__116__deque_iteratorIcPKcRS8_PKS9_lLl4096EEESD_EEvEENS0_13scan_expectedINS0_11scan_resultINS6_11conditionalIXsr3stdE9is_same_vIu11__remove_cvIu20__remove_reference_tIT0_EEP8_IO_FILEEESM_NS0_6detail22borrowed_tail_subrangeISI_Xsr6rangesE14borrowed_rangeISI_EEE4typeEE4typeEJDpT_EEEEEOSI_NS0_24basic_scan_format_stringIcNSN_13type_identityISI_E4typeEJDpNSZ_IST_E4typeEEEE:
10004|  87.7k|{
10005|  87.7k|    auto result = make_scan_result<Source, Args...>();
10006|  87.7k|    fill_scan_result(result, vscan(SCN_FWD(source), format,
  ------------------
  |  | 1085|  87.7k|#define SCN_FWD(x)          static_cast<decltype(x)&&>(x)
  ------------------
10007|  87.7k|                                   make_scan_args(result->values())));
10008|  87.7k|    return result;
10009|  87.7k|}
_ZN3scn2v416make_scan_resultINS0_6ranges6detail9subrange_8subrangeINSt3__116__deque_iteratorIcPKcRS8_PKS9_lLl4096EEESD_EEJeEEEDav:
 9960|   193k|{
 9961|   193k|    return scan_result_type<Source, Args...>();
 9962|   193k|}
_ZN3scn2v48expectedINS0_11scan_resultINS0_6ranges6detail9subrange_8subrangeINSt3__116__deque_iteratorIcPKcRS9_PKSA_lLl4096EEESE_EEJeEEENS0_10scan_errorEEC2Ev:
 1583|   193k|    constexpr expected() = default;
_ZN3scn2v46detail21expected_storage_baseINS0_11scan_resultINS0_6ranges6detail9subrange_8subrangeINSt3__116__deque_iteratorIcPKcRSA_PKSB_lLl4096EEESF_EEJeEEENS0_10scan_errorELb1EEC2Ev:
  459|   193k|        : m_value(T{}), m_has_value(true)
  460|   193k|    {
  461|   193k|    }
_ZN3scn2v411scan_resultINS0_6ranges6detail9subrange_8subrangeINSt3__116__deque_iteratorIcPKcRS8_PKS9_lLl4096EEESD_EEJeEEC2Ev:
 6775|   193k|    constexpr scan_result() = default;
_ZN3scn2v416fill_scan_resultINS0_11scan_resultINS0_6ranges6detail9subrange_8subrangeINSt3__116__deque_iteratorIcPKcRS9_PKSA_lLl4096EEESE_EEJeEEESF_TnPNS7_9enable_ifIXsr3stdE13conjunction_vINS0_6detail25is_specialization_of_implIu11__remove_cvIu20__remove_reference_tIT_EES2_EENS7_7is_sameINSK_10range_typeET0_EEEEvE4typeELPv0EEEvRNS0_13scan_expectedISK_EEONSW_ISQ_EE:
 9945|   193k|{
 9946|   193k|    if (SCN_UNLIKELY(!in)) {
  ------------------
  |  | 1014|   193k|#define SCN_UNLIKELY(x) __builtin_expect(!!(x), 0)
  |  |  ------------------
  |  |  |  Branch (1014:25): [True: 22.9k, False: 170k]
  |  |  ------------------
  ------------------
 9947|  22.9k|        out = unexpected(in.error());
 9948|  22.9k|    }
 9949|   170k|    else {
 9950|   170k|        out->set_range(SCN_MOVE(*in));
  ------------------
  |  | 1083|   170k|    static_cast<    \
  |  | 1084|   170k|        typename ::scn::detail::remove_reference<decltype(x)>::type&&>(x)
  ------------------
 9951|   170k|    }
 9952|   193k|}
_ZN3scn2v48expectedINS0_11scan_resultINS0_6ranges6detail9subrange_8subrangeINSt3__116__deque_iteratorIcPKcRS9_PKSA_lLl4096EEESE_EEJeEEENS0_10scan_errorEEC2ISH_TnPNS7_9enable_ifIXsr3stdE18is_constructible_vISH_OT_EEvE4typeELPv0ETnPNSK_IXsr3stdE16is_convertible_vISM_SH_EEvE4typeELSQ_0EEEONS0_10unexpectedISL_EE:
 1647|  22.9k|        : base(unexpect, std::move(e.error())),
 1648|  22.9k|          ctor_base(detail::non_default_ctor_tag_t{})
 1649|  22.9k|    {
 1650|  22.9k|    }
_ZN3scn2v46detail21expected_storage_baseINS0_11scan_resultINS0_6ranges6detail9subrange_8subrangeINSt3__116__deque_iteratorIcPKcRSA_PKSB_lLl4096EEESF_EEJeEEENS0_10scan_errorELb1EEC2IJSI_EvEENS0_10unexpect_tEDpOT_:
  482|  22.9k|        : m_unexpected(std::in_place, std::forward<Args>(args)...),
  483|  22.9k|          m_has_value(false)
  484|  22.9k|    {
  485|  22.9k|    }
_ZN3scn2v46detail26expected_default_ctor_baseINS0_11scan_resultINS0_6ranges6detail9subrange_8subrangeINSt3__116__deque_iteratorIcPKcRSA_PKSB_lLl4096EEESF_EEJeEEENS0_10scan_errorELb1EEC2ENS1_22non_default_ctor_tag_tE:
 1347|  22.9k|    {
 1348|  22.9k|    }
_ZN3scn2v48expectedINS0_11scan_resultINS0_6ranges6detail9subrange_8subrangeINSt3__116__deque_iteratorIcPKcRS9_PKSA_lLl4096EEESE_EEJeEEENS0_10scan_errorEEaSEOSI_:
 1588|  22.9k|    constexpr expected& operator=(expected&&) = default;
_ZN3scn2v46detail24expected_operations_baseINS0_11scan_resultINS0_6ranges6detail9subrange_8subrangeINSt3__116__deque_iteratorIcPKcRSA_PKSB_lLl4096EEESF_EEJeEEENS0_10scan_errorEvEaSEOSJ_:
  934|  22.9k|    {
  935|  22.9k|        assign_common(std::move(other));
  936|  22.9k|        return *this;
  937|  22.9k|    }
_ZN3scn2v46detail24expected_operations_baseINS0_11scan_resultINS0_6ranges6detail9subrange_8subrangeINSt3__116__deque_iteratorIcPKcRSA_PKSB_lLl4096EEESF_EEJeEEENS0_10scan_errorEvE13assign_commonISJ_EEvOT_:
  981|  22.9k|    {
  982|  22.9k|        if (this->has_value()) {
  ------------------
  |  Branch (982:13): [True: 22.9k, False: 0]
  ------------------
  983|  22.9k|            if (other.has_value()) {
  ------------------
  |  Branch (983:17): [True: 0, False: 22.9k]
  ------------------
  984|      0|                return reassign_value(std::forward<Other>(other));
  985|      0|            }
  986|  22.9k|            return assign_unexpected_over_value(std::forward<Other>(other));
  987|  22.9k|        }
  988|       |
  989|      0|        if (other.has_value()) {
  ------------------
  |  Branch (989:13): [True: 0, False: 0]
  ------------------
  990|      0|            return assign_value_over_unexpected(std::forward<Other>(other));
  991|      0|        }
  992|      0|        return reassign_unexpected(std::forward<Other>(other));
  993|      0|    }
_ZNK3scn2v46detail21expected_storage_baseINS0_11scan_resultINS0_6ranges6detail9subrange_8subrangeINSt3__116__deque_iteratorIcPKcRSA_PKSB_lLl4096EEESF_EEJeEEENS0_10scan_errorELb1EE9has_valueEv:
  522|   773k|    {
  523|   773k|        return m_has_value;
  524|   773k|    }
_ZNR3scn2v46detail21expected_storage_baseINS0_11scan_resultINS0_6ranges6detail9subrange_8subrangeINSt3__116__deque_iteratorIcPKcRSA_PKSB_lLl4096EEESF_EEJeEEENS0_10scan_errorELb1EE9get_valueEv:
  488|   534k|    {
  489|   534k|        return m_value;
  490|   534k|    }
_ZN3scn2v46detail24expected_operations_baseINS0_11scan_resultINS0_6ranges6detail9subrange_8subrangeINSt3__116__deque_iteratorIcPKcRSA_PKSB_lLl4096EEESF_EEJeEEENS0_10scan_errorEvE28assign_unexpected_over_valueISJ_EEvOT_:
 1077|  22.9k|    {
 1078|  22.9k|        this->destroy_value();
 1079|  22.9k|        this->construct_unexpected(std::forward<Other>(other).get_unexpected());
 1080|  22.9k|    }
_ZN3scn2v46detail21expected_storage_baseINS0_11scan_resultINS0_6ranges6detail9subrange_8subrangeINSt3__116__deque_iteratorIcPKcRSA_PKSB_lLl4096EEESF_EEJeEEENS0_10scan_errorELb1EE13destroy_valueEv:
  543|  22.9k|    static constexpr void destroy_value() noexcept {}
_ZN3scn2v46detail21expected_storage_baseINS0_11scan_resultINS0_6ranges6detail9subrange_8subrangeINSt3__116__deque_iteratorIcPKcRSA_PKSB_lLl4096EEESF_EEJeEEENS0_10scan_errorELb1EE20construct_unexpectedIJNS0_10unexpectedISI_EEEEEvDpOT_:
  536|  22.9k|    {
  537|  22.9k|        scn::detail::construct_at(&get_unexpected(),
  538|  22.9k|                                  std::forward<Args>(args)...);
  539|  22.9k|        m_has_value = false;
  540|  22.9k|    }
_ZNR3scn2v46detail21expected_storage_baseINS0_11scan_resultINS0_6ranges6detail9subrange_8subrangeINSt3__116__deque_iteratorIcPKcRSA_PKSB_lLl4096EEESF_EEJeEEENS0_10scan_errorELb1EE14get_unexpectedEv:
  505|  22.9k|    {
  506|  22.9k|        return m_unexpected;
  507|  22.9k|    }
_ZNO3scn2v46detail21expected_storage_baseINS0_11scan_resultINS0_6ranges6detail9subrange_8subrangeINSt3__116__deque_iteratorIcPKcRSA_PKSB_lLl4096EEESF_EEJeEEENS0_10scan_errorELb1EE14get_unexpectedEv:
  513|  22.9k|    {
  514|  22.9k|        return std::move(m_unexpected);
  515|  22.9k|    }
_ZNK3scn2v424basic_scan_format_stringIcNS0_6ranges6detail9subrange_8subrangeINSt3__116__deque_iteratorIcPKcRS8_PKS9_lLl4096EEESD_EEJeEEcvNS6_17basic_string_viewIcNS6_11char_traitsIcEEEEEv:
 8962|   175k|    {
 8963|   175k|        return m_str;
 8964|   175k|    }
_ZN3scn2v424basic_scan_format_stringIcNS0_6ranges6detail9subrange_8subrangeINSt3__116__deque_iteratorIcPKcRS8_PKS9_lLl4096EEESD_EEJeEEC2ENS0_6detail27basic_runtime_format_stringIcEE:
 8957|   175k|        : m_str(r.str)
 8958|   175k|    {
 8959|   175k|    }
_ZNK3scn2v48expectedINS0_11scan_resultINS0_6ranges6detail9subrange_8subrangeINSt3__116__deque_iteratorIcPKcRS9_PKSA_lLl4096EEESE_EEJeEEENS0_10scan_errorEEcvbEv:
 1771|   193k|    {
 1772|   193k|        return has_value();
 1773|   193k|    }
_ZN3scn2v48expectedINS0_11scan_resultINS0_6ranges6detail9subrange_8subrangeINSt3__116__deque_iteratorIcPKcRS9_PKSA_lLl4096EEESE_EEJeEEENS0_10scan_errorEEptEv:
 1846|   534k|    {
 1847|   534k|        return &value();
 1848|   534k|    }
_ZNR3scn2v48expectedINS0_11scan_resultINS0_6ranges6detail9subrange_8subrangeINSt3__116__deque_iteratorIcPKcRS9_PKSA_lLl4096EEESE_EEJeEEENS0_10scan_errorEE5valueISG_TnPNS7_9enable_ifIXntsr3stdE9is_void_vIT_EEvE4typeELPv0EEERSL_v:
 1800|   534k|    {
 1801|   534k|        SCN_EXPECT(has_value());
  ------------------
  |  | 1079|   534k|#define SCN_EXPECT(cond) SCN_ASSERT(cond, "Precondition violation")
  |  |  ------------------
  |  |  |  | 1076|   534k|#define SCN_ASSERT(cond, msg) assert((cond) && msg)
  |  |  ------------------
  ------------------
 1802|   534k|        return this->get_value();
 1803|   534k|    }
_ZN3scn2v44scanIJeENSt3__16localeENS0_6ranges6detail9subrange_8subrangeINS2_16__deque_iteratorIcPKcRS9_PKSA_lLl4096EEESE_EEvvEENS0_13scan_expectedINS0_11scan_resultINS2_11conditionalIXsr3stdE9is_same_vIu11__remove_cvIu20__remove_reference_tIT1_EEP8_IO_FILEEESN_NS0_6detail22borrowed_tail_subrangeISJ_Xsr6rangesE14borrowed_rangeISJ_EEE4typeEE4typeEJDpT_EEEEERKT0_OSJ_NS0_24basic_scan_format_stringIcNSO_13type_identityISJ_E4typeEJDpNS13_ISU_E4typeEEEE:
10073|  87.7k|{
10074|  87.7k|    auto result = make_scan_result<Source, Args...>();
10075|  87.7k|    fill_scan_result(result, vscan(loc, SCN_FWD(source), format,
  ------------------
  |  | 1085|  87.7k|#define SCN_FWD(x)          static_cast<decltype(x)&&>(x)
  ------------------
10076|  87.7k|                                   make_scan_args(result->values())));
10077|  87.7k|    return result;
10078|  87.7k|}
_ZN3scn2v410scan_valueIeNS0_6ranges6detail9subrange_8subrangeINSt3__116__deque_iteratorIcPKcRS8_PKS9_lLl4096EEESD_EEvEENS0_13scan_expectedINS0_11scan_resultINS6_11conditionalIXsr3stdE9is_same_vIu11__remove_cvIu20__remove_reference_tIT0_EEP8_IO_FILEEESM_NS0_6detail22borrowed_tail_subrangeISI_Xsr6rangesE14borrowed_rangeISI_EEE4typeEE4typeEJT_EEEEEOSI_:
10114|  17.7k|{
10115|  17.7k|    auto result = make_scan_result<Source, T>();
10116|  17.7k|    fill_scan_result(
10117|  17.7k|        result, vscan_value(SCN_FWD(source),
  ------------------
  |  | 1085|  17.7k|#define SCN_FWD(x)          static_cast<decltype(x)&&>(x)
  ------------------
10118|  17.7k|                            detail::make_arg<scan_context>(result->value())));
10119|  17.7k|    return result;
10120|  17.7k|}
_ZNK3scn2v46ranges6detail6begin_2fnclIRNSt3__117basic_string_viewIwNS6_11char_traitsIwEEEEEEDTclsr2fnE4implscDtfp_Efp_tlNS0_6detail12priority_tagILm3EEEEEEOT_:
 2900|   141k|    {
 2901|   141k|        return fn::impl(SCN_FWD(t), priority_tag<3>{});
  ------------------
  |  | 1085|   141k|#define SCN_FWD(x)          static_cast<decltype(x)&&>(x)
  ------------------
 2902|   141k|    }
_ZN3scn2v46ranges6detail6begin_2fn4implIRNSt3__117basic_string_viewIwNS6_11char_traitsIwEEEEEENS6_9enable_ifIX24input_or_output_iteratorIDTcl10decay_copycldtscDtfp_Efp_5beginEEEEESE_E4typeEOT_NS0_6detail12priority_tagILm1EEE:
 2881|   141k|    {
 2882|   141k|        return decay_copy(t.begin());
 2883|   141k|    }
_ZN3scn2v46ranges6detail10decay_copyIPKwEEu7__decayIT_EOS6_:
 2125|  4.23M|{
 2126|  4.23M|    return SCN_FWD(t);
  ------------------
  |  | 1085|  4.23M|#define SCN_FWD(x)          static_cast<decltype(x)&&>(x)
  ------------------
 2127|  4.23M|}
_ZNK3scn2v46ranges6detail4end_2fnclIRNSt3__117basic_string_viewIwNS6_11char_traitsIwEEEEEEDTclsr2fnE4implscDtfp_Efp_tlNS0_6detail12priority_tagILm3EEEEEEOT_:
 2957|  1.04M|    {
 2958|  1.04M|        return fn::impl(SCN_FWD(t), priority_tag<3>{});
  ------------------
  |  | 1085|  1.04M|#define SCN_FWD(x)          static_cast<decltype(x)&&>(x)
  ------------------
 2959|  1.04M|    }
_ZN3scn2v46ranges6detail4end_2fn4implIRNSt3__117basic_string_viewIwNS6_11char_traitsIwEEEEPKwSD_EENS6_9enable_ifIX12sentinel_forIT0_T1_EEDTcl10decay_copycldtscDtfp_Efp_3endEEEE4typeEOT_NS0_6detail12priority_tagILm1EEE:
 2939|  1.04M|    {
 2940|  1.04M|        return decay_copy(SCN_FWD(t).end());
  ------------------
  |  | 1085|  1.04M|#define SCN_FWD(x)          static_cast<decltype(x)&&>(x)
  ------------------
 2941|  1.04M|    }
_ZN3scn2v416make_scan_resultINS0_6ranges6detail9subrange_8subrangeIPKwS7_EEJfEEEDav:
 9960|   160k|{
 9961|   160k|    return scan_result_type<Source, Args...>();
 9962|   160k|}
_ZN3scn2v48expectedINS0_11scan_resultINS0_6ranges6detail9subrange_8subrangeIPKwS8_EEJfEEENS0_10scan_errorEEC2Ev:
 1583|   160k|    constexpr expected() = default;
_ZN3scn2v46detail21expected_storage_baseINS0_11scan_resultINS0_6ranges6detail9subrange_8subrangeIPKwS9_EEJfEEENS0_10scan_errorELb1EEC2Ev:
  459|   160k|        : m_value(T{}), m_has_value(true)
  460|   160k|    {
  461|   160k|    }
_ZN3scn2v411scan_resultINS0_6ranges6detail9subrange_8subrangeIPKwS7_EEJfEEC2Ev:
 6775|   160k|    constexpr scan_result() = default;
_ZN3scn2v46detail25scan_result_range_storageINS0_6ranges6detail9subrange_8subrangeIPKwS8_EEEC2Ev:
 6618|   518k|    constexpr scan_result_range_storage() = default;
_ZN3scn2v46ranges6detail9subrange_8subrangeIPKwS6_EC2Ev:
 3491|   518k|    subrange() = default;
_ZN3scn2v416fill_scan_resultINS0_11scan_resultINS0_6ranges6detail9subrange_8subrangeIPKwS8_EEJfEEES9_TnPNSt3__19enable_ifIXsr3stdE13conjunction_vINS0_6detail25is_specialization_of_implIu11__remove_cvIu20__remove_reference_tIT_EES2_EENSB_7is_sameINSF_10range_typeET0_EEEEvE4typeELPv0EEEvRNS0_13scan_expectedISF_EEONSR_ISL_EE:
 9945|   160k|{
 9946|   160k|    if (SCN_UNLIKELY(!in)) {
  ------------------
  |  | 1014|   160k|#define SCN_UNLIKELY(x) __builtin_expect(!!(x), 0)
  |  |  ------------------
  |  |  |  Branch (1014:25): [True: 45.8k, False: 114k]
  |  |  ------------------
  ------------------
 9947|  45.8k|        out = unexpected(in.error());
 9948|  45.8k|    }
 9949|   114k|    else {
 9950|   114k|        out->set_range(SCN_MOVE(*in));
  ------------------
  |  | 1083|   114k|    static_cast<    \
  |  | 1084|   114k|        typename ::scn::detail::remove_reference<decltype(x)>::type&&>(x)
  ------------------
 9951|   114k|    }
 9952|   160k|}
_ZNK3scn2v48expectedINS0_6ranges6detail9subrange_8subrangeIPKwS7_EENS0_10scan_errorEEcvbEv:
 1771|   518k|    {
 1772|   518k|        return has_value();
 1773|   518k|    }
_ZNK3scn2v46detail21expected_storage_baseINS0_6ranges6detail9subrange_8subrangeIPKwS8_EENS0_10scan_errorELb1EE9has_valueEv:
  522|  1.03M|    {
  523|  1.03M|        return m_has_value;
  524|  1.03M|    }
_ZNR3scn2v48expectedINS0_6ranges6detail9subrange_8subrangeIPKwS7_EENS0_10scan_errorEE5errorEv:
 1777|   137k|    {
 1778|   137k|        SCN_EXPECT(!has_value());
  ------------------
  |  | 1079|   137k|#define SCN_EXPECT(cond) SCN_ASSERT(cond, "Precondition violation")
  |  |  ------------------
  |  |  |  | 1076|   137k|#define SCN_ASSERT(cond, msg) assert((cond) && msg)
  |  |  ------------------
  ------------------
 1779|   137k|        return this->get_unexpected().error();
 1780|   137k|    }
_ZNR3scn2v46detail21expected_storage_baseINS0_6ranges6detail9subrange_8subrangeIPKwS8_EENS0_10scan_errorELb1EE14get_unexpectedEv:
  505|   137k|    {
  506|   137k|        return m_unexpected;
  507|   137k|    }
_ZN3scn2v48expectedINS0_11scan_resultINS0_6ranges6detail9subrange_8subrangeIPKwS8_EEJfEEENS0_10scan_errorEEC2ISB_TnPNSt3__19enable_ifIXsr3stdE18is_constructible_vISB_OT_EEvE4typeELPv0ETnPNSF_IXsr3stdE16is_convertible_vISH_SB_EEvE4typeELSL_0EEEONS0_10unexpectedISG_EE:
 1647|  45.8k|        : base(unexpect, std::move(e.error())),
 1648|  45.8k|          ctor_base(detail::non_default_ctor_tag_t{})
 1649|  45.8k|    {
 1650|  45.8k|    }
_ZN3scn2v46detail21expected_storage_baseINS0_11scan_resultINS0_6ranges6detail9subrange_8subrangeIPKwS9_EEJfEEENS0_10scan_errorELb1EEC2IJSC_EvEENS0_10unexpect_tEDpOT_:
  482|  45.8k|        : m_unexpected(std::in_place, std::forward<Args>(args)...),
  483|  45.8k|          m_has_value(false)
  484|  45.8k|    {
  485|  45.8k|    }
_ZN3scn2v46detail26expected_default_ctor_baseINS0_11scan_resultINS0_6ranges6detail9subrange_8subrangeIPKwS9_EEJfEEENS0_10scan_errorELb1EEC2ENS1_22non_default_ctor_tag_tE:
 1347|  45.8k|    {
 1348|  45.8k|    }
_ZN3scn2v48expectedINS0_11scan_resultINS0_6ranges6detail9subrange_8subrangeIPKwS8_EEJfEEENS0_10scan_errorEEaSEOSC_:
 1588|  45.8k|    constexpr expected& operator=(expected&&) = default;
_ZN3scn2v46detail24expected_operations_baseINS0_11scan_resultINS0_6ranges6detail9subrange_8subrangeIPKwS9_EEJfEEENS0_10scan_errorEvEaSEOSD_:
  934|  45.8k|    {
  935|  45.8k|        assign_common(std::move(other));
  936|  45.8k|        return *this;
  937|  45.8k|    }
_ZN3scn2v46detail24expected_operations_baseINS0_11scan_resultINS0_6ranges6detail9subrange_8subrangeIPKwS9_EEJfEEENS0_10scan_errorEvE13assign_commonISD_EEvOT_:
  981|  45.8k|    {
  982|  45.8k|        if (this->has_value()) {
  ------------------
  |  Branch (982:13): [True: 45.8k, False: 0]
  ------------------
  983|  45.8k|            if (other.has_value()) {
  ------------------
  |  Branch (983:17): [True: 0, False: 45.8k]
  ------------------
  984|      0|                return reassign_value(std::forward<Other>(other));
  985|      0|            }
  986|  45.8k|            return assign_unexpected_over_value(std::forward<Other>(other));
  987|  45.8k|        }
  988|       |
  989|      0|        if (other.has_value()) {
  ------------------
  |  Branch (989:13): [True: 0, False: 0]
  ------------------
  990|      0|            return assign_value_over_unexpected(std::forward<Other>(other));
  991|      0|        }
  992|      0|        return reassign_unexpected(std::forward<Other>(other));
  993|      0|    }
_ZNK3scn2v46detail21expected_storage_baseINS0_11scan_resultINS0_6ranges6detail9subrange_8subrangeIPKwS9_EEJfEEENS0_10scan_errorELb1EE9has_valueEv:
  522|   640k|    {
  523|   640k|        return m_has_value;
  524|   640k|    }
_ZNR3scn2v46detail21expected_storage_baseINS0_11scan_resultINS0_6ranges6detail9subrange_8subrangeIPKwS9_EEJfEEENS0_10scan_errorELb1EE9get_valueEv:
  488|   388k|    {
  489|   388k|        return m_value;
  490|   388k|    }
_ZN3scn2v46detail24expected_operations_baseINS0_11scan_resultINS0_6ranges6detail9subrange_8subrangeIPKwS9_EEJfEEENS0_10scan_errorEvE28assign_unexpected_over_valueISD_EEvOT_:
 1077|  45.8k|    {
 1078|  45.8k|        this->destroy_value();
 1079|  45.8k|        this->construct_unexpected(std::forward<Other>(other).get_unexpected());
 1080|  45.8k|    }
_ZN3scn2v46detail21expected_storage_baseINS0_11scan_resultINS0_6ranges6detail9subrange_8subrangeIPKwS9_EEJfEEENS0_10scan_errorELb1EE13destroy_valueEv:
  543|  45.8k|    static constexpr void destroy_value() noexcept {}
_ZN3scn2v46detail21expected_storage_baseINS0_11scan_resultINS0_6ranges6detail9subrange_8subrangeIPKwS9_EEJfEEENS0_10scan_errorELb1EE20construct_unexpectedIJNS0_10unexpectedISC_EEEEEvDpOT_:
  536|  45.8k|    {
  537|  45.8k|        scn::detail::construct_at(&get_unexpected(),
  538|  45.8k|                                  std::forward<Args>(args)...);
  539|  45.8k|        m_has_value = false;
  540|  45.8k|    }
_ZNR3scn2v46detail21expected_storage_baseINS0_11scan_resultINS0_6ranges6detail9subrange_8subrangeIPKwS9_EEJfEEENS0_10scan_errorELb1EE14get_unexpectedEv:
  505|  45.8k|    {
  506|  45.8k|        return m_unexpected;
  507|  45.8k|    }
_ZNO3scn2v46detail21expected_storage_baseINS0_11scan_resultINS0_6ranges6detail9subrange_8subrangeIPKwS9_EEJfEEENS0_10scan_errorELb1EE14get_unexpectedEv:
  513|  45.8k|    {
  514|  45.8k|        return std::move(m_unexpected);
  515|  45.8k|    }
_ZN3scn2v46detail25scan_result_range_storageINS0_6ranges6detail9subrange_8subrangeIPKwS8_EEE9set_rangeIS9_EEvOT_:
 6649|   380k|    {
 6650|   380k|        m_range = std::forward<Other>(r);
 6651|   380k|    }
_ZNR3scn2v48expectedINS0_6ranges6detail9subrange_8subrangeIPKwS7_EENS0_10scan_errorEEdeIS8_TnPNSt3__19enable_ifIXntsr3stdE9is_void_vIT_EEvE4typeELPv0EEERSE_v:
 1826|   380k|    {
 1827|   380k|        return value();
 1828|   380k|    }
_ZNR3scn2v48expectedINS0_6ranges6detail9subrange_8subrangeIPKwS7_EENS0_10scan_errorEE5valueIS8_TnPNSt3__19enable_ifIXntsr3stdE9is_void_vIT_EEvE4typeELPv0EEERSE_v:
 1800|   380k|    {
 1801|   380k|        SCN_EXPECT(has_value());
  ------------------
  |  | 1079|   380k|#define SCN_EXPECT(cond) SCN_ASSERT(cond, "Precondition violation")
  |  |  ------------------
  |  |  |  | 1076|   380k|#define SCN_ASSERT(cond, msg) assert((cond) && msg)
  |  |  ------------------
  ------------------
 1802|   380k|        return this->get_value();
 1803|   380k|    }
_ZNR3scn2v46detail21expected_storage_baseINS0_6ranges6detail9subrange_8subrangeIPKwS8_EENS0_10scan_errorELb1EE9get_valueEv:
  488|   380k|    {
  489|   380k|        return m_value;
  490|   380k|    }
_ZN3scn2v46detail13vscan_genericINS0_6ranges6detail9subrange_8subrangeIPKwS8_EEwEENS0_13scan_expectedINSt3__111conditionalIXsr3stdE9is_same_vIu11__remove_cvIu20__remove_reference_tIT_EEP8_IO_FILEEESH_NS1_22borrowed_tail_subrangeISD_Xsr6rangesE14borrowed_rangeISD_EEE4typeEE4typeEEEOSD_NSB_17basic_string_viewIT0_NSB_11char_traitsISQ_EEEENS0_15basic_scan_argsINS0_18basic_scan_contextINS1_16buffer_range_tagESQ_EEEE:
 9703|   235k|{
 9704|   235k|    auto buffer = make_scan_buffer(range);
 9705|       |
 9706|   235k|    auto result = vscan_impl(buffer, format, args);
 9707|   235k|    if (SCN_UNLIKELY(!result)) {
  ------------------
  |  | 1014|   235k|#define SCN_UNLIKELY(x) __builtin_expect(!!(x), 0)
  |  |  ------------------
  |  |  |  Branch (1014:25): [True: 63.5k, False: 172k]
  |  |  ------------------
  ------------------
 9708|  63.5k|        return unexpected(result.error());
 9709|  63.5k|    }
 9710|   172k|    return make_vscan_result_range(SCN_FWD(range), *result);
  ------------------
  |  | 1085|   172k|#define SCN_FWD(x)          static_cast<decltype(x)&&>(x)
  ------------------
 9711|   235k|}
_ZN3scn2v46detail16make_scan_bufferINS0_6ranges6detail9subrange_8subrangeIPKwS8_EEEEDaRKT_:
 5465|   518k|{
 5466|   518k|    using T = decltype(_make_scan_buffer::impl(range, priority_tag<4>{}));
 5467|       |
 5468|   518k|    static_assert(!std::is_same_v<T, invalid_char_type>,
 5469|   518k|                  "\n"
 5470|   518k|                  "Unsupported range type given as input to a scanning "
 5471|   518k|                  "function.\n"
 5472|   518k|                  "A range needs to have a character type (value type) "
 5473|   518k|                  "of either `char` or `wchar_t` to be scannable.\n"
 5474|   518k|                  "For proper `wchar_t` support, <scn/xchar.h> needs "
 5475|   518k|                  "to be included.\n"
 5476|   518k|                  "See the scnlib documentation for more details.");
 5477|   518k|    static_assert(
 5478|   518k|        !std::is_same_v<T, custom_char_traits>,
 5479|   518k|        "\n"
 5480|   518k|        "Unsupported range type given as input to a scanning "
 5481|   518k|        "function.\n"
 5482|   518k|        "String types (std::basic_string, and std::basic_string_view) "
 5483|   518k|        "need to use std::char_traits. Strings with custom Traits are "
 5484|   518k|        "not supported.");
 5485|   518k|    static_assert(!std::is_same_v<T, file_marker_found>,
 5486|   518k|                  "\n"
 5487|   518k|                  "Unsupported range type given as input to a scanning "
 5488|   518k|                  "function.\n"
 5489|   518k|                  "file_marker_found cannot be used as an "
 5490|   518k|                  "source range type to scn::scan.\n"
 5491|   518k|                  "To read from stdin, use scn::input or scn::prompt, "
 5492|   518k|                  "and do not provide an explicit source range, "
 5493|   518k|                  "or use scn::scan with a FILE* directly.");
 5494|   518k|    static_assert(!std::is_same_v<T, insufficient_range>,
 5495|   518k|                  "\n"
 5496|   518k|                  "Unsupported range type given as input to a scanning "
 5497|   518k|                  "function.\n"
 5498|   518k|                  "In order to be scannable, a range needs to satisfy "
 5499|   518k|                  "`forward_range`. `input_range` is not sufficient.");
 5500|   518k|    static_assert(!std::is_same_v<T, invalid_input_range>,
 5501|   518k|                  "\n"
 5502|   518k|                  "Unsupported range type given as input to a scanning "
 5503|   518k|                  "function.\n"
 5504|   518k|                  "A range needs to model forward_range and have a valid "
 5505|   518k|                  "character type (char or wchar_t) to be scannable.\n"
 5506|   518k|                  "Examples of scannable ranges are std::string, "
 5507|   518k|                  "std::string_view, "
 5508|   518k|                  "std::vector<char>, and scn::istreambuf_view.\n"
 5509|   518k|                  "See the scnlib documentation for more details.");
 5510|       |
 5511|   518k|    return _make_scan_buffer::impl(range, priority_tag<4>{});
 5512|   518k|}
_ZN3scn2v46detail17_make_scan_buffer4implINS0_6ranges6detail9subrange_8subrangeIPKwS9_EETnPNSt3__19enable_ifIXaasr6rangesE16contiguous_rangeIT_Esr6rangesE11sized_rangeISD_EEvE4typeELPv0EEEDaRKSD_NS1_12priority_tagILm2EEE:
 5403|   518k|{
 5404|   518k|    if constexpr (is_valid_char_type<detail::char_t<Range>>) {
 5405|   518k|        return std::basic_string_view<detail::char_t<Range>>{ranges::data(r),
 5406|   518k|                                                             ranges::size(r)};
 5407|       |    }
 5408|       |    else {
 5409|       |        return invalid_char_type{};
 5410|       |    }
 5411|   518k|}
_ZNK3scn2v46ranges6detail5data_2fnclIRKNS2_9subrange_8subrangeIPKwS9_EEEEDTclsr2fnE4implscDtfp_Efp_tlNS0_6detail12priority_tagILm1EEEEEEOT_:
 3031|   518k|    {
 3032|   518k|        return fn::impl(SCN_FWD(t), priority_tag<1>{});
  ------------------
  |  | 1085|   518k|#define SCN_FWD(x)          static_cast<decltype(x)&&>(x)
  ------------------
 3033|   518k|    }
_ZN3scn2v46ranges6detail5data_2fn4implIKNS2_9subrange_8subrangeIPKwS9_EES9_EENSt3__19enable_ifIX19is_object_pointer_vIT0_EESE_E4typeERT_NS0_6detail12priority_tagILm1EEE:
 3012|   518k|    {
 3013|   518k|        return t.data();
 3014|   518k|    }
_ZNK3scn2v46ranges14view_interfaceINS1_6detail9subrange_8subrangeIPKwS7_EEE4dataIS8_vEEDav:
 3414|   518k|    {
 3415|   518k|        return detail::to_address(ranges::begin(derived()));
 3416|   518k|    }
_ZN3scn2v46detail10to_addressIPKwEEDTclgssr3scn6detailE15to_address_implscDtfp_Efp_tlNS1_12priority_tagILm2EEEEEEOT_:
  340|  2.49M|{
  341|  2.49M|    return ::scn::detail::to_address_impl(SCN_FWD(p), priority_tag<2>{});
  ------------------
  |  | 1085|  2.49M|#define SCN_FWD(x)          static_cast<decltype(x)&&>(x)
  ------------------
  342|  2.49M|}
_ZN3scn2v46detail15to_address_implIKwEEPT_S5_NS1_12priority_tagILm2EEE:
  318|  2.49M|{
  319|  2.49M|    return p;
  320|  2.49M|}
_ZNK3scn2v46ranges6detail6begin_2fnclIRKNS2_9subrange_8subrangeIPKwS9_EEEEDTclsr2fnE4implscDtfp_Efp_tlNS0_6detail12priority_tagILm3EEEEEEOT_:
 2900|   899k|    {
 2901|   899k|        return fn::impl(SCN_FWD(t), priority_tag<3>{});
  ------------------
  |  | 1085|   899k|#define SCN_FWD(x)          static_cast<decltype(x)&&>(x)
  ------------------
 2902|   899k|    }
_ZN3scn2v46ranges6detail6begin_2fn4implIRKNS2_9subrange_8subrangeIPKwS9_EEEENSt3__19enable_ifIX24input_or_output_iteratorIDTcl10decay_copycldtscDtfp_Efp_5beginEEEEESG_E4typeEOT_NS0_6detail12priority_tagILm1EEE:
 2881|   899k|    {
 2882|   899k|        return decay_copy(t.begin());
 2883|   899k|    }
_ZNK3scn2v46ranges6detail9subrange_8subrangeIPKwS6_E5beginEv:
 3512|  21.5M|    {
 3513|  21.5M|        return m_iterator;
 3514|  21.5M|    }
_ZNK3scn2v46ranges14view_interfaceINS1_6detail9subrange_8subrangeIPKwS7_EEE7derivedEv:
 3370|   518k|    {
 3371|   518k|        return static_cast<const D&>(*this);
 3372|   518k|    }
_ZNK3scn2v46ranges6detail5size_2fnclIRKNS2_9subrange_8subrangeIPKwS9_EEEEDTclsr2fnE4implclsr3stdE7forwardIT_Efp_EtlNS0_6detail12priority_tagILm3EEEEEEOSD_:
 3106|   518k|    {
 3107|   518k|        return fn::impl(std::forward<T>(t), priority_tag<3>{});
 3108|   518k|    }
_ZN3scn2v46ranges6detail5size_2fn4implIRKNS2_9subrange_8subrangeIPKwS9_EEmEENSt3__19enable_ifIXaasr3stdE13is_integral_vIT0_Ent19disable_sized_rangeIu11__remove_cvIu20__remove_reference_tIT_EEEESF_E4typeEOSG_NS0_6detail12priority_tagILm2EEE:
 3072|   518k|    {
 3073|   518k|        return decay_copy(SCN_FWD(t).size());
  ------------------
  |  | 1085|   518k|#define SCN_FWD(x)          static_cast<decltype(x)&&>(x)
  ------------------
 3074|   518k|    }
_ZNK3scn2v46ranges6detail9subrange_8subrangeIPKwS6_E4sizeIS6_TnPNSt3__19enable_ifIX18sized_sentinel_forIS6_T_EEvE4typeELPv0EEEmv:
 3529|  2.71M|    {
 3530|  2.71M|        return static_cast<size_t>(m_sentinel - m_iterator);
 3531|  2.71M|    }
_ZN3scn2v48expectedINS0_6ranges6detail9subrange_8subrangeIPKwS7_EENS0_10scan_errorEEC2IS9_TnPNSt3__19enable_ifIXsr3stdE18is_constructible_vIS9_OT_EEvE4typeELPv0ETnPNSD_IXsr3stdE16is_convertible_vISF_S9_EEvE4typeELSJ_0EEEONS0_10unexpectedISE_EE:
 1647|   137k|        : base(unexpect, std::move(e.error())),
 1648|   137k|          ctor_base(detail::non_default_ctor_tag_t{})
 1649|   137k|    {
 1650|   137k|    }
_ZN3scn2v46detail21expected_storage_baseINS0_6ranges6detail9subrange_8subrangeIPKwS8_EENS0_10scan_errorELb1EEC2IJSA_EvEENS0_10unexpect_tEDpOT_:
  482|   137k|        : m_unexpected(std::in_place, std::forward<Args>(args)...),
  483|   137k|          m_has_value(false)
  484|   137k|    {
  485|   137k|    }
_ZN3scn2v46detail26expected_default_ctor_baseINS0_6ranges6detail9subrange_8subrangeIPKwS8_EENS0_10scan_errorELb1EEC2ENS1_22non_default_ctor_tag_tE:
 1347|   518k|    {
 1348|   518k|    }
_ZN3scn2v46detail23make_vscan_result_rangeINS0_6ranges6detail9subrange_8subrangeIPKwS8_EEEENS1_22borrowed_tail_subrangeIT_Xsr6rangesE14borrowed_rangeISB_EEE4typeEOSB_l:
 6879|   380k|{
 6880|       |    if constexpr (ranges::random_access_iterator<
 6881|   380k|                      ranges::iterator_t<SourceRange>>) {
 6882|   380k|        return {ranges::begin(source) + n, make_vscan_result_range_end(source)};
 6883|       |    }
 6884|       |    else {
 6885|       |        auto it = ranges::begin(source);
 6886|       |        while (n > 0) {
 6887|       |            --n;
 6888|       |            ++it;
 6889|       |        }
 6890|       |        return {SCN_MOVE(it), make_vscan_result_range_end(source)};
 6891|       |    }
 6892|   380k|}
_ZNK3scn2v46ranges6detail6begin_2fnclIRNS2_9subrange_8subrangeIPKwS9_EEEEDTclsr2fnE4implscDtfp_Efp_tlNS0_6detail12priority_tagILm3EEEEEEOT_:
 2900|  1.77M|    {
 2901|  1.77M|        return fn::impl(SCN_FWD(t), priority_tag<3>{});
  ------------------
  |  | 1085|  1.77M|#define SCN_FWD(x)          static_cast<decltype(x)&&>(x)
  ------------------
 2902|  1.77M|    }
_ZN3scn2v46ranges6detail6begin_2fn4implIRNS2_9subrange_8subrangeIPKwS9_EEEENSt3__19enable_ifIX24input_or_output_iteratorIDTcl10decay_copycldtscDtfp_Efp_5beginEEEEESF_E4typeEOT_NS0_6detail12priority_tagILm1EEE:
 2881|  1.77M|    {
 2882|  1.77M|        return decay_copy(t.begin());
 2883|  1.77M|    }
_ZN3scn2v46detail27make_vscan_result_range_endINS0_6ranges6detail9subrange_8subrangeIPKwS8_EEEEDaRT_:
 6866|   380k|{
 6867|   380k|    return ranges::end(source);
 6868|   380k|}
_ZNK3scn2v46ranges6detail4end_2fnclIRNS2_9subrange_8subrangeIPKwS9_EEEEDTclsr2fnE4implscDtfp_Efp_tlNS0_6detail12priority_tagILm3EEEEEEOT_:
 2957|   380k|    {
 2958|   380k|        return fn::impl(SCN_FWD(t), priority_tag<3>{});
  ------------------
  |  | 1085|   380k|#define SCN_FWD(x)          static_cast<decltype(x)&&>(x)
  ------------------
 2959|   380k|    }
_ZN3scn2v46ranges6detail4end_2fn4implIRNS2_9subrange_8subrangeIPKwS9_EES9_S9_EENSt3__19enable_ifIX12sentinel_forIT0_T1_EEDTcl10decay_copycldtscDtfp_Efp_3endEEEE4typeEOT_NS0_6detail12priority_tagILm1EEE:
 2939|   380k|    {
 2940|   380k|        return decay_copy(SCN_FWD(t).end());
  ------------------
  |  | 1085|   380k|#define SCN_FWD(x)          static_cast<decltype(x)&&>(x)
  ------------------
 2941|   380k|    }
_ZNK3scn2v46ranges6detail9subrange_8subrangeIPKwS6_E3endEv:
 3517|  12.9M|    {
 3518|  12.9M|        return m_sentinel;
 3519|  12.9M|    }
_ZN3scn2v48expectedINS0_6ranges6detail9subrange_8subrangeIPKwS7_EENS0_10scan_errorEEC2IS8_vEEOT_:
 1601|   380k|        : base(std::in_place, std::forward<U>(val)),
 1602|   380k|          ctor_base(detail::non_default_ctor_tag_t{})
 1603|   380k|    {
 1604|   380k|    }
_ZN3scn2v46detail21expected_storage_baseINS0_6ranges6detail9subrange_8subrangeIPKwS8_EENS0_10scan_errorELb1EEC2IJS9_EvEENSt3__110in_place_tEDpOT_:
  473|   380k|        : m_value(std::forward<Args>(args)...), m_has_value(true)
  474|   380k|    {
  475|   380k|    }
_ZNK3scn2v424basic_scan_format_stringIwNS0_6ranges6detail9subrange_8subrangeIPKwS7_EEJfEEcvNSt3__117basic_string_viewIwNSA_11char_traitsIwEEEEEv:
 8962|   146k|    {
 8963|   146k|        return m_str;
 8964|   146k|    }
_ZN3scn2v414make_scan_argsINS0_18basic_scan_contextINS0_6detail16buffer_range_tagEwEEJfEEEDaRNSt3__15tupleIJDpT0_EEE:
 6274|   292k|{
 6275|   292k|    detail::check_scan_arg_types<Args...>();
 6276|   292k|    return detail::scan_arg_store<Context, Args...>(values);
 6277|   292k|}
_ZN3scn2v46detail14scan_arg_storeINS0_18basic_scan_contextINS1_16buffer_range_tagEwEEJfEEC2ERNSt3__15tupleIJfEEE:
 6250|   292k|        : args(std::apply(make_argptrs<Args...>, a))
 6251|   292k|    {
 6252|   292k|    }
_ZN3scn2v46detail14scan_arg_storeINS0_18basic_scan_contextINS1_16buffer_range_tagEwEEJfEE12make_argptrsIJfEEENSt3__15arrayIPvLm1EEEDpRT_:
 6259|   292k|    {
 6260|   292k|        return {detail::make_arg<
 6261|   292k|            kind, Context,
 6262|   292k|            mapped_type_constant<remove_cvref_t<A>,
 6263|   292k|                                 typename Context::char_type>::value>(args)...};
 6264|   292k|    }
_ZN3scn2v46detail8make_argILNS1_19scan_arg_store_kindE0ENS0_18basic_scan_contextINS1_16buffer_range_tagEwEELNS1_8arg_typeE18EfvEEPvRT2_:
 6035|   292k|{
 6036|   292k|    return make_value<Context>(value).ref_value;
 6037|   292k|}
_ZN3scn2v46detail10make_valueINS0_18basic_scan_contextINS1_16buffer_range_tagEwEEfEEDaRT0_:
 5970|   320k|{
 5971|   320k|    auto&& arg = arg_mapper<typename Context::char_type>().map(value);
 5972|       |
 5973|       |    if constexpr (!std::is_same_v<remove_cvref_t<decltype(arg)>,
 5974|   320k|                                  needs_context_tag>) {
 5975|   320k|        return make_value_impl<T>(SCN_FWD(arg));
  ------------------
  |  | 1085|   320k|#define SCN_FWD(x)          static_cast<decltype(x)&&>(x)
  ------------------
 5976|       |    }
 5977|       |    else {
 5978|       |        return make_value_impl<T>(arg_mapper<typename Context::char_type>().map(
 5979|       |            value, context_tag<Context>{}));
 5980|       |    }
 5981|   320k|}
_ZN3scn2v46detail10arg_mapperIwE3mapERf:
 5772|   320k|    {                                                                        \
 5773|   320k|        return val;                                                          \
 5774|   320k|    }
_ZN3scn2v415basic_scan_argsINS0_18basic_scan_contextINS0_6detail16buffer_range_tagEwEEEC2IJfEEERKNS3_14scan_arg_storeIS5_JDpT_EEE:
 6300|   292k|        : basic_scan_args(store.desc, store.args.data())
 6301|   292k|    {
 6302|   292k|    }
_ZN3scn2v415basic_scan_argsINS0_18basic_scan_contextINS0_6detail16buffer_range_tagEwEEEC2EmPKPv:
 6352|   943k|        : m_desc(desc), m_builtin_values(data)
 6353|   943k|    {
 6354|   943k|    }
_ZN3scn2v46ranges6detail9subrange_8subrangeIPKwS6_EC2IS6_TnPNSt3__19enable_ifIXsr3stdE16is_convertible_vIT_S6_EEvE4typeELPv0EEESB_S6_:
 3496|  8.03M|        : m_iterator(SCN_MOVE(i)), m_sentinel(SCN_MOVE(s))
  ------------------
  |  | 1083|  8.03M|    static_cast<    \
  |  | 1084|  8.03M|        typename ::scn::detail::remove_reference<decltype(x)>::type&&>(x)
  ------------------
                      : m_iterator(SCN_MOVE(i)), m_sentinel(SCN_MOVE(s))
  ------------------
  |  | 1083|  8.03M|    static_cast<    \
  |  | 1084|  8.03M|        typename ::scn::detail::remove_reference<decltype(x)>::type&&>(x)
  ------------------
 3497|  8.03M|    {
 3498|  8.03M|    }
_ZN3scn2v414runtime_formatENSt3__117basic_string_viewIwNS1_11char_traitsIwEEEE:
 8644|   943k|{
 8645|   943k|    return s;
 8646|   943k|}
_ZN3scn2v46detail27basic_runtime_format_stringIwEC2ENSt3__117basic_string_viewIwNS4_11char_traitsIwEEEE:
 8616|   943k|    basic_runtime_format_string(std::basic_string_view<CharT> s) : str(s) {}
_ZN3scn2v424basic_scan_format_stringIwNS0_6ranges6detail9subrange_8subrangeIPKwS7_EEJfEEC2ENS0_6detail27basic_runtime_format_stringIwEE:
 8957|   146k|        : m_str(r.str)
 8958|   146k|    {
 8959|   146k|    }
_ZNK3scn2v48expectedINS0_11scan_resultINS0_6ranges6detail9subrange_8subrangeIPKwS8_EEJfEEENS0_10scan_errorEEcvbEv:
 1771|   160k|    {
 1772|   160k|        return has_value();
 1773|   160k|    }
_ZN3scn2v48expectedINS0_11scan_resultINS0_6ranges6detail9subrange_8subrangeIPKwS8_EEJfEEENS0_10scan_errorEEptEv:
 1846|   388k|    {
 1847|   388k|        return &value();
 1848|   388k|    }
_ZNR3scn2v48expectedINS0_11scan_resultINS0_6ranges6detail9subrange_8subrangeIPKwS8_EEJfEEENS0_10scan_errorEE5valueISA_TnPNSt3__19enable_ifIXntsr3stdE9is_void_vIT_EEvE4typeELPv0EEERSG_v:
 1800|   388k|    {
 1801|   388k|        SCN_EXPECT(has_value());
  ------------------
  |  | 1079|   388k|#define SCN_EXPECT(cond) SCN_ASSERT(cond, "Precondition violation")
  |  |  ------------------
  |  |  |  | 1076|   388k|#define SCN_ASSERT(cond, msg) assert((cond) && msg)
  |  |  ------------------
  ------------------
 1802|   388k|        return this->get_value();
 1803|   388k|    }
_ZNK3scn2v46detail25scan_result_range_storageINS0_6ranges6detail9subrange_8subrangeIPKwS8_EEE5beginEv:
 6638|   380k|    {
 6639|   380k|        return ranges::begin(m_range);
 6640|   380k|    }
_ZN3scn2v46detail23vscan_localized_genericINSt3__16localeENS0_6ranges6detail9subrange_8subrangeIPKwSA_EEwEENS0_13scan_expectedINS3_11conditionalIXsr3stdE9is_same_vIu11__remove_cvIu20__remove_reference_tIT0_EEP8_IO_FILEEESI_NS1_22borrowed_tail_subrangeISE_Xsr6rangesE14borrowed_rangeISE_EEE4typeEE4typeEEERKT_OSE_NS3_17basic_string_viewIT1_NS3_11char_traitsISU_EEEENS0_15basic_scan_argsINS0_18basic_scan_contextINS1_16buffer_range_tagESU_EEEE:
 9719|   235k|{
 9720|   235k|#if !SCN_DISABLE_LOCALE
 9721|   235k|    auto buffer = detail::make_scan_buffer(range);
 9722|       |
 9723|   235k|    SCN_CLANG_PUSH_IGNORE_UNDEFINED_TEMPLATE
 9724|   235k|    auto result = detail::vscan_localized_impl(loc, buffer, format, args);
 9725|   235k|    SCN_CLANG_POP_IGNORE_UNDEFINED_TEMPLATE
 9726|       |
 9727|   235k|    if (SCN_UNLIKELY(!result)) {
  ------------------
  |  | 1014|   235k|#define SCN_UNLIKELY(x) __builtin_expect(!!(x), 0)
  |  |  ------------------
  |  |  |  Branch (1014:25): [True: 63.5k, False: 172k]
  |  |  ------------------
  ------------------
 9728|  63.5k|        return unexpected(result.error());
 9729|  63.5k|    }
 9730|   172k|    return detail::make_vscan_result_range(SCN_FWD(range), *result);
  ------------------
  |  | 1085|   172k|#define SCN_FWD(x)          static_cast<decltype(x)&&>(x)
  ------------------
 9731|       |#else
 9732|       |    static_assert(dependent_false<Locale>::value,
 9733|       |                  "Can't use scan(locale, ...) with SCN_DISABLE_LOCALE on");
 9734|       |
 9735|       |    return {};
 9736|       |#endif
 9737|   235k|}
_ZN3scn2v46detail19vscan_value_genericINS0_6ranges6detail9subrange_8subrangeIPKwS8_EEwEENS0_13scan_expectedINSt3__111conditionalIXsr3stdE9is_same_vIu11__remove_cvIu20__remove_reference_tIT_EEP8_IO_FILEEESH_NS1_22borrowed_tail_subrangeISD_Xsr6rangesE14borrowed_rangeISD_EEE4typeEE4typeEEEOSD_NS0_14basic_scan_argINS0_18basic_scan_contextINS1_16buffer_range_tagET0_EEEE:
 9743|  46.6k|{
 9744|  46.6k|    auto buffer = detail::make_scan_buffer(range);
 9745|       |
 9746|  46.6k|    auto result = detail::vscan_value_impl(buffer, arg);
 9747|  46.6k|    if (SCN_UNLIKELY(!result)) {
  ------------------
  |  | 1014|  46.6k|#define SCN_UNLIKELY(x) __builtin_expect(!!(x), 0)
  |  |  ------------------
  |  |  |  Branch (1014:25): [True: 10.5k, False: 36.1k]
  |  |  ------------------
  ------------------
 9748|  10.5k|        return unexpected(result.error());
 9749|  10.5k|    }
 9750|  36.1k|    return detail::make_vscan_result_range(SCN_FWD(range), *result);
  ------------------
  |  | 1085|  36.1k|#define SCN_FWD(x)          static_cast<decltype(x)&&>(x)
  ------------------
 9751|  46.6k|}
_ZN3scn2v46detail8make_argINS0_18basic_scan_contextINS1_16buffer_range_tagEwEEfEENS0_14basic_scan_argIT_EERT0_:
 6020|  27.5k|{
 6021|  27.5k|    check_scan_arg_types<T>();
 6022|       |
 6023|  27.5k|    basic_scan_arg<Context> arg;
 6024|  27.5k|    arg.m_type = mapped_type_constant<T, typename Context::char_type>::value;
 6025|  27.5k|    arg.m_value = make_value<Context>(value);
 6026|  27.5k|    return arg;
 6027|  27.5k|}
_ZN3scn2v414basic_scan_argINS0_18basic_scan_contextINS0_6detail16buffer_range_tagEwEEEC2Ev:
 6118|  1.03M|    constexpr basic_scan_arg() = default;
_ZN3scn2v416make_scan_resultINS0_6ranges6detail9subrange_8subrangeIPKwS7_EEJdEEEDav:
 9960|   176k|{
 9961|   176k|    return scan_result_type<Source, Args...>();
 9962|   176k|}
_ZN3scn2v48expectedINS0_11scan_resultINS0_6ranges6detail9subrange_8subrangeIPKwS8_EEJdEEENS0_10scan_errorEEC2Ev:
 1583|   176k|    constexpr expected() = default;
_ZN3scn2v46detail21expected_storage_baseINS0_11scan_resultINS0_6ranges6detail9subrange_8subrangeIPKwS9_EEJdEEENS0_10scan_errorELb1EEC2Ev:
  459|   176k|        : m_value(T{}), m_has_value(true)
  460|   176k|    {
  461|   176k|    }
_ZN3scn2v411scan_resultINS0_6ranges6detail9subrange_8subrangeIPKwS7_EEJdEEC2Ev:
 6775|   176k|    constexpr scan_result() = default;
_ZN3scn2v416fill_scan_resultINS0_11scan_resultINS0_6ranges6detail9subrange_8subrangeIPKwS8_EEJdEEES9_TnPNSt3__19enable_ifIXsr3stdE13conjunction_vINS0_6detail25is_specialization_of_implIu11__remove_cvIu20__remove_reference_tIT_EES2_EENSB_7is_sameINSF_10range_typeET0_EEEEvE4typeELPv0EEEvRNS0_13scan_expectedISF_EEONSR_ISL_EE:
 9945|   176k|{
 9946|   176k|    if (SCN_UNLIKELY(!in)) {
  ------------------
  |  | 1014|   176k|#define SCN_UNLIKELY(x) __builtin_expect(!!(x), 0)
  |  |  ------------------
  |  |  |  Branch (1014:25): [True: 45.8k, False: 131k]
  |  |  ------------------
  ------------------
 9947|  45.8k|        out = unexpected(in.error());
 9948|  45.8k|    }
 9949|   131k|    else {
 9950|   131k|        out->set_range(SCN_MOVE(*in));
  ------------------
  |  | 1083|   131k|    static_cast<    \
  |  | 1084|   131k|        typename ::scn::detail::remove_reference<decltype(x)>::type&&>(x)
  ------------------
 9951|   131k|    }
 9952|   176k|}
_ZN3scn2v48expectedINS0_11scan_resultINS0_6ranges6detail9subrange_8subrangeIPKwS8_EEJdEEENS0_10scan_errorEEC2ISB_TnPNSt3__19enable_ifIXsr3stdE18is_constructible_vISB_OT_EEvE4typeELPv0ETnPNSF_IXsr3stdE16is_convertible_vISH_SB_EEvE4typeELSL_0EEEONS0_10unexpectedISG_EE:
 1647|  45.8k|        : base(unexpect, std::move(e.error())),
 1648|  45.8k|          ctor_base(detail::non_default_ctor_tag_t{})
 1649|  45.8k|    {
 1650|  45.8k|    }
_ZN3scn2v46detail21expected_storage_baseINS0_11scan_resultINS0_6ranges6detail9subrange_8subrangeIPKwS9_EEJdEEENS0_10scan_errorELb1EEC2IJSC_EvEENS0_10unexpect_tEDpOT_:
  482|  45.8k|        : m_unexpected(std::in_place, std::forward<Args>(args)...),
  483|  45.8k|          m_has_value(false)
  484|  45.8k|    {
  485|  45.8k|    }
_ZN3scn2v46detail26expected_default_ctor_baseINS0_11scan_resultINS0_6ranges6detail9subrange_8subrangeIPKwS9_EEJdEEENS0_10scan_errorELb1EEC2ENS1_22non_default_ctor_tag_tE:
 1347|  45.8k|    {
 1348|  45.8k|    }
_ZN3scn2v48expectedINS0_11scan_resultINS0_6ranges6detail9subrange_8subrangeIPKwS8_EEJdEEENS0_10scan_errorEEaSEOSC_:
 1588|  45.8k|    constexpr expected& operator=(expected&&) = default;
_ZN3scn2v46detail24expected_operations_baseINS0_11scan_resultINS0_6ranges6detail9subrange_8subrangeIPKwS9_EEJdEEENS0_10scan_errorEvEaSEOSD_:
  934|  45.8k|    {
  935|  45.8k|        assign_common(std::move(other));
  936|  45.8k|        return *this;
  937|  45.8k|    }
_ZN3scn2v46detail24expected_operations_baseINS0_11scan_resultINS0_6ranges6detail9subrange_8subrangeIPKwS9_EEJdEEENS0_10scan_errorEvE13assign_commonISD_EEvOT_:
  981|  45.8k|    {
  982|  45.8k|        if (this->has_value()) {
  ------------------
  |  Branch (982:13): [True: 45.8k, False: 0]
  ------------------
  983|  45.8k|            if (other.has_value()) {
  ------------------
  |  Branch (983:17): [True: 0, False: 45.8k]
  ------------------
  984|      0|                return reassign_value(std::forward<Other>(other));
  985|      0|            }
  986|  45.8k|            return assign_unexpected_over_value(std::forward<Other>(other));
  987|  45.8k|        }
  988|       |
  989|      0|        if (other.has_value()) {
  ------------------
  |  Branch (989:13): [True: 0, False: 0]
  ------------------
  990|      0|            return assign_value_over_unexpected(std::forward<Other>(other));
  991|      0|        }
  992|      0|        return reassign_unexpected(std::forward<Other>(other));
  993|      0|    }
_ZNK3scn2v46detail21expected_storage_baseINS0_11scan_resultINS0_6ranges6detail9subrange_8subrangeIPKwS9_EEJdEEENS0_10scan_errorELb1EE9has_valueEv:
  522|   707k|    {
  523|   707k|        return m_has_value;
  524|   707k|    }
_ZNR3scn2v46detail21expected_storage_baseINS0_11scan_resultINS0_6ranges6detail9subrange_8subrangeIPKwS9_EEJdEEENS0_10scan_errorELb1EE9get_valueEv:
  488|   439k|    {
  489|   439k|        return m_value;
  490|   439k|    }
_ZN3scn2v46detail24expected_operations_baseINS0_11scan_resultINS0_6ranges6detail9subrange_8subrangeIPKwS9_EEJdEEENS0_10scan_errorEvE28assign_unexpected_over_valueISD_EEvOT_:
 1077|  45.8k|    {
 1078|  45.8k|        this->destroy_value();
 1079|  45.8k|        this->construct_unexpected(std::forward<Other>(other).get_unexpected());
 1080|  45.8k|    }
_ZN3scn2v46detail21expected_storage_baseINS0_11scan_resultINS0_6ranges6detail9subrange_8subrangeIPKwS9_EEJdEEENS0_10scan_errorELb1EE13destroy_valueEv:
  543|  45.8k|    static constexpr void destroy_value() noexcept {}
_ZN3scn2v46detail21expected_storage_baseINS0_11scan_resultINS0_6ranges6detail9subrange_8subrangeIPKwS9_EEJdEEENS0_10scan_errorELb1EE20construct_unexpectedIJNS0_10unexpectedISC_EEEEEvDpOT_:
  536|  45.8k|    {
  537|  45.8k|        scn::detail::construct_at(&get_unexpected(),
  538|  45.8k|                                  std::forward<Args>(args)...);
  539|  45.8k|        m_has_value = false;
  540|  45.8k|    }
_ZNR3scn2v46detail21expected_storage_baseINS0_11scan_resultINS0_6ranges6detail9subrange_8subrangeIPKwS9_EEJdEEENS0_10scan_errorELb1EE14get_unexpectedEv:
  505|  45.8k|    {
  506|  45.8k|        return m_unexpected;
  507|  45.8k|    }
_ZNO3scn2v46detail21expected_storage_baseINS0_11scan_resultINS0_6ranges6detail9subrange_8subrangeIPKwS9_EEJdEEENS0_10scan_errorELb1EE14get_unexpectedEv:
  513|  45.8k|    {
  514|  45.8k|        return std::move(m_unexpected);
  515|  45.8k|    }
_ZNK3scn2v424basic_scan_format_stringIwNS0_6ranges6detail9subrange_8subrangeIPKwS7_EEJdEEcvNSt3__117basic_string_viewIwNSA_11char_traitsIwEEEEEv:
 8962|   160k|    {
 8963|   160k|        return m_str;
 8964|   160k|    }
_ZN3scn2v414make_scan_argsINS0_18basic_scan_contextINS0_6detail16buffer_range_tagEwEEJdEEEDaRNSt3__15tupleIJDpT0_EEE:
 6274|   321k|{
 6275|   321k|    detail::check_scan_arg_types<Args...>();
 6276|   321k|    return detail::scan_arg_store<Context, Args...>(values);
 6277|   321k|}
_ZN3scn2v46detail14scan_arg_storeINS0_18basic_scan_contextINS1_16buffer_range_tagEwEEJdEEC2ERNSt3__15tupleIJdEEE:
 6250|   321k|        : args(std::apply(make_argptrs<Args...>, a))
 6251|   321k|    {
 6252|   321k|    }
_ZN3scn2v46detail14scan_arg_storeINS0_18basic_scan_contextINS1_16buffer_range_tagEwEEJdEE12make_argptrsIJdEEENSt3__15arrayIPvLm1EEEDpRT_:
 6259|   321k|    {
 6260|   321k|        return {detail::make_arg<
 6261|   321k|            kind, Context,
 6262|   321k|            mapped_type_constant<remove_cvref_t<A>,
 6263|   321k|                                 typename Context::char_type>::value>(args)...};
 6264|   321k|    }
_ZN3scn2v46detail8make_argILNS1_19scan_arg_store_kindE0ENS0_18basic_scan_contextINS1_16buffer_range_tagEwEELNS1_8arg_typeE19EdvEEPvRT2_:
 6035|   321k|{
 6036|   321k|    return make_value<Context>(value).ref_value;
 6037|   321k|}
_ZN3scn2v46detail10make_valueINS0_18basic_scan_contextINS1_16buffer_range_tagEwEEdEEDaRT0_:
 5970|   353k|{
 5971|   353k|    auto&& arg = arg_mapper<typename Context::char_type>().map(value);
 5972|       |
 5973|       |    if constexpr (!std::is_same_v<remove_cvref_t<decltype(arg)>,
 5974|   353k|                                  needs_context_tag>) {
 5975|   353k|        return make_value_impl<T>(SCN_FWD(arg));
  ------------------
  |  | 1085|   353k|#define SCN_FWD(x)          static_cast<decltype(x)&&>(x)
  ------------------
 5976|       |    }
 5977|       |    else {
 5978|       |        return make_value_impl<T>(arg_mapper<typename Context::char_type>().map(
 5979|       |            value, context_tag<Context>{}));
 5980|       |    }
 5981|   353k|}
_ZN3scn2v46detail10arg_mapperIwE3mapERd:
 5772|   353k|    {                                                                        \
 5773|   353k|        return val;                                                          \
 5774|   353k|    }
_ZN3scn2v415basic_scan_argsINS0_18basic_scan_contextINS0_6detail16buffer_range_tagEwEEEC2IJdEEERKNS3_14scan_arg_storeIS5_JDpT_EEE:
 6300|   321k|        : basic_scan_args(store.desc, store.args.data())
 6301|   321k|    {
 6302|   321k|    }
_ZN3scn2v424basic_scan_format_stringIwNS0_6ranges6detail9subrange_8subrangeIPKwS7_EEJdEEC2ENS0_6detail27basic_runtime_format_stringIwEE:
 8957|   160k|        : m_str(r.str)
 8958|   160k|    {
 8959|   160k|    }
_ZNK3scn2v48expectedINS0_11scan_resultINS0_6ranges6detail9subrange_8subrangeIPKwS8_EEJdEEENS0_10scan_errorEEcvbEv:
 1771|   176k|    {
 1772|   176k|        return has_value();
 1773|   176k|    }
_ZN3scn2v48expectedINS0_11scan_resultINS0_6ranges6detail9subrange_8subrangeIPKwS8_EEJdEEENS0_10scan_errorEEptEv:
 1846|   439k|    {
 1847|   439k|        return &value();
 1848|   439k|    }
_ZNR3scn2v48expectedINS0_11scan_resultINS0_6ranges6detail9subrange_8subrangeIPKwS8_EEJdEEENS0_10scan_errorEE5valueISA_TnPNSt3__19enable_ifIXntsr3stdE9is_void_vIT_EEvE4typeELPv0EEERSG_v:
 1800|   439k|    {
 1801|   439k|        SCN_EXPECT(has_value());
  ------------------
  |  | 1079|   439k|#define SCN_EXPECT(cond) SCN_ASSERT(cond, "Precondition violation")
  |  |  ------------------
  |  |  |  | 1076|   439k|#define SCN_ASSERT(cond, msg) assert((cond) && msg)
  |  |  ------------------
  ------------------
 1802|   439k|        return this->get_value();
 1803|   439k|    }
_ZN3scn2v46detail8make_argINS0_18basic_scan_contextINS1_16buffer_range_tagEwEEdEENS0_14basic_scan_argIT_EERT0_:
 6020|  32.3k|{
 6021|  32.3k|    check_scan_arg_types<T>();
 6022|       |
 6023|  32.3k|    basic_scan_arg<Context> arg;
 6024|  32.3k|    arg.m_type = mapped_type_constant<T, typename Context::char_type>::value;
 6025|  32.3k|    arg.m_value = make_value<Context>(value);
 6026|  32.3k|    return arg;
 6027|  32.3k|}
_ZN3scn2v416make_scan_resultINS0_6ranges6detail9subrange_8subrangeIPKwS7_EEJeEEEDav:
 9960|   181k|{
 9961|   181k|    return scan_result_type<Source, Args...>();
 9962|   181k|}
_ZN3scn2v48expectedINS0_11scan_resultINS0_6ranges6detail9subrange_8subrangeIPKwS8_EEJeEEENS0_10scan_errorEEC2Ev:
 1583|   181k|    constexpr expected() = default;
_ZN3scn2v46detail21expected_storage_baseINS0_11scan_resultINS0_6ranges6detail9subrange_8subrangeIPKwS9_EEJeEEENS0_10scan_errorELb1EEC2Ev:
  459|   181k|        : m_value(T{}), m_has_value(true)
  460|   181k|    {
  461|   181k|    }
_ZN3scn2v411scan_resultINS0_6ranges6detail9subrange_8subrangeIPKwS7_EEJeEEC2Ev:
 6775|   181k|    constexpr scan_result() = default;
_ZN3scn2v416fill_scan_resultINS0_11scan_resultINS0_6ranges6detail9subrange_8subrangeIPKwS8_EEJeEEES9_TnPNSt3__19enable_ifIXsr3stdE13conjunction_vINS0_6detail25is_specialization_of_implIu11__remove_cvIu20__remove_reference_tIT_EES2_EENSB_7is_sameINSF_10range_typeET0_EEEEvE4typeELPv0EEEvRNS0_13scan_expectedISF_EEONSR_ISL_EE:
 9945|   181k|{
 9946|   181k|    if (SCN_UNLIKELY(!in)) {
  ------------------
  |  | 1014|   181k|#define SCN_UNLIKELY(x) __builtin_expect(!!(x), 0)
  |  |  ------------------
  |  |  |  Branch (1014:25): [True: 45.8k, False: 135k]
  |  |  ------------------
  ------------------
 9947|  45.8k|        out = unexpected(in.error());
 9948|  45.8k|    }
 9949|   135k|    else {
 9950|   135k|        out->set_range(SCN_MOVE(*in));
  ------------------
  |  | 1083|   135k|    static_cast<    \
  |  | 1084|   135k|        typename ::scn::detail::remove_reference<decltype(x)>::type&&>(x)
  ------------------
 9951|   135k|    }
 9952|   181k|}
_ZN3scn2v48expectedINS0_11scan_resultINS0_6ranges6detail9subrange_8subrangeIPKwS8_EEJeEEENS0_10scan_errorEEC2ISB_TnPNSt3__19enable_ifIXsr3stdE18is_constructible_vISB_OT_EEvE4typeELPv0ETnPNSF_IXsr3stdE16is_convertible_vISH_SB_EEvE4typeELSL_0EEEONS0_10unexpectedISG_EE:
 1647|  45.8k|        : base(unexpect, std::move(e.error())),
 1648|  45.8k|          ctor_base(detail::non_default_ctor_tag_t{})
 1649|  45.8k|    {
 1650|  45.8k|    }
_ZN3scn2v46detail21expected_storage_baseINS0_11scan_resultINS0_6ranges6detail9subrange_8subrangeIPKwS9_EEJeEEENS0_10scan_errorELb1EEC2IJSC_EvEENS0_10unexpect_tEDpOT_:
  482|  45.8k|        : m_unexpected(std::in_place, std::forward<Args>(args)...),
  483|  45.8k|          m_has_value(false)
  484|  45.8k|    {
  485|  45.8k|    }
_ZN3scn2v46detail26expected_default_ctor_baseINS0_11scan_resultINS0_6ranges6detail9subrange_8subrangeIPKwS9_EEJeEEENS0_10scan_errorELb1EEC2ENS1_22non_default_ctor_tag_tE:
 1347|  45.8k|    {
 1348|  45.8k|    }
_ZN3scn2v48expectedINS0_11scan_resultINS0_6ranges6detail9subrange_8subrangeIPKwS8_EEJeEEENS0_10scan_errorEEaSEOSC_:
 1588|  45.8k|    constexpr expected& operator=(expected&&) = default;
_ZN3scn2v46detail24expected_operations_baseINS0_11scan_resultINS0_6ranges6detail9subrange_8subrangeIPKwS9_EEJeEEENS0_10scan_errorEvEaSEOSD_:
  934|  45.8k|    {
  935|  45.8k|        assign_common(std::move(other));
  936|  45.8k|        return *this;
  937|  45.8k|    }
_ZN3scn2v46detail24expected_operations_baseINS0_11scan_resultINS0_6ranges6detail9subrange_8subrangeIPKwS9_EEJeEEENS0_10scan_errorEvE13assign_commonISD_EEvOT_:
  981|  45.8k|    {
  982|  45.8k|        if (this->has_value()) {
  ------------------
  |  Branch (982:13): [True: 45.8k, False: 0]
  ------------------
  983|  45.8k|            if (other.has_value()) {
  ------------------
  |  Branch (983:17): [True: 0, False: 45.8k]
  ------------------
  984|      0|                return reassign_value(std::forward<Other>(other));
  985|      0|            }
  986|  45.8k|            return assign_unexpected_over_value(std::forward<Other>(other));
  987|  45.8k|        }
  988|       |
  989|      0|        if (other.has_value()) {
  ------------------
  |  Branch (989:13): [True: 0, False: 0]
  ------------------
  990|      0|            return assign_value_over_unexpected(std::forward<Other>(other));
  991|      0|        }
  992|      0|        return reassign_unexpected(std::forward<Other>(other));
  993|      0|    }
_ZNK3scn2v46detail21expected_storage_baseINS0_11scan_resultINS0_6ranges6detail9subrange_8subrangeIPKwS9_EEJeEEENS0_10scan_errorELb1EE9has_valueEv:
  522|   725k|    {
  523|   725k|        return m_has_value;
  524|   725k|    }
_ZNR3scn2v46detail21expected_storage_baseINS0_11scan_resultINS0_6ranges6detail9subrange_8subrangeIPKwS9_EEJeEEENS0_10scan_errorELb1EE9get_valueEv:
  488|   452k|    {
  489|   452k|        return m_value;
  490|   452k|    }
_ZN3scn2v46detail24expected_operations_baseINS0_11scan_resultINS0_6ranges6detail9subrange_8subrangeIPKwS9_EEJeEEENS0_10scan_errorEvE28assign_unexpected_over_valueISD_EEvOT_:
 1077|  45.8k|    {
 1078|  45.8k|        this->destroy_value();
 1079|  45.8k|        this->construct_unexpected(std::forward<Other>(other).get_unexpected());
 1080|  45.8k|    }
_ZN3scn2v46detail21expected_storage_baseINS0_11scan_resultINS0_6ranges6detail9subrange_8subrangeIPKwS9_EEJeEEENS0_10scan_errorELb1EE13destroy_valueEv:
  543|  45.8k|    static constexpr void destroy_value() noexcept {}
_ZN3scn2v46detail21expected_storage_baseINS0_11scan_resultINS0_6ranges6detail9subrange_8subrangeIPKwS9_EEJeEEENS0_10scan_errorELb1EE20construct_unexpectedIJNS0_10unexpectedISC_EEEEEvDpOT_:
  536|  45.8k|    {
  537|  45.8k|        scn::detail::construct_at(&get_unexpected(),
  538|  45.8k|                                  std::forward<Args>(args)...);
  539|  45.8k|        m_has_value = false;
  540|  45.8k|    }
_ZNR3scn2v46detail21expected_storage_baseINS0_11scan_resultINS0_6ranges6detail9subrange_8subrangeIPKwS9_EEJeEEENS0_10scan_errorELb1EE14get_unexpectedEv:
  505|  45.8k|    {
  506|  45.8k|        return m_unexpected;
  507|  45.8k|    }
_ZNO3scn2v46detail21expected_storage_baseINS0_11scan_resultINS0_6ranges6detail9subrange_8subrangeIPKwS9_EEJeEEENS0_10scan_errorELb1EE14get_unexpectedEv:
  513|  45.8k|    {
  514|  45.8k|        return std::move(m_unexpected);
  515|  45.8k|    }
_ZNK3scn2v424basic_scan_format_stringIwNS0_6ranges6detail9subrange_8subrangeIPKwS7_EEJeEEcvNSt3__117basic_string_viewIwNSA_11char_traitsIwEEEEEv:
 8962|   164k|    {
 8963|   164k|        return m_str;
 8964|   164k|    }
_ZN3scn2v414make_scan_argsINS0_18basic_scan_contextINS0_6detail16buffer_range_tagEwEEJeEEEDaRNSt3__15tupleIJDpT0_EEE:
 6274|   328k|{
 6275|   328k|    detail::check_scan_arg_types<Args...>();
 6276|   328k|    return detail::scan_arg_store<Context, Args...>(values);
 6277|   328k|}
_ZN3scn2v46detail14scan_arg_storeINS0_18basic_scan_contextINS1_16buffer_range_tagEwEEJeEEC2ERNSt3__15tupleIJeEEE:
 6250|   328k|        : args(std::apply(make_argptrs<Args...>, a))
 6251|   328k|    {
 6252|   328k|    }
_ZN3scn2v46detail14scan_arg_storeINS0_18basic_scan_contextINS1_16buffer_range_tagEwEEJeEE12make_argptrsIJeEEENSt3__15arrayIPvLm1EEEDpRT_:
 6259|   328k|    {
 6260|   328k|        return {detail::make_arg<
 6261|   328k|            kind, Context,
 6262|   328k|            mapped_type_constant<remove_cvref_t<A>,
 6263|   328k|                                 typename Context::char_type>::value>(args)...};
 6264|   328k|    }
_ZN3scn2v46detail8make_argILNS1_19scan_arg_store_kindE0ENS0_18basic_scan_contextINS1_16buffer_range_tagEwEELNS1_8arg_typeE20EevEEPvRT2_:
 6035|   328k|{
 6036|   328k|    return make_value<Context>(value).ref_value;
 6037|   328k|}
_ZN3scn2v46detail10make_valueINS0_18basic_scan_contextINS1_16buffer_range_tagEwEEeEEDaRT0_:
 5970|   362k|{
 5971|   362k|    auto&& arg = arg_mapper<typename Context::char_type>().map(value);
 5972|       |
 5973|       |    if constexpr (!std::is_same_v<remove_cvref_t<decltype(arg)>,
 5974|   362k|                                  needs_context_tag>) {
 5975|   362k|        return make_value_impl<T>(SCN_FWD(arg));
  ------------------
  |  | 1085|   362k|#define SCN_FWD(x)          static_cast<decltype(x)&&>(x)
  ------------------
 5976|       |    }
 5977|       |    else {
 5978|       |        return make_value_impl<T>(arg_mapper<typename Context::char_type>().map(
 5979|       |            value, context_tag<Context>{}));
 5980|       |    }
 5981|   362k|}
_ZN3scn2v46detail10arg_mapperIwE3mapERe:
 5772|   362k|    {                                                                        \
 5773|   362k|        return val;                                                          \
 5774|   362k|    }
_ZN3scn2v415basic_scan_argsINS0_18basic_scan_contextINS0_6detail16buffer_range_tagEwEEEC2IJeEEERKNS3_14scan_arg_storeIS5_JDpT_EEE:
 6300|   328k|        : basic_scan_args(store.desc, store.args.data())
 6301|   328k|    {
 6302|   328k|    }
_ZN3scn2v424basic_scan_format_stringIwNS0_6ranges6detail9subrange_8subrangeIPKwS7_EEJeEEC2ENS0_6detail27basic_runtime_format_stringIwEE:
 8957|   164k|        : m_str(r.str)
 8958|   164k|    {
 8959|   164k|    }
_ZNK3scn2v48expectedINS0_11scan_resultINS0_6ranges6detail9subrange_8subrangeIPKwS8_EEJeEEENS0_10scan_errorEEcvbEv:
 1771|   181k|    {
 1772|   181k|        return has_value();
 1773|   181k|    }
_ZN3scn2v48expectedINS0_11scan_resultINS0_6ranges6detail9subrange_8subrangeIPKwS8_EEJeEEENS0_10scan_errorEEptEv:
 1846|   452k|    {
 1847|   452k|        return &value();
 1848|   452k|    }
_ZNR3scn2v48expectedINS0_11scan_resultINS0_6ranges6detail9subrange_8subrangeIPKwS8_EEJeEEENS0_10scan_errorEE5valueISA_TnPNSt3__19enable_ifIXntsr3stdE9is_void_vIT_EEvE4typeELPv0EEERSG_v:
 1800|   452k|    {
 1801|   452k|        SCN_EXPECT(has_value());
  ------------------
  |  | 1079|   452k|#define SCN_EXPECT(cond) SCN_ASSERT(cond, "Precondition violation")
  |  |  ------------------
  |  |  |  | 1076|   452k|#define SCN_ASSERT(cond, msg) assert((cond) && msg)
  |  |  ------------------
  ------------------
 1802|   452k|        return this->get_value();
 1803|   452k|    }
_ZN3scn2v46detail8make_argINS0_18basic_scan_contextINS1_16buffer_range_tagEwEEeEENS0_14basic_scan_argIT_EERT0_:
 6020|  33.5k|{
 6021|  33.5k|    check_scan_arg_types<T>();
 6022|       |
 6023|  33.5k|    basic_scan_arg<Context> arg;
 6024|  33.5k|    arg.m_type = mapped_type_constant<T, typename Context::char_type>::value;
 6025|  33.5k|    arg.m_value = make_value<Context>(value);
 6026|  33.5k|    return arg;
 6027|  33.5k|}
_ZNK3scn2v46ranges6detail6begin_2fnclIRKNSt3__15dequeIwNS6_9allocatorIwEEEEEEDTclsr2fnE4implscDtfp_Efp_tlNS0_6detail12priority_tagILm3EEEEEEOT_:
 2900|   137k|    {
 2901|   137k|        return fn::impl(SCN_FWD(t), priority_tag<3>{});
  ------------------
  |  | 1085|   137k|#define SCN_FWD(x)          static_cast<decltype(x)&&>(x)
  ------------------
 2902|   137k|    }
_ZN3scn2v46ranges6detail6begin_2fn4implIRKNSt3__15dequeIwNS6_9allocatorIwEEEEEENS6_9enable_ifIX24input_or_output_iteratorIDTcl10decay_copycldtscDtfp_Efp_5beginEEEEESF_E4typeEOT_NS0_6detail12priority_tagILm1EEE:
 2881|   137k|    {
 2882|   137k|        return decay_copy(t.begin());
 2883|   137k|    }
_ZN3scn2v46ranges6detail10decay_copyINSt3__116__deque_iteratorIwPKwRS6_PKS7_lLl1024EEEEEu7__decayIT_EOSC_:
 2125|  10.4M|{
 2126|  10.4M|    return SCN_FWD(t);
  ------------------
  |  | 1085|  10.4M|#define SCN_FWD(x)          static_cast<decltype(x)&&>(x)
  ------------------
 2127|  10.4M|}
_ZNK3scn2v46ranges6detail4end_2fnclIRKNSt3__15dequeIwNS6_9allocatorIwEEEEEEDTclsr2fnE4implscDtfp_Efp_tlNS0_6detail12priority_tagILm3EEEEEEOT_:
 2957|  1.03M|    {
 2958|  1.03M|        return fn::impl(SCN_FWD(t), priority_tag<3>{});
  ------------------
  |  | 1085|  1.03M|#define SCN_FWD(x)          static_cast<decltype(x)&&>(x)
  ------------------
 2959|  1.03M|    }
_ZN3scn2v46ranges6detail4end_2fn4implIRKNSt3__15dequeIwNS6_9allocatorIwEEEENS6_16__deque_iteratorIwPKwRSE_PKSF_lLl1024EEESJ_EENS6_9enable_ifIX12sentinel_forIT0_T1_EEDTcl10decay_copycldtscDtfp_Efp_3endEEEE4typeEOT_NS0_6detail12priority_tagILm1EEE:
 2939|  1.03M|    {
 2940|  1.03M|        return decay_copy(SCN_FWD(t).end());
  ------------------
  |  | 1085|  1.03M|#define SCN_FWD(x)          static_cast<decltype(x)&&>(x)
  ------------------
 2941|  1.03M|    }
_ZN3scn2v416make_scan_resultINS0_6ranges6detail9subrange_8subrangeINSt3__116__deque_iteratorIwPKwRS8_PKS9_lLl1024EEESD_EEJfEEEDav:
 9960|   160k|{
 9961|   160k|    return scan_result_type<Source, Args...>();
 9962|   160k|}
_ZN3scn2v48expectedINS0_11scan_resultINS0_6ranges6detail9subrange_8subrangeINSt3__116__deque_iteratorIwPKwRS9_PKSA_lLl1024EEESE_EEJfEEENS0_10scan_errorEEC2Ev:
 1583|   160k|    constexpr expected() = default;
_ZN3scn2v46detail21expected_storage_baseINS0_11scan_resultINS0_6ranges6detail9subrange_8subrangeINSt3__116__deque_iteratorIwPKwRSA_PKSB_lLl1024EEESF_EEJfEEENS0_10scan_errorELb1EEC2Ev:
  459|   160k|        : m_value(T{}), m_has_value(true)
  460|   160k|    {
  461|   160k|    }
_ZN3scn2v411scan_resultINS0_6ranges6detail9subrange_8subrangeINSt3__116__deque_iteratorIwPKwRS8_PKS9_lLl1024EEESD_EEJfEEC2Ev:
 6775|   160k|    constexpr scan_result() = default;
_ZN3scn2v46detail25scan_result_range_storageINS0_6ranges6detail9subrange_8subrangeINSt3__116__deque_iteratorIwPKwRS9_PKSA_lLl1024EEESE_EEEC2Ev:
 6618|   518k|    constexpr scan_result_range_storage() = default;
_ZN3scn2v46ranges6detail9subrange_8subrangeINSt3__116__deque_iteratorIwPKwRS7_PKS8_lLl1024EEESC_EC2Ev:
 3491|   518k|    subrange() = default;
_ZN3scn2v416fill_scan_resultINS0_11scan_resultINS0_6ranges6detail9subrange_8subrangeINSt3__116__deque_iteratorIwPKwRS9_PKSA_lLl1024EEESE_EEJfEEESF_TnPNS7_9enable_ifIXsr3stdE13conjunction_vINS0_6detail25is_specialization_of_implIu11__remove_cvIu20__remove_reference_tIT_EES2_EENS7_7is_sameINSK_10range_typeET0_EEEEvE4typeELPv0EEEvRNS0_13scan_expectedISK_EEONSW_ISQ_EE:
 9945|   160k|{
 9946|   160k|    if (SCN_UNLIKELY(!in)) {
  ------------------
  |  | 1014|   160k|#define SCN_UNLIKELY(x) __builtin_expect(!!(x), 0)
  |  |  ------------------
  |  |  |  Branch (1014:25): [True: 45.8k, False: 114k]
  |  |  ------------------
  ------------------
 9947|  45.8k|        out = unexpected(in.error());
 9948|  45.8k|    }
 9949|   114k|    else {
 9950|   114k|        out->set_range(SCN_MOVE(*in));
  ------------------
  |  | 1083|   114k|    static_cast<    \
  |  | 1084|   114k|        typename ::scn::detail::remove_reference<decltype(x)>::type&&>(x)
  ------------------
 9951|   114k|    }
 9952|   160k|}
_ZNK3scn2v48expectedINS0_6ranges6detail9subrange_8subrangeINSt3__116__deque_iteratorIwPKwRS8_PKS9_lLl1024EEESD_EENS0_10scan_errorEEcvbEv:
 1771|   518k|    {
 1772|   518k|        return has_value();
 1773|   518k|    }
_ZNK3scn2v46detail21expected_storage_baseINS0_6ranges6detail9subrange_8subrangeINSt3__116__deque_iteratorIwPKwRS9_PKSA_lLl1024EEESE_EENS0_10scan_errorELb1EE9has_valueEv:
  522|  1.03M|    {
  523|  1.03M|        return m_has_value;
  524|  1.03M|    }
_ZNR3scn2v48expectedINS0_6ranges6detail9subrange_8subrangeINSt3__116__deque_iteratorIwPKwRS8_PKS9_lLl1024EEESD_EENS0_10scan_errorEE5errorEv:
 1777|   137k|    {
 1778|   137k|        SCN_EXPECT(!has_value());
  ------------------
  |  | 1079|   137k|#define SCN_EXPECT(cond) SCN_ASSERT(cond, "Precondition violation")
  |  |  ------------------
  |  |  |  | 1076|   137k|#define SCN_ASSERT(cond, msg) assert((cond) && msg)
  |  |  ------------------
  ------------------
 1779|   137k|        return this->get_unexpected().error();
 1780|   137k|    }
_ZNR3scn2v46detail21expected_storage_baseINS0_6ranges6detail9subrange_8subrangeINSt3__116__deque_iteratorIwPKwRS9_PKSA_lLl1024EEESE_EENS0_10scan_errorELb1EE14get_unexpectedEv:
  505|   137k|    {
  506|   137k|        return m_unexpected;
  507|   137k|    }
_ZN3scn2v48expectedINS0_11scan_resultINS0_6ranges6detail9subrange_8subrangeINSt3__116__deque_iteratorIwPKwRS9_PKSA_lLl1024EEESE_EEJfEEENS0_10scan_errorEEC2ISH_TnPNS7_9enable_ifIXsr3stdE18is_constructible_vISH_OT_EEvE4typeELPv0ETnPNSK_IXsr3stdE16is_convertible_vISM_SH_EEvE4typeELSQ_0EEEONS0_10unexpectedISL_EE:
 1647|  45.8k|        : base(unexpect, std::move(e.error())),
 1648|  45.8k|          ctor_base(detail::non_default_ctor_tag_t{})
 1649|  45.8k|    {
 1650|  45.8k|    }
_ZN3scn2v46detail21expected_storage_baseINS0_11scan_resultINS0_6ranges6detail9subrange_8subrangeINSt3__116__deque_iteratorIwPKwRSA_PKSB_lLl1024EEESF_EEJfEEENS0_10scan_errorELb1EEC2IJSI_EvEENS0_10unexpect_tEDpOT_:
  482|  45.8k|        : m_unexpected(std::in_place, std::forward<Args>(args)...),
  483|  45.8k|          m_has_value(false)
  484|  45.8k|    {
  485|  45.8k|    }
_ZN3scn2v46detail26expected_default_ctor_baseINS0_11scan_resultINS0_6ranges6detail9subrange_8subrangeINSt3__116__deque_iteratorIwPKwRSA_PKSB_lLl1024EEESF_EEJfEEENS0_10scan_errorELb1EEC2ENS1_22non_default_ctor_tag_tE:
 1347|  45.8k|    {
 1348|  45.8k|    }
_ZN3scn2v48expectedINS0_11scan_resultINS0_6ranges6detail9subrange_8subrangeINSt3__116__deque_iteratorIwPKwRS9_PKSA_lLl1024EEESE_EEJfEEENS0_10scan_errorEEaSEOSI_:
 1588|  45.8k|    constexpr expected& operator=(expected&&) = default;
_ZN3scn2v46detail24expected_operations_baseINS0_11scan_resultINS0_6ranges6detail9subrange_8subrangeINSt3__116__deque_iteratorIwPKwRSA_PKSB_lLl1024EEESF_EEJfEEENS0_10scan_errorEvEaSEOSJ_:
  934|  45.8k|    {
  935|  45.8k|        assign_common(std::move(other));
  936|  45.8k|        return *this;
  937|  45.8k|    }
_ZN3scn2v46detail24expected_operations_baseINS0_11scan_resultINS0_6ranges6detail9subrange_8subrangeINSt3__116__deque_iteratorIwPKwRSA_PKSB_lLl1024EEESF_EEJfEEENS0_10scan_errorEvE13assign_commonISJ_EEvOT_:
  981|  45.8k|    {
  982|  45.8k|        if (this->has_value()) {
  ------------------
  |  Branch (982:13): [True: 45.8k, False: 0]
  ------------------
  983|  45.8k|            if (other.has_value()) {
  ------------------
  |  Branch (983:17): [True: 0, False: 45.8k]
  ------------------
  984|      0|                return reassign_value(std::forward<Other>(other));
  985|      0|            }
  986|  45.8k|            return assign_unexpected_over_value(std::forward<Other>(other));
  987|  45.8k|        }
  988|       |
  989|      0|        if (other.has_value()) {
  ------------------
  |  Branch (989:13): [True: 0, False: 0]
  ------------------
  990|      0|            return assign_value_over_unexpected(std::forward<Other>(other));
  991|      0|        }
  992|      0|        return reassign_unexpected(std::forward<Other>(other));
  993|      0|    }
_ZNK3scn2v46detail21expected_storage_baseINS0_11scan_resultINS0_6ranges6detail9subrange_8subrangeINSt3__116__deque_iteratorIwPKwRSA_PKSB_lLl1024EEESF_EEJfEEENS0_10scan_errorELb1EE9has_valueEv:
  522|   640k|    {
  523|   640k|        return m_has_value;
  524|   640k|    }
_ZNR3scn2v46detail21expected_storage_baseINS0_11scan_resultINS0_6ranges6detail9subrange_8subrangeINSt3__116__deque_iteratorIwPKwRSA_PKSB_lLl1024EEESF_EEJfEEENS0_10scan_errorELb1EE9get_valueEv:
  488|   388k|    {
  489|   388k|        return m_value;
  490|   388k|    }
_ZN3scn2v46detail24expected_operations_baseINS0_11scan_resultINS0_6ranges6detail9subrange_8subrangeINSt3__116__deque_iteratorIwPKwRSA_PKSB_lLl1024EEESF_EEJfEEENS0_10scan_errorEvE28assign_unexpected_over_valueISJ_EEvOT_:
 1077|  45.8k|    {
 1078|  45.8k|        this->destroy_value();
 1079|  45.8k|        this->construct_unexpected(std::forward<Other>(other).get_unexpected());
 1080|  45.8k|    }
_ZN3scn2v46detail21expected_storage_baseINS0_11scan_resultINS0_6ranges6detail9subrange_8subrangeINSt3__116__deque_iteratorIwPKwRSA_PKSB_lLl1024EEESF_EEJfEEENS0_10scan_errorELb1EE13destroy_valueEv:
  543|  45.8k|    static constexpr void destroy_value() noexcept {}
_ZN3scn2v46detail21expected_storage_baseINS0_11scan_resultINS0_6ranges6detail9subrange_8subrangeINSt3__116__deque_iteratorIwPKwRSA_PKSB_lLl1024EEESF_EEJfEEENS0_10scan_errorELb1EE20construct_unexpectedIJNS0_10unexpectedISI_EEEEEvDpOT_:
  536|  45.8k|    {
  537|  45.8k|        scn::detail::construct_at(&get_unexpected(),
  538|  45.8k|                                  std::forward<Args>(args)...);
  539|  45.8k|        m_has_value = false;
  540|  45.8k|    }
_ZNR3scn2v46detail21expected_storage_baseINS0_11scan_resultINS0_6ranges6detail9subrange_8subrangeINSt3__116__deque_iteratorIwPKwRSA_PKSB_lLl1024EEESF_EEJfEEENS0_10scan_errorELb1EE14get_unexpectedEv:
  505|  45.8k|    {
  506|  45.8k|        return m_unexpected;
  507|  45.8k|    }
_ZNO3scn2v46detail21expected_storage_baseINS0_11scan_resultINS0_6ranges6detail9subrange_8subrangeINSt3__116__deque_iteratorIwPKwRSA_PKSB_lLl1024EEESF_EEJfEEENS0_10scan_errorELb1EE14get_unexpectedEv:
  513|  45.8k|    {
  514|  45.8k|        return std::move(m_unexpected);
  515|  45.8k|    }
_ZN3scn2v46detail25scan_result_range_storageINS0_6ranges6detail9subrange_8subrangeINSt3__116__deque_iteratorIwPKwRS9_PKSA_lLl1024EEESE_EEE9set_rangeISF_EEvOT_:
 6649|   380k|    {
 6650|   380k|        m_range = std::forward<Other>(r);
 6651|   380k|    }
_ZNR3scn2v48expectedINS0_6ranges6detail9subrange_8subrangeINSt3__116__deque_iteratorIwPKwRS8_PKS9_lLl1024EEESD_EENS0_10scan_errorEEdeISE_TnPNS6_9enable_ifIXntsr3stdE9is_void_vIT_EEvE4typeELPv0EEERSJ_v:
 1826|   380k|    {
 1827|   380k|        return value();
 1828|   380k|    }
_ZNR3scn2v48expectedINS0_6ranges6detail9subrange_8subrangeINSt3__116__deque_iteratorIwPKwRS8_PKS9_lLl1024EEESD_EENS0_10scan_errorEE5valueISE_TnPNS6_9enable_ifIXntsr3stdE9is_void_vIT_EEvE4typeELPv0EEERSJ_v:
 1800|   380k|    {
 1801|   380k|        SCN_EXPECT(has_value());
  ------------------
  |  | 1079|   380k|#define SCN_EXPECT(cond) SCN_ASSERT(cond, "Precondition violation")
  |  |  ------------------
  |  |  |  | 1076|   380k|#define SCN_ASSERT(cond, msg) assert((cond) && msg)
  |  |  ------------------
  ------------------
 1802|   380k|        return this->get_value();
 1803|   380k|    }
_ZNR3scn2v46detail21expected_storage_baseINS0_6ranges6detail9subrange_8subrangeINSt3__116__deque_iteratorIwPKwRS9_PKSA_lLl1024EEESE_EENS0_10scan_errorELb1EE9get_valueEv:
  488|   380k|    {
  489|   380k|        return m_value;
  490|   380k|    }
_ZN3scn2v46detail13vscan_genericINS0_6ranges6detail9subrange_8subrangeINSt3__116__deque_iteratorIwPKwRS9_PKSA_lLl1024EEESE_EEwEENS0_13scan_expectedINS7_11conditionalIXsr3stdE9is_same_vIu11__remove_cvIu20__remove_reference_tIT_EEP8_IO_FILEEESM_NS1_22borrowed_tail_subrangeISI_Xsr6rangesE14borrowed_rangeISI_EEE4typeEE4typeEEEOSI_NS7_17basic_string_viewIT0_NS7_11char_traitsISV_EEEENS0_15basic_scan_argsINS0_18basic_scan_contextINS1_16buffer_range_tagESV_EEEE:
 9703|   235k|{
 9704|   235k|    auto buffer = make_scan_buffer(range);
 9705|       |
 9706|   235k|    auto result = vscan_impl(buffer, format, args);
 9707|   235k|    if (SCN_UNLIKELY(!result)) {
  ------------------
  |  | 1014|   235k|#define SCN_UNLIKELY(x) __builtin_expect(!!(x), 0)
  |  |  ------------------
  |  |  |  Branch (1014:25): [True: 63.5k, False: 172k]
  |  |  ------------------
  ------------------
 9708|  63.5k|        return unexpected(result.error());
 9709|  63.5k|    }
 9710|   172k|    return make_vscan_result_range(SCN_FWD(range), *result);
  ------------------
  |  | 1085|   172k|#define SCN_FWD(x)          static_cast<decltype(x)&&>(x)
  ------------------
 9711|   235k|}
_ZN3scn2v46detail16make_scan_bufferINS0_6ranges6detail9subrange_8subrangeINSt3__116__deque_iteratorIwPKwRS9_PKSA_lLl1024EEESE_EEEEDaRKT_:
 5465|   518k|{
 5466|   518k|    using T = decltype(_make_scan_buffer::impl(range, priority_tag<4>{}));
 5467|       |
 5468|   518k|    static_assert(!std::is_same_v<T, invalid_char_type>,
 5469|   518k|                  "\n"
 5470|   518k|                  "Unsupported range type given as input to a scanning "
 5471|   518k|                  "function.\n"
 5472|   518k|                  "A range needs to have a character type (value type) "
 5473|   518k|                  "of either `char` or `wchar_t` to be scannable.\n"
 5474|   518k|                  "For proper `wchar_t` support, <scn/xchar.h> needs "
 5475|   518k|                  "to be included.\n"
 5476|   518k|                  "See the scnlib documentation for more details.");
 5477|   518k|    static_assert(
 5478|   518k|        !std::is_same_v<T, custom_char_traits>,
 5479|   518k|        "\n"
 5480|   518k|        "Unsupported range type given as input to a scanning "
 5481|   518k|        "function.\n"
 5482|   518k|        "String types (std::basic_string, and std::basic_string_view) "
 5483|   518k|        "need to use std::char_traits. Strings with custom Traits are "
 5484|   518k|        "not supported.");
 5485|   518k|    static_assert(!std::is_same_v<T, file_marker_found>,
 5486|   518k|                  "\n"
 5487|   518k|                  "Unsupported range type given as input to a scanning "
 5488|   518k|                  "function.\n"
 5489|   518k|                  "file_marker_found cannot be used as an "
 5490|   518k|                  "source range type to scn::scan.\n"
 5491|   518k|                  "To read from stdin, use scn::input or scn::prompt, "
 5492|   518k|                  "and do not provide an explicit source range, "
 5493|   518k|                  "or use scn::scan with a FILE* directly.");
 5494|   518k|    static_assert(!std::is_same_v<T, insufficient_range>,
 5495|   518k|                  "\n"
 5496|   518k|                  "Unsupported range type given as input to a scanning "
 5497|   518k|                  "function.\n"
 5498|   518k|                  "In order to be scannable, a range needs to satisfy "
 5499|   518k|                  "`forward_range`. `input_range` is not sufficient.");
 5500|   518k|    static_assert(!std::is_same_v<T, invalid_input_range>,
 5501|   518k|                  "\n"
 5502|   518k|                  "Unsupported range type given as input to a scanning "
 5503|   518k|                  "function.\n"
 5504|   518k|                  "A range needs to model forward_range and have a valid "
 5505|   518k|                  "character type (char or wchar_t) to be scannable.\n"
 5506|   518k|                  "Examples of scannable ranges are std::string, "
 5507|   518k|                  "std::string_view, "
 5508|   518k|                  "std::vector<char>, and scn::istreambuf_view.\n"
 5509|   518k|                  "See the scnlib documentation for more details.");
 5510|       |
 5511|   518k|    return _make_scan_buffer::impl(range, priority_tag<4>{});
 5512|   518k|}
_ZN3scn2v46detail17_make_scan_buffer4implINS0_6ranges6detail9subrange_8subrangeINSt3__116__deque_iteratorIwPKwRSA_PKSB_lLl1024EEESF_EEEEDaRKT_NS1_12priority_tagILm0EEE:
 5435|   518k|{
 5436|       |    if constexpr (std::is_same_v<Range, file_marker>) {
 5437|       |        return file_marker_found{};
 5438|       |    }
 5439|       |    else if constexpr (!ranges::forward_range<Range>) {
 5440|       |        if constexpr (ranges::range<Range>) {
 5441|       |            return insufficient_range{};
 5442|       |        }
 5443|       |        else {
 5444|       |            return invalid_input_range{};
 5445|       |        }
 5446|       |    }
 5447|       |    else if constexpr (!is_valid_char_type<detail::char_t<Range>>) {
 5448|       |        return invalid_char_type{};
 5449|       |    }
 5450|   518k|    else {
 5451|   518k|        return make_forward_scan_buffer(r);
 5452|   518k|    }
 5453|   518k|}
_ZN3scn2v46detail24make_forward_scan_bufferINS0_6ranges6detail9subrange_8subrangeINSt3__116__deque_iteratorIwPKwRS9_PKSA_lLl1024EEESE_EEEEDaRKT_:
 5268|   518k|{
 5269|   518k|    return basic_scan_forward_buffer_impl(range);
 5270|   518k|}
_ZN3scn2v46detail30basic_scan_forward_buffer_implINS0_6ranges6detail9subrange_8subrangeINSt3__116__deque_iteratorIwPKwRS9_PKSA_lLl1024EEESE_EEEC2IRKSF_TnPNS7_9enable_ifIXaa11is_not_selfIT_SG_Esr3stdE16is_convertible_vISL_SJ_EEvE4typeELPv0EEEOSL_:
 4828|   518k|        : m_range(std::addressof(static_cast<const Range&>(SCN_FWD(r)))),
  ------------------
  |  | 1085|   518k|#define SCN_FWD(x)          static_cast<decltype(x)&&>(x)
  ------------------
 4829|   518k|          m_cursor(ranges::begin(*m_range))
 4830|   518k|    {
 4831|   518k|    }
_ZN3scn2v46detail30basic_scan_forward_buffer_baseIwEC2Ev:
 4800|   518k|    basic_scan_forward_buffer_base() : base(typename base::non_contiguous_tag{})
 4801|   518k|    {
 4802|   518k|    }
_ZN3scn2v46detail17basic_scan_bufferIwEC2ENS3_18non_contiguous_tagENSt3__117basic_string_viewIwNS5_11char_traitsIwEEEE:
 4491|   518k|        : m_current_view(sv), m_is_contiguous(false)
 4492|   518k|    {
 4493|   518k|    }
_ZN3scn2v46detail17basic_scan_bufferIwED2Ev:
 4396|   518k|    virtual ~basic_scan_buffer() = default;
_ZNK3scn2v46ranges6detail6begin_2fnclIRKNS2_9subrange_8subrangeINSt3__116__deque_iteratorIwPKwRSA_PKSB_lLl1024EEESF_EEEEDTclsr2fnE4implscDtfp_Efp_tlNS0_6detail12priority_tagILm3EEEEEEOT_:
 2900|   898k|    {
 2901|   898k|        return fn::impl(SCN_FWD(t), priority_tag<3>{});
  ------------------
  |  | 1085|   898k|#define SCN_FWD(x)          static_cast<decltype(x)&&>(x)
  ------------------
 2902|   898k|    }
_ZN3scn2v46ranges6detail6begin_2fn4implIRKNS2_9subrange_8subrangeINSt3__116__deque_iteratorIwPKwRSA_PKSB_lLl1024EEESF_EEEENS8_9enable_ifIX24input_or_output_iteratorIDTcl10decay_copycldtscDtfp_Efp_5beginEEEEESL_E4typeEOT_NS0_6detail12priority_tagILm1EEE:
 2881|   898k|    {
 2882|   898k|        return decay_copy(t.begin());
 2883|   898k|    }
_ZNK3scn2v46ranges6detail9subrange_8subrangeINSt3__116__deque_iteratorIwPKwRS7_PKS8_lLl1024EEESC_E5beginEv:
 3512|  1.27M|    {
 3513|  1.27M|        return m_iterator;
 3514|  1.27M|    }
_ZN3scn2v46detail30basic_scan_forward_buffer_implINS0_6ranges6detail9subrange_8subrangeINSt3__116__deque_iteratorIwPKwRS9_PKSA_lLl1024EEESE_EEE4fillEv:
 4834|  2.65M|    {
 4835|  2.65M|        if (m_cursor == ranges::end(*m_range)) {
  ------------------
  |  Branch (4835:13): [True: 203k, False: 2.45M]
  ------------------
 4836|   203k|            return false;
 4837|   203k|        }
 4838|  2.45M|        if constexpr (mp_valid_v<less_than_compare, iterator, sentinel>) {
 4839|  2.45M|            SCN_EXPECT(m_cursor < ranges::end(*m_range));
  ------------------
  |  | 1079|  2.45M|#define SCN_EXPECT(cond) SCN_ASSERT(cond, "Precondition violation")
  |  |  ------------------
  |  |  |  | 1076|  2.45M|#define SCN_ASSERT(cond, msg) assert((cond) && msg)
  |  |  ------------------
  ------------------
 4840|  2.45M|        }
 4841|  2.45M|        if (!this->m_current_view.empty()) {
  ------------------
  |  Branch (4841:13): [True: 1.94M, False: 515k]
  ------------------
 4842|  1.94M|            this->m_putback_buffer.insert(this->m_putback_buffer.end(),
 4843|  1.94M|                                          this->m_current_view.begin(),
 4844|  1.94M|                                          this->m_current_view.end());
 4845|  1.94M|        }
 4846|  2.45M|        m_latest = *m_cursor;
 4847|  2.45M|        ++m_cursor;
 4848|  2.45M|        this->m_current_view = std::basic_string_view<char_type>{&m_latest, 1};
 4849|  2.45M|        if constexpr (mp_valid_v<less_than_compare, iterator, sentinel>) {
 4850|  2.45M|            SCN_EXPECT(m_cursor <= ranges::end(*m_range));
  ------------------
  |  | 1079|  2.45M|#define SCN_EXPECT(cond) SCN_ASSERT(cond, "Precondition violation")
  |  |  ------------------
  |  |  |  | 1076|  2.45M|#define SCN_ASSERT(cond, msg) assert((cond) && msg)
  |  |  ------------------
  ------------------
 4851|  2.45M|        }
 4852|  2.45M|        return true;
 4853|  2.65M|    }
_ZNK3scn2v46ranges6detail4end_2fnclIRKNS2_9subrange_8subrangeINSt3__116__deque_iteratorIwPKwRSA_PKSB_lLl1024EEESF_EEEEDTclsr2fnE4implscDtfp_Efp_tlNS0_6detail12priority_tagILm3EEEEEEOT_:
 2957|  7.57M|    {
 2958|  7.57M|        return fn::impl(SCN_FWD(t), priority_tag<3>{});
  ------------------
  |  | 1085|  7.57M|#define SCN_FWD(x)          static_cast<decltype(x)&&>(x)
  ------------------
 2959|  7.57M|    }
_ZN3scn2v46ranges6detail4end_2fn4implIRKNS2_9subrange_8subrangeINSt3__116__deque_iteratorIwPKwRSA_PKSB_lLl1024EEESF_EESF_SF_EENS8_9enable_ifIX12sentinel_forIT0_T1_EEDTcl10decay_copycldtscDtfp_Efp_3endEEEE4typeEOT_NS0_6detail12priority_tagILm1EEE:
 2939|  7.57M|    {
 2940|  7.57M|        return decay_copy(SCN_FWD(t).end());
  ------------------
  |  | 1085|  7.57M|#define SCN_FWD(x)          static_cast<decltype(x)&&>(x)
  ------------------
 2941|  7.57M|    }
_ZNK3scn2v46ranges6detail9subrange_8subrangeINSt3__116__deque_iteratorIwPKwRS7_PKS8_lLl1024EEESC_E3endEv:
 3517|  7.95M|    {
 3518|  7.95M|        return m_sentinel;
 3519|  7.95M|    }
_ZN3scn2v46detail17basic_scan_bufferIwE4syncEl:
 4401|   518k|    {
 4402|   518k|        SCN_UNUSED(position);
  ------------------
  |  | 1064|   518k|#define SCN_UNUSED(x) static_cast<void>(sizeof(x))
  ------------------
 4403|   518k|        return true;
 4404|   518k|    }
_ZN3scn2v48expectedINS0_6ranges6detail9subrange_8subrangeINSt3__116__deque_iteratorIwPKwRS8_PKS9_lLl1024EEESD_EENS0_10scan_errorEEC2ISF_TnPNS6_9enable_ifIXsr3stdE18is_constructible_vISF_OT_EEvE4typeELPv0ETnPNSI_IXsr3stdE16is_convertible_vISK_SF_EEvE4typeELSO_0EEEONS0_10unexpectedISJ_EE:
 1647|   137k|        : base(unexpect, std::move(e.error())),
 1648|   137k|          ctor_base(detail::non_default_ctor_tag_t{})
 1649|   137k|    {
 1650|   137k|    }
_ZN3scn2v46detail21expected_storage_baseINS0_6ranges6detail9subrange_8subrangeINSt3__116__deque_iteratorIwPKwRS9_PKSA_lLl1024EEESE_EENS0_10scan_errorELb1EEC2IJSG_EvEENS0_10unexpect_tEDpOT_:
  482|   137k|        : m_unexpected(std::in_place, std::forward<Args>(args)...),
  483|   137k|          m_has_value(false)
  484|   137k|    {
  485|   137k|    }
_ZN3scn2v46detail26expected_default_ctor_baseINS0_6ranges6detail9subrange_8subrangeINSt3__116__deque_iteratorIwPKwRS9_PKSA_lLl1024EEESE_EENS0_10scan_errorELb1EEC2ENS1_22non_default_ctor_tag_tE:
 1347|   518k|    {
 1348|   518k|    }
_ZN3scn2v46detail23make_vscan_result_rangeINS0_6ranges6detail9subrange_8subrangeINSt3__116__deque_iteratorIwPKwRS9_PKSA_lLl1024EEESE_EEEENS1_22borrowed_tail_subrangeIT_Xsr6rangesE14borrowed_rangeISH_EEE4typeEOSH_l:
 6879|   380k|{
 6880|       |    if constexpr (ranges::random_access_iterator<
 6881|   380k|                      ranges::iterator_t<SourceRange>>) {
 6882|   380k|        return {ranges::begin(source) + n, make_vscan_result_range_end(source)};
 6883|       |    }
 6884|       |    else {
 6885|       |        auto it = ranges::begin(source);
 6886|       |        while (n > 0) {
 6887|       |            --n;
 6888|       |            ++it;
 6889|       |        }
 6890|       |        return {SCN_MOVE(it), make_vscan_result_range_end(source)};
 6891|       |    }
 6892|   380k|}
_ZNK3scn2v46ranges6detail6begin_2fnclIRNS2_9subrange_8subrangeINSt3__116__deque_iteratorIwPKwRSA_PKSB_lLl1024EEESF_EEEEDTclsr2fnE4implscDtfp_Efp_tlNS0_6detail12priority_tagILm3EEEEEEOT_:
 2900|   380k|    {
 2901|   380k|        return fn::impl(SCN_FWD(t), priority_tag<3>{});
  ------------------
  |  | 1085|   380k|#define SCN_FWD(x)          static_cast<decltype(x)&&>(x)
  ------------------
 2902|   380k|    }
_ZN3scn2v46ranges6detail6begin_2fn4implIRNS2_9subrange_8subrangeINSt3__116__deque_iteratorIwPKwRSA_PKSB_lLl1024EEESF_EEEENS8_9enable_ifIX24input_or_output_iteratorIDTcl10decay_copycldtscDtfp_Efp_5beginEEEEESK_E4typeEOT_NS0_6detail12priority_tagILm1EEE:
 2881|   380k|    {
 2882|   380k|        return decay_copy(t.begin());
 2883|   380k|    }
_ZN3scn2v46detail27make_vscan_result_range_endINS0_6ranges6detail9subrange_8subrangeINSt3__116__deque_iteratorIwPKwRS9_PKSA_lLl1024EEESE_EEEEDaRT_:
 6866|   380k|{
 6867|   380k|    return ranges::end(source);
 6868|   380k|}
_ZNK3scn2v46ranges6detail4end_2fnclIRNS2_9subrange_8subrangeINSt3__116__deque_iteratorIwPKwRSA_PKSB_lLl1024EEESF_EEEEDTclsr2fnE4implscDtfp_Efp_tlNS0_6detail12priority_tagILm3EEEEEEOT_:
 2957|   380k|    {
 2958|   380k|        return fn::impl(SCN_FWD(t), priority_tag<3>{});
  ------------------
  |  | 1085|   380k|#define SCN_FWD(x)          static_cast<decltype(x)&&>(x)
  ------------------
 2959|   380k|    }
_ZN3scn2v46ranges6detail4end_2fn4implIRNS2_9subrange_8subrangeINSt3__116__deque_iteratorIwPKwRSA_PKSB_lLl1024EEESF_EESF_SF_EENS8_9enable_ifIX12sentinel_forIT0_T1_EEDTcl10decay_copycldtscDtfp_Efp_3endEEEE4typeEOT_NS0_6detail12priority_tagILm1EEE:
 2939|   380k|    {
 2940|   380k|        return decay_copy(SCN_FWD(t).end());
  ------------------
  |  | 1085|   380k|#define SCN_FWD(x)          static_cast<decltype(x)&&>(x)
  ------------------
 2941|   380k|    }
_ZN3scn2v48expectedINS0_6ranges6detail9subrange_8subrangeINSt3__116__deque_iteratorIwPKwRS8_PKS9_lLl1024EEESD_EENS0_10scan_errorEEC2ISE_vEEOT_:
 1601|   380k|        : base(std::in_place, std::forward<U>(val)),
 1602|   380k|          ctor_base(detail::non_default_ctor_tag_t{})
 1603|   380k|    {
 1604|   380k|    }
_ZN3scn2v46detail21expected_storage_baseINS0_6ranges6detail9subrange_8subrangeINSt3__116__deque_iteratorIwPKwRS9_PKSA_lLl1024EEESE_EENS0_10scan_errorELb1EEC2IJSF_EvEENS7_10in_place_tEDpOT_:
  473|   380k|        : m_value(std::forward<Args>(args)...), m_has_value(true)
  474|   380k|    {
  475|   380k|    }
_ZNK3scn2v424basic_scan_format_stringIwNS0_6ranges6detail9subrange_8subrangeINSt3__116__deque_iteratorIwPKwRS8_PKS9_lLl1024EEESD_EEJfEEcvNS6_17basic_string_viewIwNS6_11char_traitsIwEEEEEv:
 8962|   146k|    {
 8963|   146k|        return m_str;
 8964|   146k|    }
_ZN3scn2v46ranges6detail9subrange_8subrangeINSt3__116__deque_iteratorIwPKwRS7_PKS8_lLl1024EEESC_EC2ISC_TnPNS5_9enable_ifIXsr3stdE16is_convertible_vIT_SC_EEvE4typeELPv0EEESG_SC_:
 3496|   898k|        : m_iterator(SCN_MOVE(i)), m_sentinel(SCN_MOVE(s))
  ------------------
  |  | 1083|   898k|    static_cast<    \
  |  | 1084|   898k|        typename ::scn::detail::remove_reference<decltype(x)>::type&&>(x)
  ------------------
                      : m_iterator(SCN_MOVE(i)), m_sentinel(SCN_MOVE(s))
  ------------------
  |  | 1083|   898k|    static_cast<    \
  |  | 1084|   898k|        typename ::scn::detail::remove_reference<decltype(x)>::type&&>(x)
  ------------------
 3497|   898k|    {
 3498|   898k|    }
_ZN3scn2v424basic_scan_format_stringIwNS0_6ranges6detail9subrange_8subrangeINSt3__116__deque_iteratorIwPKwRS8_PKS9_lLl1024EEESD_EEJfEEC2ENS0_6detail27basic_runtime_format_stringIwEE:
 8957|   146k|        : m_str(r.str)
 8958|   146k|    {
 8959|   146k|    }
_ZNK3scn2v48expectedINS0_11scan_resultINS0_6ranges6detail9subrange_8subrangeINSt3__116__deque_iteratorIwPKwRS9_PKSA_lLl1024EEESE_EEJfEEENS0_10scan_errorEEcvbEv:
 1771|   160k|    {
 1772|   160k|        return has_value();
 1773|   160k|    }
_ZN3scn2v48expectedINS0_11scan_resultINS0_6ranges6detail9subrange_8subrangeINSt3__116__deque_iteratorIwPKwRS9_PKSA_lLl1024EEESE_EEJfEEENS0_10scan_errorEEptEv:
 1846|   388k|    {
 1847|   388k|        return &value();
 1848|   388k|    }
_ZNR3scn2v48expectedINS0_11scan_resultINS0_6ranges6detail9subrange_8subrangeINSt3__116__deque_iteratorIwPKwRS9_PKSA_lLl1024EEESE_EEJfEEENS0_10scan_errorEE5valueISG_TnPNS7_9enable_ifIXntsr3stdE9is_void_vIT_EEvE4typeELPv0EEERSL_v:
 1800|   388k|    {
 1801|   388k|        SCN_EXPECT(has_value());
  ------------------
  |  | 1079|   388k|#define SCN_EXPECT(cond) SCN_ASSERT(cond, "Precondition violation")
  |  |  ------------------
  |  |  |  | 1076|   388k|#define SCN_ASSERT(cond, msg) assert((cond) && msg)
  |  |  ------------------
  ------------------
 1802|   388k|        return this->get_value();
 1803|   388k|    }
_ZNK3scn2v46detail25scan_result_range_storageINS0_6ranges6detail9subrange_8subrangeINSt3__116__deque_iteratorIwPKwRS9_PKSA_lLl1024EEESE_EEE5beginEv:
 6638|   380k|    {
 6639|   380k|        return ranges::begin(m_range);
 6640|   380k|    }
_ZN3scn2v46detail23vscan_localized_genericINSt3__16localeENS0_6ranges6detail9subrange_8subrangeINS3_16__deque_iteratorIwPKwRSA_PKSB_lLl1024EEESF_EEwEENS0_13scan_expectedINS3_11conditionalIXsr3stdE9is_same_vIu11__remove_cvIu20__remove_reference_tIT0_EEP8_IO_FILEEESN_NS1_22borrowed_tail_subrangeISJ_Xsr6rangesE14borrowed_rangeISJ_EEE4typeEE4typeEEERKT_OSJ_NS3_17basic_string_viewIT1_NS3_11char_traitsISZ_EEEENS0_15basic_scan_argsINS0_18basic_scan_contextINS1_16buffer_range_tagESZ_EEEE:
 9719|   235k|{
 9720|   235k|#if !SCN_DISABLE_LOCALE
 9721|   235k|    auto buffer = detail::make_scan_buffer(range);
 9722|       |
 9723|   235k|    SCN_CLANG_PUSH_IGNORE_UNDEFINED_TEMPLATE
 9724|   235k|    auto result = detail::vscan_localized_impl(loc, buffer, format, args);
 9725|   235k|    SCN_CLANG_POP_IGNORE_UNDEFINED_TEMPLATE
 9726|       |
 9727|   235k|    if (SCN_UNLIKELY(!result)) {
  ------------------
  |  | 1014|   235k|#define SCN_UNLIKELY(x) __builtin_expect(!!(x), 0)
  |  |  ------------------
  |  |  |  Branch (1014:25): [True: 63.5k, False: 172k]
  |  |  ------------------
  ------------------
 9728|  63.5k|        return unexpected(result.error());
 9729|  63.5k|    }
 9730|   172k|    return detail::make_vscan_result_range(SCN_FWD(range), *result);
  ------------------
  |  | 1085|   172k|#define SCN_FWD(x)          static_cast<decltype(x)&&>(x)
  ------------------
 9731|       |#else
 9732|       |    static_assert(dependent_false<Locale>::value,
 9733|       |                  "Can't use scan(locale, ...) with SCN_DISABLE_LOCALE on");
 9734|       |
 9735|       |    return {};
 9736|       |#endif
 9737|   235k|}
_ZN3scn2v46detail19vscan_value_genericINS0_6ranges6detail9subrange_8subrangeINSt3__116__deque_iteratorIwPKwRS9_PKSA_lLl1024EEESE_EEwEENS0_13scan_expectedINS7_11conditionalIXsr3stdE9is_same_vIu11__remove_cvIu20__remove_reference_tIT_EEP8_IO_FILEEESM_NS1_22borrowed_tail_subrangeISI_Xsr6rangesE14borrowed_rangeISI_EEE4typeEE4typeEEEOSI_NS0_14basic_scan_argINS0_18basic_scan_contextINS1_16buffer_range_tagET0_EEEE:
 9743|  46.6k|{
 9744|  46.6k|    auto buffer = detail::make_scan_buffer(range);
 9745|       |
 9746|  46.6k|    auto result = detail::vscan_value_impl(buffer, arg);
 9747|  46.6k|    if (SCN_UNLIKELY(!result)) {
  ------------------
  |  | 1014|  46.6k|#define SCN_UNLIKELY(x) __builtin_expect(!!(x), 0)
  |  |  ------------------
  |  |  |  Branch (1014:25): [True: 10.5k, False: 36.0k]
  |  |  ------------------
  ------------------
 9748|  10.5k|        return unexpected(result.error());
 9749|  10.5k|    }
 9750|  36.0k|    return detail::make_vscan_result_range(SCN_FWD(range), *result);
  ------------------
  |  | 1085|  36.0k|#define SCN_FWD(x)          static_cast<decltype(x)&&>(x)
  ------------------
 9751|  46.6k|}
_ZN3scn2v416make_scan_resultINS0_6ranges6detail9subrange_8subrangeINSt3__116__deque_iteratorIwPKwRS8_PKS9_lLl1024EEESD_EEJdEEEDav:
 9960|   176k|{
 9961|   176k|    return scan_result_type<Source, Args...>();
 9962|   176k|}
_ZN3scn2v48expectedINS0_11scan_resultINS0_6ranges6detail9subrange_8subrangeINSt3__116__deque_iteratorIwPKwRS9_PKSA_lLl1024EEESE_EEJdEEENS0_10scan_errorEEC2Ev:
 1583|   176k|    constexpr expected() = default;
_ZN3scn2v46detail21expected_storage_baseINS0_11scan_resultINS0_6ranges6detail9subrange_8subrangeINSt3__116__deque_iteratorIwPKwRSA_PKSB_lLl1024EEESF_EEJdEEENS0_10scan_errorELb1EEC2Ev:
  459|   176k|        : m_value(T{}), m_has_value(true)
  460|   176k|    {
  461|   176k|    }
_ZN3scn2v411scan_resultINS0_6ranges6detail9subrange_8subrangeINSt3__116__deque_iteratorIwPKwRS8_PKS9_lLl1024EEESD_EEJdEEC2Ev:
 6775|   176k|    constexpr scan_result() = default;
_ZN3scn2v416fill_scan_resultINS0_11scan_resultINS0_6ranges6detail9subrange_8subrangeINSt3__116__deque_iteratorIwPKwRS9_PKSA_lLl1024EEESE_EEJdEEESF_TnPNS7_9enable_ifIXsr3stdE13conjunction_vINS0_6detail25is_specialization_of_implIu11__remove_cvIu20__remove_reference_tIT_EES2_EENS7_7is_sameINSK_10range_typeET0_EEEEvE4typeELPv0EEEvRNS0_13scan_expectedISK_EEONSW_ISQ_EE:
 9945|   176k|{
 9946|   176k|    if (SCN_UNLIKELY(!in)) {
  ------------------
  |  | 1014|   176k|#define SCN_UNLIKELY(x) __builtin_expect(!!(x), 0)
  |  |  ------------------
  |  |  |  Branch (1014:25): [True: 45.8k, False: 130k]
  |  |  ------------------
  ------------------
 9947|  45.8k|        out = unexpected(in.error());
 9948|  45.8k|    }
 9949|   130k|    else {
 9950|   130k|        out->set_range(SCN_MOVE(*in));
  ------------------
  |  | 1083|   130k|    static_cast<    \
  |  | 1084|   130k|        typename ::scn::detail::remove_reference<decltype(x)>::type&&>(x)
  ------------------
 9951|   130k|    }
 9952|   176k|}
_ZN3scn2v48expectedINS0_11scan_resultINS0_6ranges6detail9subrange_8subrangeINSt3__116__deque_iteratorIwPKwRS9_PKSA_lLl1024EEESE_EEJdEEENS0_10scan_errorEEC2ISH_TnPNS7_9enable_ifIXsr3stdE18is_constructible_vISH_OT_EEvE4typeELPv0ETnPNSK_IXsr3stdE16is_convertible_vISM_SH_EEvE4typeELSQ_0EEEONS0_10unexpectedISL_EE:
 1647|  45.8k|        : base(unexpect, std::move(e.error())),
 1648|  45.8k|          ctor_base(detail::non_default_ctor_tag_t{})
 1649|  45.8k|    {
 1650|  45.8k|    }
_ZN3scn2v46detail21expected_storage_baseINS0_11scan_resultINS0_6ranges6detail9subrange_8subrangeINSt3__116__deque_iteratorIwPKwRSA_PKSB_lLl1024EEESF_EEJdEEENS0_10scan_errorELb1EEC2IJSI_EvEENS0_10unexpect_tEDpOT_:
  482|  45.8k|        : m_unexpected(std::in_place, std::forward<Args>(args)...),
  483|  45.8k|          m_has_value(false)
  484|  45.8k|    {
  485|  45.8k|    }
_ZN3scn2v46detail26expected_default_ctor_baseINS0_11scan_resultINS0_6ranges6detail9subrange_8subrangeINSt3__116__deque_iteratorIwPKwRSA_PKSB_lLl1024EEESF_EEJdEEENS0_10scan_errorELb1EEC2ENS1_22non_default_ctor_tag_tE:
 1347|  45.8k|    {
 1348|  45.8k|    }
_ZN3scn2v48expectedINS0_11scan_resultINS0_6ranges6detail9subrange_8subrangeINSt3__116__deque_iteratorIwPKwRS9_PKSA_lLl1024EEESE_EEJdEEENS0_10scan_errorEEaSEOSI_:
 1588|  45.8k|    constexpr expected& operator=(expected&&) = default;
_ZN3scn2v46detail24expected_operations_baseINS0_11scan_resultINS0_6ranges6detail9subrange_8subrangeINSt3__116__deque_iteratorIwPKwRSA_PKSB_lLl1024EEESF_EEJdEEENS0_10scan_errorEvEaSEOSJ_:
  934|  45.8k|    {
  935|  45.8k|        assign_common(std::move(other));
  936|  45.8k|        return *this;
  937|  45.8k|    }
_ZN3scn2v46detail24expected_operations_baseINS0_11scan_resultINS0_6ranges6detail9subrange_8subrangeINSt3__116__deque_iteratorIwPKwRSA_PKSB_lLl1024EEESF_EEJdEEENS0_10scan_errorEvE13assign_commonISJ_EEvOT_:
  981|  45.8k|    {
  982|  45.8k|        if (this->has_value()) {
  ------------------
  |  Branch (982:13): [True: 45.8k, False: 0]
  ------------------
  983|  45.8k|            if (other.has_value()) {
  ------------------
  |  Branch (983:17): [True: 0, False: 45.8k]
  ------------------
  984|      0|                return reassign_value(std::forward<Other>(other));
  985|      0|            }
  986|  45.8k|            return assign_unexpected_over_value(std::forward<Other>(other));
  987|  45.8k|        }
  988|       |
  989|      0|        if (other.has_value()) {
  ------------------
  |  Branch (989:13): [True: 0, False: 0]
  ------------------
  990|      0|            return assign_value_over_unexpected(std::forward<Other>(other));
  991|      0|        }
  992|      0|        return reassign_unexpected(std::forward<Other>(other));
  993|      0|    }
_ZNK3scn2v46detail21expected_storage_baseINS0_11scan_resultINS0_6ranges6detail9subrange_8subrangeINSt3__116__deque_iteratorIwPKwRSA_PKSB_lLl1024EEESF_EEJdEEENS0_10scan_errorELb1EE9has_valueEv:
  522|   707k|    {
  523|   707k|        return m_has_value;
  524|   707k|    }
_ZNR3scn2v46detail21expected_storage_baseINS0_11scan_resultINS0_6ranges6detail9subrange_8subrangeINSt3__116__deque_iteratorIwPKwRSA_PKSB_lLl1024EEESF_EEJdEEENS0_10scan_errorELb1EE9get_valueEv:
  488|   438k|    {
  489|   438k|        return m_value;
  490|   438k|    }
_ZN3scn2v46detail24expected_operations_baseINS0_11scan_resultINS0_6ranges6detail9subrange_8subrangeINSt3__116__deque_iteratorIwPKwRSA_PKSB_lLl1024EEESF_EEJdEEENS0_10scan_errorEvE28assign_unexpected_over_valueISJ_EEvOT_:
 1077|  45.8k|    {
 1078|  45.8k|        this->destroy_value();
 1079|  45.8k|        this->construct_unexpected(std::forward<Other>(other).get_unexpected());
 1080|  45.8k|    }
_ZN3scn2v46detail21expected_storage_baseINS0_11scan_resultINS0_6ranges6detail9subrange_8subrangeINSt3__116__deque_iteratorIwPKwRSA_PKSB_lLl1024EEESF_EEJdEEENS0_10scan_errorELb1EE13destroy_valueEv:
  543|  45.8k|    static constexpr void destroy_value() noexcept {}
_ZN3scn2v46detail21expected_storage_baseINS0_11scan_resultINS0_6ranges6detail9subrange_8subrangeINSt3__116__deque_iteratorIwPKwRSA_PKSB_lLl1024EEESF_EEJdEEENS0_10scan_errorELb1EE20construct_unexpectedIJNS0_10unexpectedISI_EEEEEvDpOT_:
  536|  45.8k|    {
  537|  45.8k|        scn::detail::construct_at(&get_unexpected(),
  538|  45.8k|                                  std::forward<Args>(args)...);
  539|  45.8k|        m_has_value = false;
  540|  45.8k|    }
_ZNR3scn2v46detail21expected_storage_baseINS0_11scan_resultINS0_6ranges6detail9subrange_8subrangeINSt3__116__deque_iteratorIwPKwRSA_PKSB_lLl1024EEESF_EEJdEEENS0_10scan_errorELb1EE14get_unexpectedEv:
  505|  45.8k|    {
  506|  45.8k|        return m_unexpected;
  507|  45.8k|    }
_ZNO3scn2v46detail21expected_storage_baseINS0_11scan_resultINS0_6ranges6detail9subrange_8subrangeINSt3__116__deque_iteratorIwPKwRSA_PKSB_lLl1024EEESF_EEJdEEENS0_10scan_errorELb1EE14get_unexpectedEv:
  513|  45.8k|    {
  514|  45.8k|        return std::move(m_unexpected);
  515|  45.8k|    }
_ZNK3scn2v424basic_scan_format_stringIwNS0_6ranges6detail9subrange_8subrangeINSt3__116__deque_iteratorIwPKwRS8_PKS9_lLl1024EEESD_EEJdEEcvNS6_17basic_string_viewIwNS6_11char_traitsIwEEEEEv:
 8962|   160k|    {
 8963|   160k|        return m_str;
 8964|   160k|    }
_ZN3scn2v424basic_scan_format_stringIwNS0_6ranges6detail9subrange_8subrangeINSt3__116__deque_iteratorIwPKwRS8_PKS9_lLl1024EEESD_EEJdEEC2ENS0_6detail27basic_runtime_format_stringIwEE:
 8957|   160k|        : m_str(r.str)
 8958|   160k|    {
 8959|   160k|    }
_ZNK3scn2v48expectedINS0_11scan_resultINS0_6ranges6detail9subrange_8subrangeINSt3__116__deque_iteratorIwPKwRS9_PKSA_lLl1024EEESE_EEJdEEENS0_10scan_errorEEcvbEv:
 1771|   176k|    {
 1772|   176k|        return has_value();
 1773|   176k|    }
_ZN3scn2v48expectedINS0_11scan_resultINS0_6ranges6detail9subrange_8subrangeINSt3__116__deque_iteratorIwPKwRS9_PKSA_lLl1024EEESE_EEJdEEENS0_10scan_errorEEptEv:
 1846|   438k|    {
 1847|   438k|        return &value();
 1848|   438k|    }
_ZNR3scn2v48expectedINS0_11scan_resultINS0_6ranges6detail9subrange_8subrangeINSt3__116__deque_iteratorIwPKwRS9_PKSA_lLl1024EEESE_EEJdEEENS0_10scan_errorEE5valueISG_TnPNS7_9enable_ifIXntsr3stdE9is_void_vIT_EEvE4typeELPv0EEERSL_v:
 1800|   438k|    {
 1801|   438k|        SCN_EXPECT(has_value());
  ------------------
  |  | 1079|   438k|#define SCN_EXPECT(cond) SCN_ASSERT(cond, "Precondition violation")
  |  |  ------------------
  |  |  |  | 1076|   438k|#define SCN_ASSERT(cond, msg) assert((cond) && msg)
  |  |  ------------------
  ------------------
 1802|   438k|        return this->get_value();
 1803|   438k|    }
_ZN3scn2v416make_scan_resultINS0_6ranges6detail9subrange_8subrangeINSt3__116__deque_iteratorIwPKwRS8_PKS9_lLl1024EEESD_EEJeEEEDav:
 9960|   181k|{
 9961|   181k|    return scan_result_type<Source, Args...>();
 9962|   181k|}
_ZN3scn2v48expectedINS0_11scan_resultINS0_6ranges6detail9subrange_8subrangeINSt3__116__deque_iteratorIwPKwRS9_PKSA_lLl1024EEESE_EEJeEEENS0_10scan_errorEEC2Ev:
 1583|   181k|    constexpr expected() = default;
_ZN3scn2v46detail21expected_storage_baseINS0_11scan_resultINS0_6ranges6detail9subrange_8subrangeINSt3__116__deque_iteratorIwPKwRSA_PKSB_lLl1024EEESF_EEJeEEENS0_10scan_errorELb1EEC2Ev:
  459|   181k|        : m_value(T{}), m_has_value(true)
  460|   181k|    {
  461|   181k|    }
_ZN3scn2v411scan_resultINS0_6ranges6detail9subrange_8subrangeINSt3__116__deque_iteratorIwPKwRS8_PKS9_lLl1024EEESD_EEJeEEC2Ev:
 6775|   181k|    constexpr scan_result() = default;
_ZN3scn2v416fill_scan_resultINS0_11scan_resultINS0_6ranges6detail9subrange_8subrangeINSt3__116__deque_iteratorIwPKwRS9_PKSA_lLl1024EEESE_EEJeEEESF_TnPNS7_9enable_ifIXsr3stdE13conjunction_vINS0_6detail25is_specialization_of_implIu11__remove_cvIu20__remove_reference_tIT_EES2_EENS7_7is_sameINSK_10range_typeET0_EEEEvE4typeELPv0EEEvRNS0_13scan_expectedISK_EEONSW_ISQ_EE:
 9945|   181k|{
 9946|   181k|    if (SCN_UNLIKELY(!in)) {
  ------------------
  |  | 1014|   181k|#define SCN_UNLIKELY(x) __builtin_expect(!!(x), 0)
  |  |  ------------------
  |  |  |  Branch (1014:25): [True: 45.8k, False: 135k]
  |  |  ------------------
  ------------------
 9947|  45.8k|        out = unexpected(in.error());
 9948|  45.8k|    }
 9949|   135k|    else {
 9950|   135k|        out->set_range(SCN_MOVE(*in));
  ------------------
  |  | 1083|   135k|    static_cast<    \
  |  | 1084|   135k|        typename ::scn::detail::remove_reference<decltype(x)>::type&&>(x)
  ------------------
 9951|   135k|    }
 9952|   181k|}
_ZN3scn2v48expectedINS0_11scan_resultINS0_6ranges6detail9subrange_8subrangeINSt3__116__deque_iteratorIwPKwRS9_PKSA_lLl1024EEESE_EEJeEEENS0_10scan_errorEEC2ISH_TnPNS7_9enable_ifIXsr3stdE18is_constructible_vISH_OT_EEvE4typeELPv0ETnPNSK_IXsr3stdE16is_convertible_vISM_SH_EEvE4typeELSQ_0EEEONS0_10unexpectedISL_EE:
 1647|  45.8k|        : base(unexpect, std::move(e.error())),
 1648|  45.8k|          ctor_base(detail::non_default_ctor_tag_t{})
 1649|  45.8k|    {
 1650|  45.8k|    }
_ZN3scn2v46detail21expected_storage_baseINS0_11scan_resultINS0_6ranges6detail9subrange_8subrangeINSt3__116__deque_iteratorIwPKwRSA_PKSB_lLl1024EEESF_EEJeEEENS0_10scan_errorELb1EEC2IJSI_EvEENS0_10unexpect_tEDpOT_:
  482|  45.8k|        : m_unexpected(std::in_place, std::forward<Args>(args)...),
  483|  45.8k|          m_has_value(false)
  484|  45.8k|    {
  485|  45.8k|    }
_ZN3scn2v46detail26expected_default_ctor_baseINS0_11scan_resultINS0_6ranges6detail9subrange_8subrangeINSt3__116__deque_iteratorIwPKwRSA_PKSB_lLl1024EEESF_EEJeEEENS0_10scan_errorELb1EEC2ENS1_22non_default_ctor_tag_tE:
 1347|  45.8k|    {
 1348|  45.8k|    }
_ZN3scn2v48expectedINS0_11scan_resultINS0_6ranges6detail9subrange_8subrangeINSt3__116__deque_iteratorIwPKwRS9_PKSA_lLl1024EEESE_EEJeEEENS0_10scan_errorEEaSEOSI_:
 1588|  45.8k|    constexpr expected& operator=(expected&&) = default;
_ZN3scn2v46detail24expected_operations_baseINS0_11scan_resultINS0_6ranges6detail9subrange_8subrangeINSt3__116__deque_iteratorIwPKwRSA_PKSB_lLl1024EEESF_EEJeEEENS0_10scan_errorEvEaSEOSJ_:
  934|  45.8k|    {
  935|  45.8k|        assign_common(std::move(other));
  936|  45.8k|        return *this;
  937|  45.8k|    }
_ZN3scn2v46detail24expected_operations_baseINS0_11scan_resultINS0_6ranges6detail9subrange_8subrangeINSt3__116__deque_iteratorIwPKwRSA_PKSB_lLl1024EEESF_EEJeEEENS0_10scan_errorEvE13assign_commonISJ_EEvOT_:
  981|  45.8k|    {
  982|  45.8k|        if (this->has_value()) {
  ------------------
  |  Branch (982:13): [True: 45.8k, False: 0]
  ------------------
  983|  45.8k|            if (other.has_value()) {
  ------------------
  |  Branch (983:17): [True: 0, False: 45.8k]
  ------------------
  984|      0|                return reassign_value(std::forward<Other>(other));
  985|      0|            }
  986|  45.8k|            return assign_unexpected_over_value(std::forward<Other>(other));
  987|  45.8k|        }
  988|       |
  989|      0|        if (other.has_value()) {
  ------------------
  |  Branch (989:13): [True: 0, False: 0]
  ------------------
  990|      0|            return assign_value_over_unexpected(std::forward<Other>(other));
  991|      0|        }
  992|      0|        return reassign_unexpected(std::forward<Other>(other));
  993|      0|    }
_ZNK3scn2v46detail21expected_storage_baseINS0_11scan_resultINS0_6ranges6detail9subrange_8subrangeINSt3__116__deque_iteratorIwPKwRSA_PKSB_lLl1024EEESF_EEJeEEENS0_10scan_errorELb1EE9has_valueEv:
  522|   724k|    {
  523|   724k|        return m_has_value;
  524|   724k|    }
_ZNR3scn2v46detail21expected_storage_baseINS0_11scan_resultINS0_6ranges6detail9subrange_8subrangeINSt3__116__deque_iteratorIwPKwRSA_PKSB_lLl1024EEESF_EEJeEEENS0_10scan_errorELb1EE9get_valueEv:
  488|   451k|    {
  489|   451k|        return m_value;
  490|   451k|    }
_ZN3scn2v46detail24expected_operations_baseINS0_11scan_resultINS0_6ranges6detail9subrange_8subrangeINSt3__116__deque_iteratorIwPKwRSA_PKSB_lLl1024EEESF_EEJeEEENS0_10scan_errorEvE28assign_unexpected_over_valueISJ_EEvOT_:
 1077|  45.8k|    {
 1078|  45.8k|        this->destroy_value();
 1079|  45.8k|        this->construct_unexpected(std::forward<Other>(other).get_unexpected());
 1080|  45.8k|    }
_ZN3scn2v46detail21expected_storage_baseINS0_11scan_resultINS0_6ranges6detail9subrange_8subrangeINSt3__116__deque_iteratorIwPKwRSA_PKSB_lLl1024EEESF_EEJeEEENS0_10scan_errorELb1EE13destroy_valueEv:
  543|  45.8k|    static constexpr void destroy_value() noexcept {}
_ZN3scn2v46detail21expected_storage_baseINS0_11scan_resultINS0_6ranges6detail9subrange_8subrangeINSt3__116__deque_iteratorIwPKwRSA_PKSB_lLl1024EEESF_EEJeEEENS0_10scan_errorELb1EE20construct_unexpectedIJNS0_10unexpectedISI_EEEEEvDpOT_:
  536|  45.8k|    {
  537|  45.8k|        scn::detail::construct_at(&get_unexpected(),
  538|  45.8k|                                  std::forward<Args>(args)...);
  539|  45.8k|        m_has_value = false;
  540|  45.8k|    }
_ZNR3scn2v46detail21expected_storage_baseINS0_11scan_resultINS0_6ranges6detail9subrange_8subrangeINSt3__116__deque_iteratorIwPKwRSA_PKSB_lLl1024EEESF_EEJeEEENS0_10scan_errorELb1EE14get_unexpectedEv:
  505|  45.8k|    {
  506|  45.8k|        return m_unexpected;
  507|  45.8k|    }
_ZNO3scn2v46detail21expected_storage_baseINS0_11scan_resultINS0_6ranges6detail9subrange_8subrangeINSt3__116__deque_iteratorIwPKwRSA_PKSB_lLl1024EEESF_EEJeEEENS0_10scan_errorELb1EE14get_unexpectedEv:
  513|  45.8k|    {
  514|  45.8k|        return std::move(m_unexpected);
  515|  45.8k|    }
_ZNK3scn2v424basic_scan_format_stringIwNS0_6ranges6detail9subrange_8subrangeINSt3__116__deque_iteratorIwPKwRS8_PKS9_lLl1024EEESD_EEJeEEcvNS6_17basic_string_viewIwNS6_11char_traitsIwEEEEEv:
 8962|   164k|    {
 8963|   164k|        return m_str;
 8964|   164k|    }
_ZN3scn2v424basic_scan_format_stringIwNS0_6ranges6detail9subrange_8subrangeINSt3__116__deque_iteratorIwPKwRS8_PKS9_lLl1024EEESD_EEJeEEC2ENS0_6detail27basic_runtime_format_stringIwEE:
 8957|   164k|        : m_str(r.str)
 8958|   164k|    {
 8959|   164k|    }
_ZNK3scn2v48expectedINS0_11scan_resultINS0_6ranges6detail9subrange_8subrangeINSt3__116__deque_iteratorIwPKwRS9_PKSA_lLl1024EEESE_EEJeEEENS0_10scan_errorEEcvbEv:
 1771|   181k|    {
 1772|   181k|        return has_value();
 1773|   181k|    }
_ZN3scn2v48expectedINS0_11scan_resultINS0_6ranges6detail9subrange_8subrangeINSt3__116__deque_iteratorIwPKwRS9_PKSA_lLl1024EEESE_EEJeEEENS0_10scan_errorEEptEv:
 1846|   451k|    {
 1847|   451k|        return &value();
 1848|   451k|    }
_ZNR3scn2v48expectedINS0_11scan_resultINS0_6ranges6detail9subrange_8subrangeINSt3__116__deque_iteratorIwPKwRS9_PKSA_lLl1024EEESE_EEJeEEENS0_10scan_errorEE5valueISG_TnPNS7_9enable_ifIXntsr3stdE9is_void_vIT_EEvE4typeELPv0EEERSL_v:
 1800|   451k|    {
 1801|   451k|        SCN_EXPECT(has_value());
  ------------------
  |  | 1079|   451k|#define SCN_EXPECT(cond) SCN_ASSERT(cond, "Precondition violation")
  |  |  ------------------
  |  |  |  | 1076|   451k|#define SCN_ASSERT(cond, msg) assert((cond) && msg)
  |  |  ------------------
  ------------------
 1802|   451k|        return this->get_value();
 1803|   451k|    }
_ZN3scn2v410scan_errorC2ENS1_4codeEPKc:
 3785|  2.44M|    constexpr scan_error(code_t c, const char* m) noexcept : m_msg(m), m_code(c)
 3786|  2.44M|    {
 3787|  2.44M|        SCN_UNLIKELY_ATTR SCN_UNUSED(m_code);
  ------------------
  |  | 1064|  2.44M|#define SCN_UNUSED(x) static_cast<void>(sizeof(x))
  ------------------
 3788|  2.44M|    }
_ZNK3scn2v410scan_error4codeEv:
 3797|   219k|    {
 3798|   219k|        return m_code;
 3799|   219k|    }
_ZNK3scn2v410scan_error3msgEv:
 3802|  2.21k|    {
 3803|  2.21k|        return m_msg;
 3804|  2.21k|    }
_ZN3scn2v46detail30make_string_view_from_pointersIcEENSt3__117basic_string_viewIT_NS3_11char_traitsIS5_EEEEPKS5_SA_:
 4031|   423k|{
 4032|       |    if constexpr (std::is_constructible_v<std::basic_string_view<CharT>,
 4033|       |                                          const CharT*, const CharT*>) {
 4034|       |        return {first, last};
 4035|       |    }
 4036|   423k|    else {
 4037|   423k|        return {first, static_cast<size_t>(std::distance(first, last))};
 4038|   423k|    }
 4039|   423k|}
_ZNK3scn2v46ranges6detail9subrange_8subrangeINS0_6detail17basic_scan_bufferIcE16forward_iteratorENS1_18default_sentinel_tEE5beginEv:
 3512|  24.7M|    {
 3513|  24.7M|        return m_iterator;
 3514|  24.7M|    }
_ZNK3scn2v46ranges6detail9subrange_8subrangeINS0_6detail17basic_scan_bufferIwE16forward_iteratorENS1_18default_sentinel_tEE5beginEv:
 3512|  22.0M|    {
 3513|  22.0M|        return m_iterator;
 3514|  22.0M|    }
_ZNK3scn2v46detail21expected_storage_baseIvNS0_10scan_errorELb1EE9has_valueEv:
  604|  13.2M|    {
  605|  13.2M|        return m_has_value;
  606|  13.2M|    }
_ZNR3scn2v46detail21expected_storage_baseIvNS0_10scan_errorELb1EE14get_unexpectedEv:
  587|  2.60M|    {
  588|  2.60M|        return m_unexpected;
  589|  2.60M|    }
_ZNR3scn2v48expectedIvNS0_10scan_errorEE5errorEv:
 1777|   329k|    {
 1778|   329k|        SCN_EXPECT(!has_value());
  ------------------
  |  | 1079|   329k|#define SCN_EXPECT(cond) SCN_ASSERT(cond, "Precondition violation")
  |  |  ------------------
  |  |  |  | 1076|   329k|#define SCN_ASSERT(cond, msg) assert((cond) && msg)
  |  |  ------------------
  ------------------
 1779|   329k|        return this->get_unexpected().error();
 1780|   329k|    }
_ZN3scn2v46detail12specs_setterC2ERNS1_12format_specsE:
 7185|  1.54M|    explicit constexpr specs_setter(format_specs& specs) : m_specs(specs) {}
_ZN3scn2v46detail12specs_setter7on_typeENS1_17presentation_typeE:
 7229|  1.14M|    {
 7230|  1.14M|        m_specs.type = type;
 7231|  1.14M|    }
_ZNK3scn2v46detail12specs_setter9get_errorEv:
 7304|  1.54M|    {
 7305|  1.54M|        return m_error;
 7306|  1.54M|    }
_ZN3scn2v46detail21unexpected_scan_errorENS0_10scan_error4codeEPKc:
 3971|  2.41M|{
 3972|  2.41M|    return unexpected(scan_error{c, m});
 3973|  2.41M|}
_ZN3scn2v46detail11is_cp_spaceEDi:
 4363|  4.25M|{
 4364|       |    // Pattern_White_Space property
 4365|  4.25M|    return (cp >= 0x09 && cp <= 0x0d) ||
  ------------------
  |  Branch (4365:13): [True: 4.08M, False: 167k]
  |  Branch (4365:27): [True: 357k, False: 3.72M]
  ------------------
 4366|  4.25M|           cp == 0x20 ||    // ASCII space characters
  ------------------
  |  Branch (4366:12): [True: 23.4k, False: 3.86M]
  ------------------
 4367|  4.25M|           cp == 0x85 ||    // NEXT LINE (NEL)
  ------------------
  |  Branch (4367:12): [True: 34.7k, False: 3.83M]
  ------------------
 4368|  4.25M|           cp == 0x200e ||  // LEFT-TO-RIGHT MARK
  ------------------
  |  Branch (4368:12): [True: 5.14k, False: 3.82M]
  ------------------
 4369|  4.25M|           cp == 0x200f ||  // RIGHT-TO-LEFT MARK
  ------------------
  |  Branch (4369:12): [True: 25.0k, False: 3.80M]
  ------------------
 4370|  4.25M|           cp == 0x2028 ||  // LINE SEPARATOR
  ------------------
  |  Branch (4370:12): [True: 999k, False: 2.80M]
  ------------------
 4371|  4.25M|           cp == 0x2029;    // PARAGRAPH SEPARATOR
  ------------------
  |  Branch (4371:12): [True: 261, False: 2.80M]
  ------------------
 4372|  4.25M|}
_ZN3scn2v46detail25get_category_for_arg_typeENS1_8arg_typeE:
 7989|   401k|{
 7990|   401k|    switch (type) {
 7991|      0|        case arg_type::none_type:
  ------------------
  |  Branch (7991:9): [True: 0, False: 401k]
  ------------------
 7992|      0|            return arg_type_category::none;
 7993|       |
 7994|      0|        case arg_type::schar_type:
  ------------------
  |  Branch (7994:9): [True: 0, False: 401k]
  ------------------
 7995|      0|        case arg_type::short_type:
  ------------------
  |  Branch (7995:9): [True: 0, False: 401k]
  ------------------
 7996|      0|        case arg_type::int_type:
  ------------------
  |  Branch (7996:9): [True: 0, False: 401k]
  ------------------
 7997|      0|        case arg_type::long_type:
  ------------------
  |  Branch (7997:9): [True: 0, False: 401k]
  ------------------
 7998|      0|        case arg_type::llong_type:
  ------------------
  |  Branch (7998:9): [True: 0, False: 401k]
  ------------------
 7999|      0|        case arg_type::int128_type:
  ------------------
  |  Branch (7999:9): [True: 0, False: 401k]
  ------------------
 8000|      0|            return arg_type_category::integer;
 8001|       |
 8002|      0|        case arg_type::uchar_type:
  ------------------
  |  Branch (8002:9): [True: 0, False: 401k]
  ------------------
 8003|      0|        case arg_type::ushort_type:
  ------------------
  |  Branch (8003:9): [True: 0, False: 401k]
  ------------------
 8004|      0|        case arg_type::uint_type:
  ------------------
  |  Branch (8004:9): [True: 0, False: 401k]
  ------------------
 8005|      0|        case arg_type::ulong_type:
  ------------------
  |  Branch (8005:9): [True: 0, False: 401k]
  ------------------
 8006|      0|        case arg_type::ullong_type:
  ------------------
  |  Branch (8006:9): [True: 0, False: 401k]
  ------------------
 8007|      0|        case arg_type::uint128_type:
  ------------------
  |  Branch (8007:9): [True: 0, False: 401k]
  ------------------
 8008|      0|            return arg_type_category::unsigned_integer;
 8009|       |
 8010|      0|        case arg_type::pointer_type:
  ------------------
  |  Branch (8010:9): [True: 0, False: 401k]
  ------------------
 8011|      0|            return arg_type_category::pointer;
 8012|      0|        case arg_type::bool_type:
  ------------------
  |  Branch (8012:9): [True: 0, False: 401k]
  ------------------
 8013|      0|            return arg_type_category::boolean;
 8014|      0|        case arg_type::narrow_character_type:
  ------------------
  |  Branch (8014:9): [True: 0, False: 401k]
  ------------------
 8015|      0|        case arg_type::wide_character_type:
  ------------------
  |  Branch (8015:9): [True: 0, False: 401k]
  ------------------
 8016|      0|        case arg_type::code_point_type:
  ------------------
  |  Branch (8016:9): [True: 0, False: 401k]
  ------------------
 8017|      0|            return arg_type_category::character;
 8018|       |
 8019|   123k|        case arg_type::float_type:
  ------------------
  |  Branch (8019:9): [True: 123k, False: 277k]
  ------------------
 8020|   260k|        case arg_type::double_type:
  ------------------
  |  Branch (8020:9): [True: 136k, False: 264k]
  ------------------
 8021|   401k|        case arg_type::ldouble_type:
  ------------------
  |  Branch (8021:9): [True: 141k, False: 260k]
  ------------------
 8022|   401k|        case arg_type::float16_type:
  ------------------
  |  Branch (8022:9): [True: 0, False: 401k]
  ------------------
 8023|   401k|        case arg_type::float32_type:
  ------------------
  |  Branch (8023:9): [True: 0, False: 401k]
  ------------------
 8024|   401k|        case arg_type::float64_type:
  ------------------
  |  Branch (8024:9): [True: 0, False: 401k]
  ------------------
 8025|   401k|        case arg_type::float128_type:
  ------------------
  |  Branch (8025:9): [True: 0, False: 401k]
  ------------------
 8026|   401k|        case arg_type::bfloat16_type:
  ------------------
  |  Branch (8026:9): [True: 0, False: 401k]
  ------------------
 8027|   401k|            return arg_type_category::floating;
 8028|       |
 8029|      0|        case arg_type::narrow_string_type:
  ------------------
  |  Branch (8029:9): [True: 0, False: 401k]
  ------------------
 8030|      0|        case arg_type::wide_string_type:
  ------------------
  |  Branch (8030:9): [True: 0, False: 401k]
  ------------------
 8031|      0|        case arg_type::string_view_type:
  ------------------
  |  Branch (8031:9): [True: 0, False: 401k]
  ------------------
 8032|      0|            return arg_type_category::string;
 8033|       |
 8034|      0|        case arg_type::custom_type:
  ------------------
  |  Branch (8034:9): [True: 0, False: 401k]
  ------------------
 8035|      0|            return arg_type_category::custom;
 8036|       |
 8037|      0|            SCN_CLANG_PUSH
 8038|      0|            SCN_CLANG_IGNORE("-Wcovered-switch-default")
 8039|      0|        default:
  ------------------
  |  Branch (8039:9): [True: 0, False: 401k]
  ------------------
 8040|      0|            SCN_ENSURE(false);
  ------------------
  |  | 1080|      0|#define SCN_ENSURE(cond) SCN_ASSERT(cond, "Postcondition violation")
  |  |  ------------------
  |  |  |  | 1076|      0|#define SCN_ASSERT(cond, msg) assert((cond) && msg)
  |  |  ------------------
  ------------------
 8041|   401k|            SCN_UNREACHABLE;
  ------------------
  |  | 1042|      0|#define SCN_UNREACHABLE __builtin_unreachable()
  ------------------
 8042|   401k|            SCN_CLANG_POP
 8043|   401k|    }
 8044|       |
 8045|      0|    SCN_UNREACHABLE;
  ------------------
  |  | 1042|      0|#define SCN_UNREACHABLE __builtin_unreachable()
  ------------------
 8046|   401k|}
_ZNO3scn2v48expectedIvNS0_10scan_errorEE5errorEv:
 1787|  2.27M|    {
 1788|  2.27M|        SCN_EXPECT(!has_value());
  ------------------
  |  | 1079|  2.27M|#define SCN_EXPECT(cond) SCN_ASSERT(cond, "Precondition violation")
  |  |  ------------------
  |  |  |  | 1076|  2.27M|#define SCN_ASSERT(cond, msg) assert((cond) && msg)
  |  |  ------------------
  ------------------
 1789|  2.27M|        return std::move(this->get_unexpected().error());
 1790|  2.27M|    }
_ZN3scn2v46ranges6detail5size_2fn4implIRNSt3__112basic_stringIcNS6_11char_traitsIcEENS6_9allocatorIcEEEEmEENS6_9enable_ifIXaasr3stdE13is_integral_vIT0_Ent19disable_sized_rangeIu11__remove_cvIu20__remove_reference_tIT_EEEESF_E4typeEOSG_NS0_6detail12priority_tagILm2EEE:
 3072|  1.71M|    {
 3073|  1.71M|        return decay_copy(SCN_FWD(t).size());
  ------------------
  |  | 1085|  1.71M|#define SCN_FWD(x)          static_cast<decltype(x)&&>(x)
  ------------------
 3074|  1.71M|    }
_ZNK3scn2v46ranges6detail5size_2fnclIRNSt3__112basic_stringIcNS6_11char_traitsIcEENS6_9allocatorIcEEEEEEDTclsr2fnE4implclsr3stdE7forwardIT_Efp_EtlNS0_6detail12priority_tagILm3EEEEEEOSE_:
 3106|  1.71M|    {
 3107|  1.71M|        return fn::impl(std::forward<T>(t), priority_tag<3>{});
 3108|  1.71M|    }
_ZN3scn2v46ranges6detail6ssize_2fn4implIRNSt3__112basic_stringIcNS6_11char_traitsIcEENS6_9allocatorIcEEEEEEDTcmclL_ZNS1_4sizeEEclsr3stdE7forwardIT_Efp_EEcvNS6_11conditionalIXltstNS6_9enable_ifIX5rangeISE_EENS1_20incrementable_traitsIDTclL_ZNS1_5beginEEclsr3stdE7declvalIRSE_EEEEE15difference_typeEE4typeELm8EElSN_E4typeE_EEOSE_:
 3129|  1.71M|    {
 3130|  1.71M|        return static_cast<ssize_return_t<T>>(ranges::size(std::forward<T>(t)));
 3131|  1.71M|    }
_ZNK3scn2v46ranges6detail6ssize_2fnclIRNSt3__112basic_stringIcNS6_11char_traitsIcEENS6_9allocatorIcEEEEEEDTclsr2fnE4implclsr3stdE7forwardIT_Efp_EEEOSE_:
 3138|  1.71M|    {
 3139|  1.71M|        return fn::impl(std::forward<T>(t));
 3140|  1.71M|    }
_ZN3scn2v46detail22check_float_type_specsIRNS0_4impl20reader_error_handlerEEEvRKNS1_12format_specsEOT_:
 8125|  1.54M|{
 8126|  1.54M|    if (specs.type != presentation_type::none &&
  ------------------
  |  Branch (8126:9): [True: 1.14M, False: 401k]
  ------------------
 8127|  1.54M|        (specs.type < presentation_type::float_hex ||
  ------------------
  |  Branch (8127:10): [True: 0, False: 1.14M]
  ------------------
 8128|  1.14M|         specs.type > presentation_type::float_general)) {
  ------------------
  |  Branch (8128:10): [True: 0, False: 1.14M]
  ------------------
 8129|      0|        SCN_UNLIKELY_ATTR
 8130|      0|        return handler.on_error("Invalid type specifier for float type");
 8131|      0|    }
 8132|  1.54M|}
_ZNK3scn2v48expectedIvNS0_10scan_errorEEcvbEv:
 1771|  10.6M|    {
 1772|  10.6M|        return has_value();
 1773|  10.6M|    }
_ZNK3scn2v46detail17basic_scan_bufferIcE16forward_iterator13stores_parentEv:
 4536|   121M|    {
 4537|   121M|        assert(m_begin);
 4538|   121M|        return m_end == nullptr;
 4539|   121M|    }
_ZNK3scn2v46detail17basic_scan_bufferIcE16forward_iterator18contiguous_segmentEv:
 4553|  2.07M|    {
 4554|  2.07M|        if (!stores_parent()) {
  ------------------
  |  Branch (4554:13): [True: 0, False: 2.07M]
  ------------------
 4555|      0|            return make_string_view_from_pointers(
 4556|      0|                static_cast<const CharT*>(m_begin) + position(),
 4557|      0|                static_cast<const CharT*>(m_end));
 4558|      0|        }
 4559|  2.07M|        return parent()->get_segment_starting_at(position());
 4560|  2.07M|    }
_ZNK3scn2v46detail17basic_scan_bufferIcE16forward_iterator6parentEv:
 4547|  66.8M|    {
 4548|  66.8M|        SCN_EXPECT(stores_parent());
  ------------------
  |  | 1079|  66.8M|#define SCN_EXPECT(cond) SCN_ASSERT(cond, "Precondition violation")
  |  |  ------------------
  |  |  |  | 1076|  66.8M|#define SCN_ASSERT(cond, msg) assert((cond) && msg)
  |  |  ------------------
  ------------------
 4549|  66.8M|        return static_cast<const basic_scan_buffer<CharT>*>(m_begin);
 4550|  66.8M|    }
_ZNK3scn2v46detail17basic_scan_bufferIcE23get_segment_starting_atEl:
 4436|  2.07M|    {
 4437|  2.07M|        SCN_EXPECT(pos >= 0);
  ------------------
  |  | 1079|  2.07M|#define SCN_EXPECT(cond) SCN_ASSERT(cond, "Precondition violation")
  |  |  ------------------
  |  |  |  | 1076|  2.07M|#define SCN_ASSERT(cond, msg) assert((cond) && msg)
  |  |  ------------------
  ------------------
 4438|  2.07M|        const auto upos = static_cast<std::size_t>(pos);
 4439|  2.07M|        if (SCN_UNLIKELY(upos < m_putback_buffer.size())) {
  ------------------
  |  | 1014|  2.07M|#define SCN_UNLIKELY(x) __builtin_expect(!!(x), 0)
  |  |  ------------------
  |  |  |  Branch (1014:25): [True: 876k, False: 1.19M]
  |  |  ------------------
  ------------------
 4440|   876k|            return std::basic_string_view<CharT>(m_putback_buffer).substr(upos);
 4441|   876k|        }
 4442|  1.19M|        const auto start = upos - m_putback_buffer.size();
 4443|  1.19M|        SCN_EXPECT(start <= m_current_view.size());
  ------------------
  |  | 1079|  1.19M|#define SCN_EXPECT(cond) SCN_ASSERT(cond, "Precondition violation")
  |  |  ------------------
  |  |  |  | 1076|  1.19M|#define SCN_ASSERT(cond, msg) assert((cond) && msg)
  |  |  ------------------
  ------------------
 4444|  1.19M|        return m_current_view.substr(start);
 4445|  1.19M|    }
_ZN3scn2v46detail17basic_scan_bufferIcE16forward_iterator6parentEv:
 4542|  1.47M|    {
 4543|  1.47M|        SCN_EXPECT(stores_parent());
  ------------------
  |  | 1079|  1.47M|#define SCN_EXPECT(cond) SCN_ASSERT(cond, "Precondition violation")
  |  |  ------------------
  |  |  |  | 1076|  1.47M|#define SCN_ASSERT(cond, msg) assert((cond) && msg)
  |  |  ------------------
  ------------------
 4544|  1.47M|        return static_cast<basic_scan_buffer<CharT>*>(m_begin);
 4545|  1.47M|    }
_ZNK3scn2v46detail17basic_scan_bufferIcE16forward_iterator8positionEv:
 4531|  3.80M|    {
 4532|  3.80M|        return m_position;
 4533|  3.80M|    }
_ZNK3scn2v46detail17basic_scan_bufferIcE13is_contiguousEv:
 4462|  1.69M|    {
 4463|  1.69M|        return m_is_contiguous;
 4464|  1.69M|    }
_ZNK3scn2v46detail17basic_scan_bufferIwE16forward_iterator13stores_parentEv:
 4536|  71.7M|    {
 4537|  71.7M|        assert(m_begin);
 4538|  71.7M|        return m_end == nullptr;
 4539|  71.7M|    }
_ZN3scn2v46detail30make_string_view_from_pointersIwEENSt3__117basic_string_viewIT_NS3_11char_traitsIS5_EEEEPKS5_SA_:
 4031|   361k|{
 4032|       |    if constexpr (std::is_constructible_v<std::basic_string_view<CharT>,
 4033|       |                                          const CharT*, const CharT*>) {
 4034|       |        return {first, last};
 4035|       |    }
 4036|   361k|    else {
 4037|   361k|        return {first, static_cast<size_t>(std::distance(first, last))};
 4038|   361k|    }
 4039|   361k|}
_ZNK3scn2v46detail17basic_scan_bufferIwE16forward_iterator18contiguous_segmentEv:
 4553|  1.28M|    {
 4554|  1.28M|        if (!stores_parent()) {
  ------------------
  |  Branch (4554:13): [True: 0, False: 1.28M]
  ------------------
 4555|      0|            return make_string_view_from_pointers(
 4556|      0|                static_cast<const CharT*>(m_begin) + position(),
 4557|      0|                static_cast<const CharT*>(m_end));
 4558|      0|        }
 4559|  1.28M|        return parent()->get_segment_starting_at(position());
 4560|  1.28M|    }
_ZNK3scn2v46detail17basic_scan_bufferIwE16forward_iterator6parentEv:
 4547|  38.3M|    {
 4548|  38.3M|        SCN_EXPECT(stores_parent());
  ------------------
  |  | 1079|  38.3M|#define SCN_EXPECT(cond) SCN_ASSERT(cond, "Precondition violation")
  |  |  ------------------
  |  |  |  | 1076|  38.3M|#define SCN_ASSERT(cond, msg) assert((cond) && msg)
  |  |  ------------------
  ------------------
 4549|  38.3M|        return static_cast<const basic_scan_buffer<CharT>*>(m_begin);
 4550|  38.3M|    }
_ZNK3scn2v46detail17basic_scan_bufferIwE23get_segment_starting_atEl:
 4436|  1.28M|    {
 4437|  1.28M|        SCN_EXPECT(pos >= 0);
  ------------------
  |  | 1079|  1.28M|#define SCN_EXPECT(cond) SCN_ASSERT(cond, "Precondition violation")
  |  |  ------------------
  |  |  |  | 1076|  1.28M|#define SCN_ASSERT(cond, msg) assert((cond) && msg)
  |  |  ------------------
  ------------------
 4438|  1.28M|        const auto upos = static_cast<std::size_t>(pos);
 4439|  1.28M|        if (SCN_UNLIKELY(upos < m_putback_buffer.size())) {
  ------------------
  |  | 1014|  1.28M|#define SCN_UNLIKELY(x) __builtin_expect(!!(x), 0)
  |  |  ------------------
  |  |  |  Branch (1014:25): [True: 743k, False: 541k]
  |  |  ------------------
  ------------------
 4440|   743k|            return std::basic_string_view<CharT>(m_putback_buffer).substr(upos);
 4441|   743k|        }
 4442|   541k|        const auto start = upos - m_putback_buffer.size();
 4443|   541k|        SCN_EXPECT(start <= m_current_view.size());
  ------------------
  |  | 1079|   541k|#define SCN_EXPECT(cond) SCN_ASSERT(cond, "Precondition violation")
  |  |  ------------------
  |  |  |  | 1076|   541k|#define SCN_ASSERT(cond, msg) assert((cond) && msg)
  |  |  ------------------
  ------------------
 4444|   541k|        return m_current_view.substr(start);
 4445|   541k|    }
_ZN3scn2v46detail17basic_scan_bufferIwE16forward_iterator6parentEv:
 4542|  1.36M|    {
 4543|  1.36M|        SCN_EXPECT(stores_parent());
  ------------------
  |  | 1079|  1.36M|#define SCN_EXPECT(cond) SCN_ASSERT(cond, "Precondition violation")
  |  |  ------------------
  |  |  |  | 1076|  1.36M|#define SCN_ASSERT(cond, msg) assert((cond) && msg)
  |  |  ------------------
  ------------------
 4544|  1.36M|        return static_cast<basic_scan_buffer<CharT>*>(m_begin);
 4545|  1.36M|    }
_ZNK3scn2v46detail17basic_scan_bufferIwE16forward_iterator8positionEv:
 4531|  2.79M|    {
 4532|  2.79M|        return m_position;
 4533|  2.79M|    }
_ZNK3scn2v46detail17basic_scan_bufferIwE13is_contiguousEv:
 4462|  1.55M|    {
 4463|  1.55M|        return m_is_contiguous;
 4464|  1.55M|    }
_ZN3scn2v46ranges14view_interfaceINS1_6detail9subrange_8subrangeIPKcS7_EEE7derivedEv:
 3365|  3.09M|    {
 3366|  3.09M|        return static_cast<D&>(*this);
 3367|  3.09M|    }
_ZN3scn2v46ranges14view_interfaceINS1_6detail9subrange_8subrangeIPKcS7_EEE4dataIS8_vEEDav:
 3406|  3.09M|    {
 3407|  3.09M|        return detail::to_address(ranges::begin(derived()));
 3408|  3.09M|    }
_ZN3scn2v46ranges14view_interfaceINS1_6detail9subrange_8subrangeIPKwS7_EEE7derivedEv:
 3365|  1.20M|    {
 3366|  1.20M|        return static_cast<D&>(*this);
 3367|  1.20M|    }
_ZN3scn2v46ranges14view_interfaceINS1_6detail9subrange_8subrangeIPKwS7_EEE4dataIS8_vEEDav:
 3406|  1.20M|    {
 3407|  1.20M|        return detail::to_address(ranges::begin(derived()));
 3408|  1.20M|    }
_ZNK3scn2v418basic_scan_contextINS0_6detail16buffer_range_tagEcE5rangeEv:
 9159|   410k|    {
 9160|   410k|        return ranges::subrange{begin(), end()};
 9161|   410k|    }
_ZNK3scn2v418basic_scan_contextINS0_6detail16buffer_range_tagEcE3endEv:
 9151|   410k|    {
 9152|   410k|        return ranges::default_sentinel;
 9153|   410k|    }
_ZN3scn2v46ranges6detail9subrange_8subrangeINS0_6detail17basic_scan_bufferIcE16forward_iteratorENS1_18default_sentinel_tEEC2IS8_TnPNSt3__19enable_ifIXsr3stdE16is_convertible_vIT_S8_EEvE4typeELPv0EEESE_S9_:
 3496|  5.99M|        : m_iterator(SCN_MOVE(i)), m_sentinel(SCN_MOVE(s))
  ------------------
  |  | 1083|  5.99M|    static_cast<    \
  |  | 1084|  5.99M|        typename ::scn::detail::remove_reference<decltype(x)>::type&&>(x)
  ------------------
                      : m_iterator(SCN_MOVE(i)), m_sentinel(SCN_MOVE(s))
  ------------------
  |  | 1083|  5.99M|    static_cast<    \
  |  | 1084|  5.99M|        typename ::scn::detail::remove_reference<decltype(x)>::type&&>(x)
  ------------------
 3497|  5.99M|    {
 3498|  5.99M|    }
_ZN3scn2v46detail10locale_refC2Ev:
 8978|  3.27M|    constexpr locale_ref() = default;
_ZNO3scn2v48expectedINS0_6detail17basic_scan_bufferIcE16forward_iteratorENS0_4impl9eof_errorEE15transform_errorIRFNS0_10scan_errorES7_EEEDTclsr6detailE20transform_error_impldefpTclsr3stdE7forwardIT_Efp_EEEOSD_:
 2010|   566k|    {
 2011|   566k|        return detail::transform_error_impl(std::move(*this),
 2012|   566k|                                            std::forward<F>(f));
 2013|   566k|    }
_ZN3scn2v46detail20transform_error_implINS0_8expectedINS1_17basic_scan_bufferIcE16forward_iteratorENS0_4impl9eof_errorEEERFNS0_10scan_errorES8_ETnPNSt3__19enable_ifIXntsr11is_exp_voidIT_EE5valueEvE4typeELPv0ESA_EEDaOSF_OT0_:
 1493|   566k|{
 1494|       |    if constexpr (std::is_void_v<Ret>) {
 1495|       |        using result = expected<expected_value_type<Exp>, monostate>;
 1496|       |        if (SCN_LIKELY(exp.has_value())) {
 1497|       |            return result(*std::forward<Exp>(exp));
 1498|       |        }
 1499|       |
 1500|       |        trivial_invoke(std::forward<F>(f), std::forward<Exp>(exp).error());
 1501|       |        return result(unexpect, monostate{});
 1502|       |    }
 1503|   566k|    else {
 1504|   566k|        using result = expected<expected_value_type<Exp>, remove_cvref_t<Ret>>;
 1505|   566k|        return SCN_LIKELY(exp.has_value())
  ------------------
  |  | 1013|   566k|#define SCN_LIKELY(x)   __builtin_expect(!!(x), 1)
  |  |  ------------------
  |  |  |  Branch (1013:25): [True: 556k, False: 9.78k]
  |  |  ------------------
  ------------------
 1506|   566k|                   ? result(*std::forward<Exp>(exp))
 1507|   566k|                   : result(unexpect,
 1508|  9.78k|                            trivial_invoke(std::forward<F>(f),
 1509|  9.78k|                                           std::forward<Exp>(exp).error()));
 1510|   566k|    }
 1511|   566k|}
_ZNK3scn2v46detail21expected_storage_baseINS1_17basic_scan_bufferIcE16forward_iteratorENS0_4impl9eof_errorELb1EE9has_valueEv:
  522|  5.86M|    {
  523|  5.86M|        return m_has_value;
  524|  5.86M|    }
_ZNO3scn2v48expectedINS0_6detail17basic_scan_bufferIcE16forward_iteratorENS0_4impl9eof_errorEEdeIS5_TnPNSt3__19enable_ifIXntsr3stdE9is_void_vIT_EEvE4typeELPv0EEEOSC_v:
 1836|  1.99M|    {
 1837|  1.99M|        return std::move(value());
 1838|  1.99M|    }
_ZNR3scn2v48expectedINS0_6detail17basic_scan_bufferIcE16forward_iteratorENS0_4impl9eof_errorEE5valueIS5_TnPNSt3__19enable_ifIXntsr3stdE9is_void_vIT_EEvE4typeELPv0EEERSC_v:
 1800|  2.24M|    {
 1801|  2.24M|        SCN_EXPECT(has_value());
  ------------------
  |  | 1079|  2.24M|#define SCN_EXPECT(cond) SCN_ASSERT(cond, "Precondition violation")
  |  |  ------------------
  |  |  |  | 1076|  2.24M|#define SCN_ASSERT(cond, msg) assert((cond) && msg)
  |  |  ------------------
  ------------------
 1802|  2.24M|        return this->get_value();
 1803|  2.24M|    }
_ZNR3scn2v46detail21expected_storage_baseINS1_17basic_scan_bufferIcE16forward_iteratorENS0_4impl9eof_errorELb1EE9get_valueEv:
  488|  2.24M|    {
  489|  2.24M|        return m_value;
  490|  2.24M|    }
_ZN3scn2v48expectedINS0_6detail17basic_scan_bufferIcE16forward_iteratorENS0_10scan_errorEEC2IS5_vEEOT_:
 1601|  2.40M|        : base(std::in_place, std::forward<U>(val)),
 1602|  2.40M|          ctor_base(detail::non_default_ctor_tag_t{})
 1603|  2.40M|    {
 1604|  2.40M|    }
_ZN3scn2v46detail21expected_storage_baseINS1_17basic_scan_bufferIcE16forward_iteratorENS0_10scan_errorELb1EEC2IJS5_EvEENSt3__110in_place_tEDpOT_:
  473|  2.40M|        : m_value(std::forward<Args>(args)...), m_has_value(true)
  474|  2.40M|    {
  475|  2.40M|    }
_ZN3scn2v46detail26expected_default_ctor_baseINS1_17basic_scan_bufferIcE16forward_iteratorENS0_10scan_errorELb1EEC2ENS1_22non_default_ctor_tag_tE:
 1347|  3.20M|    {
 1348|  3.20M|    }
_ZN3scn2v46detail14trivial_invokeIRFNS0_10scan_errorENS0_4impl9eof_errorEEJS5_EvEEDcOT_DpOT0_:
 1381|  28.3k|{
 1382|  28.3k|    return std::forward<F>(f)(std::forward<Args>(args)...);
 1383|  28.3k|}
_ZNO3scn2v48expectedINS0_6detail17basic_scan_bufferIcE16forward_iteratorENS0_4impl9eof_errorEE5errorEv:
 1787|  39.4k|    {
 1788|  39.4k|        SCN_EXPECT(!has_value());
  ------------------
  |  | 1079|  39.4k|#define SCN_EXPECT(cond) SCN_ASSERT(cond, "Precondition violation")
  |  |  ------------------
  |  |  |  | 1076|  39.4k|#define SCN_ASSERT(cond, msg) assert((cond) && msg)
  |  |  ------------------
  ------------------
 1789|  39.4k|        return std::move(this->get_unexpected().error());
 1790|  39.4k|    }
_ZNR3scn2v46detail21expected_storage_baseINS1_17basic_scan_bufferIcE16forward_iteratorENS0_4impl9eof_errorELb1EE14get_unexpectedEv:
  505|  50.0k|    {
  506|  50.0k|        return m_unexpected;
  507|  50.0k|    }
_ZNR3scn2v410unexpectedINS0_4impl9eof_errorEE5errorEv:
  397|   398k|    {
  398|   398k|        return m_unexpected;
  399|   398k|    }
_ZN3scn2v48expectedINS0_6detail17basic_scan_bufferIcE16forward_iteratorENS0_10scan_errorEEC2IJS6_EvEENS0_10unexpect_tEDpOT_:
 1657|   571k|        : base(unexpect, std::forward<Args>(args)...),
 1658|   571k|          ctor_base(detail::non_default_ctor_tag_t{})
 1659|   571k|    {
 1660|   571k|    }
_ZN3scn2v46detail21expected_storage_baseINS1_17basic_scan_bufferIcE16forward_iteratorENS0_10scan_errorELb1EEC2IJS6_EvEENS0_10unexpect_tEDpOT_:
  482|   753k|        : m_unexpected(std::in_place, std::forward<Args>(args)...),
  483|   753k|          m_has_value(false)
  484|   753k|    {
  485|   753k|    }
_ZNK3scn2v418basic_scan_contextINS0_6detail16buffer_range_tagEwE5rangeEv:
 9159|   378k|    {
 9160|   378k|        return ranges::subrange{begin(), end()};
 9161|   378k|    }
_ZNK3scn2v418basic_scan_contextINS0_6detail16buffer_range_tagEwE3endEv:
 9151|   378k|    {
 9152|   378k|        return ranges::default_sentinel;
 9153|   378k|    }
_ZN3scn2v46ranges6detail9subrange_8subrangeINS0_6detail17basic_scan_bufferIwE16forward_iteratorENS1_18default_sentinel_tEEC2IS8_TnPNSt3__19enable_ifIXsr3stdE16is_convertible_vIT_S8_EEvE4typeELPv0EEESE_S9_:
 3496|  5.37M|        : m_iterator(SCN_MOVE(i)), m_sentinel(SCN_MOVE(s))
  ------------------
  |  | 1083|  5.37M|    static_cast<    \
  |  | 1084|  5.37M|        typename ::scn::detail::remove_reference<decltype(x)>::type&&>(x)
  ------------------
                      : m_iterator(SCN_MOVE(i)), m_sentinel(SCN_MOVE(s))
  ------------------
  |  | 1083|  5.37M|    static_cast<    \
  |  | 1084|  5.37M|        typename ::scn::detail::remove_reference<decltype(x)>::type&&>(x)
  ------------------
 3497|  5.37M|    {
 3498|  5.37M|    }
_ZNO3scn2v48expectedINS0_6detail17basic_scan_bufferIwE16forward_iteratorENS0_4impl9eof_errorEE15transform_errorIRFNS0_10scan_errorES7_EEEDTclsr6detailE20transform_error_impldefpTclsr3stdE7forwardIT_Efp_EEEOSD_:
 2010|   518k|    {
 2011|   518k|        return detail::transform_error_impl(std::move(*this),
 2012|   518k|                                            std::forward<F>(f));
 2013|   518k|    }
_ZN3scn2v46detail20transform_error_implINS0_8expectedINS1_17basic_scan_bufferIwE16forward_iteratorENS0_4impl9eof_errorEEERFNS0_10scan_errorES8_ETnPNSt3__19enable_ifIXntsr11is_exp_voidIT_EE5valueEvE4typeELPv0ESA_EEDaOSF_OT0_:
 1493|   518k|{
 1494|       |    if constexpr (std::is_void_v<Ret>) {
 1495|       |        using result = expected<expected_value_type<Exp>, monostate>;
 1496|       |        if (SCN_LIKELY(exp.has_value())) {
 1497|       |            return result(*std::forward<Exp>(exp));
 1498|       |        }
 1499|       |
 1500|       |        trivial_invoke(std::forward<F>(f), std::forward<Exp>(exp).error());
 1501|       |        return result(unexpect, monostate{});
 1502|       |    }
 1503|   518k|    else {
 1504|   518k|        using result = expected<expected_value_type<Exp>, remove_cvref_t<Ret>>;
 1505|   518k|        return SCN_LIKELY(exp.has_value())
  ------------------
  |  | 1013|   518k|#define SCN_LIKELY(x)   __builtin_expect(!!(x), 1)
  |  |  ------------------
  |  |  |  Branch (1013:25): [True: 513k, False: 4.28k]
  |  |  ------------------
  ------------------
 1506|   518k|                   ? result(*std::forward<Exp>(exp))
 1507|   518k|                   : result(unexpect,
 1508|  4.28k|                            trivial_invoke(std::forward<F>(f),
 1509|  4.28k|                                           std::forward<Exp>(exp).error()));
 1510|   518k|    }
 1511|   518k|}
_ZNK3scn2v46detail21expected_storage_baseINS1_17basic_scan_bufferIwE16forward_iteratorENS0_4impl9eof_errorELb1EE9has_valueEv:
  522|  5.04M|    {
  523|  5.04M|        return m_has_value;
  524|  5.04M|    }
_ZNO3scn2v48expectedINS0_6detail17basic_scan_bufferIwE16forward_iteratorENS0_4impl9eof_errorEEdeIS5_TnPNSt3__19enable_ifIXntsr3stdE9is_void_vIT_EEvE4typeELPv0EEEOSC_v:
 1836|  1.81M|    {
 1837|  1.81M|        return std::move(value());
 1838|  1.81M|    }
_ZNR3scn2v48expectedINS0_6detail17basic_scan_bufferIwE16forward_iteratorENS0_4impl9eof_errorEE5valueIS5_TnPNSt3__19enable_ifIXntsr3stdE9is_void_vIT_EEvE4typeELPv0EEERSC_v:
 1800|  1.84M|    {
 1801|  1.84M|        SCN_EXPECT(has_value());
  ------------------
  |  | 1079|  1.84M|#define SCN_EXPECT(cond) SCN_ASSERT(cond, "Precondition violation")
  |  |  ------------------
  |  |  |  | 1076|  1.84M|#define SCN_ASSERT(cond, msg) assert((cond) && msg)
  |  |  ------------------
  ------------------
 1802|  1.84M|        return this->get_value();
 1803|  1.84M|    }
_ZNR3scn2v46detail21expected_storage_baseINS1_17basic_scan_bufferIwE16forward_iteratorENS0_4impl9eof_errorELb1EE9get_valueEv:
  488|  1.84M|    {
  489|  1.84M|        return m_value;
  490|  1.84M|    }
_ZN3scn2v48expectedINS0_6detail17basic_scan_bufferIwE16forward_iteratorENS0_10scan_errorEEC2IS5_vEEOT_:
 1601|  1.93M|        : base(std::in_place, std::forward<U>(val)),
 1602|  1.93M|          ctor_base(detail::non_default_ctor_tag_t{})
 1603|  1.93M|    {
 1604|  1.93M|    }
_ZN3scn2v46detail21expected_storage_baseINS1_17basic_scan_bufferIwE16forward_iteratorENS0_10scan_errorELb1EEC2IJS5_EvEENSt3__110in_place_tEDpOT_:
  473|  1.93M|        : m_value(std::forward<Args>(args)...), m_has_value(true)
  474|  1.93M|    {
  475|  1.93M|    }
_ZN3scn2v46detail26expected_default_ctor_baseINS1_17basic_scan_bufferIwE16forward_iteratorENS0_10scan_errorELb1EEC2ENS1_22non_default_ctor_tag_tE:
 1347|  2.95M|    {
 1348|  2.95M|    }
_ZNO3scn2v48expectedINS0_6detail17basic_scan_bufferIwE16forward_iteratorENS0_4impl9eof_errorEE5errorEv:
 1787|  64.1k|    {
 1788|  64.1k|        SCN_EXPECT(!has_value());
  ------------------
  |  | 1079|  64.1k|#define SCN_EXPECT(cond) SCN_ASSERT(cond, "Precondition violation")
  |  |  ------------------
  |  |  |  | 1076|  64.1k|#define SCN_ASSERT(cond, msg) assert((cond) && msg)
  |  |  ------------------
  ------------------
 1789|  64.1k|        return std::move(this->get_unexpected().error());
 1790|  64.1k|    }
_ZNR3scn2v46detail21expected_storage_baseINS1_17basic_scan_bufferIwE16forward_iteratorENS0_4impl9eof_errorELb1EE14get_unexpectedEv:
  505|  66.8k|    {
  506|  66.8k|        return m_unexpected;
  507|  66.8k|    }
_ZN3scn2v48expectedINS0_6detail17basic_scan_bufferIwE16forward_iteratorENS0_10scan_errorEEC2IJS6_EvEENS0_10unexpect_tEDpOT_:
 1657|   645k|        : base(unexpect, std::forward<Args>(args)...),
 1658|   645k|          ctor_base(detail::non_default_ctor_tag_t{})
 1659|   645k|    {
 1660|   645k|    }
_ZN3scn2v46detail21expected_storage_baseINS1_17basic_scan_bufferIwE16forward_iteratorENS0_10scan_errorELb1EEC2IJS6_EvEENS0_10unexpect_tEDpOT_:
  482|  1.01M|        : m_unexpected(std::in_place, std::forward<Args>(args)...),
  483|  1.01M|          m_has_value(false)
  484|  1.01M|    {
  485|  1.01M|    }
_ZN3scn2v410unexpectedINS0_10scan_errorEEC2IS2_vEEOT_:
  380|  2.41M|        : m_unexpected(std::forward<Err>(e))
  381|  2.41M|    {
  382|  2.41M|        SCN_UNLIKELY_ATTR SCN_UNUSED(m_unexpected);
  ------------------
  |  | 1064|  2.41M|#define SCN_UNUSED(x) static_cast<void>(sizeof(x))
  ------------------
  383|  2.41M|    }
_ZN3scn2v48expectedIlNS0_10scan_errorEEC2IS2_TnPNSt3__19enable_ifIXsr3stdE18is_constructible_vIS2_OT_EEvE4typeELPv0ETnPNS6_IXsr3stdE16is_convertible_vIS8_S2_EEvE4typeELSC_0EEEONS0_10unexpectedIS7_EE:
 1647|   632k|        : base(unexpect, std::move(e.error())),
 1648|   632k|          ctor_base(detail::non_default_ctor_tag_t{})
 1649|   632k|    {
 1650|   632k|    }
_ZN3scn2v46detail21expected_storage_baseIlNS0_10scan_errorELb1EEC2IJS3_EvEENS0_10unexpect_tEDpOT_:
  482|   632k|        : m_unexpected(std::in_place, std::forward<Args>(args)...),
  483|   632k|          m_has_value(false)
  484|   632k|    {
  485|   632k|    }
_ZN3scn2v46detail26expected_default_ctor_baseIlNS0_10scan_errorELb1EEC2ENS1_22non_default_ctor_tag_tE:
 1347|  5.79M|    {
 1348|  5.79M|    }
_ZN3scn2v48expectedIPKcNS0_10scan_errorEEC2IS4_TnPNSt3__19enable_ifIXsr3stdE18is_constructible_vIS4_OT_EEvE4typeELPv0ETnPNS8_IXsr3stdE16is_convertible_vISA_S4_EEvE4typeELSE_0EEEONS0_10unexpectedIS9_EE:
 1647|   163k|        : base(unexpect, std::move(e.error())),
 1648|   163k|          ctor_base(detail::non_default_ctor_tag_t{})
 1649|   163k|    {
 1650|   163k|    }
_ZN3scn2v46detail21expected_storage_baseIPKcNS0_10scan_errorELb1EEC2IJS5_EvEENS0_10unexpect_tEDpOT_:
  482|   674k|        : m_unexpected(std::in_place, std::forward<Args>(args)...),
  483|   674k|          m_has_value(false)
  484|   674k|    {
  485|   674k|    }
_ZN3scn2v46detail26expected_default_ctor_baseIPKcNS0_10scan_errorELb1EEC2ENS1_22non_default_ctor_tag_tE:
 1347|  3.02M|    {
 1348|  3.02M|    }
_ZN3scn2v48expectedIPKcNS0_10scan_errorEEC2IS3_vEEOT_:
 1601|  2.31M|        : base(std::in_place, std::forward<U>(val)),
 1602|  2.31M|          ctor_base(detail::non_default_ctor_tag_t{})
 1603|  2.31M|    {
 1604|  2.31M|    }
_ZN3scn2v46detail21expected_storage_baseIPKcNS0_10scan_errorELb1EEC2IJS4_EvEENSt3__110in_place_tEDpOT_:
  473|  2.31M|        : m_value(std::forward<Args>(args)...), m_has_value(true)
  474|  2.31M|    {
  475|  2.31M|    }
_ZNK3scn2v48expectedIPKcNS0_10scan_errorEEcvbEv:
 1771|  3.54M|    {
 1772|  3.54M|        return has_value();
 1773|  3.54M|    }
_ZNK3scn2v46detail21expected_storage_baseIPKcNS0_10scan_errorELb1EE9has_valueEv:
  522|  5.58M|    {
  523|  5.58M|        return m_has_value;
  524|  5.58M|    }
_ZNR3scn2v48expectedIPKcNS0_10scan_errorEE5errorEv:
 1777|   190k|    {
 1778|   190k|        SCN_EXPECT(!has_value());
  ------------------
  |  | 1079|   190k|#define SCN_EXPECT(cond) SCN_ASSERT(cond, "Precondition violation")
  |  |  ------------------
  |  |  |  | 1076|   190k|#define SCN_ASSERT(cond, msg) assert((cond) && msg)
  |  |  ------------------
  ------------------
 1779|   190k|        return this->get_unexpected().error();
 1780|   190k|    }
_ZNR3scn2v46detail21expected_storage_baseIPKcNS0_10scan_errorELb1EE14get_unexpectedEv:
  505|   190k|    {
  506|   190k|        return m_unexpected;
  507|   190k|    }
_ZNO3scn2v48expectedIPKcNS0_10scan_errorEEdeIS3_TnPNSt3__19enable_ifIXntsr3stdE9is_void_vIT_EEvE4typeELPv0EEEOS9_v:
 1836|  1.50M|    {
 1837|  1.50M|        return std::move(value());
 1838|  1.50M|    }
_ZNR3scn2v48expectedIPKcNS0_10scan_errorEE5valueIS3_TnPNSt3__19enable_ifIXntsr3stdE9is_void_vIT_EEvE4typeELPv0EEERS9_v:
 1800|  1.85M|    {
 1801|  1.85M|        SCN_EXPECT(has_value());
  ------------------
  |  | 1079|  1.85M|#define SCN_EXPECT(cond) SCN_ASSERT(cond, "Precondition violation")
  |  |  ------------------
  |  |  |  | 1076|  1.85M|#define SCN_ASSERT(cond, msg) assert((cond) && msg)
  |  |  ------------------
  ------------------
 1802|  1.85M|        return this->get_value();
 1803|  1.85M|    }
_ZNR3scn2v46detail21expected_storage_baseIPKcNS0_10scan_errorELb1EE9get_valueEv:
  488|  1.85M|    {
  489|  1.85M|        return m_value;
  490|  1.85M|    }
_ZN3scn2v48expectedIPKwNS0_10scan_errorEEC2IS4_TnPNSt3__19enable_ifIXsr3stdE18is_constructible_vIS4_OT_EEvE4typeELPv0ETnPNS8_IXsr3stdE16is_convertible_vISA_S4_EEvE4typeELSE_0EEEONS0_10unexpectedIS9_EE:
 1647|   305k|        : base(unexpect, std::move(e.error())),
 1648|   305k|          ctor_base(detail::non_default_ctor_tag_t{})
 1649|   305k|    {
 1650|   305k|    }
_ZN3scn2v46detail21expected_storage_baseIPKwNS0_10scan_errorELb1EEC2IJS5_EvEENS0_10unexpect_tEDpOT_:
  482|   881k|        : m_unexpected(std::in_place, std::forward<Args>(args)...),
  483|   881k|          m_has_value(false)
  484|   881k|    {
  485|   881k|    }
_ZN3scn2v46detail26expected_default_ctor_baseIPKwNS0_10scan_errorELb1EEC2ENS1_22non_default_ctor_tag_tE:
 1347|  2.95M|    {
 1348|  2.95M|    }
_ZN3scn2v48expectedIPKwNS0_10scan_errorEEC2IS3_vEEOT_:
 1601|  2.07M|        : base(std::in_place, std::forward<U>(val)),
 1602|  2.07M|          ctor_base(detail::non_default_ctor_tag_t{})
 1603|  2.07M|    {
 1604|  2.07M|    }
_ZN3scn2v46detail21expected_storage_baseIPKwNS0_10scan_errorELb1EEC2IJS4_EvEENSt3__110in_place_tEDpOT_:
  473|  2.07M|        : m_value(std::forward<Args>(args)...), m_has_value(true)
  474|  2.07M|    {
  475|  2.07M|    }
_ZNK3scn2v48expectedIPKwNS0_10scan_errorEEcvbEv:
 1771|  3.46M|    {
 1772|  3.46M|        return has_value();
 1773|  3.46M|    }
_ZNK3scn2v46detail21expected_storage_baseIPKwNS0_10scan_errorELb1EE9has_valueEv:
  522|  5.45M|    {
  523|  5.45M|        return m_has_value;
  524|  5.45M|    }
_ZNR3scn2v48expectedIPKwNS0_10scan_errorEE5errorEv:
 1777|   367k|    {
 1778|   367k|        SCN_EXPECT(!has_value());
  ------------------
  |  | 1079|   367k|#define SCN_EXPECT(cond) SCN_ASSERT(cond, "Precondition violation")
  |  |  ------------------
  |  |  |  | 1076|   367k|#define SCN_ASSERT(cond, msg) assert((cond) && msg)
  |  |  ------------------
  ------------------
 1779|   367k|        return this->get_unexpected().error();
 1780|   367k|    }
_ZNR3scn2v46detail21expected_storage_baseIPKwNS0_10scan_errorELb1EE14get_unexpectedEv:
  505|   367k|    {
  506|   367k|        return m_unexpected;
  507|   367k|    }
_ZNO3scn2v48expectedIPKwNS0_10scan_errorEEdeIS3_TnPNSt3__19enable_ifIXntsr3stdE9is_void_vIT_EEvE4typeELPv0EEEOS9_v:
 1836|  1.34M|    {
 1837|  1.34M|        return std::move(value());
 1838|  1.34M|    }
_ZNR3scn2v48expectedIPKwNS0_10scan_errorEE5valueIS3_TnPNSt3__19enable_ifIXntsr3stdE9is_void_vIT_EEvE4typeELPv0EEERS9_v:
 1800|  1.61M|    {
 1801|  1.61M|        SCN_EXPECT(has_value());
  ------------------
  |  | 1079|  1.61M|#define SCN_EXPECT(cond) SCN_ASSERT(cond, "Precondition violation")
  |  |  ------------------
  |  |  |  | 1076|  1.61M|#define SCN_ASSERT(cond, msg) assert((cond) && msg)
  |  |  ------------------
  ------------------
 1802|  1.61M|        return this->get_value();
 1803|  1.61M|    }
_ZNR3scn2v46detail21expected_storage_baseIPKwNS0_10scan_errorELb1EE9get_valueEv:
  488|  1.61M|    {
  489|  1.61M|        return m_value;
  490|  1.61M|    }
_ZNO3scn2v48expectedIPKcNS0_4impl9eof_errorEE15transform_errorIRFNS0_10scan_errorES5_EEEDTclsr6detailE20transform_error_impldefpTclsr3stdE7forwardIT_Efp_EEEOSB_:
 2010|   529k|    {
 2011|   529k|        return detail::transform_error_impl(std::move(*this),
 2012|   529k|                                            std::forward<F>(f));
 2013|   529k|    }
_ZN3scn2v46detail20transform_error_implINS0_8expectedIPKcNS0_4impl9eof_errorEEERFNS0_10scan_errorES7_ETnPNSt3__19enable_ifIXntsr11is_exp_voidIT_EE5valueEvE4typeELPv0ES9_EEDaOSE_OT0_:
 1493|   529k|{
 1494|       |    if constexpr (std::is_void_v<Ret>) {
 1495|       |        using result = expected<expected_value_type<Exp>, monostate>;
 1496|       |        if (SCN_LIKELY(exp.has_value())) {
 1497|       |            return result(*std::forward<Exp>(exp));
 1498|       |        }
 1499|       |
 1500|       |        trivial_invoke(std::forward<F>(f), std::forward<Exp>(exp).error());
 1501|       |        return result(unexpect, monostate{});
 1502|       |    }
 1503|   529k|    else {
 1504|   529k|        using result = expected<expected_value_type<Exp>, remove_cvref_t<Ret>>;
 1505|   529k|        return SCN_LIKELY(exp.has_value())
  ------------------
  |  | 1013|   529k|#define SCN_LIKELY(x)   __builtin_expect(!!(x), 1)
  |  |  ------------------
  |  |  |  Branch (1013:25): [True: 521k, False: 7.87k]
  |  |  ------------------
  ------------------
 1506|   529k|                   ? result(*std::forward<Exp>(exp))
 1507|   529k|                   : result(unexpect,
 1508|  7.87k|                            trivial_invoke(std::forward<F>(f),
 1509|  7.87k|                                           std::forward<Exp>(exp).error()));
 1510|   529k|    }
 1511|   529k|}
_ZNK3scn2v46detail21expected_storage_baseIPKcNS0_4impl9eof_errorELb1EE9has_valueEv:
  522|  2.02M|    {
  523|  2.02M|        return m_has_value;
  524|  2.02M|    }
_ZNO3scn2v48expectedIPKcNS0_4impl9eof_errorEEdeIS3_TnPNSt3__19enable_ifIXntsr3stdE9is_void_vIT_EEvE4typeELPv0EEEOSA_v:
 1836|   521k|    {
 1837|   521k|        return std::move(value());
 1838|   521k|    }
_ZNR3scn2v48expectedIPKcNS0_4impl9eof_errorEE5valueIS3_TnPNSt3__19enable_ifIXntsr3stdE9is_void_vIT_EEvE4typeELPv0EEERSA_v:
 1800|   682k|    {
 1801|   682k|        SCN_EXPECT(has_value());
  ------------------
  |  | 1079|   682k|#define SCN_EXPECT(cond) SCN_ASSERT(cond, "Precondition violation")
  |  |  ------------------
  |  |  |  | 1076|   682k|#define SCN_ASSERT(cond, msg) assert((cond) && msg)
  |  |  ------------------
  ------------------
 1802|   682k|        return this->get_value();
 1803|   682k|    }
_ZNR3scn2v46detail21expected_storage_baseIPKcNS0_4impl9eof_errorELb1EE9get_valueEv:
  488|   682k|    {
  489|   682k|        return m_value;
  490|   682k|    }
_ZNO3scn2v48expectedIPKcNS0_4impl9eof_errorEE5errorEv:
 1787|  7.87k|    {
 1788|  7.87k|        SCN_EXPECT(!has_value());
  ------------------
  |  | 1079|  7.87k|#define SCN_EXPECT(cond) SCN_ASSERT(cond, "Precondition violation")
  |  |  ------------------
  |  |  |  | 1076|  7.87k|#define SCN_ASSERT(cond, msg) assert((cond) && msg)
  |  |  ------------------
  ------------------
 1789|  7.87k|        return std::move(this->get_unexpected().error());
 1790|  7.87k|    }
_ZNR3scn2v46detail21expected_storage_baseIPKcNS0_4impl9eof_errorELb1EE14get_unexpectedEv:
  505|  12.9k|    {
  506|  12.9k|        return m_unexpected;
  507|  12.9k|    }
_ZN3scn2v48expectedIPKcNS0_10scan_errorEEC2IJS4_EvEENS0_10unexpect_tEDpOT_:
 1657|   510k|        : base(unexpect, std::forward<Args>(args)...),
 1658|   510k|          ctor_base(detail::non_default_ctor_tag_t{})
 1659|   510k|    {
 1660|   510k|    }
_ZNK3scn2v418basic_scan_contextINS0_6detail16buffer_range_tagEcE5beginEv:
 9143|  1.17M|    {
 9144|  1.17M|        return m_current;
 9145|  1.17M|    }
_ZNK3scn2v46detail17scan_context_baseINS0_15basic_scan_argsINS0_18basic_scan_contextINS1_16buffer_range_tagEcEEEEE6localeEv:
 9036|   787k|    {
 9037|   787k|        return m_locale;
 9038|   787k|    }
_ZN3scn2v46detail17scan_context_baseINS0_15basic_scan_argsINS0_18basic_scan_contextINS1_16buffer_range_tagEcEEEEEC2ES7_NS1_10locale_refE:
 9042|   787k|        : m_args(SCN_MOVE(args)), m_locale(SCN_MOVE(loc))
  ------------------
  |  | 1083|   787k|    static_cast<    \
  |  | 1084|   787k|        typename ::scn::detail::remove_reference<decltype(x)>::type&&>(x)
  ------------------
                      : m_args(SCN_MOVE(args)), m_locale(SCN_MOVE(loc))
  ------------------
  |  | 1083|   787k|    static_cast<    \
  |  | 1084|   787k|        typename ::scn::detail::remove_reference<decltype(x)>::type&&>(x)
  ------------------
 9043|   787k|    {
 9044|   787k|    }
_ZNK3scn2v46ranges6detail5data_2fnclIRNSt3__117basic_string_viewIcNS6_11char_traitsIcEEEEEEDTclsr2fnE4implscDtfp_Efp_tlNS0_6detail12priority_tagILm1EEEEEEOT_:
 3031|   839k|    {
 3032|   839k|        return fn::impl(SCN_FWD(t), priority_tag<1>{});
  ------------------
  |  | 1085|   839k|#define SCN_FWD(x)          static_cast<decltype(x)&&>(x)
  ------------------
 3033|   839k|    }
_ZN3scn2v46ranges6detail5data_2fn4implINSt3__117basic_string_viewIcNS6_11char_traitsIcEEEEPKcEENS6_9enable_ifIX19is_object_pointer_vIT0_EESE_E4typeERT_NS0_6detail12priority_tagILm1EEE:
 3012|   839k|    {
 3013|   839k|        return t.data();
 3014|   839k|    }
_ZN3scn2v48expectedINS0_6detail17basic_scan_bufferIcE16forward_iteratorENS0_10scan_errorEEC2IS6_TnPNSt3__19enable_ifIXsr3stdE18is_constructible_vIS6_OT_EEvE4typeELPv0ETnPNSA_IXsr3stdE16is_convertible_vISC_S6_EEvE4typeELSG_0EEEONS0_10unexpectedISB_EE:
 1647|   181k|        : base(unexpect, std::move(e.error())),
 1648|   181k|          ctor_base(detail::non_default_ctor_tag_t{})
 1649|   181k|    {
 1650|   181k|    }
_ZN3scn2v48expectedINS0_6detail17basic_scan_bufferIcE16forward_iteratorENS0_10scan_errorEEC2IRS5_vEEOT_:
 1601|  45.0k|        : base(std::in_place, std::forward<U>(val)),
 1602|  45.0k|          ctor_base(detail::non_default_ctor_tag_t{})
 1603|  45.0k|    {
 1604|  45.0k|    }
_ZN3scn2v46detail21expected_storage_baseINS1_17basic_scan_bufferIcE16forward_iteratorENS0_10scan_errorELb1EEC2IJRS5_EvEENSt3__110in_place_tEDpOT_:
  473|  45.0k|        : m_value(std::forward<Args>(args)...), m_has_value(true)
  474|  45.0k|    {
  475|  45.0k|    }
_ZNK3scn2v418basic_scan_contextINS0_6detail16buffer_range_tagEwE5beginEv:
 9143|  1.02M|    {
 9144|  1.02M|        return m_current;
 9145|  1.02M|    }
_ZNK3scn2v46detail17scan_context_baseINS0_15basic_scan_argsINS0_18basic_scan_contextINS1_16buffer_range_tagEwEEEEE6localeEv:
 9036|   756k|    {
 9037|   756k|        return m_locale;
 9038|   756k|    }
_ZN3scn2v46detail17scan_context_baseINS0_15basic_scan_argsINS0_18basic_scan_contextINS1_16buffer_range_tagEwEEEEEC2ES7_NS1_10locale_refE:
 9042|   756k|        : m_args(SCN_MOVE(args)), m_locale(SCN_MOVE(loc))
  ------------------
  |  | 1083|   756k|    static_cast<    \
  |  | 1084|   756k|        typename ::scn::detail::remove_reference<decltype(x)>::type&&>(x)
  ------------------
                      : m_args(SCN_MOVE(args)), m_locale(SCN_MOVE(loc))
  ------------------
  |  | 1083|   756k|    static_cast<    \
  |  | 1084|   756k|        typename ::scn::detail::remove_reference<decltype(x)>::type&&>(x)
  ------------------
 9043|   756k|    {
 9044|   756k|    }
_ZN3scn2v48expectedINS0_6detail17basic_scan_bufferIwE16forward_iteratorENS0_10scan_errorEEC2IS6_TnPNSt3__19enable_ifIXsr3stdE18is_constructible_vIS6_OT_EEvE4typeELPv0ETnPNSA_IXsr3stdE16is_convertible_vISC_S6_EEvE4typeELSG_0EEEONS0_10unexpectedISB_EE:
 1647|   374k|        : base(unexpect, std::move(e.error())),
 1648|   374k|          ctor_base(detail::non_default_ctor_tag_t{})
 1649|   374k|    {
 1650|   374k|    }
_ZN3scn2v48expectedIvNS0_10scan_errorEEC2IS2_TnPNSt3__19enable_ifIXsr3stdE18is_constructible_vIS2_OT_EEvE4typeELPv0ETnPNS6_IXsr3stdE16is_convertible_vIS8_S2_EEvE4typeELSC_0EEEONS0_10unexpectedIS7_EE:
 1647|  2.60M|        : base(unexpect, std::move(e.error())),
 1648|  2.60M|          ctor_base(detail::non_default_ctor_tag_t{})
 1649|  2.60M|    {
 1650|  2.60M|    }
_ZN3scn2v46detail21expected_storage_baseIvNS0_10scan_errorELb1EEC2IJS3_EvEENS0_10unexpect_tEDpOT_:
  581|  2.60M|        : m_unexpected(std::in_place, std::forward<Args>(args)...),
  582|  2.60M|          m_has_value(false)
  583|  2.60M|    {
  584|  2.60M|    }
_ZN3scn2v46detail26expected_default_ctor_baseIvNS0_10scan_errorELb1EEC2ENS1_22non_default_ctor_tag_tE:
 1347|  2.60M|    {
 1348|  2.60M|    }
_ZN3scn2v48expectedIvNS0_10scan_errorEEC2Ev:
 1583|  9.04M|    constexpr expected() = default;
_ZN3scn2v46detail21expected_storage_baseIvNS0_10scan_errorELb1EEC2Ev:
  561|  9.04M|        : m_deferred_init(), m_has_value(true)
  562|  9.04M|    {
  563|  9.04M|    }
_ZN3scn2v46detaileqERKNS1_17basic_scan_bufferIcE16forward_iteratorENS0_6ranges18default_sentinel_tE:
 4622|  4.81M|    {
 4623|  4.81M|        return x.is_at_end();
 4624|  4.81M|    }
_ZNK3scn2v46detail17basic_scan_bufferIcE16forward_iterator9is_at_endEv:
 4666|  9.91M|    {
 4667|  9.91M|        if (m_end) {
  ------------------
  |  Branch (4667:13): [True: 0, False: 9.91M]
  ------------------
 4668|      0|            return (static_cast<const CharT*>(m_begin) + position()) == m_end;
 4669|      0|        }
 4670|  9.91M|        if (!m_begin) {
  ------------------
  |  Branch (4670:13): [True: 0, False: 9.91M]
  ------------------
 4671|      0|            return true;
 4672|      0|        }
 4673|  9.91M|        return !read_at_position();
 4674|  9.91M|    }
_ZNK3scn2v46detail17basic_scan_bufferIcE16forward_iterator16read_at_positionEv:
 4646|  38.9M|    {
 4647|  38.9M|        SCN_EXPECT(m_begin);
  ------------------
  |  | 1079|  38.9M|#define SCN_EXPECT(cond) SCN_ASSERT(cond, "Precondition violation")
  |  |  ------------------
  |  |  |  | 1076|  38.9M|#define SCN_ASSERT(cond, msg) assert((cond) && msg)
  |  |  ------------------
  ------------------
 4648|       |
 4649|  38.9M|        if (!stores_parent()) {
  ------------------
  |  Branch (4649:13): [True: 0, False: 38.9M]
  ------------------
 4650|      0|            return true;
 4651|      0|        }
 4652|       |
 4653|  38.9M|        if (SCN_LIKELY(m_position < parent()->chars_available())) {
  ------------------
  |  | 1013|  38.9M|#define SCN_LIKELY(x)   __builtin_expect(!!(x), 1)
  |  |  ------------------
  |  |  |  Branch (1013:25): [True: 33.7M, False: 5.16M]
  |  |  ------------------
  ------------------
 4654|  33.7M|            return true;
 4655|  33.7M|        }
 4656|       |
 4657|  10.1M|        while (m_position >= parent()->chars_available()) {
  ------------------
  |  Branch (4657:16): [True: 5.16M, False: 4.98M]
  ------------------
 4658|  5.16M|            if (!const_cast<basic_scan_buffer<CharT>*>(parent())->fill()) {
  ------------------
  |  Branch (4658:17): [True: 182k, False: 4.98M]
  ------------------
 4659|   182k|                return false;
 4660|   182k|            }
 4661|  5.16M|        }
 4662|  4.98M|        return true;
 4663|  5.16M|    }
_ZNK3scn2v46detail17basic_scan_bufferIcE16forward_iteratordeEv:
 4581|  10.5M|    {
 4582|  10.5M|        SCN_EXPECT(m_begin);
  ------------------
  |  | 1079|  10.5M|#define SCN_EXPECT(cond) SCN_ASSERT(cond, "Precondition violation")
  |  |  ------------------
  |  |  |  | 1076|  10.5M|#define SCN_ASSERT(cond, msg) assert((cond) && msg)
  |  |  ------------------
  ------------------
 4583|       |
 4584|  10.5M|        if (!stores_parent()) {
  ------------------
  |  Branch (4584:13): [True: 0, False: 10.5M]
  ------------------
 4585|      0|            auto ptr = static_cast<const CharT*>(m_begin) + position();
 4586|      0|            SCN_EXPECT(ptr != m_end);
  ------------------
  |  | 1079|      0|#define SCN_EXPECT(cond) SCN_ASSERT(cond, "Precondition violation")
  |  |  ------------------
  |  |  |  | 1076|      0|#define SCN_ASSERT(cond, msg) assert((cond) && msg)
  |  |  ------------------
  ------------------
 4587|      0|            return *ptr;
 4588|      0|        }
 4589|       |
 4590|  10.5M|        auto res = read_at_position();
 4591|  10.5M|        SCN_EXPECT(res);
  ------------------
  |  | 1079|  10.5M|#define SCN_EXPECT(cond) SCN_ASSERT(cond, "Precondition violation")
  |  |  ------------------
  |  |  |  | 1076|  10.5M|#define SCN_ASSERT(cond, msg) assert((cond) && msg)
  |  |  ------------------
  ------------------
 4592|  10.5M|        return parent()->get_character_at(m_position);
 4593|  10.5M|    }
_ZNK3scn2v46detail17basic_scan_bufferIcE16get_character_atEl:
 4448|  10.5M|    {
 4449|  10.5M|        SCN_EXPECT(pos >= 0);
  ------------------
  |  | 1079|  10.5M|#define SCN_EXPECT(cond) SCN_ASSERT(cond, "Precondition violation")
  |  |  ------------------
  |  |  |  | 1076|  10.5M|#define SCN_ASSERT(cond, msg) assert((cond) && msg)
  |  |  ------------------
  ------------------
 4450|  10.5M|        const auto upos = static_cast<std::size_t>(pos);
 4451|  10.5M|        if (SCN_UNLIKELY(upos < m_putback_buffer.size())) {
  ------------------
  |  | 1014|  10.5M|#define SCN_UNLIKELY(x) __builtin_expect(!!(x), 0)
  |  |  ------------------
  |  |  |  Branch (1014:25): [True: 7.43M, False: 3.09M]
  |  |  ------------------
  ------------------
 4452|  7.43M|            return m_putback_buffer[upos];
 4453|  7.43M|        }
 4454|  3.09M|        const auto start = upos - m_putback_buffer.size();
 4455|  3.09M|        SCN_EXPECT(start < m_current_view.size());
  ------------------
  |  | 1079|  3.09M|#define SCN_EXPECT(cond) SCN_ASSERT(cond, "Precondition violation")
  |  |  ------------------
  |  |  |  | 1076|  3.09M|#define SCN_ASSERT(cond, msg) assert((cond) && msg)
  |  |  ------------------
  ------------------
 4456|  3.09M|        return m_current_view[start];
 4457|  3.09M|    }
_ZN3scn2v48expectedINS0_6detail17basic_scan_bufferIcE16forward_iteratorENS0_4impl9eof_errorEEC2IS5_vEEOT_:
 1601|  3.51M|        : base(std::in_place, std::forward<U>(val)),
 1602|  3.51M|          ctor_base(detail::non_default_ctor_tag_t{})
 1603|  3.51M|    {
 1604|  3.51M|    }
_ZN3scn2v46detail21expected_storage_baseINS1_17basic_scan_bufferIcE16forward_iteratorENS0_4impl9eof_errorELb1EEC2IJS5_EvEENSt3__110in_place_tEDpOT_:
  473|  3.51M|        : m_value(std::forward<Args>(args)...), m_has_value(true)
  474|  3.51M|    {
  475|  3.51M|    }
_ZN3scn2v46detail26expected_default_ctor_baseINS1_17basic_scan_bufferIcE16forward_iteratorENS0_4impl9eof_errorELb1EEC2ENS1_22non_default_ctor_tag_tE:
 1347|  3.56M|    {
 1348|  3.56M|    }
_ZN3scn2v410unexpectedINS0_4impl9eof_errorEEC2IS3_vEEOT_:
  380|   152k|        : m_unexpected(std::forward<Err>(e))
  381|   152k|    {
  382|   152k|        SCN_UNLIKELY_ATTR SCN_UNUSED(m_unexpected);
  ------------------
  |  | 1064|   152k|#define SCN_UNUSED(x) static_cast<void>(sizeof(x))
  ------------------
  383|   152k|    }
_ZN3scn2v48expectedINS0_6detail17basic_scan_bufferIcE16forward_iteratorENS0_4impl9eof_errorEEC2IS7_TnPNSt3__19enable_ifIXsr3stdE18is_constructible_vIS7_OT_EEvE4typeELPv0ETnPNSB_IXsr3stdE16is_convertible_vISD_S7_EEvE4typeELSH_0EEEONS0_10unexpectedISC_EE:
 1647|  50.0k|        : base(unexpect, std::move(e.error())),
 1648|  50.0k|          ctor_base(detail::non_default_ctor_tag_t{})
 1649|  50.0k|    {
 1650|  50.0k|    }
_ZN3scn2v46detail21expected_storage_baseINS1_17basic_scan_bufferIcE16forward_iteratorENS0_4impl9eof_errorELb1EEC2IJS7_EvEENS0_10unexpect_tEDpOT_:
  482|  50.0k|        : m_unexpected(std::in_place, std::forward<Args>(args)...),
  483|  50.0k|          m_has_value(false)
  484|  50.0k|    {
  485|  50.0k|    }
_ZN3scn2v410unexpectedINS0_4impl9eof_errorEEC2IJS3_EvEENSt3__110in_place_tEDpOT_:
  391|   199k|        : m_unexpected(std::forward<Args>(args)...)
  392|   199k|    {
  393|   199k|        SCN_UNLIKELY_ATTR SCN_UNUSED(m_unexpected);
  ------------------
  |  | 1064|   199k|#define SCN_UNUSED(x) static_cast<void>(sizeof(x))
  ------------------
  394|   199k|    }
_ZN3scn2v46detail17basic_scan_bufferIcE16forward_iteratorppEv:
 4567|  18.4M|    {
 4568|  18.4M|        ++m_position;
 4569|  18.4M|        (void)read_at_position();
 4570|  18.4M|        return *this;
 4571|  18.4M|    }
_ZNK3scn2v48expectedINS0_6detail17basic_scan_bufferIcE16forward_iteratorENS0_4impl9eof_errorEEcvbEv:
 1771|  1.52M|    {
 1772|  1.52M|        return has_value();
 1773|  1.52M|    }
_ZNR3scn2v48expectedINS0_6detail17basic_scan_bufferIcE16forward_iteratorENS0_4impl9eof_errorEEdeIS5_TnPNSt3__19enable_ifIXntsr3stdE9is_void_vIT_EEvE4typeELPv0EEERSC_v:
 1826|   249k|    {
 1827|   249k|        return value();
 1828|   249k|    }
_ZN3scn2v46detailneERKNS1_17basic_scan_bufferIcE16forward_iteratorES6_:
 4616|  8.50M|    {
 4617|  8.50M|        return !(lhs == rhs);
 4618|  8.50M|    }
_ZN3scn2v46detaileqERKNS1_17basic_scan_bufferIcE16forward_iteratorES6_:
 4611|  9.88M|    {
 4612|  9.88M|        return lhs.m_begin == rhs.m_begin && lhs.m_position == rhs.m_position;
  ------------------
  |  Branch (4612:16): [True: 9.88M, False: 0]
  |  Branch (4612:46): [True: 1.80M, False: 8.07M]
  ------------------
 4613|  9.88M|    }
_ZN3scn2v410unexpectedINS0_4impl9eof_errorEEC2IRS3_vEEOT_:
  380|  47.2k|        : m_unexpected(std::forward<Err>(e))
  381|  47.2k|    {
  382|  47.2k|        SCN_UNLIKELY_ATTR SCN_UNUSED(m_unexpected);
  ------------------
  |  | 1064|  47.2k|#define SCN_UNUSED(x) static_cast<void>(sizeof(x))
  ------------------
  383|  47.2k|    }
_ZN3scn2v48expectedINSt3__14pairINS0_6detail17basic_scan_bufferIcE16forward_iteratorElEENS0_10scan_errorEEC2IS9_TnPNS2_9enable_ifIXsr3stdE18is_constructible_vIS9_OT_EEvE4typeELPv0ETnPNSC_IXsr3stdE16is_convertible_vISE_S9_EEvE4typeELSI_0EEEONS0_10unexpectedISD_EE:
 1647|  7.64k|        : base(unexpect, std::move(e.error())),
 1648|  7.64k|          ctor_base(detail::non_default_ctor_tag_t{})
 1649|  7.64k|    {
 1650|  7.64k|    }
_ZN3scn2v46detail21expected_storage_baseINSt3__14pairINS1_17basic_scan_bufferIcE16forward_iteratorElEENS0_10scan_errorELb1EEC2IJS9_EvEENS0_10unexpect_tEDpOT_:
  482|  7.64k|        : m_unexpected(std::in_place, std::forward<Args>(args)...),
  483|  7.64k|          m_has_value(false)
  484|  7.64k|    {
  485|  7.64k|    }
_ZN3scn2v46detail26expected_default_ctor_baseINSt3__14pairINS1_17basic_scan_bufferIcE16forward_iteratorElEENS0_10scan_errorELb1EEC2ENS1_22non_default_ctor_tag_tE:
 1347|   762k|    {
 1348|   762k|    }
_ZN3scn2v48expectedINSt3__14pairINS0_6detail17basic_scan_bufferIcE16forward_iteratorElEENS0_10scan_errorEEC2IS8_vEEOT_:
 1601|   755k|        : base(std::in_place, std::forward<U>(val)),
 1602|   755k|          ctor_base(detail::non_default_ctor_tag_t{})
 1603|   755k|    {
 1604|   755k|    }
_ZN3scn2v46detail21expected_storage_baseINSt3__14pairINS1_17basic_scan_bufferIcE16forward_iteratorElEENS0_10scan_errorELb1EEC2IJS8_EvEENS3_10in_place_tEDpOT_:
  473|   755k|        : m_value(std::forward<Args>(args)...), m_has_value(true)
  474|   755k|    {
  475|   755k|    }
_ZNK3scn2v48expectedINSt3__14pairINS0_6detail17basic_scan_bufferIcE16forward_iteratorElEENS0_10scan_errorEEcvbEv:
 1771|   762k|    {
 1772|   762k|        return has_value();
 1773|   762k|    }
_ZNK3scn2v46detail21expected_storage_baseINSt3__14pairINS1_17basic_scan_bufferIcE16forward_iteratorElEENS0_10scan_errorELb1EE9has_valueEv:
  522|  1.52M|    {
  523|  1.52M|        return m_has_value;
  524|  1.52M|    }
_ZNR3scn2v48expectedINSt3__14pairINS0_6detail17basic_scan_bufferIcE16forward_iteratorElEENS0_10scan_errorEE5errorEv:
 1777|  7.64k|    {
 1778|  7.64k|        SCN_EXPECT(!has_value());
  ------------------
  |  | 1079|  7.64k|#define SCN_EXPECT(cond) SCN_ASSERT(cond, "Precondition violation")
  |  |  ------------------
  |  |  |  | 1076|  7.64k|#define SCN_ASSERT(cond, msg) assert((cond) && msg)
  |  |  ------------------
  ------------------
 1779|  7.64k|        return this->get_unexpected().error();
 1780|  7.64k|    }
_ZNR3scn2v46detail21expected_storage_baseINSt3__14pairINS1_17basic_scan_bufferIcE16forward_iteratorElEENS0_10scan_errorELb1EE14get_unexpectedEv:
  505|  7.64k|    {
  506|  7.64k|        return m_unexpected;
  507|  7.64k|    }
_ZNO3scn2v48expectedINSt3__14pairINS0_6detail17basic_scan_bufferIcE16forward_iteratorElEENS0_10scan_errorEEdeIS8_TnPNS2_9enable_ifIXntsr3stdE9is_void_vIT_EEvE4typeELPv0EEEOSD_v:
 1836|   755k|    {
 1837|   755k|        return std::move(value());
 1838|   755k|    }
_ZNR3scn2v48expectedINSt3__14pairINS0_6detail17basic_scan_bufferIcE16forward_iteratorElEENS0_10scan_errorEE5valueIS8_TnPNS2_9enable_ifIXntsr3stdE9is_void_vIT_EEvE4typeELPv0EEERSD_v:
 1800|   755k|    {
 1801|   755k|        SCN_EXPECT(has_value());
  ------------------
  |  | 1079|   755k|#define SCN_EXPECT(cond) SCN_ASSERT(cond, "Precondition violation")
  |  |  ------------------
  |  |  |  | 1076|   755k|#define SCN_ASSERT(cond, msg) assert((cond) && msg)
  |  |  ------------------
  ------------------
 1802|   755k|        return this->get_value();
 1803|   755k|    }
_ZNR3scn2v46detail21expected_storage_baseINSt3__14pairINS1_17basic_scan_bufferIcE16forward_iteratorElEENS0_10scan_errorELb1EE9get_valueEv:
  488|   755k|    {
  489|   755k|        return m_value;
  490|   755k|    }
_ZNK3scn2v46ranges6detail9subrange_8subrangeINS0_6detail17basic_scan_bufferIcE16forward_iteratorENS1_18default_sentinel_tEE3endEv:
 3517|  14.9M|    {
 3518|  14.9M|        return m_sentinel;
 3519|  14.9M|    }
_ZN3scn2v410unexpectedINS0_4impl11parse_errorEEC2IS3_vEEOT_:
  380|  49.2k|        : m_unexpected(std::forward<Err>(e))
  381|  49.2k|    {
  382|  49.2k|        SCN_UNLIKELY_ATTR SCN_UNUSED(m_unexpected);
  ------------------
  |  | 1064|  49.2k|#define SCN_UNUSED(x) static_cast<void>(sizeof(x))
  ------------------
  383|  49.2k|    }
_ZNR3scn2v410unexpectedINS0_4impl11parse_errorEE5errorEv:
  397|  8.74M|    {
  398|  8.74M|        return m_unexpected;
  399|  8.74M|    }
_ZN3scn2v410unexpectedINS0_4impl11parse_errorEEC2IJS3_EvEENSt3__110in_place_tEDpOT_:
  391|  2.44M|        : m_unexpected(std::forward<Args>(args)...)
  392|  2.44M|    {
  393|  2.44M|        SCN_UNLIKELY_ATTR SCN_UNUSED(m_unexpected);
  ------------------
  |  | 1064|  2.44M|#define SCN_UNUSED(x) static_cast<void>(sizeof(x))
  ------------------
  394|  2.44M|    }
_ZN3scn2v410unexpectedINS0_4impl11parse_error4codeEEC2IS4_vEEOT_:
  380|  10.3M|        : m_unexpected(std::forward<Err>(e))
  381|  10.3M|    {
  382|  10.3M|        SCN_UNLIKELY_ATTR SCN_UNUSED(m_unexpected);
  ------------------
  |  | 1064|  10.3M|#define SCN_UNUSED(x) static_cast<void>(sizeof(x))
  ------------------
  383|  10.3M|    }
_ZNR3scn2v410unexpectedINS0_4impl11parse_error4codeEE5errorEv:
  397|  10.3M|    {
  398|  10.3M|        return m_unexpected;
  399|  10.3M|    }
_ZN3scn2v410unexpectedINS0_4impl11parse_errorEEC2IJNS3_4codeEEvEENSt3__110in_place_tEDpOT_:
  391|  10.3M|        : m_unexpected(std::forward<Args>(args)...)
  392|  10.3M|    {
  393|  10.3M|        SCN_UNLIKELY_ATTR SCN_UNUSED(m_unexpected);
  ------------------
  |  | 1064|  10.3M|#define SCN_UNUSED(x) static_cast<void>(sizeof(x))
  ------------------
  394|  10.3M|    }
_ZN3scn2v46detail14trivial_invokeIRFNS0_4impl11parse_errorENS3_9eof_errorEEJS5_EvEEDcOT_DpOT0_:
 1381|   149k|{
 1382|   149k|    return std::forward<F>(f)(std::forward<Args>(args)...);
 1383|   149k|}
_ZN3scn2v410unexpectedINS0_4impl11parse_errorEEC2IRS3_vEEOT_:
  380|  2.24M|        : m_unexpected(std::forward<Err>(e))
  381|  2.24M|    {
  382|  2.24M|        SCN_UNLIKELY_ATTR SCN_UNUSED(m_unexpected);
  ------------------
  |  | 1064|  2.24M|#define SCN_UNUSED(x) static_cast<void>(sizeof(x))
  ------------------
  383|  2.24M|    }
_ZNR3scn2v48expectedINS0_6detail17basic_scan_bufferIcE16forward_iteratorENS0_4impl9eof_errorEE5errorEv:
 1777|  10.6k|    {
 1778|  10.6k|        SCN_EXPECT(!has_value());
  ------------------
  |  | 1079|  10.6k|#define SCN_EXPECT(cond) SCN_ASSERT(cond, "Precondition violation")
  |  |  ------------------
  |  |  |  | 1076|  10.6k|#define SCN_ASSERT(cond, msg) assert((cond) && msg)
  |  |  ------------------
  ------------------
 1779|  10.6k|        return this->get_unexpected().error();
 1780|  10.6k|    }
_ZN3scn2v48expectedINS0_6detail17basic_scan_bufferIcE16forward_iteratorENS0_4impl11parse_errorEEC2IS7_TnPNSt3__19enable_ifIXsr3stdE18is_constructible_vIS7_OT_EEvE4typeELPv0ETnPNSB_IXsr3stdE16is_convertible_vISD_S7_EEvE4typeELSH_0EEEONS0_10unexpectedISC_EE:
 1647|   590k|        : base(unexpect, std::move(e.error())),
 1648|   590k|          ctor_base(detail::non_default_ctor_tag_t{})
 1649|   590k|    {
 1650|   590k|    }
_ZN3scn2v46detail21expected_storage_baseINS1_17basic_scan_bufferIcE16forward_iteratorENS0_4impl11parse_errorELb1EEC2IJS7_EvEENS0_10unexpect_tEDpOT_:
  482|   620k|        : m_unexpected(std::in_place, std::forward<Args>(args)...),
  483|   620k|          m_has_value(false)
  484|   620k|    {
  485|   620k|    }
_ZN3scn2v46detail26expected_default_ctor_baseINS1_17basic_scan_bufferIcE16forward_iteratorENS0_4impl11parse_errorELb1EEC2ENS1_22non_default_ctor_tag_tE:
 1347|  6.05M|    {
 1348|  6.05M|    }
_ZN3scn2v48expectedINS0_6detail17basic_scan_bufferIcE16forward_iteratorENS0_4impl11parse_errorEEC2IRS5_vEEOT_:
 1601|   252k|        : base(std::in_place, std::forward<U>(val)),
 1602|   252k|          ctor_base(detail::non_default_ctor_tag_t{})
 1603|   252k|    {
 1604|   252k|    }
_ZN3scn2v46detail21expected_storage_baseINS1_17basic_scan_bufferIcE16forward_iteratorENS0_4impl11parse_errorELb1EEC2IJRS5_EvEENSt3__110in_place_tEDpOT_:
  473|   252k|        : m_value(std::forward<Args>(args)...), m_has_value(true)
  474|   252k|    {
  475|   252k|    }
_ZN3scn2v48expectedINS0_6detail17basic_scan_bufferIcE16forward_iteratorENS0_4impl11parse_errorEEC2INS7_4codeETnPNSt3__19enable_ifIXsr3stdE18is_constructible_vIS7_OT_EEvE4typeELPv0ETnPNSC_IXsr3stdE16is_convertible_vISE_S7_EEvE4typeELSI_0EEEONS0_10unexpectedISD_EE:
 1647|  3.11M|        : base(unexpect, std::move(e.error())),
 1648|  3.11M|          ctor_base(detail::non_default_ctor_tag_t{})
 1649|  3.11M|    {
 1650|  3.11M|    }
_ZN3scn2v46detail21expected_storage_baseINS1_17basic_scan_bufferIcE16forward_iteratorENS0_4impl11parse_errorELb1EEC2IJNS7_4codeEEvEENS0_10unexpect_tEDpOT_:
  482|  3.11M|        : m_unexpected(std::in_place, std::forward<Args>(args)...),
  483|  3.11M|          m_has_value(false)
  484|  3.11M|    {
  485|  3.11M|    }
_ZNK3scn2v48expectedINS0_6detail17basic_scan_bufferIcE16forward_iteratorENS0_4impl11parse_errorEEcvbEv:
 1771|  6.61M|    {
 1772|  6.61M|        return has_value();
 1773|  6.61M|    }
_ZNK3scn2v46detail21expected_storage_baseINS1_17basic_scan_bufferIcE16forward_iteratorENS0_4impl11parse_errorELb1EE9has_valueEv:
  522|  11.6M|    {
  523|  11.6M|        return m_has_value;
  524|  11.6M|    }
_ZNR3scn2v48expectedINS0_6detail17basic_scan_bufferIcE16forward_iteratorENS0_4impl11parse_errorEE5errorEv:
 1777|  1.60M|    {
 1778|  1.60M|        SCN_EXPECT(!has_value());
  ------------------
  |  | 1079|  1.60M|#define SCN_EXPECT(cond) SCN_ASSERT(cond, "Precondition violation")
  |  |  ------------------
  |  |  |  | 1076|  1.60M|#define SCN_ASSERT(cond, msg) assert((cond) && msg)
  |  |  ------------------
  ------------------
 1779|  1.60M|        return this->get_unexpected().error();
 1780|  1.60M|    }
_ZNR3scn2v46detail21expected_storage_baseINS1_17basic_scan_bufferIcE16forward_iteratorENS0_4impl11parse_errorELb1EE14get_unexpectedEv:
  505|  1.60M|    {
  506|  1.60M|        return m_unexpected;
  507|  1.60M|    }
_ZN3scn2v48expectedINSt3__14pairINS0_6detail17basic_scan_bufferIcE16forward_iteratorENS0_4impl9sign_typeEEENS8_9eof_errorEEC2ISA_vEEOT_:
 1601|   595k|        : base(std::in_place, std::forward<U>(val)),
 1602|   595k|          ctor_base(detail::non_default_ctor_tag_t{})
 1603|   595k|    {
 1604|   595k|    }
_ZN3scn2v46detail21expected_storage_baseINSt3__14pairINS1_17basic_scan_bufferIcE16forward_iteratorENS0_4impl9sign_typeEEENS8_9eof_errorELb1EEC2IJSA_EvEENS3_10in_place_tEDpOT_:
  473|   595k|        : m_value(std::forward<Args>(args)...), m_has_value(true)
  474|   595k|    {
  475|   595k|    }
_ZN3scn2v46detail26expected_default_ctor_baseINSt3__14pairINS1_17basic_scan_bufferIcE16forward_iteratorENS0_4impl9sign_typeEEENS8_9eof_errorELb1EEC2ENS1_22non_default_ctor_tag_tE:
 1347|   595k|    {
 1348|   595k|    }
_ZN3scn2v48expectedINSt3__14pairINS0_6detail17basic_scan_bufferIcE16forward_iteratorENS0_4impl9sign_typeEEENS8_9eof_errorEEC2ISB_TnPNS2_9enable_ifIXsr3stdE18is_constructible_vISB_OT_EEvE4typeELPv0ETnPNSE_IXsr3stdE16is_convertible_vISG_SB_EEvE4typeELSK_0EEEONS0_10unexpectedISF_EE:
 1647|    206|        : base(unexpect, std::move(e.error())),
 1648|    206|          ctor_base(detail::non_default_ctor_tag_t{})
 1649|    206|    {
 1650|    206|    }
_ZN3scn2v46detail21expected_storage_baseINSt3__14pairINS1_17basic_scan_bufferIcE16forward_iteratorENS0_4impl9sign_typeEEENS8_9eof_errorELb1EEC2IJSB_EvEENS0_10unexpect_tEDpOT_:
  482|    206|        : m_unexpected(std::in_place, std::forward<Args>(args)...),
  483|    206|          m_has_value(false)
  484|    206|    {
  485|    206|    }
_ZNR3scn2v48expectedINS0_6detail17basic_scan_bufferIcE16forward_iteratorENS0_4impl11parse_errorEEdeIS5_TnPNSt3__19enable_ifIXntsr3stdE9is_void_vIT_EEvE4typeELPv0EEERSC_v:
 1826|  1.41M|    {
 1827|  1.41M|        return value();
 1828|  1.41M|    }
_ZNR3scn2v48expectedINS0_6detail17basic_scan_bufferIcE16forward_iteratorENS0_4impl11parse_errorEE5valueIS5_TnPNSt3__19enable_ifIXntsr3stdE9is_void_vIT_EEvE4typeELPv0EEERSC_v:
 1800|  2.85M|    {
 1801|  2.85M|        SCN_EXPECT(has_value());
  ------------------
  |  | 1079|  2.85M|#define SCN_EXPECT(cond) SCN_ASSERT(cond, "Precondition violation")
  |  |  ------------------
  |  |  |  | 1076|  2.85M|#define SCN_ASSERT(cond, msg) assert((cond) && msg)
  |  |  ------------------
  ------------------
 1802|  2.85M|        return this->get_value();
 1803|  2.85M|    }
_ZNR3scn2v46detail21expected_storage_baseINS1_17basic_scan_bufferIcE16forward_iteratorENS0_4impl11parse_errorELb1EE9get_valueEv:
  488|  2.85M|    {
  489|  2.85M|        return m_value;
  490|  2.85M|    }
_ZNK3scn2v48expectedINSt3__14pairINS0_6detail17basic_scan_bufferIcE16forward_iteratorENS0_4impl9sign_typeEEENS8_9eof_errorEEcvbEv:
 1771|  38.9k|    {
 1772|  38.9k|        return has_value();
 1773|  38.9k|    }
_ZNK3scn2v46detail21expected_storage_baseINSt3__14pairINS1_17basic_scan_bufferIcE16forward_iteratorENS0_4impl9sign_typeEEENS8_9eof_errorELb1EE9has_valueEv:
  522|  1.19M|    {
  523|  1.19M|        return m_has_value;
  524|  1.19M|    }
_ZNO3scn2v48expectedINSt3__14pairINS0_6detail17basic_scan_bufferIcE16forward_iteratorENS0_4impl9sign_typeEEENS8_9eof_errorEEdeISA_TnPNS2_9enable_ifIXntsr3stdE9is_void_vIT_EEvE4typeELPv0EEEOSF_v:
 1836|   556k|    {
 1837|   556k|        return std::move(value());
 1838|   556k|    }
_ZNR3scn2v48expectedINSt3__14pairINS0_6detail17basic_scan_bufferIcE16forward_iteratorENS0_4impl9sign_typeEEENS8_9eof_errorEE5valueISA_TnPNS2_9enable_ifIXntsr3stdE9is_void_vIT_EEvE4typeELPv0EEERSF_v:
 1800|   595k|    {
 1801|   595k|        SCN_EXPECT(has_value());
  ------------------
  |  | 1079|   595k|#define SCN_EXPECT(cond) SCN_ASSERT(cond, "Precondition violation")
  |  |  ------------------
  |  |  |  | 1076|   595k|#define SCN_ASSERT(cond, msg) assert((cond) && msg)
  |  |  ------------------
  ------------------
 1802|   595k|        return this->get_value();
 1803|   595k|    }
_ZNR3scn2v46detail21expected_storage_baseINSt3__14pairINS1_17basic_scan_bufferIcE16forward_iteratorENS0_4impl9sign_typeEEENS8_9eof_errorELb1EE9get_valueEv:
  488|   595k|    {
  489|   595k|        return m_value;
  490|   595k|    }
_ZNO3scn2v48expectedINS0_6detail17basic_scan_bufferIcE16forward_iteratorENS0_4impl9eof_errorEE15transform_errorIRFNS6_11parse_errorES7_EEEDTclsr6detailE20transform_error_impldefpTclsr3stdE7forwardIT_Efp_EEEOSD_:
 2010|  1.47M|    {
 2011|  1.47M|        return detail::transform_error_impl(std::move(*this),
 2012|  1.47M|                                            std::forward<F>(f));
 2013|  1.47M|    }
_ZN3scn2v46detail20transform_error_implINS0_8expectedINS1_17basic_scan_bufferIcE16forward_iteratorENS0_4impl9eof_errorEEERFNS7_11parse_errorES8_ETnPNSt3__19enable_ifIXntsr11is_exp_voidIT_EE5valueEvE4typeELPv0ESA_EEDaOSF_OT0_:
 1493|  1.47M|{
 1494|       |    if constexpr (std::is_void_v<Ret>) {
 1495|       |        using result = expected<expected_value_type<Exp>, monostate>;
 1496|       |        if (SCN_LIKELY(exp.has_value())) {
 1497|       |            return result(*std::forward<Exp>(exp));
 1498|       |        }
 1499|       |
 1500|       |        trivial_invoke(std::forward<F>(f), std::forward<Exp>(exp).error());
 1501|       |        return result(unexpect, monostate{});
 1502|       |    }
 1503|  1.47M|    else {
 1504|  1.47M|        using result = expected<expected_value_type<Exp>, remove_cvref_t<Ret>>;
 1505|  1.47M|        return SCN_LIKELY(exp.has_value())
  ------------------
  |  | 1013|  1.47M|#define SCN_LIKELY(x)   __builtin_expect(!!(x), 1)
  |  |  ------------------
  |  |  |  Branch (1013:25): [True: 1.44M, False: 29.6k]
  |  |  ------------------
  ------------------
 1506|  1.47M|                   ? result(*std::forward<Exp>(exp))
 1507|  1.47M|                   : result(unexpect,
 1508|  29.6k|                            trivial_invoke(std::forward<F>(f),
 1509|  29.6k|                                           std::forward<Exp>(exp).error()));
 1510|  1.47M|    }
 1511|  1.47M|}
_ZN3scn2v48expectedINS0_6detail17basic_scan_bufferIcE16forward_iteratorENS0_4impl11parse_errorEEC2IS5_vEEOT_:
 1601|  2.07M|        : base(std::in_place, std::forward<U>(val)),
 1602|  2.07M|          ctor_base(detail::non_default_ctor_tag_t{})
 1603|  2.07M|    {
 1604|  2.07M|    }
_ZN3scn2v46detail21expected_storage_baseINS1_17basic_scan_bufferIcE16forward_iteratorENS0_4impl11parse_errorELb1EEC2IJS5_EvEENSt3__110in_place_tEDpOT_:
  473|  2.07M|        : m_value(std::forward<Args>(args)...), m_has_value(true)
  474|  2.07M|    {
  475|  2.07M|    }
_ZN3scn2v48expectedINS0_6detail17basic_scan_bufferIcE16forward_iteratorENS0_4impl11parse_errorEEC2IJS7_EvEENS0_10unexpect_tEDpOT_:
 1657|  29.6k|        : base(unexpect, std::forward<Args>(args)...),
 1658|  29.6k|          ctor_base(detail::non_default_ctor_tag_t{})
 1659|  29.6k|    {
 1660|  29.6k|    }
_ZNO3scn2v48expectedINS0_6detail17basic_scan_bufferIcE16forward_iteratorENS0_4impl11parse_errorEEdeIS5_TnPNSt3__19enable_ifIXntsr3stdE9is_void_vIT_EEvE4typeELPv0EEEOSC_v:
 1836|  1.44M|    {
 1837|  1.44M|        return std::move(value());
 1838|  1.44M|    }
_ZNK3scn2v48expectedINS0_6detail17basic_scan_bufferIcE16forward_iteratorENS0_10scan_errorEEcvbEv:
 1771|  3.74M|    {
 1772|  3.74M|        return has_value();
 1773|  3.74M|    }
_ZNK3scn2v46detail21expected_storage_baseINS1_17basic_scan_bufferIcE16forward_iteratorENS0_10scan_errorELb1EE9has_valueEv:
  522|  5.93M|    {
  523|  5.93M|        return m_has_value;
  524|  5.93M|    }
_ZNR3scn2v48expectedINS0_6detail17basic_scan_bufferIcE16forward_iteratorENS0_10scan_errorEE5errorEv:
 1777|   236k|    {
 1778|   236k|        SCN_EXPECT(!has_value());
  ------------------
  |  | 1079|   236k|#define SCN_EXPECT(cond) SCN_ASSERT(cond, "Precondition violation")
  |  |  ------------------
  |  |  |  | 1076|   236k|#define SCN_ASSERT(cond, msg) assert((cond) && msg)
  |  |  ------------------
  ------------------
 1779|   236k|        return this->get_unexpected().error();
 1780|   236k|    }
_ZNR3scn2v46detail21expected_storage_baseINS1_17basic_scan_bufferIcE16forward_iteratorENS0_10scan_errorELb1EE14get_unexpectedEv:
  505|   236k|    {
  506|   236k|        return m_unexpected;
  507|   236k|    }
_ZNO3scn2v48expectedINS0_6detail17basic_scan_bufferIcE16forward_iteratorENS0_10scan_errorEEdeIS5_TnPNSt3__19enable_ifIXntsr3stdE9is_void_vIT_EEvE4typeELPv0EEEOSB_v:
 1836|  1.55M|    {
 1837|  1.55M|        return std::move(value());
 1838|  1.55M|    }
_ZNR3scn2v48expectedINS0_6detail17basic_scan_bufferIcE16forward_iteratorENS0_10scan_errorEE5valueIS5_TnPNSt3__19enable_ifIXntsr3stdE9is_void_vIT_EEvE4typeELPv0EEERSB_v:
 1800|  1.94M|    {
 1801|  1.94M|        SCN_EXPECT(has_value());
  ------------------
  |  | 1079|  1.94M|#define SCN_EXPECT(cond) SCN_ASSERT(cond, "Precondition violation")
  |  |  ------------------
  |  |  |  | 1076|  1.94M|#define SCN_ASSERT(cond, msg) assert((cond) && msg)
  |  |  ------------------
  ------------------
 1802|  1.94M|        return this->get_value();
 1803|  1.94M|    }
_ZNR3scn2v46detail21expected_storage_baseINS1_17basic_scan_bufferIcE16forward_iteratorENS0_10scan_errorELb1EE9get_valueEv:
  488|  1.94M|    {
  489|  1.94M|        return m_value;
  490|  1.94M|    }
_ZNK3scn2v46ranges6detail9subrange_8subrangeINS0_6detail17basic_scan_bufferIcE16forward_iteratorES8_E5beginEv:
 3512|   585k|    {
 3513|   585k|        return m_iterator;
 3514|   585k|    }
_ZNK3scn2v46ranges6detail9subrange_8subrangeINS0_6detail17basic_scan_bufferIcE16forward_iteratorES8_E3endEv:
 3517|   585k|    {
 3518|   585k|        return m_sentinel;
 3519|   585k|    }
_ZN3scn2v46ranges6detail9subrange_8subrangeINS0_6detail17basic_scan_bufferIcE16forward_iteratorES8_EC2IS8_TnPNSt3__19enable_ifIXsr3stdE16is_convertible_vIT_S8_EEvE4typeELPv0EEESD_S8_:
 3496|   471k|        : m_iterator(SCN_MOVE(i)), m_sentinel(SCN_MOVE(s))
  ------------------
  |  | 1083|   471k|    static_cast<    \
  |  | 1084|   471k|        typename ::scn::detail::remove_reference<decltype(x)>::type&&>(x)
  ------------------
                      : m_iterator(SCN_MOVE(i)), m_sentinel(SCN_MOVE(s))
  ------------------
  |  | 1083|   471k|    static_cast<    \
  |  | 1084|   471k|        typename ::scn::detail::remove_reference<decltype(x)>::type&&>(x)
  ------------------
 3497|   471k|    {
 3498|   471k|    }
_ZN3scn2v46detailneERKNS1_17basic_scan_bufferIcE16forward_iteratorENS0_6ranges18default_sentinel_tE:
 4633|  5.09M|    {
 4634|  5.09M|        return !x.is_at_end();
 4635|  5.09M|    }
_ZN3scn2v48expectedIPKcNS0_4impl9eof_errorEEC2IS5_TnPNSt3__19enable_ifIXsr3stdE18is_constructible_vIS5_OT_EEvE4typeELPv0ETnPNS9_IXsr3stdE16is_convertible_vISB_S5_EEvE4typeELSF_0EEEONS0_10unexpectedISA_EE:
 1647|  12.9k|        : base(unexpect, std::move(e.error())),
 1648|  12.9k|          ctor_base(detail::non_default_ctor_tag_t{})
 1649|  12.9k|    {
 1650|  12.9k|    }
_ZN3scn2v46detail21expected_storage_baseIPKcNS0_4impl9eof_errorELb1EEC2IJS6_EvEENS0_10unexpect_tEDpOT_:
  482|  12.9k|        : m_unexpected(std::in_place, std::forward<Args>(args)...),
  483|  12.9k|          m_has_value(false)
  484|  12.9k|    {
  485|  12.9k|    }
_ZN3scn2v46detail26expected_default_ctor_baseIPKcNS0_4impl9eof_errorELb1EEC2ENS1_22non_default_ctor_tag_tE:
 1347|  1.32M|    {
 1348|  1.32M|    }
_ZN3scn2v48expectedIPKcNS0_4impl9eof_errorEEC2IS3_vEEOT_:
 1601|  1.31M|        : base(std::in_place, std::forward<U>(val)),
 1602|  1.31M|          ctor_base(detail::non_default_ctor_tag_t{})
 1603|  1.31M|    {
 1604|  1.31M|    }
_ZN3scn2v46detail21expected_storage_baseIPKcNS0_4impl9eof_errorELb1EEC2IJS4_EvEENSt3__110in_place_tEDpOT_:
  473|  1.31M|        : m_value(std::forward<Args>(args)...), m_has_value(true)
  474|  1.31M|    {
  475|  1.31M|    }
_ZNK3scn2v48expectedIPKcNS0_4impl9eof_errorEEcvbEv:
 1771|   799k|    {
 1772|   799k|        return has_value();
 1773|   799k|    }
_ZNR3scn2v48expectedIPKcNS0_4impl9eof_errorEEdeIS3_TnPNSt3__19enable_ifIXntsr3stdE9is_void_vIT_EEvE4typeELPv0EEERSA_v:
 1826|   161k|    {
 1827|   161k|        return value();
 1828|   161k|    }
_ZN3scn2v48expectedINSt3__14pairIPKclEENS0_10scan_errorEEC2IS7_TnPNS2_9enable_ifIXsr3stdE18is_constructible_vIS7_OT_EEvE4typeELPv0ETnPNSA_IXsr3stdE16is_convertible_vISC_S7_EEvE4typeELSG_0EEEONS0_10unexpectedISB_EE:
 1647|  5.74k|        : base(unexpect, std::move(e.error())),
 1648|  5.74k|          ctor_base(detail::non_default_ctor_tag_t{})
 1649|  5.74k|    {
 1650|  5.74k|    }
_ZN3scn2v46detail21expected_storage_baseINSt3__14pairIPKclEENS0_10scan_errorELb1EEC2IJS8_EvEENS0_10unexpect_tEDpOT_:
  482|  5.74k|        : m_unexpected(std::in_place, std::forward<Args>(args)...),
  483|  5.74k|          m_has_value(false)
  484|  5.74k|    {
  485|  5.74k|    }
_ZN3scn2v46detail26expected_default_ctor_baseINSt3__14pairIPKclEENS0_10scan_errorELb1EEC2ENS1_22non_default_ctor_tag_tE:
 1347|   695k|    {
 1348|   695k|    }
_ZN3scn2v48expectedINSt3__14pairIPKclEENS0_10scan_errorEEC2IS6_vEEOT_:
 1601|   690k|        : base(std::in_place, std::forward<U>(val)),
 1602|   690k|          ctor_base(detail::non_default_ctor_tag_t{})
 1603|   690k|    {
 1604|   690k|    }
_ZN3scn2v46detail21expected_storage_baseINSt3__14pairIPKclEENS0_10scan_errorELb1EEC2IJS7_EvEENS3_10in_place_tEDpOT_:
  473|   690k|        : m_value(std::forward<Args>(args)...), m_has_value(true)
  474|   690k|    {
  475|   690k|    }
_ZNK3scn2v48expectedINSt3__14pairIPKclEENS0_10scan_errorEEcvbEv:
 1771|   695k|    {
 1772|   695k|        return has_value();
 1773|   695k|    }
_ZNK3scn2v46detail21expected_storage_baseINSt3__14pairIPKclEENS0_10scan_errorELb1EE9has_valueEv:
  522|  1.39M|    {
  523|  1.39M|        return m_has_value;
  524|  1.39M|    }
_ZNR3scn2v48expectedINSt3__14pairIPKclEENS0_10scan_errorEE5errorEv:
 1777|  5.74k|    {
 1778|  5.74k|        SCN_EXPECT(!has_value());
  ------------------
  |  | 1079|  5.74k|#define SCN_EXPECT(cond) SCN_ASSERT(cond, "Precondition violation")
  |  |  ------------------
  |  |  |  | 1076|  5.74k|#define SCN_ASSERT(cond, msg) assert((cond) && msg)
  |  |  ------------------
  ------------------
 1779|  5.74k|        return this->get_unexpected().error();
 1780|  5.74k|    }
_ZNR3scn2v46detail21expected_storage_baseINSt3__14pairIPKclEENS0_10scan_errorELb1EE14get_unexpectedEv:
  505|  5.74k|    {
  506|  5.74k|        return m_unexpected;
  507|  5.74k|    }
_ZNO3scn2v48expectedINSt3__14pairIPKclEENS0_10scan_errorEEdeIS6_TnPNS2_9enable_ifIXntsr3stdE9is_void_vIT_EEvE4typeELPv0EEEOSB_v:
 1836|   690k|    {
 1837|   690k|        return std::move(value());
 1838|   690k|    }
_ZNR3scn2v48expectedINSt3__14pairIPKclEENS0_10scan_errorEE5valueIS6_TnPNS2_9enable_ifIXntsr3stdE9is_void_vIT_EEvE4typeELPv0EEERSB_v:
 1800|   690k|    {
 1801|   690k|        SCN_EXPECT(has_value());
  ------------------
  |  | 1079|   690k|#define SCN_EXPECT(cond) SCN_ASSERT(cond, "Precondition violation")
  |  |  ------------------
  |  |  |  | 1076|   690k|#define SCN_ASSERT(cond, msg) assert((cond) && msg)
  |  |  ------------------
  ------------------
 1802|   690k|        return this->get_value();
 1803|   690k|    }
_ZNR3scn2v46detail21expected_storage_baseINSt3__14pairIPKclEENS0_10scan_errorELb1EE9get_valueEv:
  488|   690k|    {
  489|   690k|        return m_value;
  490|   690k|    }
_ZNR3scn2v48expectedIPKcNS0_4impl9eof_errorEE5errorEv:
 1777|  5.04k|    {
 1778|  5.04k|        SCN_EXPECT(!has_value());
  ------------------
  |  | 1079|  5.04k|#define SCN_EXPECT(cond) SCN_ASSERT(cond, "Precondition violation")
  |  |  ------------------
  |  |  |  | 1076|  5.04k|#define SCN_ASSERT(cond, msg) assert((cond) && msg)
  |  |  ------------------
  ------------------
 1779|  5.04k|        return this->get_unexpected().error();
 1780|  5.04k|    }
_ZN3scn2v48expectedIPKcNS0_4impl11parse_errorEEC2IS5_TnPNSt3__19enable_ifIXsr3stdE18is_constructible_vIS5_OT_EEvE4typeELPv0ETnPNS9_IXsr3stdE16is_convertible_vISB_S5_EEvE4typeELSF_0EEEONS0_10unexpectedISA_EE:
 1647|   550k|        : base(unexpect, std::move(e.error())),
 1648|   550k|          ctor_base(detail::non_default_ctor_tag_t{})
 1649|   550k|    {
 1650|   550k|    }
_ZN3scn2v46detail21expected_storage_baseIPKcNS0_4impl11parse_errorELb1EEC2IJS6_EvEENS0_10unexpect_tEDpOT_:
  482|   550k|        : m_unexpected(std::in_place, std::forward<Args>(args)...),
  483|   550k|          m_has_value(false)
  484|   550k|    {
  485|   550k|    }
_ZN3scn2v46detail26expected_default_ctor_baseIPKcNS0_4impl11parse_errorELb1EEC2ENS1_22non_default_ctor_tag_tE:
 1347|  2.99M|    {
 1348|  2.99M|    }
_ZN3scn2v48expectedIPKcNS0_4impl11parse_errorEEC2IRS3_vEEOT_:
 1601|   163k|        : base(std::in_place, std::forward<U>(val)),
 1602|   163k|          ctor_base(detail::non_default_ctor_tag_t{})
 1603|   163k|    {
 1604|   163k|    }
_ZN3scn2v46detail21expected_storage_baseIPKcNS0_4impl11parse_errorELb1EEC2IJRS4_EvEENSt3__110in_place_tEDpOT_:
  473|   163k|        : m_value(std::forward<Args>(args)...), m_has_value(true)
  474|   163k|    {
  475|   163k|    }
_ZN3scn2v48expectedIPKcNS0_4impl11parse_errorEEC2INS5_4codeETnPNSt3__19enable_ifIXsr3stdE18is_constructible_vIS5_OT_EEvE4typeELPv0ETnPNSA_IXsr3stdE16is_convertible_vISC_S5_EEvE4typeELSG_0EEEONS0_10unexpectedISB_EE:
 1647|  2.05M|        : base(unexpect, std::move(e.error())),
 1648|  2.05M|          ctor_base(detail::non_default_ctor_tag_t{})
 1649|  2.05M|    {
 1650|  2.05M|    }
_ZN3scn2v46detail21expected_storage_baseIPKcNS0_4impl11parse_errorELb1EEC2IJNS6_4codeEEvEENS0_10unexpect_tEDpOT_:
  482|  2.05M|        : m_unexpected(std::in_place, std::forward<Args>(args)...),
  483|  2.05M|          m_has_value(false)
  484|  2.05M|    {
  485|  2.05M|    }
_ZNK3scn2v48expectedIPKcNS0_4impl11parse_errorEEcvbEv:
 1771|  3.51M|    {
 1772|  3.51M|        return has_value();
 1773|  3.51M|    }
_ZNK3scn2v46detail21expected_storage_baseIPKcNS0_4impl11parse_errorELb1EE9has_valueEv:
  522|  5.98M|    {
  523|  5.98M|        return m_has_value;
  524|  5.98M|    }
_ZNR3scn2v48expectedIPKcNS0_4impl11parse_errorEE5errorEv:
 1777|  1.44M|    {
 1778|  1.44M|        SCN_EXPECT(!has_value());
  ------------------
  |  | 1079|  1.44M|#define SCN_EXPECT(cond) SCN_ASSERT(cond, "Precondition violation")
  |  |  ------------------
  |  |  |  | 1076|  1.44M|#define SCN_ASSERT(cond, msg) assert((cond) && msg)
  |  |  ------------------
  ------------------
 1779|  1.44M|        return this->get_unexpected().error();
 1780|  1.44M|    }
_ZNR3scn2v46detail21expected_storage_baseIPKcNS0_4impl11parse_errorELb1EE14get_unexpectedEv:
  505|  1.44M|    {
  506|  1.44M|        return m_unexpected;
  507|  1.44M|    }
_ZN3scn2v48expectedINSt3__14pairIPKcNS0_4impl9sign_typeEEENS6_9eof_errorEEC2IS8_vEEOT_:
 1601|   543k|        : base(std::in_place, std::forward<U>(val)),
 1602|   543k|          ctor_base(detail::non_default_ctor_tag_t{})
 1603|   543k|    {
 1604|   543k|    }
_ZN3scn2v46detail21expected_storage_baseINSt3__14pairIPKcNS0_4impl9sign_typeEEENS7_9eof_errorELb1EEC2IJS9_EvEENS3_10in_place_tEDpOT_:
  473|   543k|        : m_value(std::forward<Args>(args)...), m_has_value(true)
  474|   543k|    {
  475|   543k|    }
_ZN3scn2v46detail26expected_default_ctor_baseINSt3__14pairIPKcNS0_4impl9sign_typeEEENS7_9eof_errorELb1EEC2ENS1_22non_default_ctor_tag_tE:
 1347|   545k|    {
 1348|   545k|    }
_ZN3scn2v48expectedINSt3__14pairIPKcNS0_4impl9sign_typeEEENS6_9eof_errorEEC2IS9_TnPNS2_9enable_ifIXsr3stdE18is_constructible_vIS9_OT_EEvE4typeELPv0ETnPNSC_IXsr3stdE16is_convertible_vISE_S9_EEvE4typeELSI_0EEEONS0_10unexpectedISD_EE:
 1647|  2.17k|        : base(unexpect, std::move(e.error())),
 1648|  2.17k|          ctor_base(detail::non_default_ctor_tag_t{})
 1649|  2.17k|    {
 1650|  2.17k|    }
_ZN3scn2v46detail21expected_storage_baseINSt3__14pairIPKcNS0_4impl9sign_typeEEENS7_9eof_errorELb1EEC2IJSA_EvEENS0_10unexpect_tEDpOT_:
  482|  2.17k|        : m_unexpected(std::in_place, std::forward<Args>(args)...),
  483|  2.17k|          m_has_value(false)
  484|  2.17k|    {
  485|  2.17k|    }
_ZNR3scn2v48expectedIPKcNS0_4impl11parse_errorEEdeIS3_TnPNSt3__19enable_ifIXntsr3stdE9is_void_vIT_EEvE4typeELPv0EEERSA_v:
 1826|   526k|    {
 1827|   526k|        return value();
 1828|   526k|    }
_ZNR3scn2v48expectedIPKcNS0_4impl11parse_errorEE5valueIS3_TnPNSt3__19enable_ifIXntsr3stdE9is_void_vIT_EEvE4typeELPv0EEERSA_v:
 1800|   526k|    {
 1801|   526k|        SCN_EXPECT(has_value());
  ------------------
  |  | 1079|   526k|#define SCN_EXPECT(cond) SCN_ASSERT(cond, "Precondition violation")
  |  |  ------------------
  |  |  |  | 1076|   526k|#define SCN_ASSERT(cond, msg) assert((cond) && msg)
  |  |  ------------------
  ------------------
 1802|   526k|        return this->get_value();
 1803|   526k|    }
_ZNR3scn2v46detail21expected_storage_baseIPKcNS0_4impl11parse_errorELb1EE9get_valueEv:
  488|   526k|    {
  489|   526k|        return m_value;
  490|   526k|    }
_ZNK3scn2v48expectedINSt3__14pairIPKcNS0_4impl9sign_typeEEENS6_9eof_errorEEcvbEv:
 1771|  24.5k|    {
 1772|  24.5k|        return has_value();
 1773|  24.5k|    }
_ZNK3scn2v46detail21expected_storage_baseINSt3__14pairIPKcNS0_4impl9sign_typeEEENS7_9eof_errorELb1EE9has_valueEv:
  522|  1.09M|    {
  523|  1.09M|        return m_has_value;
  524|  1.09M|    }
_ZNR3scn2v48expectedINSt3__14pairIPKcNS0_4impl9sign_typeEEENS6_9eof_errorEE5errorEv:
 1777|  2.11k|    {
 1778|  2.11k|        SCN_EXPECT(!has_value());
  ------------------
  |  | 1079|  2.11k|#define SCN_EXPECT(cond) SCN_ASSERT(cond, "Precondition violation")
  |  |  ------------------
  |  |  |  | 1076|  2.11k|#define SCN_ASSERT(cond, msg) assert((cond) && msg)
  |  |  ------------------
  ------------------
 1779|  2.11k|        return this->get_unexpected().error();
 1780|  2.11k|    }
_ZNR3scn2v46detail21expected_storage_baseINSt3__14pairIPKcNS0_4impl9sign_typeEEENS7_9eof_errorELb1EE14get_unexpectedEv:
  505|  2.11k|    {
  506|  2.11k|        return m_unexpected;
  507|  2.11k|    }
_ZN3scn2v48expectedINS0_4impl27parse_integer_prefix_resultIPKcEENS2_9eof_errorEEC2IS7_TnPNSt3__19enable_ifIXsr3stdE18is_constructible_vIS7_OT_EEvE4typeELPv0ETnPNSB_IXsr3stdE16is_convertible_vISD_S7_EEvE4typeELSH_0EEEONS0_10unexpectedISC_EE:
 1647|  2.11k|        : base(unexpect, std::move(e.error())),
 1648|  2.11k|          ctor_base(detail::non_default_ctor_tag_t{})
 1649|  2.11k|    {
 1650|  2.11k|    }
_ZN3scn2v46detail21expected_storage_baseINS0_4impl27parse_integer_prefix_resultIPKcEENS3_9eof_errorELb1EEC2IJS8_EvEENS0_10unexpect_tEDpOT_:
  482|  2.11k|        : m_unexpected(std::in_place, std::forward<Args>(args)...),
  483|  2.11k|          m_has_value(false)
  484|  2.11k|    {
  485|  2.11k|    }
_ZN3scn2v46detail26expected_default_ctor_baseINS0_4impl27parse_integer_prefix_resultIPKcEENS3_9eof_errorELb1EEC2ENS1_22non_default_ctor_tag_tE:
 1347|  12.6k|    {
 1348|  12.6k|    }
_ZNO3scn2v48expectedINSt3__14pairIPKcNS0_4impl9sign_typeEEENS6_9eof_errorEEdeIS8_TnPNS2_9enable_ifIXntsr3stdE9is_void_vIT_EEvE4typeELPv0EEEOSD_v:
 1836|   531k|    {
 1837|   531k|        return std::move(value());
 1838|   531k|    }
_ZNR3scn2v48expectedINSt3__14pairIPKcNS0_4impl9sign_typeEEENS6_9eof_errorEE5valueIS8_TnPNS2_9enable_ifIXntsr3stdE9is_void_vIT_EEvE4typeELPv0EEERSD_v:
 1800|   543k|    {
 1801|   543k|        SCN_EXPECT(has_value());
  ------------------
  |  | 1079|   543k|#define SCN_EXPECT(cond) SCN_ASSERT(cond, "Precondition violation")
  |  |  ------------------
  |  |  |  | 1076|   543k|#define SCN_ASSERT(cond, msg) assert((cond) && msg)
  |  |  ------------------
  ------------------
 1802|   543k|        return this->get_value();
 1803|   543k|    }
_ZNR3scn2v46detail21expected_storage_baseINSt3__14pairIPKcNS0_4impl9sign_typeEEENS7_9eof_errorELb1EE9get_valueEv:
  488|   543k|    {
  489|   543k|        return m_value;
  490|   543k|    }
_ZN3scn2v48expectedIPKcNS0_4impl11parse_errorEEC2IS3_vEEOT_:
 1601|   217k|        : base(std::in_place, std::forward<U>(val)),
 1602|   217k|          ctor_base(detail::non_default_ctor_tag_t{})
 1603|   217k|    {
 1604|   217k|    }
_ZN3scn2v46detail21expected_storage_baseIPKcNS0_4impl11parse_errorELb1EEC2IJS4_EvEENSt3__110in_place_tEDpOT_:
  473|   217k|        : m_value(std::forward<Args>(args)...), m_has_value(true)
  474|   217k|    {
  475|   217k|    }
_ZN3scn2v48expectedINS0_4impl27parse_integer_prefix_resultIPKcEENS2_9eof_errorEEC2IS6_vEEOT_:
 1601|  10.4k|        : base(std::in_place, std::forward<U>(val)),
 1602|  10.4k|          ctor_base(detail::non_default_ctor_tag_t{})
 1603|  10.4k|    {
 1604|  10.4k|    }
_ZN3scn2v46detail21expected_storage_baseINS0_4impl27parse_integer_prefix_resultIPKcEENS3_9eof_errorELb1EEC2IJS7_EvEENSt3__110in_place_tEDpOT_:
  473|  10.4k|        : m_value(std::forward<Args>(args)...), m_has_value(true)
  474|  10.4k|    {
  475|  10.4k|    }
_ZNO3scn2v48expectedINS0_4impl27parse_integer_prefix_resultIPKcEENS2_9eof_errorEE15transform_errorIRFNS0_10scan_errorES7_EEEDTclsr6detailE20transform_error_impldefpTclsr3stdE7forwardIT_Efp_EEEOSD_:
 2010|  12.6k|    {
 2011|  12.6k|        return detail::transform_error_impl(std::move(*this),
 2012|  12.6k|                                            std::forward<F>(f));
 2013|  12.6k|    }
_ZN3scn2v46detail20transform_error_implINS0_8expectedINS0_4impl27parse_integer_prefix_resultIPKcEENS4_9eof_errorEEERFNS0_10scan_errorES9_ETnPNSt3__19enable_ifIXntsr11is_exp_voidIT_EE5valueEvE4typeELPv0ESB_EEDaOSG_OT0_:
 1493|  12.6k|{
 1494|       |    if constexpr (std::is_void_v<Ret>) {
 1495|       |        using result = expected<expected_value_type<Exp>, monostate>;
 1496|       |        if (SCN_LIKELY(exp.has_value())) {
 1497|       |            return result(*std::forward<Exp>(exp));
 1498|       |        }
 1499|       |
 1500|       |        trivial_invoke(std::forward<F>(f), std::forward<Exp>(exp).error());
 1501|       |        return result(unexpect, monostate{});
 1502|       |    }
 1503|  12.6k|    else {
 1504|  12.6k|        using result = expected<expected_value_type<Exp>, remove_cvref_t<Ret>>;
 1505|  12.6k|        return SCN_LIKELY(exp.has_value())
  ------------------
  |  | 1013|  12.6k|#define SCN_LIKELY(x)   __builtin_expect(!!(x), 1)
  |  |  ------------------
  |  |  |  Branch (1013:25): [True: 10.4k, False: 2.11k]
  |  |  ------------------
  ------------------
 1506|  12.6k|                   ? result(*std::forward<Exp>(exp))
 1507|  12.6k|                   : result(unexpect,
 1508|  2.11k|                            trivial_invoke(std::forward<F>(f),
 1509|  2.11k|                                           std::forward<Exp>(exp).error()));
 1510|  12.6k|    }
 1511|  12.6k|}
_ZNK3scn2v46detail21expected_storage_baseINS0_4impl27parse_integer_prefix_resultIPKcEENS3_9eof_errorELb1EE9has_valueEv:
  522|  25.2k|    {
  523|  25.2k|        return m_has_value;
  524|  25.2k|    }
_ZNO3scn2v48expectedINS0_4impl27parse_integer_prefix_resultIPKcEENS2_9eof_errorEEdeIS6_TnPNSt3__19enable_ifIXntsr3stdE9is_void_vIT_EEvE4typeELPv0EEEOSC_v:
 1836|  10.4k|    {
 1837|  10.4k|        return std::move(value());
 1838|  10.4k|    }
_ZNR3scn2v48expectedINS0_4impl27parse_integer_prefix_resultIPKcEENS2_9eof_errorEE5valueIS6_TnPNSt3__19enable_ifIXntsr3stdE9is_void_vIT_EEvE4typeELPv0EEERSC_v:
 1800|  10.4k|    {
 1801|  10.4k|        SCN_EXPECT(has_value());
  ------------------
  |  | 1079|  10.4k|#define SCN_EXPECT(cond) SCN_ASSERT(cond, "Precondition violation")
  |  |  ------------------
  |  |  |  | 1076|  10.4k|#define SCN_ASSERT(cond, msg) assert((cond) && msg)
  |  |  ------------------
  ------------------
 1802|  10.4k|        return this->get_value();
 1803|  10.4k|    }
_ZNR3scn2v46detail21expected_storage_baseINS0_4impl27parse_integer_prefix_resultIPKcEENS3_9eof_errorELb1EE9get_valueEv:
  488|  10.4k|    {
  489|  10.4k|        return m_value;
  490|  10.4k|    }
_ZN3scn2v48expectedINS0_4impl27parse_integer_prefix_resultIPKcEENS0_10scan_errorEEC2IS6_vEEOT_:
 1601|  10.4k|        : base(std::in_place, std::forward<U>(val)),
 1602|  10.4k|          ctor_base(detail::non_default_ctor_tag_t{})
 1603|  10.4k|    {
 1604|  10.4k|    }
_ZN3scn2v46detail21expected_storage_baseINS0_4impl27parse_integer_prefix_resultIPKcEENS0_10scan_errorELb1EEC2IJS7_EvEENSt3__110in_place_tEDpOT_:
  473|  10.4k|        : m_value(std::forward<Args>(args)...), m_has_value(true)
  474|  10.4k|    {
  475|  10.4k|    }
_ZN3scn2v46detail26expected_default_ctor_baseINS0_4impl27parse_integer_prefix_resultIPKcEENS0_10scan_errorELb1EEC2ENS1_22non_default_ctor_tag_tE:
 1347|  12.6k|    {
 1348|  12.6k|    }
_ZNO3scn2v48expectedINS0_4impl27parse_integer_prefix_resultIPKcEENS2_9eof_errorEE5errorEv:
 1787|  2.11k|    {
 1788|  2.11k|        SCN_EXPECT(!has_value());
  ------------------
  |  | 1079|  2.11k|#define SCN_EXPECT(cond) SCN_ASSERT(cond, "Precondition violation")
  |  |  ------------------
  |  |  |  | 1076|  2.11k|#define SCN_ASSERT(cond, msg) assert((cond) && msg)
  |  |  ------------------
  ------------------
 1789|  2.11k|        return std::move(this->get_unexpected().error());
 1790|  2.11k|    }
_ZNR3scn2v46detail21expected_storage_baseINS0_4impl27parse_integer_prefix_resultIPKcEENS3_9eof_errorELb1EE14get_unexpectedEv:
  505|  2.11k|    {
  506|  2.11k|        return m_unexpected;
  507|  2.11k|    }
_ZN3scn2v48expectedINS0_4impl27parse_integer_prefix_resultIPKcEENS0_10scan_errorEEC2IJS7_EvEENS0_10unexpect_tEDpOT_:
 1657|  2.11k|        : base(unexpect, std::forward<Args>(args)...),
 1658|  2.11k|          ctor_base(detail::non_default_ctor_tag_t{})
 1659|  2.11k|    {
 1660|  2.11k|    }
_ZN3scn2v46detail21expected_storage_baseINS0_4impl27parse_integer_prefix_resultIPKcEENS0_10scan_errorELb1EEC2IJS8_EvEENS0_10unexpect_tEDpOT_:
  482|  2.11k|        : m_unexpected(std::in_place, std::forward<Args>(args)...),
  483|  2.11k|          m_has_value(false)
  484|  2.11k|    {
  485|  2.11k|    }
_ZNK3scn2v48expectedINS0_4impl27parse_integer_prefix_resultIPKcEENS0_10scan_errorEEcvbEv:
 1771|  12.6k|    {
 1772|  12.6k|        return has_value();
 1773|  12.6k|    }
_ZNK3scn2v46detail21expected_storage_baseINS0_4impl27parse_integer_prefix_resultIPKcEENS0_10scan_errorELb1EE9has_valueEv:
  522|  25.2k|    {
  523|  25.2k|        return m_has_value;
  524|  25.2k|    }
_ZNR3scn2v48expectedINS0_4impl27parse_integer_prefix_resultIPKcEENS0_10scan_errorEE5errorEv:
 1777|  2.11k|    {
 1778|  2.11k|        SCN_EXPECT(!has_value());
  ------------------
  |  | 1079|  2.11k|#define SCN_EXPECT(cond) SCN_ASSERT(cond, "Precondition violation")
  |  |  ------------------
  |  |  |  | 1076|  2.11k|#define SCN_ASSERT(cond, msg) assert((cond) && msg)
  |  |  ------------------
  ------------------
 1779|  2.11k|        return this->get_unexpected().error();
 1780|  2.11k|    }
_ZNR3scn2v46detail21expected_storage_baseINS0_4impl27parse_integer_prefix_resultIPKcEENS0_10scan_errorELb1EE14get_unexpectedEv:
  505|  2.11k|    {
  506|  2.11k|        return m_unexpected;
  507|  2.11k|    }
_ZNO3scn2v48expectedINS0_4impl27parse_integer_prefix_resultIPKcEENS0_10scan_errorEEdeIS6_TnPNSt3__19enable_ifIXntsr3stdE9is_void_vIT_EEvE4typeELPv0EEEOSC_v:
 1836|  10.4k|    {
 1837|  10.4k|        return std::move(value());
 1838|  10.4k|    }
_ZNR3scn2v48expectedINS0_4impl27parse_integer_prefix_resultIPKcEENS0_10scan_errorEE5valueIS6_TnPNSt3__19enable_ifIXntsr3stdE9is_void_vIT_EEvE4typeELPv0EEERSC_v:
 1800|  10.4k|    {
 1801|  10.4k|        SCN_EXPECT(has_value());
  ------------------
  |  | 1079|  10.4k|#define SCN_EXPECT(cond) SCN_ASSERT(cond, "Precondition violation")
  |  |  ------------------
  |  |  |  | 1076|  10.4k|#define SCN_ASSERT(cond, msg) assert((cond) && msg)
  |  |  ------------------
  ------------------
 1802|  10.4k|        return this->get_value();
 1803|  10.4k|    }
_ZNR3scn2v46detail21expected_storage_baseINS0_4impl27parse_integer_prefix_resultIPKcEENS0_10scan_errorELb1EE9get_valueEv:
  488|  10.4k|    {
  489|  10.4k|        return m_value;
  490|  10.4k|    }
_ZNK3scn2v46ranges6detail5data_2fnclIRNS2_9subrange_8subrangeIPKcS9_EEEEDTclsr2fnE4implscDtfp_Efp_tlNS0_6detail12priority_tagILm1EEEEEEOT_:
 3031|  1.75M|    {
 3032|  1.75M|        return fn::impl(SCN_FWD(t), priority_tag<1>{});
  ------------------
  |  | 1085|  1.75M|#define SCN_FWD(x)          static_cast<decltype(x)&&>(x)
  ------------------
 3033|  1.75M|    }
_ZN3scn2v46ranges6detail5data_2fn4implINS2_9subrange_8subrangeIPKcS9_EES9_EENSt3__19enable_ifIX19is_object_pointer_vIT0_EESD_E4typeERT_NS0_6detail12priority_tagILm1EEE:
 3012|  1.75M|    {
 3013|  1.75M|        return t.data();
 3014|  1.75M|    }
_ZN3scn2v48expectedIlNS0_10scan_errorEEC2IlvEEOT_:
 1601|  5.15M|        : base(std::in_place, std::forward<U>(val)),
 1602|  5.15M|          ctor_base(detail::non_default_ctor_tag_t{})
 1603|  5.15M|    {
 1604|  5.15M|    }
_ZN3scn2v46detail21expected_storage_baseIlNS0_10scan_errorELb1EEC2IJlEvEENSt3__110in_place_tEDpOT_:
  473|  5.15M|        : m_value(std::forward<Args>(args)...), m_has_value(true)
  474|  5.15M|    {
  475|  5.15M|    }
_ZNO3scn2v48expectedIlNS0_10scan_errorEEdeIlTnPNSt3__19enable_ifIXntsr3stdE9is_void_vIT_EEvE4typeELPv0EEEOS7_v:
 1836|  3.43M|    {
 1837|  3.43M|        return std::move(value());
 1838|  3.43M|    }
_ZN3scn2v46detail14trivial_invokeIZNS0_4impl29map_parse_error_to_scan_errorENS0_10scan_error4codeEPKcEUlNS3_11parse_errorEE_JRS8_EvEEDcOT_DpOT0_:
 1381|  2.27M|{
 1382|  2.27M|    return std::forward<F>(f)(std::forward<Args>(args)...);
 1383|  2.27M|}
_ZNO3scn2v48expectedINSt3__14pairINS0_6detail17basic_scan_bufferIcE16forward_iteratorENS0_4impl9sign_typeEEENS8_9eof_errorEE15transform_errorIRFNS0_10scan_errorESB_EEEDTclsr6detailE20transform_error_impldefpTclsr3stdE7forwardIT_Efp_EEEOSH_:
 2010|   556k|    {
 2011|   556k|        return detail::transform_error_impl(std::move(*this),
 2012|   556k|                                            std::forward<F>(f));
 2013|   556k|    }
_ZN3scn2v46detail20transform_error_implINS0_8expectedINSt3__14pairINS1_17basic_scan_bufferIcE16forward_iteratorENS0_4impl9sign_typeEEENS9_9eof_errorEEERFNS0_10scan_errorESC_ETnPNS4_9enable_ifIXntsr11is_exp_voidIT_EE5valueEvE4typeELPv0ESE_EEDaOSI_OT0_:
 1493|   556k|{
 1494|       |    if constexpr (std::is_void_v<Ret>) {
 1495|       |        using result = expected<expected_value_type<Exp>, monostate>;
 1496|       |        if (SCN_LIKELY(exp.has_value())) {
 1497|       |            return result(*std::forward<Exp>(exp));
 1498|       |        }
 1499|       |
 1500|       |        trivial_invoke(std::forward<F>(f), std::forward<Exp>(exp).error());
 1501|       |        return result(unexpect, monostate{});
 1502|       |    }
 1503|   556k|    else {
 1504|   556k|        using result = expected<expected_value_type<Exp>, remove_cvref_t<Ret>>;
 1505|   556k|        return SCN_LIKELY(exp.has_value())
  ------------------
  |  | 1013|   556k|#define SCN_LIKELY(x)   __builtin_expect(!!(x), 1)
  |  |  ------------------
  |  |  |  Branch (1013:25): [True: 556k, False: 0]
  |  |  ------------------
  ------------------
 1506|   556k|                   ? result(*std::forward<Exp>(exp))
 1507|   556k|                   : result(unexpect,
 1508|      0|                            trivial_invoke(std::forward<F>(f),
 1509|      0|                                           std::forward<Exp>(exp).error()));
 1510|   556k|    }
 1511|   556k|}
_ZN3scn2v48expectedINSt3__14pairINS0_6detail17basic_scan_bufferIcE16forward_iteratorENS0_4impl9sign_typeEEENS0_10scan_errorEEC2ISA_vEEOT_:
 1601|   556k|        : base(std::in_place, std::forward<U>(val)),
 1602|   556k|          ctor_base(detail::non_default_ctor_tag_t{})
 1603|   556k|    {
 1604|   556k|    }
_ZN3scn2v46detail21expected_storage_baseINSt3__14pairINS1_17basic_scan_bufferIcE16forward_iteratorENS0_4impl9sign_typeEEENS0_10scan_errorELb1EEC2IJSA_EvEENS3_10in_place_tEDpOT_:
  473|   556k|        : m_value(std::forward<Args>(args)...), m_has_value(true)
  474|   556k|    {
  475|   556k|    }
_ZN3scn2v46detail26expected_default_ctor_baseINSt3__14pairINS1_17basic_scan_bufferIcE16forward_iteratorENS0_4impl9sign_typeEEENS0_10scan_errorELb1EEC2ENS1_22non_default_ctor_tag_tE:
 1347|   556k|    {
 1348|   556k|    }
_ZNK3scn2v48expectedINSt3__14pairINS0_6detail17basic_scan_bufferIcE16forward_iteratorENS0_4impl9sign_typeEEENS0_10scan_errorEEcvbEv:
 1771|   556k|    {
 1772|   556k|        return has_value();
 1773|   556k|    }
_ZNK3scn2v46detail21expected_storage_baseINSt3__14pairINS1_17basic_scan_bufferIcE16forward_iteratorENS0_4impl9sign_typeEEENS0_10scan_errorELb1EE9has_valueEv:
  522|  1.11M|    {
  523|  1.11M|        return m_has_value;
  524|  1.11M|    }
_ZNO3scn2v48expectedINSt3__14pairINS0_6detail17basic_scan_bufferIcE16forward_iteratorENS0_4impl9sign_typeEEENS0_10scan_errorEEdeISA_TnPNS2_9enable_ifIXntsr3stdE9is_void_vIT_EEvE4typeELPv0EEEOSF_v:
 1836|   556k|    {
 1837|   556k|        return std::move(value());
 1838|   556k|    }
_ZNR3scn2v48expectedINSt3__14pairINS0_6detail17basic_scan_bufferIcE16forward_iteratorENS0_4impl9sign_typeEEENS0_10scan_errorEE5valueISA_TnPNS2_9enable_ifIXntsr3stdE9is_void_vIT_EEvE4typeELPv0EEERSF_v:
 1800|   556k|    {
 1801|   556k|        SCN_EXPECT(has_value());
  ------------------
  |  | 1079|   556k|#define SCN_EXPECT(cond) SCN_ASSERT(cond, "Precondition violation")
  |  |  ------------------
  |  |  |  | 1076|   556k|#define SCN_ASSERT(cond, msg) assert((cond) && msg)
  |  |  ------------------
  ------------------
 1802|   556k|        return this->get_value();
 1803|   556k|    }
_ZNR3scn2v46detail21expected_storage_baseINSt3__14pairINS1_17basic_scan_bufferIcE16forward_iteratorENS0_4impl9sign_typeEEENS0_10scan_errorELb1EE9get_valueEv:
  488|   556k|    {
  489|   556k|        return m_value;
  490|   556k|    }
_ZNR3scn2v48expectedINS0_6detail17basic_scan_bufferIcE16forward_iteratorENS0_4impl11parse_errorEE15transform_errorIZNS6_29map_parse_error_to_scan_errorENS0_10scan_error4codeEPKcEUlS7_E_EEDTclsr6detailE20transform_error_impldefpTclsr3stdE7forwardIT_Efp_EEEOSF_:
 1996|   561k|    {
 1997|   561k|        return detail::transform_error_impl(*this, std::forward<F>(f));
 1998|   561k|    }
_ZN3scn2v46detail20transform_error_implIRNS0_8expectedINS1_17basic_scan_bufferIcE16forward_iteratorENS0_4impl11parse_errorEEEZNS7_29map_parse_error_to_scan_errorENS0_10scan_error4codeEPKcEUlS8_E_TnPNSt3__19enable_ifIXntsr11is_exp_voidIT_EE5valueEvE4typeELPv0ESB_EEDaOSI_OT0_:
 1493|   561k|{
 1494|       |    if constexpr (std::is_void_v<Ret>) {
 1495|       |        using result = expected<expected_value_type<Exp>, monostate>;
 1496|       |        if (SCN_LIKELY(exp.has_value())) {
 1497|       |            return result(*std::forward<Exp>(exp));
 1498|       |        }
 1499|       |
 1500|       |        trivial_invoke(std::forward<F>(f), std::forward<Exp>(exp).error());
 1501|       |        return result(unexpect, monostate{});
 1502|       |    }
 1503|   561k|    else {
 1504|   561k|        using result = expected<expected_value_type<Exp>, remove_cvref_t<Ret>>;
 1505|   561k|        return SCN_LIKELY(exp.has_value())
  ------------------
  |  | 1013|   561k|#define SCN_LIKELY(x)   __builtin_expect(!!(x), 1)
  |  |  ------------------
  |  |  |  Branch (1013:25): [True: 0, False: 561k]
  |  |  ------------------
  ------------------
 1506|   561k|                   ? result(*std::forward<Exp>(exp))
 1507|   561k|                   : result(unexpect,
 1508|   561k|                            trivial_invoke(std::forward<F>(f),
 1509|   561k|                                           std::forward<Exp>(exp).error()));
 1510|   561k|    }
 1511|   561k|}
_ZNR3scn2v48expectedINS0_6detail17basic_scan_bufferIcE16forward_iteratorENS0_10scan_errorEEdeIS5_TnPNSt3__19enable_ifIXntsr3stdE9is_void_vIT_EEvE4typeELPv0EEERSB_v:
 1826|   389k|    {
 1827|   389k|        return value();
 1828|   389k|    }
_ZZN3scn2v44impl12float_readerIcE16read_source_implINS0_6ranges6detail9subrange_8subrangeINS0_6detail17basic_scan_bufferIcE16forward_iteratorENS5_18default_sentinel_tEEEEENS0_13scan_expectedIDTclL_ZNS5_5beginEEclsr3stdE7declvalIRNSt3__19add_constIT_E4typeEEEEEEESI_ENKUlRKSI_E0_clISE_EEDaSP_:
 3991|   127k|    auto&& SCN_TRY_TMP = (x);                          \
_ZN3scn2v48expectedINSt3__14pairINS0_6detail17basic_scan_bufferIcE16forward_iteratorENS0_4impl9sign_typeEEENS8_9eof_errorEEptEv:
 1846|  38.7k|    {
 1847|  38.7k|        return &value();
 1848|  38.7k|    }
_ZNK3scn2v46ranges6detail6begin_2fnclIRNS2_9subrange_8subrangeINS0_6detail17basic_scan_bufferIcE16forward_iteratorENS1_18default_sentinel_tEEEEEDTclsr2fnE4implscDtfp_Efp_tlNS8_12priority_tagILm3EEEEEEOT_:
 2900|   389k|    {
 2901|   389k|        return fn::impl(SCN_FWD(t), priority_tag<3>{});
  ------------------
  |  | 1085|   389k|#define SCN_FWD(x)          static_cast<decltype(x)&&>(x)
  ------------------
 2902|   389k|    }
_ZN3scn2v46ranges6detail6begin_2fn4implIRNS2_9subrange_8subrangeINS0_6detail17basic_scan_bufferIcE16forward_iteratorENS1_18default_sentinel_tEEEEENSt3__19enable_ifIX24input_or_output_iteratorIDTcl10decay_copycldtscDtfp_Efp_5beginEEEEESI_E4typeEOT_NS8_12priority_tagILm1EEE:
 2881|   389k|    {
 2882|   389k|        return decay_copy(t.begin());
 2883|   389k|    }
_ZN3scn2v46ranges6detail10decay_copyINS0_6detail17basic_scan_bufferIcE16forward_iteratorEEEu7__decayIT_EOS8_:
 2125|   389k|{
 2126|   389k|    return SCN_FWD(t);
  ------------------
  |  | 1085|   389k|#define SCN_FWD(x)          static_cast<decltype(x)&&>(x)
  ------------------
 2127|   389k|}
_ZZN3scn2v44impl12float_readerIcE16read_source_implINS0_6ranges6detail9subrange_8subrangeINS0_6detail17basic_scan_bufferIcE16forward_iteratorENS5_18default_sentinel_tEEEEENS0_13scan_expectedIDTclL_ZNS5_5beginEEclsr3stdE7declvalIRNSt3__19add_constIT_E4typeEEEEEEESI_ENKUlRKSI_E_clISE_EEDaSP_:
 3991|   230k|    auto&& SCN_TRY_TMP = (x);                          \
_ZNO3scn2v48expectedINSt3__14pairIPKcNS0_4impl9sign_typeEEENS6_9eof_errorEE15transform_errorIRFNS0_10scan_errorES9_EEEDTclsr6detailE20transform_error_impldefpTclsr3stdE7forwardIT_Efp_EEEOSF_:
 2010|   521k|    {
 2011|   521k|        return detail::transform_error_impl(std::move(*this),
 2012|   521k|                                            std::forward<F>(f));
 2013|   521k|    }
_ZN3scn2v46detail20transform_error_implINS0_8expectedINSt3__14pairIPKcNS0_4impl9sign_typeEEENS8_9eof_errorEEERFNS0_10scan_errorESB_ETnPNS4_9enable_ifIXntsr11is_exp_voidIT_EE5valueEvE4typeELPv0ESD_EEDaOSH_OT0_:
 1493|   521k|{
 1494|       |    if constexpr (std::is_void_v<Ret>) {
 1495|       |        using result = expected<expected_value_type<Exp>, monostate>;
 1496|       |        if (SCN_LIKELY(exp.has_value())) {
 1497|       |            return result(*std::forward<Exp>(exp));
 1498|       |        }
 1499|       |
 1500|       |        trivial_invoke(std::forward<F>(f), std::forward<Exp>(exp).error());
 1501|       |        return result(unexpect, monostate{});
 1502|       |    }
 1503|   521k|    else {
 1504|   521k|        using result = expected<expected_value_type<Exp>, remove_cvref_t<Ret>>;
 1505|   521k|        return SCN_LIKELY(exp.has_value())
  ------------------
  |  | 1013|   521k|#define SCN_LIKELY(x)   __builtin_expect(!!(x), 1)
  |  |  ------------------
  |  |  |  Branch (1013:25): [True: 521k, False: 0]
  |  |  ------------------
  ------------------
 1506|   521k|                   ? result(*std::forward<Exp>(exp))
 1507|   521k|                   : result(unexpect,
 1508|      0|                            trivial_invoke(std::forward<F>(f),
 1509|      0|                                           std::forward<Exp>(exp).error()));
 1510|   521k|    }
 1511|   521k|}
_ZN3scn2v48expectedINSt3__14pairIPKcNS0_4impl9sign_typeEEENS0_10scan_errorEEC2IS8_vEEOT_:
 1601|   521k|        : base(std::in_place, std::forward<U>(val)),
 1602|   521k|          ctor_base(detail::non_default_ctor_tag_t{})
 1603|   521k|    {
 1604|   521k|    }
_ZN3scn2v46detail21expected_storage_baseINSt3__14pairIPKcNS0_4impl9sign_typeEEENS0_10scan_errorELb1EEC2IJS9_EvEENS3_10in_place_tEDpOT_:
  473|   521k|        : m_value(std::forward<Args>(args)...), m_has_value(true)
  474|   521k|    {
  475|   521k|    }
_ZN3scn2v46detail26expected_default_ctor_baseINSt3__14pairIPKcNS0_4impl9sign_typeEEENS0_10scan_errorELb1EEC2ENS1_22non_default_ctor_tag_tE:
 1347|   521k|    {
 1348|   521k|    }
_ZNK3scn2v48expectedINSt3__14pairIPKcNS0_4impl9sign_typeEEENS0_10scan_errorEEcvbEv:
 1771|   521k|    {
 1772|   521k|        return has_value();
 1773|   521k|    }
_ZNK3scn2v46detail21expected_storage_baseINSt3__14pairIPKcNS0_4impl9sign_typeEEENS0_10scan_errorELb1EE9has_valueEv:
  522|  1.04M|    {
  523|  1.04M|        return m_has_value;
  524|  1.04M|    }
_ZNO3scn2v48expectedINSt3__14pairIPKcNS0_4impl9sign_typeEEENS0_10scan_errorEEdeIS8_TnPNS2_9enable_ifIXntsr3stdE9is_void_vIT_EEvE4typeELPv0EEEOSD_v:
 1836|   521k|    {
 1837|   521k|        return std::move(value());
 1838|   521k|    }
_ZNR3scn2v48expectedINSt3__14pairIPKcNS0_4impl9sign_typeEEENS0_10scan_errorEE5valueIS8_TnPNS2_9enable_ifIXntsr3stdE9is_void_vIT_EEvE4typeELPv0EEERSD_v:
 1800|   521k|    {
 1801|   521k|        SCN_EXPECT(has_value());
  ------------------
  |  | 1079|   521k|#define SCN_EXPECT(cond) SCN_ASSERT(cond, "Precondition violation")
  |  |  ------------------
  |  |  |  | 1076|   521k|#define SCN_ASSERT(cond, msg) assert((cond) && msg)
  |  |  ------------------
  ------------------
 1802|   521k|        return this->get_value();
 1803|   521k|    }
_ZNR3scn2v46detail21expected_storage_baseINSt3__14pairIPKcNS0_4impl9sign_typeEEENS0_10scan_errorELb1EE9get_valueEv:
  488|   521k|    {
  489|   521k|        return m_value;
  490|   521k|    }
_ZNR3scn2v48expectedIPKcNS0_4impl11parse_errorEE15transform_errorIZNS4_29map_parse_error_to_scan_errorENS0_10scan_error4codeES3_EUlS5_E_EEDTclsr6detailE20transform_error_impldefpTclsr3stdE7forwardIT_Efp_EEEOSB_:
 1996|   502k|    {
 1997|   502k|        return detail::transform_error_impl(*this, std::forward<F>(f));
 1998|   502k|    }
_ZN3scn2v46detail20transform_error_implIRNS0_8expectedIPKcNS0_4impl11parse_errorEEEZNS6_29map_parse_error_to_scan_errorENS0_10scan_error4codeES5_EUlS7_E_TnPNSt3__19enable_ifIXntsr11is_exp_voidIT_EE5valueEvE4typeELPv0ESA_EEDaOSF_OT0_:
 1493|   502k|{
 1494|       |    if constexpr (std::is_void_v<Ret>) {
 1495|       |        using result = expected<expected_value_type<Exp>, monostate>;
 1496|       |        if (SCN_LIKELY(exp.has_value())) {
 1497|       |            return result(*std::forward<Exp>(exp));
 1498|       |        }
 1499|       |
 1500|       |        trivial_invoke(std::forward<F>(f), std::forward<Exp>(exp).error());
 1501|       |        return result(unexpect, monostate{});
 1502|       |    }
 1503|   502k|    else {
 1504|   502k|        using result = expected<expected_value_type<Exp>, remove_cvref_t<Ret>>;
 1505|   502k|        return SCN_LIKELY(exp.has_value())
  ------------------
  |  | 1013|   502k|#define SCN_LIKELY(x)   __builtin_expect(!!(x), 1)
  |  |  ------------------
  |  |  |  Branch (1013:25): [True: 0, False: 502k]
  |  |  ------------------
  ------------------
 1506|   502k|                   ? result(*std::forward<Exp>(exp))
 1507|   502k|                   : result(unexpect,
 1508|   502k|                            trivial_invoke(std::forward<F>(f),
 1509|   502k|                                           std::forward<Exp>(exp).error()));
 1510|   502k|    }
 1511|   502k|}
_ZN3scn2v48expectedIPKcNS0_10scan_errorEEC2IRS3_vEEOT_:
 1601|  42.3k|        : base(std::in_place, std::forward<U>(val)),
 1602|  42.3k|          ctor_base(detail::non_default_ctor_tag_t{})
 1603|  42.3k|    {
 1604|  42.3k|    }
_ZN3scn2v46detail21expected_storage_baseIPKcNS0_10scan_errorELb1EEC2IJRS4_EvEENSt3__110in_place_tEDpOT_:
  473|  42.3k|        : m_value(std::forward<Args>(args)...), m_has_value(true)
  474|  42.3k|    {
  475|  42.3k|    }
_ZN3scn2v413scan_expectedIPKcEC2EONS0_8expectedIS3_NS0_10scan_errorEEE:
 3964|   502k|        : expected<T, scan_error>(SCN_MOVE(other))
  ------------------
  |  | 1083|   502k|    static_cast<    \
  |  | 1084|   502k|        typename ::scn::detail::remove_reference<decltype(x)>::type&&>(x)
  ------------------
 3965|   502k|    {
 3966|   502k|    }
_ZNR3scn2v48expectedIPKcNS0_10scan_errorEEdeIS3_TnPNSt3__19enable_ifIXntsr3stdE9is_void_vIT_EEvE4typeELPv0EEERS9_v:
 1826|   354k|    {
 1827|   354k|        return value();
 1828|   354k|    }
_ZN3scn2v48expectedINSt3__14pairIPKcNS0_4impl9sign_typeEEENS6_9eof_errorEEptEv:
 1846|  11.9k|    {
 1847|  11.9k|        return &value();
 1848|  11.9k|    }
_ZN3scn2v413scan_expectedINS0_6detail17basic_scan_bufferIcE16forward_iteratorEEC2EONS0_8expectedIS5_NS0_10scan_errorEEE:
 3964|   561k|        : expected<T, scan_error>(SCN_MOVE(other))
  ------------------
  |  | 1083|   561k|    static_cast<    \
  |  | 1084|   561k|        typename ::scn::detail::remove_reference<decltype(x)>::type&&>(x)
  ------------------
 3965|   561k|    {
 3966|   561k|    }
_ZN3scn2v46detaileqERKNS1_17basic_scan_bufferIwE16forward_iteratorENS0_6ranges18default_sentinel_tE:
 4622|  4.42M|    {
 4623|  4.42M|        return x.is_at_end();
 4624|  4.42M|    }
_ZNK3scn2v46detail17basic_scan_bufferIwE16forward_iterator9is_at_endEv:
 4666|  7.04M|    {
 4667|  7.04M|        if (m_end) {
  ------------------
  |  Branch (4667:13): [True: 0, False: 7.04M]
  ------------------
 4668|      0|            return (static_cast<const CharT*>(m_begin) + position()) == m_end;
 4669|      0|        }
 4670|  7.04M|        if (!m_begin) {
  ------------------
  |  Branch (4670:13): [True: 0, False: 7.04M]
  ------------------
 4671|      0|            return true;
 4672|      0|        }
 4673|  7.04M|        return !read_at_position();
 4674|  7.04M|    }
_ZNK3scn2v46detail17basic_scan_bufferIwE16forward_iterator16read_at_positionEv:
 4646|  22.3M|    {
 4647|  22.3M|        SCN_EXPECT(m_begin);
  ------------------
  |  | 1079|  22.3M|#define SCN_EXPECT(cond) SCN_ASSERT(cond, "Precondition violation")
  |  |  ------------------
  |  |  |  | 1076|  22.3M|#define SCN_ASSERT(cond, msg) assert((cond) && msg)
  |  |  ------------------
  ------------------
 4648|       |
 4649|  22.3M|        if (!stores_parent()) {
  ------------------
  |  Branch (4649:13): [True: 0, False: 22.3M]
  ------------------
 4650|      0|            return true;
 4651|      0|        }
 4652|       |
 4653|  22.3M|        if (SCN_LIKELY(m_position < parent()->chars_available())) {
  ------------------
  |  | 1013|  22.3M|#define SCN_LIKELY(x)   __builtin_expect(!!(x), 1)
  |  |  ------------------
  |  |  |  Branch (1013:25): [True: 19.6M, False: 2.65M]
  |  |  ------------------
  ------------------
 4654|  19.6M|            return true;
 4655|  19.6M|        }
 4656|       |
 4657|  5.11M|        while (m_position >= parent()->chars_available()) {
  ------------------
  |  Branch (4657:16): [True: 2.65M, False: 2.45M]
  ------------------
 4658|  2.65M|            if (!const_cast<basic_scan_buffer<CharT>*>(parent())->fill()) {
  ------------------
  |  Branch (4658:17): [True: 203k, False: 2.45M]
  ------------------
 4659|   203k|                return false;
 4660|   203k|            }
 4661|  2.65M|        }
 4662|  2.45M|        return true;
 4663|  2.65M|    }
_ZNK3scn2v46detail17basic_scan_bufferIwE15chars_availableEv:
 4412|  28.8M|    {
 4413|  28.8M|        return static_cast<std::ptrdiff_t>(m_putback_buffer.size() +
 4414|  28.8M|                                           m_current_view.size());
 4415|  28.8M|    }
_ZNK3scn2v46detail17basic_scan_bufferIwE16forward_iteratordeEv:
 4581|  6.99M|    {
 4582|  6.99M|        SCN_EXPECT(m_begin);
  ------------------
  |  | 1079|  6.99M|#define SCN_EXPECT(cond) SCN_ASSERT(cond, "Precondition violation")
  |  |  ------------------
  |  |  |  | 1076|  6.99M|#define SCN_ASSERT(cond, msg) assert((cond) && msg)
  |  |  ------------------
  ------------------
 4583|       |
 4584|  6.99M|        if (!stores_parent()) {
  ------------------
  |  Branch (4584:13): [True: 0, False: 6.99M]
  ------------------
 4585|      0|            auto ptr = static_cast<const CharT*>(m_begin) + position();
 4586|      0|            SCN_EXPECT(ptr != m_end);
  ------------------
  |  | 1079|      0|#define SCN_EXPECT(cond) SCN_ASSERT(cond, "Precondition violation")
  |  |  ------------------
  |  |  |  | 1076|      0|#define SCN_ASSERT(cond, msg) assert((cond) && msg)
  |  |  ------------------
  ------------------
 4587|      0|            return *ptr;
 4588|      0|        }
 4589|       |
 4590|  6.99M|        auto res = read_at_position();
 4591|  6.99M|        SCN_EXPECT(res);
  ------------------
  |  | 1079|  6.99M|#define SCN_EXPECT(cond) SCN_ASSERT(cond, "Precondition violation")
  |  |  ------------------
  |  |  |  | 1076|  6.99M|#define SCN_ASSERT(cond, msg) assert((cond) && msg)
  |  |  ------------------
  ------------------
 4592|  6.99M|        return parent()->get_character_at(m_position);
 4593|  6.99M|    }
_ZNK3scn2v46detail17basic_scan_bufferIwE16get_character_atEl:
 4448|  6.99M|    {
 4449|  6.99M|        SCN_EXPECT(pos >= 0);
  ------------------
  |  | 1079|  6.99M|#define SCN_EXPECT(cond) SCN_ASSERT(cond, "Precondition violation")
  |  |  ------------------
  |  |  |  | 1076|  6.99M|#define SCN_ASSERT(cond, msg) assert((cond) && msg)
  |  |  ------------------
  ------------------
 4450|  6.99M|        const auto upos = static_cast<std::size_t>(pos);
 4451|  6.99M|        if (SCN_UNLIKELY(upos < m_putback_buffer.size())) {
  ------------------
  |  | 1014|  6.99M|#define SCN_UNLIKELY(x) __builtin_expect(!!(x), 0)
  |  |  ------------------
  |  |  |  Branch (1014:25): [True: 5.90M, False: 1.08M]
  |  |  ------------------
  ------------------
 4452|  5.90M|            return m_putback_buffer[upos];
 4453|  5.90M|        }
 4454|  1.08M|        const auto start = upos - m_putback_buffer.size();
 4455|  1.08M|        SCN_EXPECT(start < m_current_view.size());
  ------------------
  |  | 1079|  1.08M|#define SCN_EXPECT(cond) SCN_ASSERT(cond, "Precondition violation")
  |  |  ------------------
  |  |  |  | 1076|  1.08M|#define SCN_ASSERT(cond, msg) assert((cond) && msg)
  |  |  ------------------
  ------------------
 4456|  1.08M|        return m_current_view[start];
 4457|  1.08M|    }
_ZN3scn2v48expectedINS0_6detail17basic_scan_bufferIwE16forward_iteratorENS0_4impl9eof_errorEEC2IS5_vEEOT_:
 1601|  3.06M|        : base(std::in_place, std::forward<U>(val)),
 1602|  3.06M|          ctor_base(detail::non_default_ctor_tag_t{})
 1603|  3.06M|    {
 1604|  3.06M|    }
_ZN3scn2v46detail21expected_storage_baseINS1_17basic_scan_bufferIwE16forward_iteratorENS0_4impl9eof_errorELb1EEC2IJS5_EvEENSt3__110in_place_tEDpOT_:
  473|  3.06M|        : m_value(std::forward<Args>(args)...), m_has_value(true)
  474|  3.06M|    {
  475|  3.06M|    }
_ZN3scn2v46detail26expected_default_ctor_baseINS1_17basic_scan_bufferIwE16forward_iteratorENS0_4impl9eof_errorELb1EEC2ENS1_22non_default_ctor_tag_tE:
 1347|  3.13M|    {
 1348|  3.13M|    }
_ZN3scn2v48expectedINS0_6detail17basic_scan_bufferIwE16forward_iteratorENS0_4impl9eof_errorEEC2IS7_TnPNSt3__19enable_ifIXsr3stdE18is_constructible_vIS7_OT_EEvE4typeELPv0ETnPNSB_IXsr3stdE16is_convertible_vISD_S7_EEvE4typeELSH_0EEEONS0_10unexpectedISC_EE:
 1647|  66.8k|        : base(unexpect, std::move(e.error())),
 1648|  66.8k|          ctor_base(detail::non_default_ctor_tag_t{})
 1649|  66.8k|    {
 1650|  66.8k|    }
_ZN3scn2v46detail21expected_storage_baseINS1_17basic_scan_bufferIwE16forward_iteratorENS0_4impl9eof_errorELb1EEC2IJS7_EvEENS0_10unexpect_tEDpOT_:
  482|  66.8k|        : m_unexpected(std::in_place, std::forward<Args>(args)...),
  483|  66.8k|          m_has_value(false)
  484|  66.8k|    {
  485|  66.8k|    }
_ZN3scn2v46detail17basic_scan_bufferIwE16forward_iteratorppEv:
 4567|  8.30M|    {
 4568|  8.30M|        ++m_position;
 4569|  8.30M|        (void)read_at_position();
 4570|  8.30M|        return *this;
 4571|  8.30M|    }
_ZNK3scn2v48expectedINS0_6detail17basic_scan_bufferIwE16forward_iteratorENS0_4impl9eof_errorEEcvbEv:
 1771|  1.25M|    {
 1772|  1.25M|        return has_value();
 1773|  1.25M|    }
_ZNR3scn2v48expectedINS0_6detail17basic_scan_bufferIwE16forward_iteratorENS0_4impl9eof_errorEEdeIS5_TnPNSt3__19enable_ifIXntsr3stdE9is_void_vIT_EEvE4typeELPv0EEERSC_v:
 1826|  31.0k|    {
 1827|  31.0k|        return value();
 1828|  31.0k|    }
_ZN3scn2v46detailneERKNS1_17basic_scan_bufferIwE16forward_iteratorES6_:
 4616|  3.43M|    {
 4617|  3.43M|        return !(lhs == rhs);
 4618|  3.43M|    }
_ZN3scn2v46detaileqERKNS1_17basic_scan_bufferIwE16forward_iteratorES6_:
 4611|  4.66M|    {
 4612|  4.66M|        return lhs.m_begin == rhs.m_begin && lhs.m_position == rhs.m_position;
  ------------------
  |  Branch (4612:16): [True: 4.66M, False: 0]
  |  Branch (4612:46): [True: 1.48M, False: 3.17M]
  ------------------
 4613|  4.66M|    }
_ZN3scn2v46detail39code_point_length_by_starting_code_unitIwEEmT_:
 4123|  3.14M|{
 4124|       |    if constexpr (sizeof(U) == 1) {
 4125|       |        return utf8_code_point_length_by_starting_code_unit(ch);
 4126|       |    }
 4127|       |    else if constexpr (sizeof(U) == 2) {
 4128|       |        return utf16_code_point_length_by_starting_code_unit(ch);
 4129|       |    }
 4130|  3.14M|    else {
 4131|       |        // utf-32
 4132|  3.14M|        static_assert(sizeof(U) == 4);
 4133|  3.14M|        SCN_UNUSED(ch);
  ------------------
  |  | 1064|  3.14M|#define SCN_UNUSED(x) static_cast<void>(sizeof(x))
  ------------------
 4134|  3.14M|        return 1;
 4135|  3.14M|    }
 4136|  3.14M|}
_ZN3scn2v46detail28decode_code_point_exhaustiveIwEEDiNSt3__117basic_string_viewIT_NS3_11char_traitsIS5_EEEE:
 4329|  3.14M|{
 4330|       |    if constexpr (sizeof(CharT) == 1) {
 4331|       |        return decode_utf8_code_point_exhaustive(input);
 4332|       |    }
 4333|       |    else if constexpr (sizeof(CharT) == 2) {
 4334|       |        return decode_utf16_code_point_exhaustive(input);
 4335|       |    }
 4336|  3.14M|    else {
 4337|  3.14M|        SCN_EXPECT(input.size() == 1);
  ------------------
  |  | 1079|  3.14M|#define SCN_EXPECT(cond) SCN_ASSERT(cond, "Precondition violation")
  |  |  ------------------
  |  |  |  | 1076|  3.14M|#define SCN_ASSERT(cond, msg) assert((cond) && msg)
  |  |  ------------------
  ------------------
 4338|  3.14M|        auto cp = static_cast<char32_t>(input.front());
 4339|  3.14M|        if (SCN_UNLIKELY(cp >= invalid_code_point)) {
  ------------------
  |  | 1014|  3.14M|#define SCN_UNLIKELY(x) __builtin_expect(!!(x), 0)
  |  |  ------------------
  |  |  |  Branch (1014:25): [True: 163k, False: 2.98M]
  |  |  ------------------
  ------------------
 4340|   163k|            return invalid_code_point;
 4341|   163k|        }
 4342|  2.98M|        return cp;
 4343|  3.14M|    }
 4344|  3.14M|}
_ZN3scn2v48expectedINSt3__14pairINS0_6detail17basic_scan_bufferIwE16forward_iteratorElEENS0_10scan_errorEEC2IS9_TnPNS2_9enable_ifIXsr3stdE18is_constructible_vIS9_OT_EEvE4typeELPv0ETnPNSC_IXsr3stdE16is_convertible_vISE_S9_EEvE4typeELSI_0EEEONS0_10unexpectedISD_EE:
 1647|  3.18k|        : base(unexpect, std::move(e.error())),
 1648|  3.18k|          ctor_base(detail::non_default_ctor_tag_t{})
 1649|  3.18k|    {
 1650|  3.18k|    }
_ZN3scn2v46detail21expected_storage_baseINSt3__14pairINS1_17basic_scan_bufferIwE16forward_iteratorElEENS0_10scan_errorELb1EEC2IJS9_EvEENS0_10unexpect_tEDpOT_:
  482|  3.18k|        : m_unexpected(std::in_place, std::forward<Args>(args)...),
  483|  3.18k|          m_has_value(false)
  484|  3.18k|    {
  485|  3.18k|    }
_ZN3scn2v46detail26expected_default_ctor_baseINSt3__14pairINS1_17basic_scan_bufferIwE16forward_iteratorElEENS0_10scan_errorELb1EEC2ENS1_22non_default_ctor_tag_tE:
 1347|   648k|    {
 1348|   648k|    }
_ZN3scn2v48expectedINSt3__14pairINS0_6detail17basic_scan_bufferIwE16forward_iteratorElEENS0_10scan_errorEEC2IS8_vEEOT_:
 1601|   645k|        : base(std::in_place, std::forward<U>(val)),
 1602|   645k|          ctor_base(detail::non_default_ctor_tag_t{})
 1603|   645k|    {
 1604|   645k|    }
_ZN3scn2v46detail21expected_storage_baseINSt3__14pairINS1_17basic_scan_bufferIwE16forward_iteratorElEENS0_10scan_errorELb1EEC2IJS8_EvEENS3_10in_place_tEDpOT_:
  473|   645k|        : m_value(std::forward<Args>(args)...), m_has_value(true)
  474|   645k|    {
  475|   645k|    }
_ZNK3scn2v48expectedINSt3__14pairINS0_6detail17basic_scan_bufferIwE16forward_iteratorElEENS0_10scan_errorEEcvbEv:
 1771|   648k|    {
 1772|   648k|        return has_value();
 1773|   648k|    }
_ZNK3scn2v46detail21expected_storage_baseINSt3__14pairINS1_17basic_scan_bufferIwE16forward_iteratorElEENS0_10scan_errorELb1EE9has_valueEv:
  522|  1.29M|    {
  523|  1.29M|        return m_has_value;
  524|  1.29M|    }
_ZNR3scn2v48expectedINSt3__14pairINS0_6detail17basic_scan_bufferIwE16forward_iteratorElEENS0_10scan_errorEE5errorEv:
 1777|  3.18k|    {
 1778|  3.18k|        SCN_EXPECT(!has_value());
  ------------------
  |  | 1079|  3.18k|#define SCN_EXPECT(cond) SCN_ASSERT(cond, "Precondition violation")
  |  |  ------------------
  |  |  |  | 1076|  3.18k|#define SCN_ASSERT(cond, msg) assert((cond) && msg)
  |  |  ------------------
  ------------------
 1779|  3.18k|        return this->get_unexpected().error();
 1780|  3.18k|    }
_ZNR3scn2v46detail21expected_storage_baseINSt3__14pairINS1_17basic_scan_bufferIwE16forward_iteratorElEENS0_10scan_errorELb1EE14get_unexpectedEv:
  505|  3.18k|    {
  506|  3.18k|        return m_unexpected;
  507|  3.18k|    }
_ZNO3scn2v48expectedINSt3__14pairINS0_6detail17basic_scan_bufferIwE16forward_iteratorElEENS0_10scan_errorEEdeIS8_TnPNS2_9enable_ifIXntsr3stdE9is_void_vIT_EEvE4typeELPv0EEEOSD_v:
 1836|   645k|    {
 1837|   645k|        return std::move(value());
 1838|   645k|    }
_ZNR3scn2v48expectedINSt3__14pairINS0_6detail17basic_scan_bufferIwE16forward_iteratorElEENS0_10scan_errorEE5valueIS8_TnPNS2_9enable_ifIXntsr3stdE9is_void_vIT_EEvE4typeELPv0EEERSD_v:
 1800|   645k|    {
 1801|   645k|        SCN_EXPECT(has_value());
  ------------------
  |  | 1079|   645k|#define SCN_EXPECT(cond) SCN_ASSERT(cond, "Precondition violation")
  |  |  ------------------
  |  |  |  | 1076|   645k|#define SCN_ASSERT(cond, msg) assert((cond) && msg)
  |  |  ------------------
  ------------------
 1802|   645k|        return this->get_value();
 1803|   645k|    }
_ZNR3scn2v46detail21expected_storage_baseINSt3__14pairINS1_17basic_scan_bufferIwE16forward_iteratorElEENS0_10scan_errorELb1EE9get_valueEv:
  488|   645k|    {
  489|   645k|        return m_value;
  490|   645k|    }
_ZNK3scn2v46ranges6detail9subrange_8subrangeINS0_6detail17basic_scan_bufferIwE16forward_iteratorENS1_18default_sentinel_tEE3endEv:
 3517|  11.5M|    {
 3518|  11.5M|        return m_sentinel;
 3519|  11.5M|    }
_ZNR3scn2v48expectedINS0_6detail17basic_scan_bufferIwE16forward_iteratorENS0_4impl9eof_errorEE5errorEv:
 1777|  2.67k|    {
 1778|  2.67k|        SCN_EXPECT(!has_value());
  ------------------
  |  | 1079|  2.67k|#define SCN_EXPECT(cond) SCN_ASSERT(cond, "Precondition violation")
  |  |  ------------------
  |  |  |  | 1076|  2.67k|#define SCN_ASSERT(cond, msg) assert((cond) && msg)
  |  |  ------------------
  ------------------
 1779|  2.67k|        return this->get_unexpected().error();
 1780|  2.67k|    }
_ZN3scn2v48expectedINS0_6detail17basic_scan_bufferIwE16forward_iteratorENS0_4impl11parse_errorEEC2IS7_TnPNSt3__19enable_ifIXsr3stdE18is_constructible_vIS7_OT_EEvE4typeELPv0ETnPNSB_IXsr3stdE16is_convertible_vISD_S7_EEvE4typeELSH_0EEEONS0_10unexpectedISC_EE:
 1647|   576k|        : base(unexpect, std::move(e.error())),
 1648|   576k|          ctor_base(detail::non_default_ctor_tag_t{})
 1649|   576k|    {
 1650|   576k|    }
_ZN3scn2v46detail21expected_storage_baseINS1_17basic_scan_bufferIwE16forward_iteratorENS0_4impl11parse_errorELb1EEC2IJS7_EvEENS0_10unexpect_tEDpOT_:
  482|   636k|        : m_unexpected(std::in_place, std::forward<Args>(args)...),
  483|   636k|          m_has_value(false)
  484|   636k|    {
  485|   636k|    }
_ZN3scn2v46detail26expected_default_ctor_baseINS1_17basic_scan_bufferIwE16forward_iteratorENS0_4impl11parse_errorELb1EEC2ENS1_22non_default_ctor_tag_tE:
 1347|  5.40M|    {
 1348|  5.40M|    }
_ZN3scn2v48expectedINS0_6detail17basic_scan_bufferIwE16forward_iteratorENS0_4impl11parse_errorEEC2IRS5_vEEOT_:
 1601|  31.0k|        : base(std::in_place, std::forward<U>(val)),
 1602|  31.0k|          ctor_base(detail::non_default_ctor_tag_t{})
 1603|  31.0k|    {
 1604|  31.0k|    }
_ZN3scn2v46detail21expected_storage_baseINS1_17basic_scan_bufferIwE16forward_iteratorENS0_4impl11parse_errorELb1EEC2IJRS5_EvEENSt3__110in_place_tEDpOT_:
  473|  31.0k|        : m_value(std::forward<Args>(args)...), m_has_value(true)
  474|  31.0k|    {
  475|  31.0k|    }
_ZN3scn2v48expectedINS0_6detail17basic_scan_bufferIwE16forward_iteratorENS0_4impl11parse_errorEEC2INS7_4codeETnPNSt3__19enable_ifIXsr3stdE18is_constructible_vIS7_OT_EEvE4typeELPv0ETnPNSC_IXsr3stdE16is_convertible_vISE_S7_EEvE4typeELSI_0EEEONS0_10unexpectedISD_EE:
 1647|  3.02M|        : base(unexpect, std::move(e.error())),
 1648|  3.02M|          ctor_base(detail::non_default_ctor_tag_t{})
 1649|  3.02M|    {
 1650|  3.02M|    }
_ZN3scn2v46detail21expected_storage_baseINS1_17basic_scan_bufferIwE16forward_iteratorENS0_4impl11parse_errorELb1EEC2IJNS7_4codeEEvEENS0_10unexpect_tEDpOT_:
  482|  3.02M|        : m_unexpected(std::in_place, std::forward<Args>(args)...),
  483|  3.02M|          m_has_value(false)
  484|  3.02M|    {
  485|  3.02M|    }
_ZNK3scn2v48expectedINS0_6detail17basic_scan_bufferIwE16forward_iteratorENS0_4impl11parse_errorEEcvbEv:
 1771|  5.91M|    {
 1772|  5.91M|        return has_value();
 1773|  5.91M|    }
_ZNK3scn2v46detail21expected_storage_baseINS1_17basic_scan_bufferIwE16forward_iteratorENS0_4impl11parse_errorELb1EE9has_valueEv:
  522|  10.4M|    {
  523|  10.4M|        return m_has_value;
  524|  10.4M|    }
_ZNR3scn2v48expectedINS0_6detail17basic_scan_bufferIwE16forward_iteratorENS0_4impl11parse_errorEE5errorEv:
 1777|  1.73M|    {
 1778|  1.73M|        SCN_EXPECT(!has_value());
  ------------------
  |  | 1079|  1.73M|#define SCN_EXPECT(cond) SCN_ASSERT(cond, "Precondition violation")
  |  |  ------------------
  |  |  |  | 1076|  1.73M|#define SCN_ASSERT(cond, msg) assert((cond) && msg)
  |  |  ------------------
  ------------------
 1779|  1.73M|        return this->get_unexpected().error();
 1780|  1.73M|    }
_ZNR3scn2v46detail21expected_storage_baseINS1_17basic_scan_bufferIwE16forward_iteratorENS0_4impl11parse_errorELb1EE14get_unexpectedEv:
  505|  1.73M|    {
  506|  1.73M|        return m_unexpected;
  507|  1.73M|    }
_ZN3scn2v48expectedINSt3__14pairINS0_6detail17basic_scan_bufferIwE16forward_iteratorENS0_4impl9sign_typeEEENS8_9eof_errorEEC2ISA_vEEOT_:
 1601|   531k|        : base(std::in_place, std::forward<U>(val)),
 1602|   531k|          ctor_base(detail::non_default_ctor_tag_t{})
 1603|   531k|    {
 1604|   531k|    }
_ZN3scn2v46detail21expected_storage_baseINSt3__14pairINS1_17basic_scan_bufferIwE16forward_iteratorENS0_4impl9sign_typeEEENS8_9eof_errorELb1EEC2IJSA_EvEENS3_10in_place_tEDpOT_:
  473|   531k|        : m_value(std::forward<Args>(args)...), m_has_value(true)
  474|   531k|    {
  475|   531k|    }
_ZN3scn2v46detail26expected_default_ctor_baseINSt3__14pairINS1_17basic_scan_bufferIwE16forward_iteratorENS0_4impl9sign_typeEEENS8_9eof_errorELb1EEC2ENS1_22non_default_ctor_tag_tE:
 1347|   531k|    {
 1348|   531k|    }
_ZN3scn2v48expectedINSt3__14pairINS0_6detail17basic_scan_bufferIwE16forward_iteratorENS0_4impl9sign_typeEEENS8_9eof_errorEEC2ISB_TnPNS2_9enable_ifIXsr3stdE18is_constructible_vISB_OT_EEvE4typeELPv0ETnPNSE_IXsr3stdE16is_convertible_vISG_SB_EEvE4typeELSK_0EEEONS0_10unexpectedISF_EE:
 1647|     78|        : base(unexpect, std::move(e.error())),
 1648|     78|          ctor_base(detail::non_default_ctor_tag_t{})
 1649|     78|    {
 1650|     78|    }
_ZN3scn2v46detail21expected_storage_baseINSt3__14pairINS1_17basic_scan_bufferIwE16forward_iteratorENS0_4impl9sign_typeEEENS8_9eof_errorELb1EEC2IJSB_EvEENS0_10unexpect_tEDpOT_:
  482|     78|        : m_unexpected(std::in_place, std::forward<Args>(args)...),
  483|     78|          m_has_value(false)
  484|     78|    {
  485|     78|    }
_ZNR3scn2v48expectedINS0_6detail17basic_scan_bufferIwE16forward_iteratorENS0_4impl11parse_errorEEdeIS5_TnPNSt3__19enable_ifIXntsr3stdE9is_void_vIT_EEvE4typeELPv0EEERSC_v:
 1826|   831k|    {
 1827|   831k|        return value();
 1828|   831k|    }
_ZNR3scn2v48expectedINS0_6detail17basic_scan_bufferIwE16forward_iteratorENS0_4impl11parse_errorEE5valueIS5_TnPNSt3__19enable_ifIXntsr3stdE9is_void_vIT_EEvE4typeELPv0EEERSC_v:
 1800|  2.13M|    {
 1801|  2.13M|        SCN_EXPECT(has_value());
  ------------------
  |  | 1079|  2.13M|#define SCN_EXPECT(cond) SCN_ASSERT(cond, "Precondition violation")
  |  |  ------------------
  |  |  |  | 1076|  2.13M|#define SCN_ASSERT(cond, msg) assert((cond) && msg)
  |  |  ------------------
  ------------------
 1802|  2.13M|        return this->get_value();
 1803|  2.13M|    }
_ZNR3scn2v46detail21expected_storage_baseINS1_17basic_scan_bufferIwE16forward_iteratorENS0_4impl11parse_errorELb1EE9get_valueEv:
  488|  2.13M|    {
  489|  2.13M|        return m_value;
  490|  2.13M|    }
_ZNK3scn2v48expectedINSt3__14pairINS0_6detail17basic_scan_bufferIwE16forward_iteratorENS0_4impl9sign_typeEEENS8_9eof_errorEEcvbEv:
 1771|  18.1k|    {
 1772|  18.1k|        return has_value();
 1773|  18.1k|    }
_ZNK3scn2v46detail21expected_storage_baseINSt3__14pairINS1_17basic_scan_bufferIwE16forward_iteratorENS0_4impl9sign_typeEEENS8_9eof_errorELb1EE9has_valueEv:
  522|  1.06M|    {
  523|  1.06M|        return m_has_value;
  524|  1.06M|    }
_ZNO3scn2v48expectedINSt3__14pairINS0_6detail17basic_scan_bufferIwE16forward_iteratorENS0_4impl9sign_typeEEENS8_9eof_errorEEdeISA_TnPNS2_9enable_ifIXntsr3stdE9is_void_vIT_EEvE4typeELPv0EEEOSF_v:
 1836|   513k|    {
 1837|   513k|        return std::move(value());
 1838|   513k|    }
_ZNR3scn2v48expectedINSt3__14pairINS0_6detail17basic_scan_bufferIwE16forward_iteratorENS0_4impl9sign_typeEEENS8_9eof_errorEE5valueISA_TnPNS2_9enable_ifIXntsr3stdE9is_void_vIT_EEvE4typeELPv0EEERSF_v:
 1800|   531k|    {
 1801|   531k|        SCN_EXPECT(has_value());
  ------------------
  |  | 1079|   531k|#define SCN_EXPECT(cond) SCN_ASSERT(cond, "Precondition violation")
  |  |  ------------------
  |  |  |  | 1076|   531k|#define SCN_ASSERT(cond, msg) assert((cond) && msg)
  |  |  ------------------
  ------------------
 1802|   531k|        return this->get_value();
 1803|   531k|    }
_ZNR3scn2v46detail21expected_storage_baseINSt3__14pairINS1_17basic_scan_bufferIwE16forward_iteratorENS0_4impl9sign_typeEEENS8_9eof_errorELb1EE9get_valueEv:
  488|   531k|    {
  489|   531k|        return m_value;
  490|   531k|    }
_ZNO3scn2v48expectedINS0_6detail17basic_scan_bufferIwE16forward_iteratorENS0_4impl9eof_errorEE15transform_errorIRFNS6_11parse_errorES7_EEEDTclsr6detailE20transform_error_impldefpTclsr3stdE7forwardIT_Efp_EEEOSD_:
 2010|  1.36M|    {
 2011|  1.36M|        return detail::transform_error_impl(std::move(*this),
 2012|  1.36M|                                            std::forward<F>(f));
 2013|  1.36M|    }
_ZN3scn2v46detail20transform_error_implINS0_8expectedINS1_17basic_scan_bufferIwE16forward_iteratorENS0_4impl9eof_errorEEERFNS7_11parse_errorES8_ETnPNSt3__19enable_ifIXntsr11is_exp_voidIT_EE5valueEvE4typeELPv0ESA_EEDaOSF_OT0_:
 1493|  1.36M|{
 1494|       |    if constexpr (std::is_void_v<Ret>) {
 1495|       |        using result = expected<expected_value_type<Exp>, monostate>;
 1496|       |        if (SCN_LIKELY(exp.has_value())) {
 1497|       |            return result(*std::forward<Exp>(exp));
 1498|       |        }
 1499|       |
 1500|       |        trivial_invoke(std::forward<F>(f), std::forward<Exp>(exp).error());
 1501|       |        return result(unexpect, monostate{});
 1502|       |    }
 1503|  1.36M|    else {
 1504|  1.36M|        using result = expected<expected_value_type<Exp>, remove_cvref_t<Ret>>;
 1505|  1.36M|        return SCN_LIKELY(exp.has_value())
  ------------------
  |  | 1013|  1.36M|#define SCN_LIKELY(x)   __builtin_expect(!!(x), 1)
  |  |  ------------------
  |  |  |  Branch (1013:25): [True: 1.30M, False: 59.8k]
  |  |  ------------------
  ------------------
 1506|  1.36M|                   ? result(*std::forward<Exp>(exp))
 1507|  1.36M|                   : result(unexpect,
 1508|  59.8k|                            trivial_invoke(std::forward<F>(f),
 1509|  59.8k|                                           std::forward<Exp>(exp).error()));
 1510|  1.36M|    }
 1511|  1.36M|}
_ZN3scn2v48expectedINS0_6detail17basic_scan_bufferIwE16forward_iteratorENS0_4impl11parse_errorEEC2IS5_vEEOT_:
 1601|  1.70M|        : base(std::in_place, std::forward<U>(val)),
 1602|  1.70M|          ctor_base(detail::non_default_ctor_tag_t{})
 1603|  1.70M|    {
 1604|  1.70M|    }
_ZN3scn2v46detail21expected_storage_baseINS1_17basic_scan_bufferIwE16forward_iteratorENS0_4impl11parse_errorELb1EEC2IJS5_EvEENSt3__110in_place_tEDpOT_:
  473|  1.70M|        : m_value(std::forward<Args>(args)...), m_has_value(true)
  474|  1.70M|    {
  475|  1.70M|    }
_ZN3scn2v48expectedINS0_6detail17basic_scan_bufferIwE16forward_iteratorENS0_4impl11parse_errorEEC2IJS7_EvEENS0_10unexpect_tEDpOT_:
 1657|  59.8k|        : base(unexpect, std::forward<Args>(args)...),
 1658|  59.8k|          ctor_base(detail::non_default_ctor_tag_t{})
 1659|  59.8k|    {
 1660|  59.8k|    }
_ZNO3scn2v48expectedINS0_6detail17basic_scan_bufferIwE16forward_iteratorENS0_4impl11parse_errorEEdeIS5_TnPNSt3__19enable_ifIXntsr3stdE9is_void_vIT_EEvE4typeELPv0EEEOSC_v:
 1836|  1.30M|    {
 1837|  1.30M|        return std::move(value());
 1838|  1.30M|    }
_ZNK3scn2v48expectedINS0_6detail17basic_scan_bufferIwE16forward_iteratorENS0_10scan_errorEEcvbEv:
 1771|  3.46M|    {
 1772|  3.46M|        return has_value();
 1773|  3.46M|    }
_ZNK3scn2v46detail21expected_storage_baseINS1_17basic_scan_bufferIwE16forward_iteratorENS0_10scan_errorELb1EE9has_valueEv:
  522|  5.52M|    {
  523|  5.52M|        return m_has_value;
  524|  5.52M|    }
_ZNR3scn2v48expectedINS0_6detail17basic_scan_bufferIwE16forward_iteratorENS0_10scan_errorEE5errorEv:
 1777|   505k|    {
 1778|   505k|        SCN_EXPECT(!has_value());
  ------------------
  |  | 1079|   505k|#define SCN_EXPECT(cond) SCN_ASSERT(cond, "Precondition violation")
  |  |  ------------------
  |  |  |  | 1076|   505k|#define SCN_ASSERT(cond, msg) assert((cond) && msg)
  |  |  ------------------
  ------------------
 1779|   505k|        return this->get_unexpected().error();
 1780|   505k|    }
_ZNR3scn2v46detail21expected_storage_baseINS1_17basic_scan_bufferIwE16forward_iteratorENS0_10scan_errorELb1EE14get_unexpectedEv:
  505|   505k|    {
  506|   505k|        return m_unexpected;
  507|   505k|    }
_ZNO3scn2v48expectedINS0_6detail17basic_scan_bufferIwE16forward_iteratorENS0_10scan_errorEEdeIS5_TnPNSt3__19enable_ifIXntsr3stdE9is_void_vIT_EEvE4typeELPv0EEEOSB_v:
 1836|  1.27M|    {
 1837|  1.27M|        return std::move(value());
 1838|  1.27M|    }
_ZNR3scn2v48expectedINS0_6detail17basic_scan_bufferIwE16forward_iteratorENS0_10scan_errorEE5valueIS5_TnPNSt3__19enable_ifIXntsr3stdE9is_void_vIT_EEvE4typeELPv0EEERSB_v:
 1800|  1.54M|    {
 1801|  1.54M|        SCN_EXPECT(has_value());
  ------------------
  |  | 1079|  1.54M|#define SCN_EXPECT(cond) SCN_ASSERT(cond, "Precondition violation")
  |  |  ------------------
  |  |  |  | 1076|  1.54M|#define SCN_ASSERT(cond, msg) assert((cond) && msg)
  |  |  ------------------
  ------------------
 1802|  1.54M|        return this->get_value();
 1803|  1.54M|    }
_ZNR3scn2v46detail21expected_storage_baseINS1_17basic_scan_bufferIwE16forward_iteratorENS0_10scan_errorELb1EE9get_valueEv:
  488|  1.54M|    {
  489|  1.54M|        return m_value;
  490|  1.54M|    }
_ZNK3scn2v46ranges6detail9subrange_8subrangeINS0_6detail17basic_scan_bufferIwE16forward_iteratorES8_E5beginEv:
 3512|   426k|    {
 3513|   426k|        return m_iterator;
 3514|   426k|    }
_ZNK3scn2v46ranges6detail9subrange_8subrangeINS0_6detail17basic_scan_bufferIwE16forward_iteratorES8_E3endEv:
 3517|   426k|    {
 3518|   426k|        return m_sentinel;
 3519|   426k|    }
_ZN3scn2v46ranges6detail9subrange_8subrangeINS0_6detail17basic_scan_bufferIwE16forward_iteratorES8_EC2IS8_TnPNSt3__19enable_ifIXsr3stdE16is_convertible_vIT_S8_EEvE4typeELPv0EEESD_S8_:
 3496|   383k|        : m_iterator(SCN_MOVE(i)), m_sentinel(SCN_MOVE(s))
  ------------------
  |  | 1083|   383k|    static_cast<    \
  |  | 1084|   383k|        typename ::scn::detail::remove_reference<decltype(x)>::type&&>(x)
  ------------------
                      : m_iterator(SCN_MOVE(i)), m_sentinel(SCN_MOVE(s))
  ------------------
  |  | 1083|   383k|    static_cast<    \
  |  | 1084|   383k|        typename ::scn::detail::remove_reference<decltype(x)>::type&&>(x)
  ------------------
 3497|   383k|    {
 3498|   383k|    }
_ZN3scn2v46detailneERKNS1_17basic_scan_bufferIwE16forward_iteratorENS0_6ranges18default_sentinel_tE:
 4633|  2.61M|    {
 4634|  2.61M|        return !x.is_at_end();
 4635|  2.61M|    }
_ZN3scn2v48expectedIPKwNS0_4impl9eof_errorEEC2IS5_TnPNSt3__19enable_ifIXsr3stdE18is_constructible_vIS5_OT_EEvE4typeELPv0ETnPNS9_IXsr3stdE16is_convertible_vISB_S5_EEvE4typeELSF_0EEEONS0_10unexpectedISA_EE:
 1647|  64.9k|        : base(unexpect, std::move(e.error())),
 1648|  64.9k|          ctor_base(detail::non_default_ctor_tag_t{})
 1649|  64.9k|    {
 1650|  64.9k|    }
_ZN3scn2v46detail21expected_storage_baseIPKwNS0_4impl9eof_errorELb1EEC2IJS6_EvEENS0_10unexpect_tEDpOT_:
  482|  64.9k|        : m_unexpected(std::in_place, std::forward<Args>(args)...),
  483|  64.9k|          m_has_value(false)
  484|  64.9k|    {
  485|  64.9k|    }
_ZN3scn2v46detail26expected_default_ctor_baseIPKwNS0_4impl9eof_errorELb1EEC2ENS1_22non_default_ctor_tag_tE:
 1347|  2.59M|    {
 1348|  2.59M|    }
_ZN3scn2v48expectedIPKwNS0_4impl9eof_errorEEC2IS3_vEEOT_:
 1601|  2.53M|        : base(std::in_place, std::forward<U>(val)),
 1602|  2.53M|          ctor_base(detail::non_default_ctor_tag_t{})
 1603|  2.53M|    {
 1604|  2.53M|    }
_ZN3scn2v46detail21expected_storage_baseIPKwNS0_4impl9eof_errorELb1EEC2IJS4_EvEENSt3__110in_place_tEDpOT_:
  473|  2.53M|        : m_value(std::forward<Args>(args)...), m_has_value(true)
  474|  2.53M|    {
  475|  2.53M|    }
_ZNK3scn2v48expectedIPKwNS0_4impl9eof_errorEEcvbEv:
 1771|   715k|    {
 1772|   715k|        return has_value();
 1773|   715k|    }
_ZNK3scn2v46detail21expected_storage_baseIPKwNS0_4impl9eof_errorELb1EE9has_valueEv:
  522|  4.48M|    {
  523|  4.48M|        return m_has_value;
  524|  4.48M|    }
_ZNR3scn2v48expectedIPKwNS0_4impl9eof_errorEEdeIS3_TnPNSt3__19enable_ifIXntsr3stdE9is_void_vIT_EEvE4typeELPv0EEERSA_v:
 1826|  13.6k|    {
 1827|  13.6k|        return value();
 1828|  13.6k|    }
_ZNR3scn2v48expectedIPKwNS0_4impl9eof_errorEE5valueIS3_TnPNSt3__19enable_ifIXntsr3stdE9is_void_vIT_EEvE4typeELPv0EEERSA_v:
 1800|  1.82M|    {
 1801|  1.82M|        SCN_EXPECT(has_value());
  ------------------
  |  | 1079|  1.82M|#define SCN_EXPECT(cond) SCN_ASSERT(cond, "Precondition violation")
  |  |  ------------------
  |  |  |  | 1076|  1.82M|#define SCN_ASSERT(cond, msg) assert((cond) && msg)
  |  |  ------------------
  ------------------
 1802|  1.82M|        return this->get_value();
 1803|  1.82M|    }
_ZNR3scn2v46detail21expected_storage_baseIPKwNS0_4impl9eof_errorELb1EE9get_valueEv:
  488|  1.82M|    {
  489|  1.82M|        return m_value;
  490|  1.82M|    }
_ZN3scn2v48expectedINSt3__14pairIPKwlEENS0_10scan_errorEEC2IS7_TnPNS2_9enable_ifIXsr3stdE18is_constructible_vIS7_OT_EEvE4typeELPv0ETnPNSA_IXsr3stdE16is_convertible_vISC_S7_EEvE4typeELSG_0EEEONS0_10unexpectedISB_EE:
 1647|  3.18k|        : base(unexpect, std::move(e.error())),
 1648|  3.18k|          ctor_base(detail::non_default_ctor_tag_t{})
 1649|  3.18k|    {
 1650|  3.18k|    }
_ZN3scn2v46detail21expected_storage_baseINSt3__14pairIPKwlEENS0_10scan_errorELb1EEC2IJS8_EvEENS0_10unexpect_tEDpOT_:
  482|  3.18k|        : m_unexpected(std::in_place, std::forward<Args>(args)...),
  483|  3.18k|          m_has_value(false)
  484|  3.18k|    {
  485|  3.18k|    }
_ZN3scn2v46detail26expected_default_ctor_baseINSt3__14pairIPKwlEENS0_10scan_errorELb1EEC2ENS1_22non_default_ctor_tag_tE:
 1347|   649k|    {
 1348|   649k|    }
_ZN3scn2v48expectedINSt3__14pairIPKwlEENS0_10scan_errorEEC2IS6_vEEOT_:
 1601|   645k|        : base(std::in_place, std::forward<U>(val)),
 1602|   645k|          ctor_base(detail::non_default_ctor_tag_t{})
 1603|   645k|    {
 1604|   645k|    }
_ZN3scn2v46detail21expected_storage_baseINSt3__14pairIPKwlEENS0_10scan_errorELb1EEC2IJS7_EvEENS3_10in_place_tEDpOT_:
  473|   645k|        : m_value(std::forward<Args>(args)...), m_has_value(true)
  474|   645k|    {
  475|   645k|    }
_ZNO3scn2v48expectedIPKwNS0_4impl9eof_errorEE15transform_errorIRFNS0_10scan_errorES5_EEEDTclsr6detailE20transform_error_impldefpTclsr3stdE7forwardIT_Efp_EEEOSB_:
 2010|   518k|    {
 2011|   518k|        return detail::transform_error_impl(std::move(*this),
 2012|   518k|                                            std::forward<F>(f));
 2013|   518k|    }
_ZN3scn2v46detail20transform_error_implINS0_8expectedIPKwNS0_4impl9eof_errorEEERFNS0_10scan_errorES7_ETnPNSt3__19enable_ifIXntsr11is_exp_voidIT_EE5valueEvE4typeELPv0ES9_EEDaOSE_OT0_:
 1493|   518k|{
 1494|       |    if constexpr (std::is_void_v<Ret>) {
 1495|       |        using result = expected<expected_value_type<Exp>, monostate>;
 1496|       |        if (SCN_LIKELY(exp.has_value())) {
 1497|       |            return result(*std::forward<Exp>(exp));
 1498|       |        }
 1499|       |
 1500|       |        trivial_invoke(std::forward<F>(f), std::forward<Exp>(exp).error());
 1501|       |        return result(unexpect, monostate{});
 1502|       |    }
 1503|   518k|    else {
 1504|   518k|        using result = expected<expected_value_type<Exp>, remove_cvref_t<Ret>>;
 1505|   518k|        return SCN_LIKELY(exp.has_value())
  ------------------
  |  | 1013|   518k|#define SCN_LIKELY(x)   __builtin_expect(!!(x), 1)
  |  |  ------------------
  |  |  |  Branch (1013:25): [True: 514k, False: 4.28k]
  |  |  ------------------
  ------------------
 1506|   518k|                   ? result(*std::forward<Exp>(exp))
 1507|   518k|                   : result(unexpect,
 1508|  4.28k|                            trivial_invoke(std::forward<F>(f),
 1509|  4.28k|                                           std::forward<Exp>(exp).error()));
 1510|   518k|    }
 1511|   518k|}
_ZNO3scn2v48expectedIPKwNS0_4impl9eof_errorEEdeIS3_TnPNSt3__19enable_ifIXntsr3stdE9is_void_vIT_EEvE4typeELPv0EEEOSA_v:
 1836|  1.81M|    {
 1837|  1.81M|        return std::move(value());
 1838|  1.81M|    }
_ZNO3scn2v48expectedIPKwNS0_4impl9eof_errorEE5errorEv:
 1787|  64.3k|    {
 1788|  64.3k|        SCN_EXPECT(!has_value());
  ------------------
  |  | 1079|  64.3k|#define SCN_EXPECT(cond) SCN_ASSERT(cond, "Precondition violation")
  |  |  ------------------
  |  |  |  | 1076|  64.3k|#define SCN_ASSERT(cond, msg) assert((cond) && msg)
  |  |  ------------------
  ------------------
 1789|  64.3k|        return std::move(this->get_unexpected().error());
 1790|  64.3k|    }
_ZNR3scn2v46detail21expected_storage_baseIPKwNS0_4impl9eof_errorELb1EE14get_unexpectedEv:
  505|  64.9k|    {
  506|  64.9k|        return m_unexpected;
  507|  64.9k|    }
_ZN3scn2v48expectedIPKwNS0_10scan_errorEEC2IJS4_EvEENS0_10unexpect_tEDpOT_:
 1657|   576k|        : base(unexpect, std::forward<Args>(args)...),
 1658|   576k|          ctor_base(detail::non_default_ctor_tag_t{})
 1659|   576k|    {
 1660|   576k|    }
_ZNK3scn2v48expectedINSt3__14pairIPKwlEENS0_10scan_errorEEcvbEv:
 1771|   649k|    {
 1772|   649k|        return has_value();
 1773|   649k|    }
_ZNK3scn2v46detail21expected_storage_baseINSt3__14pairIPKwlEENS0_10scan_errorELb1EE9has_valueEv:
  522|  1.29M|    {
  523|  1.29M|        return m_has_value;
  524|  1.29M|    }
_ZNR3scn2v48expectedINSt3__14pairIPKwlEENS0_10scan_errorEE5errorEv:
 1777|  3.18k|    {
 1778|  3.18k|        SCN_EXPECT(!has_value());
  ------------------
  |  | 1079|  3.18k|#define SCN_EXPECT(cond) SCN_ASSERT(cond, "Precondition violation")
  |  |  ------------------
  |  |  |  | 1076|  3.18k|#define SCN_ASSERT(cond, msg) assert((cond) && msg)
  |  |  ------------------
  ------------------
 1779|  3.18k|        return this->get_unexpected().error();
 1780|  3.18k|    }
_ZNR3scn2v46detail21expected_storage_baseINSt3__14pairIPKwlEENS0_10scan_errorELb1EE14get_unexpectedEv:
  505|  3.18k|    {
  506|  3.18k|        return m_unexpected;
  507|  3.18k|    }
_ZNO3scn2v48expectedINSt3__14pairIPKwlEENS0_10scan_errorEEdeIS6_TnPNS2_9enable_ifIXntsr3stdE9is_void_vIT_EEvE4typeELPv0EEEOSB_v:
 1836|   645k|    {
 1837|   645k|        return std::move(value());
 1838|   645k|    }
_ZNR3scn2v48expectedINSt3__14pairIPKwlEENS0_10scan_errorEE5valueIS6_TnPNS2_9enable_ifIXntsr3stdE9is_void_vIT_EEvE4typeELPv0EEERSB_v:
 1800|   645k|    {
 1801|   645k|        SCN_EXPECT(has_value());
  ------------------
  |  | 1079|   645k|#define SCN_EXPECT(cond) SCN_ASSERT(cond, "Precondition violation")
  |  |  ------------------
  |  |  |  | 1076|   645k|#define SCN_ASSERT(cond, msg) assert((cond) && msg)
  |  |  ------------------
  ------------------
 1802|   645k|        return this->get_value();
 1803|   645k|    }
_ZNR3scn2v46detail21expected_storage_baseINSt3__14pairIPKwlEENS0_10scan_errorELb1EE9get_valueEv:
  488|   645k|    {
  489|   645k|        return m_value;
  490|   645k|    }
_ZNR3scn2v48expectedIPKwNS0_4impl9eof_errorEE5errorEv:
 1777|    624|    {
 1778|    624|        SCN_EXPECT(!has_value());
  ------------------
  |  | 1079|    624|#define SCN_EXPECT(cond) SCN_ASSERT(cond, "Precondition violation")
  |  |  ------------------
  |  |  |  | 1076|    624|#define SCN_ASSERT(cond, msg) assert((cond) && msg)
  |  |  ------------------
  ------------------
 1779|    624|        return this->get_unexpected().error();
 1780|    624|    }
_ZN3scn2v48expectedIPKwNS0_4impl11parse_errorEEC2IS5_TnPNSt3__19enable_ifIXsr3stdE18is_constructible_vIS5_OT_EEvE4typeELPv0ETnPNS9_IXsr3stdE16is_convertible_vISB_S5_EEvE4typeELSF_0EEEONS0_10unexpectedISA_EE:
 1647|   574k|        : base(unexpect, std::move(e.error())),
 1648|   574k|          ctor_base(detail::non_default_ctor_tag_t{})
 1649|   574k|    {
 1650|   574k|    }
_ZN3scn2v46detail21expected_storage_baseIPKwNS0_4impl11parse_errorELb1EEC2IJS6_EvEENS0_10unexpect_tEDpOT_:
  482|   634k|        : m_unexpected(std::in_place, std::forward<Args>(args)...),
  483|   634k|          m_has_value(false)
  484|   634k|    {
  485|   634k|    }
_ZN3scn2v46detail26expected_default_ctor_baseIPKwNS0_4impl11parse_errorELb1EEC2ENS1_22non_default_ctor_tag_tE:
 1347|  4.26M|    {
 1348|  4.26M|    }
_ZN3scn2v48expectedIPKwNS0_4impl11parse_errorEEC2IRS3_vEEOT_:
 1601|  13.6k|        : base(std::in_place, std::forward<U>(val)),
 1602|  13.6k|          ctor_base(detail::non_default_ctor_tag_t{})
 1603|  13.6k|    {
 1604|  13.6k|    }
_ZN3scn2v46detail21expected_storage_baseIPKwNS0_4impl11parse_errorELb1EEC2IJRS4_EvEENSt3__110in_place_tEDpOT_:
  473|  13.6k|        : m_value(std::forward<Args>(args)...), m_has_value(true)
  474|  13.6k|    {
  475|  13.6k|    }
_ZN3scn2v48expectedIPKwNS0_4impl11parse_errorEEC2INS5_4codeETnPNSt3__19enable_ifIXsr3stdE18is_constructible_vIS5_OT_EEvE4typeELPv0ETnPNSA_IXsr3stdE16is_convertible_vISC_S5_EEvE4typeELSG_0EEEONS0_10unexpectedISB_EE:
 1647|  2.18M|        : base(unexpect, std::move(e.error())),
 1648|  2.18M|          ctor_base(detail::non_default_ctor_tag_t{})
 1649|  2.18M|    {
 1650|  2.18M|    }
_ZN3scn2v46detail21expected_storage_baseIPKwNS0_4impl11parse_errorELb1EEC2IJNS6_4codeEEvEENS0_10unexpect_tEDpOT_:
  482|  2.18M|        : m_unexpected(std::in_place, std::forward<Args>(args)...),
  483|  2.18M|          m_has_value(false)
  484|  2.18M|    {
  485|  2.18M|    }
_ZNK3scn2v48expectedIPKwNS0_4impl11parse_errorEEcvbEv:
 1771|  4.77M|    {
 1772|  4.77M|        return has_value();
 1773|  4.77M|    }
_ZNK3scn2v46detail21expected_storage_baseIPKwNS0_4impl11parse_errorELb1EE9has_valueEv:
  522|  8.58M|    {
  523|  8.58M|        return m_has_value;
  524|  8.58M|    }
_ZNR3scn2v48expectedIPKwNS0_4impl11parse_errorEE5errorEv:
 1777|  1.66M|    {
 1778|  1.66M|        SCN_EXPECT(!has_value());
  ------------------
  |  | 1079|  1.66M|#define SCN_EXPECT(cond) SCN_ASSERT(cond, "Precondition violation")
  |  |  ------------------
  |  |  |  | 1076|  1.66M|#define SCN_ASSERT(cond, msg) assert((cond) && msg)
  |  |  ------------------
  ------------------
 1779|  1.66M|        return this->get_unexpected().error();
 1780|  1.66M|    }
_ZNR3scn2v46detail21expected_storage_baseIPKwNS0_4impl11parse_errorELb1EE14get_unexpectedEv:
  505|  1.66M|    {
  506|  1.66M|        return m_unexpected;
  507|  1.66M|    }
_ZN3scn2v48expectedINSt3__14pairIPKwNS0_4impl9sign_typeEEENS6_9eof_errorEEC2IS8_vEEOT_:
 1601|   520k|        : base(std::in_place, std::forward<U>(val)),
 1602|   520k|          ctor_base(detail::non_default_ctor_tag_t{})
 1603|   520k|    {
 1604|   520k|    }
_ZN3scn2v46detail21expected_storage_baseINSt3__14pairIPKwNS0_4impl9sign_typeEEENS7_9eof_errorELb1EEC2IJS9_EvEENS3_10in_place_tEDpOT_:
  473|   520k|        : m_value(std::forward<Args>(args)...), m_has_value(true)
  474|   520k|    {
  475|   520k|    }
_ZN3scn2v46detail26expected_default_ctor_baseINSt3__14pairIPKwNS0_4impl9sign_typeEEENS7_9eof_errorELb1EEC2ENS1_22non_default_ctor_tag_tE:
 1347|   520k|    {
 1348|   520k|    }
_ZN3scn2v48expectedINSt3__14pairIPKwNS0_4impl9sign_typeEEENS6_9eof_errorEEC2IS9_TnPNS2_9enable_ifIXsr3stdE18is_constructible_vIS9_OT_EEvE4typeELPv0ETnPNSC_IXsr3stdE16is_convertible_vISE_S9_EEvE4typeELSI_0EEEONS0_10unexpectedISD_EE:
 1647|     24|        : base(unexpect, std::move(e.error())),
 1648|     24|          ctor_base(detail::non_default_ctor_tag_t{})
 1649|     24|    {
 1650|     24|    }
_ZN3scn2v46detail21expected_storage_baseINSt3__14pairIPKwNS0_4impl9sign_typeEEENS7_9eof_errorELb1EEC2IJSA_EvEENS0_10unexpect_tEDpOT_:
  482|     24|        : m_unexpected(std::in_place, std::forward<Args>(args)...),
  483|     24|          m_has_value(false)
  484|     24|    {
  485|     24|    }
_ZNR3scn2v48expectedIPKwNS0_4impl11parse_errorEEdeIS3_TnPNSt3__19enable_ifIXntsr3stdE9is_void_vIT_EEvE4typeELPv0EEERSA_v:
 1826|   271k|    {
 1827|   271k|        return value();
 1828|   271k|    }
_ZNR3scn2v48expectedIPKwNS0_4impl11parse_errorEE5valueIS3_TnPNSt3__19enable_ifIXntsr3stdE9is_void_vIT_EEvE4typeELPv0EEERSA_v:
 1800|  1.57M|    {
 1801|  1.57M|        SCN_EXPECT(has_value());
  ------------------
  |  | 1079|  1.57M|#define SCN_EXPECT(cond) SCN_ASSERT(cond, "Precondition violation")
  |  |  ------------------
  |  |  |  | 1076|  1.57M|#define SCN_ASSERT(cond, msg) assert((cond) && msg)
  |  |  ------------------
  ------------------
 1802|  1.57M|        return this->get_value();
 1803|  1.57M|    }
_ZNR3scn2v46detail21expected_storage_baseIPKwNS0_4impl11parse_errorELb1EE9get_valueEv:
  488|  1.57M|    {
  489|  1.57M|        return m_value;
  490|  1.57M|    }
_ZNK3scn2v48expectedINSt3__14pairIPKwNS0_4impl9sign_typeEEENS6_9eof_errorEEcvbEv:
 1771|  6.78k|    {
 1772|  6.78k|        return has_value();
 1773|  6.78k|    }
_ZNK3scn2v46detail21expected_storage_baseINSt3__14pairIPKwNS0_4impl9sign_typeEEENS7_9eof_errorELb1EE9has_valueEv:
  522|  1.04M|    {
  523|  1.04M|        return m_has_value;
  524|  1.04M|    }
_ZNO3scn2v48expectedINSt3__14pairIPKwNS0_4impl9sign_typeEEENS6_9eof_errorEEdeIS8_TnPNS2_9enable_ifIXntsr3stdE9is_void_vIT_EEvE4typeELPv0EEEOSD_v:
 1836|   514k|    {
 1837|   514k|        return std::move(value());
 1838|   514k|    }
_ZNR3scn2v48expectedINSt3__14pairIPKwNS0_4impl9sign_typeEEENS6_9eof_errorEE5valueIS8_TnPNS2_9enable_ifIXntsr3stdE9is_void_vIT_EEvE4typeELPv0EEERSD_v:
 1800|   520k|    {
 1801|   520k|        SCN_EXPECT(has_value());
  ------------------
  |  | 1079|   520k|#define SCN_EXPECT(cond) SCN_ASSERT(cond, "Precondition violation")
  |  |  ------------------
  |  |  |  | 1076|   520k|#define SCN_ASSERT(cond, msg) assert((cond) && msg)
  |  |  ------------------
  ------------------
 1802|   520k|        return this->get_value();
 1803|   520k|    }
_ZNR3scn2v46detail21expected_storage_baseINSt3__14pairIPKwNS0_4impl9sign_typeEEENS7_9eof_errorELb1EE9get_valueEv:
  488|   520k|    {
  489|   520k|        return m_value;
  490|   520k|    }
_ZNO3scn2v48expectedIPKwNS0_4impl9eof_errorEE15transform_errorIRFNS4_11parse_errorES5_EEEDTclsr6detailE20transform_error_impldefpTclsr3stdE7forwardIT_Efp_EEEOSB_:
 2010|  1.36M|    {
 2011|  1.36M|        return detail::transform_error_impl(std::move(*this),
 2012|  1.36M|                                            std::forward<F>(f));
 2013|  1.36M|    }
_ZN3scn2v46detail20transform_error_implINS0_8expectedIPKwNS0_4impl9eof_errorEEERFNS6_11parse_errorES7_ETnPNSt3__19enable_ifIXntsr11is_exp_voidIT_EE5valueEvE4typeELPv0ES9_EEDaOSE_OT0_:
 1493|  1.36M|{
 1494|       |    if constexpr (std::is_void_v<Ret>) {
 1495|       |        using result = expected<expected_value_type<Exp>, monostate>;
 1496|       |        if (SCN_LIKELY(exp.has_value())) {
 1497|       |            return result(*std::forward<Exp>(exp));
 1498|       |        }
 1499|       |
 1500|       |        trivial_invoke(std::forward<F>(f), std::forward<Exp>(exp).error());
 1501|       |        return result(unexpect, monostate{});
 1502|       |    }
 1503|  1.36M|    else {
 1504|  1.36M|        using result = expected<expected_value_type<Exp>, remove_cvref_t<Ret>>;
 1505|  1.36M|        return SCN_LIKELY(exp.has_value())
  ------------------
  |  | 1013|  1.36M|#define SCN_LIKELY(x)   __builtin_expect(!!(x), 1)
  |  |  ------------------
  |  |  |  Branch (1013:25): [True: 1.30M, False: 60.0k]
  |  |  ------------------
  ------------------
 1506|  1.36M|                   ? result(*std::forward<Exp>(exp))
 1507|  1.36M|                   : result(unexpect,
 1508|  60.0k|                            trivial_invoke(std::forward<F>(f),
 1509|  60.0k|                                           std::forward<Exp>(exp).error()));
 1510|  1.36M|    }
 1511|  1.36M|}
_ZN3scn2v48expectedIPKwNS0_4impl11parse_errorEEC2IS3_vEEOT_:
 1601|  1.43M|        : base(std::in_place, std::forward<U>(val)),
 1602|  1.43M|          ctor_base(detail::non_default_ctor_tag_t{})
 1603|  1.43M|    {
 1604|  1.43M|    }
_ZN3scn2v46detail21expected_storage_baseIPKwNS0_4impl11parse_errorELb1EEC2IJS4_EvEENSt3__110in_place_tEDpOT_:
  473|  1.43M|        : m_value(std::forward<Args>(args)...), m_has_value(true)
  474|  1.43M|    {
  475|  1.43M|    }
_ZN3scn2v48expectedIPKwNS0_4impl11parse_errorEEC2IJS5_EvEENS0_10unexpect_tEDpOT_:
 1657|  60.0k|        : base(unexpect, std::forward<Args>(args)...),
 1658|  60.0k|          ctor_base(detail::non_default_ctor_tag_t{})
 1659|  60.0k|    {
 1660|  60.0k|    }
_ZNO3scn2v48expectedIPKwNS0_4impl11parse_errorEEdeIS3_TnPNSt3__19enable_ifIXntsr3stdE9is_void_vIT_EEvE4typeELPv0EEEOSA_v:
 1836|  1.30M|    {
 1837|  1.30M|        return std::move(value());
 1838|  1.30M|    }
_ZNK3scn2v46ranges6detail5data_2fnclIRNS2_9subrange_8subrangeIPKwS9_EEEEDTclsr2fnE4implscDtfp_Efp_tlNS0_6detail12priority_tagILm1EEEEEEOT_:
 3031|  1.20M|    {
 3032|  1.20M|        return fn::impl(SCN_FWD(t), priority_tag<1>{});
  ------------------
  |  | 1085|  1.20M|#define SCN_FWD(x)          static_cast<decltype(x)&&>(x)
  ------------------
 3033|  1.20M|    }
_ZN3scn2v46ranges6detail5data_2fn4implINS2_9subrange_8subrangeIPKwS9_EES9_EENSt3__19enable_ifIX19is_object_pointer_vIT0_EESD_E4typeERT_NS0_6detail12priority_tagILm1EEE:
 3012|  1.20M|    {
 3013|  1.20M|        return t.data();
 3014|  1.20M|    }
_ZNO3scn2v48expectedINSt3__14pairINS0_6detail17basic_scan_bufferIwE16forward_iteratorENS0_4impl9sign_typeEEENS8_9eof_errorEE15transform_errorIRFNS0_10scan_errorESB_EEEDTclsr6detailE20transform_error_impldefpTclsr3stdE7forwardIT_Efp_EEEOSH_:
 2010|   513k|    {
 2011|   513k|        return detail::transform_error_impl(std::move(*this),
 2012|   513k|                                            std::forward<F>(f));
 2013|   513k|    }
_ZN3scn2v46detail20transform_error_implINS0_8expectedINSt3__14pairINS1_17basic_scan_bufferIwE16forward_iteratorENS0_4impl9sign_typeEEENS9_9eof_errorEEERFNS0_10scan_errorESC_ETnPNS4_9enable_ifIXntsr11is_exp_voidIT_EE5valueEvE4typeELPv0ESE_EEDaOSI_OT0_:
 1493|   513k|{
 1494|       |    if constexpr (std::is_void_v<Ret>) {
 1495|       |        using result = expected<expected_value_type<Exp>, monostate>;
 1496|       |        if (SCN_LIKELY(exp.has_value())) {
 1497|       |            return result(*std::forward<Exp>(exp));
 1498|       |        }
 1499|       |
 1500|       |        trivial_invoke(std::forward<F>(f), std::forward<Exp>(exp).error());
 1501|       |        return result(unexpect, monostate{});
 1502|       |    }
 1503|   513k|    else {
 1504|   513k|        using result = expected<expected_value_type<Exp>, remove_cvref_t<Ret>>;
 1505|   513k|        return SCN_LIKELY(exp.has_value())
  ------------------
  |  | 1013|   513k|#define SCN_LIKELY(x)   __builtin_expect(!!(x), 1)
  |  |  ------------------
  |  |  |  Branch (1013:25): [True: 513k, False: 0]
  |  |  ------------------
  ------------------
 1506|   513k|                   ? result(*std::forward<Exp>(exp))
 1507|   513k|                   : result(unexpect,
 1508|      0|                            trivial_invoke(std::forward<F>(f),
 1509|      0|                                           std::forward<Exp>(exp).error()));
 1510|   513k|    }
 1511|   513k|}
_ZN3scn2v48expectedINSt3__14pairINS0_6detail17basic_scan_bufferIwE16forward_iteratorENS0_4impl9sign_typeEEENS0_10scan_errorEEC2ISA_vEEOT_:
 1601|   513k|        : base(std::in_place, std::forward<U>(val)),
 1602|   513k|          ctor_base(detail::non_default_ctor_tag_t{})
 1603|   513k|    {
 1604|   513k|    }
_ZN3scn2v46detail21expected_storage_baseINSt3__14pairINS1_17basic_scan_bufferIwE16forward_iteratorENS0_4impl9sign_typeEEENS0_10scan_errorELb1EEC2IJSA_EvEENS3_10in_place_tEDpOT_:
  473|   513k|        : m_value(std::forward<Args>(args)...), m_has_value(true)
  474|   513k|    {
  475|   513k|    }
_ZN3scn2v46detail26expected_default_ctor_baseINSt3__14pairINS1_17basic_scan_bufferIwE16forward_iteratorENS0_4impl9sign_typeEEENS0_10scan_errorELb1EEC2ENS1_22non_default_ctor_tag_tE:
 1347|   513k|    {
 1348|   513k|    }
_ZNK3scn2v48expectedINSt3__14pairINS0_6detail17basic_scan_bufferIwE16forward_iteratorENS0_4impl9sign_typeEEENS0_10scan_errorEEcvbEv:
 1771|   513k|    {
 1772|   513k|        return has_value();
 1773|   513k|    }
_ZNK3scn2v46detail21expected_storage_baseINSt3__14pairINS1_17basic_scan_bufferIwE16forward_iteratorENS0_4impl9sign_typeEEENS0_10scan_errorELb1EE9has_valueEv:
  522|  1.02M|    {
  523|  1.02M|        return m_has_value;
  524|  1.02M|    }
_ZNO3scn2v48expectedINSt3__14pairINS0_6detail17basic_scan_bufferIwE16forward_iteratorENS0_4impl9sign_typeEEENS0_10scan_errorEEdeISA_TnPNS2_9enable_ifIXntsr3stdE9is_void_vIT_EEvE4typeELPv0EEEOSF_v:
 1836|   513k|    {
 1837|   513k|        return std::move(value());
 1838|   513k|    }
_ZNR3scn2v48expectedINSt3__14pairINS0_6detail17basic_scan_bufferIwE16forward_iteratorENS0_4impl9sign_typeEEENS0_10scan_errorEE5valueISA_TnPNS2_9enable_ifIXntsr3stdE9is_void_vIT_EEvE4typeELPv0EEERSF_v:
 1800|   513k|    {
 1801|   513k|        SCN_EXPECT(has_value());
  ------------------
  |  | 1079|   513k|#define SCN_EXPECT(cond) SCN_ASSERT(cond, "Precondition violation")
  |  |  ------------------
  |  |  |  | 1076|   513k|#define SCN_ASSERT(cond, msg) assert((cond) && msg)
  |  |  ------------------
  ------------------
 1802|   513k|        return this->get_value();
 1803|   513k|    }
_ZNR3scn2v46detail21expected_storage_baseINSt3__14pairINS1_17basic_scan_bufferIwE16forward_iteratorENS0_4impl9sign_typeEEENS0_10scan_errorELb1EE9get_valueEv:
  488|   513k|    {
  489|   513k|        return m_value;
  490|   513k|    }
_ZNR3scn2v48expectedINS0_6detail17basic_scan_bufferIwE16forward_iteratorENS0_4impl11parse_errorEE15transform_errorIZNS6_29map_parse_error_to_scan_errorENS0_10scan_error4codeEPKcEUlS7_E_EEDTclsr6detailE20transform_error_impldefpTclsr3stdE7forwardIT_Efp_EEEOSF_:
 1996|   640k|    {
 1997|   640k|        return detail::transform_error_impl(*this, std::forward<F>(f));
 1998|   640k|    }
_ZN3scn2v46detail20transform_error_implIRNS0_8expectedINS1_17basic_scan_bufferIwE16forward_iteratorENS0_4impl11parse_errorEEEZNS7_29map_parse_error_to_scan_errorENS0_10scan_error4codeEPKcEUlS8_E_TnPNSt3__19enable_ifIXntsr11is_exp_voidIT_EE5valueEvE4typeELPv0ESB_EEDaOSI_OT0_:
 1493|   640k|{
 1494|       |    if constexpr (std::is_void_v<Ret>) {
 1495|       |        using result = expected<expected_value_type<Exp>, monostate>;
 1496|       |        if (SCN_LIKELY(exp.has_value())) {
 1497|       |            return result(*std::forward<Exp>(exp));
 1498|       |        }
 1499|       |
 1500|       |        trivial_invoke(std::forward<F>(f), std::forward<Exp>(exp).error());
 1501|       |        return result(unexpect, monostate{});
 1502|       |    }
 1503|   640k|    else {
 1504|   640k|        using result = expected<expected_value_type<Exp>, remove_cvref_t<Ret>>;
 1505|   640k|        return SCN_LIKELY(exp.has_value())
  ------------------
  |  | 1013|   640k|#define SCN_LIKELY(x)   __builtin_expect(!!(x), 1)
  |  |  ------------------
  |  |  |  Branch (1013:25): [True: 0, False: 640k]
  |  |  ------------------
  ------------------
 1506|   640k|                   ? result(*std::forward<Exp>(exp))
 1507|   640k|                   : result(unexpect,
 1508|   640k|                            trivial_invoke(std::forward<F>(f),
 1509|   640k|                                           std::forward<Exp>(exp).error()));
 1510|   640k|    }
 1511|   640k|}
_ZNR3scn2v48expectedINS0_6detail17basic_scan_bufferIwE16forward_iteratorENS0_10scan_errorEEdeIS5_TnPNSt3__19enable_ifIXntsr3stdE9is_void_vIT_EEvE4typeELPv0EEERSB_v:
 1826|   272k|    {
 1827|   272k|        return value();
 1828|   272k|    }
_ZZN3scn2v44impl12float_readerIwE16read_source_implINS0_6ranges6detail9subrange_8subrangeINS0_6detail17basic_scan_bufferIwE16forward_iteratorENS5_18default_sentinel_tEEEEENS0_13scan_expectedIDTclL_ZNS5_5beginEEclsr3stdE7declvalIRNSt3__19add_constIT_E4typeEEEEEEESI_ENKUlRKSI_E0_clISE_EEDaSP_:
 3991|   101k|    auto&& SCN_TRY_TMP = (x);                          \
_ZN3scn2v48expectedINSt3__14pairINS0_6detail17basic_scan_bufferIwE16forward_iteratorENS0_4impl9sign_typeEEENS8_9eof_errorEEptEv:
 1846|  18.0k|    {
 1847|  18.0k|        return &value();
 1848|  18.0k|    }
_ZNK3scn2v46ranges6detail6begin_2fnclIRNS2_9subrange_8subrangeINS0_6detail17basic_scan_bufferIwE16forward_iteratorENS1_18default_sentinel_tEEEEEDTclsr2fnE4implscDtfp_Efp_tlNS8_12priority_tagILm3EEEEEEOT_:
 2900|   412k|    {
 2901|   412k|        return fn::impl(SCN_FWD(t), priority_tag<3>{});
  ------------------
  |  | 1085|   412k|#define SCN_FWD(x)          static_cast<decltype(x)&&>(x)
  ------------------
 2902|   412k|    }
_ZN3scn2v46ranges6detail6begin_2fn4implIRNS2_9subrange_8subrangeINS0_6detail17basic_scan_bufferIwE16forward_iteratorENS1_18default_sentinel_tEEEEENSt3__19enable_ifIX24input_or_output_iteratorIDTcl10decay_copycldtscDtfp_Efp_5beginEEEEESI_E4typeEOT_NS8_12priority_tagILm1EEE:
 2881|   412k|    {
 2882|   412k|        return decay_copy(t.begin());
 2883|   412k|    }
_ZN3scn2v46ranges6detail10decay_copyINS0_6detail17basic_scan_bufferIwE16forward_iteratorEEEu7__decayIT_EOS8_:
 2125|   412k|{
 2126|   412k|    return SCN_FWD(t);
  ------------------
  |  | 1085|   412k|#define SCN_FWD(x)          static_cast<decltype(x)&&>(x)
  ------------------
 2127|   412k|}
_ZZN3scn2v44impl12float_readerIwE16read_source_implINS0_6ranges6detail9subrange_8subrangeINS0_6detail17basic_scan_bufferIwE16forward_iteratorENS5_18default_sentinel_tEEEEENS0_13scan_expectedIDTclL_ZNS5_5beginEEclsr3stdE7declvalIRNSt3__19add_constIT_E4typeEEEEEEESI_ENKUlRKSI_E_clISE_EEDaSP_:
 3991|   231k|    auto&& SCN_TRY_TMP = (x);                          \
_ZNO3scn2v48expectedINSt3__14pairIPKwNS0_4impl9sign_typeEEENS6_9eof_errorEE15transform_errorIRFNS0_10scan_errorES9_EEEDTclsr6detailE20transform_error_impldefpTclsr3stdE7forwardIT_Efp_EEEOSF_:
 2010|   514k|    {
 2011|   514k|        return detail::transform_error_impl(std::move(*this),
 2012|   514k|                                            std::forward<F>(f));
 2013|   514k|    }
_ZN3scn2v46detail20transform_error_implINS0_8expectedINSt3__14pairIPKwNS0_4impl9sign_typeEEENS8_9eof_errorEEERFNS0_10scan_errorESB_ETnPNS4_9enable_ifIXntsr11is_exp_voidIT_EE5valueEvE4typeELPv0ESD_EEDaOSH_OT0_:
 1493|   514k|{
 1494|       |    if constexpr (std::is_void_v<Ret>) {
 1495|       |        using result = expected<expected_value_type<Exp>, monostate>;
 1496|       |        if (SCN_LIKELY(exp.has_value())) {
 1497|       |            return result(*std::forward<Exp>(exp));
 1498|       |        }
 1499|       |
 1500|       |        trivial_invoke(std::forward<F>(f), std::forward<Exp>(exp).error());
 1501|       |        return result(unexpect, monostate{});
 1502|       |    }
 1503|   514k|    else {
 1504|   514k|        using result = expected<expected_value_type<Exp>, remove_cvref_t<Ret>>;
 1505|   514k|        return SCN_LIKELY(exp.has_value())
  ------------------
  |  | 1013|   514k|#define SCN_LIKELY(x)   __builtin_expect(!!(x), 1)
  |  |  ------------------
  |  |  |  Branch (1013:25): [True: 514k, False: 0]
  |  |  ------------------
  ------------------
 1506|   514k|                   ? result(*std::forward<Exp>(exp))
 1507|   514k|                   : result(unexpect,
 1508|      0|                            trivial_invoke(std::forward<F>(f),
 1509|      0|                                           std::forward<Exp>(exp).error()));
 1510|   514k|    }
 1511|   514k|}
_ZN3scn2v48expectedINSt3__14pairIPKwNS0_4impl9sign_typeEEENS0_10scan_errorEEC2IS8_vEEOT_:
 1601|   514k|        : base(std::in_place, std::forward<U>(val)),
 1602|   514k|          ctor_base(detail::non_default_ctor_tag_t{})
 1603|   514k|    {
 1604|   514k|    }
_ZN3scn2v46detail21expected_storage_baseINSt3__14pairIPKwNS0_4impl9sign_typeEEENS0_10scan_errorELb1EEC2IJS9_EvEENS3_10in_place_tEDpOT_:
  473|   514k|        : m_value(std::forward<Args>(args)...), m_has_value(true)
  474|   514k|    {
  475|   514k|    }
_ZN3scn2v46detail26expected_default_ctor_baseINSt3__14pairIPKwNS0_4impl9sign_typeEEENS0_10scan_errorELb1EEC2ENS1_22non_default_ctor_tag_tE:
 1347|   514k|    {
 1348|   514k|    }
_ZNK3scn2v48expectedINSt3__14pairIPKwNS0_4impl9sign_typeEEENS0_10scan_errorEEcvbEv:
 1771|   514k|    {
 1772|   514k|        return has_value();
 1773|   514k|    }
_ZNK3scn2v46detail21expected_storage_baseINSt3__14pairIPKwNS0_4impl9sign_typeEEENS0_10scan_errorELb1EE9has_valueEv:
  522|  1.02M|    {
  523|  1.02M|        return m_has_value;
  524|  1.02M|    }
_ZNO3scn2v48expectedINSt3__14pairIPKwNS0_4impl9sign_typeEEENS0_10scan_errorEEdeIS8_TnPNS2_9enable_ifIXntsr3stdE9is_void_vIT_EEvE4typeELPv0EEEOSD_v:
 1836|   514k|    {
 1837|   514k|        return std::move(value());
 1838|   514k|    }
_ZNR3scn2v48expectedINSt3__14pairIPKwNS0_4impl9sign_typeEEENS0_10scan_errorEE5valueIS8_TnPNS2_9enable_ifIXntsr3stdE9is_void_vIT_EEvE4typeELPv0EEERSD_v:
 1800|   514k|    {
 1801|   514k|        SCN_EXPECT(has_value());
  ------------------
  |  | 1079|   514k|#define SCN_EXPECT(cond) SCN_ASSERT(cond, "Precondition violation")
  |  |  ------------------
  |  |  |  | 1076|   514k|#define SCN_ASSERT(cond, msg) assert((cond) && msg)
  |  |  ------------------
  ------------------
 1802|   514k|        return this->get_value();
 1803|   514k|    }
_ZNR3scn2v46detail21expected_storage_baseINSt3__14pairIPKwNS0_4impl9sign_typeEEENS0_10scan_errorELb1EE9get_valueEv:
  488|   514k|    {
  489|   514k|        return m_value;
  490|   514k|    }
_ZNR3scn2v48expectedIPKwNS0_4impl11parse_errorEE15transform_errorIZNS4_29map_parse_error_to_scan_errorENS0_10scan_error4codeEPKcEUlS5_E_EEDTclsr6detailE20transform_error_impldefpTclsr3stdE7forwardIT_Efp_EEEOSD_:
 1996|   571k|    {
 1997|   571k|        return detail::transform_error_impl(*this, std::forward<F>(f));
 1998|   571k|    }
_ZN3scn2v46detail20transform_error_implIRNS0_8expectedIPKwNS0_4impl11parse_errorEEEZNS6_29map_parse_error_to_scan_errorENS0_10scan_error4codeEPKcEUlS7_E_TnPNSt3__19enable_ifIXntsr11is_exp_voidIT_EE5valueEvE4typeELPv0ESA_EEDaOSH_OT0_:
 1493|   571k|{
 1494|       |    if constexpr (std::is_void_v<Ret>) {
 1495|       |        using result = expected<expected_value_type<Exp>, monostate>;
 1496|       |        if (SCN_LIKELY(exp.has_value())) {
 1497|       |            return result(*std::forward<Exp>(exp));
 1498|       |        }
 1499|       |
 1500|       |        trivial_invoke(std::forward<F>(f), std::forward<Exp>(exp).error());
 1501|       |        return result(unexpect, monostate{});
 1502|       |    }
 1503|   571k|    else {
 1504|   571k|        using result = expected<expected_value_type<Exp>, remove_cvref_t<Ret>>;
 1505|   571k|        return SCN_LIKELY(exp.has_value())
  ------------------
  |  | 1013|   571k|#define SCN_LIKELY(x)   __builtin_expect(!!(x), 1)
  |  |  ------------------
  |  |  |  Branch (1013:25): [True: 0, False: 571k]
  |  |  ------------------
  ------------------
 1506|   571k|                   ? result(*std::forward<Exp>(exp))
 1507|   571k|                   : result(unexpect,
 1508|   571k|                            trivial_invoke(std::forward<F>(f),
 1509|   571k|                                           std::forward<Exp>(exp).error()));
 1510|   571k|    }
 1511|   571k|}
_ZN3scn2v413scan_expectedIPKwEC2EONS0_8expectedIS3_NS0_10scan_errorEEE:
 3964|   571k|        : expected<T, scan_error>(SCN_MOVE(other))
  ------------------
  |  | 1083|   571k|    static_cast<    \
  |  | 1084|   571k|        typename ::scn::detail::remove_reference<decltype(x)>::type&&>(x)
  ------------------
 3965|   571k|    {
 3966|   571k|    }
_ZNR3scn2v48expectedIPKwNS0_10scan_errorEEdeIS3_TnPNSt3__19enable_ifIXntsr3stdE9is_void_vIT_EEvE4typeELPv0EEERS9_v:
 1826|   272k|    {
 1827|   272k|        return value();
 1828|   272k|    }
_ZN3scn2v48expectedINSt3__14pairIPKwNS0_4impl9sign_typeEEENS6_9eof_errorEEptEv:
 1846|  6.75k|    {
 1847|  6.75k|        return &value();
 1848|  6.75k|    }
_ZN3scn2v413scan_expectedINS0_6detail17basic_scan_bufferIwE16forward_iteratorEEC2EONS0_8expectedIS5_NS0_10scan_errorEEE:
 3964|   640k|        : expected<T, scan_error>(SCN_MOVE(other))
  ------------------
  |  | 1083|   640k|    static_cast<    \
  |  | 1084|   640k|        typename ::scn::detail::remove_reference<decltype(x)>::type&&>(x)
  ------------------
 3965|   640k|    {
 3966|   640k|    }
_ZNK3scn2v46detail17basic_scan_bufferIcE15chars_availableEv:
 4412|  50.5M|    {
 4413|  50.5M|        return static_cast<std::ptrdiff_t>(m_putback_buffer.size() +
 4414|  50.5M|                                           m_current_view.size());
 4415|  50.5M|    }
_ZNK3scn2v415basic_scan_argsINS0_18basic_scan_contextINS0_6detail16buffer_range_tagEcEEE4sizeEv:
 6341|   992k|    {
 6342|   992k|        if (SCN_UNLIKELY(!is_packed())) {
  ------------------
  |  | 1014|   992k|#define SCN_UNLIKELY(x) __builtin_expect(!!(x), 0)
  |  |  ------------------
  |  |  |  Branch (1014:25): [True: 0, False: 992k]
  |  |  ------------------
  ------------------
 6343|      0|            return max_size();
 6344|      0|        }
 6345|       |
 6346|   992k|        return static_cast<std::size_t>(m_desc &
 6347|   992k|                                        ((1 << detail::packed_arg_bits) - 1));
 6348|   992k|    }
_ZNK3scn2v415basic_scan_argsINS0_18basic_scan_contextINS0_6detail16buffer_range_tagEcEEE9is_packedEv:
 6367|  1.98M|    {
 6368|  1.98M|        return (m_desc & detail::is_unpacked_bit) == 0;
 6369|  1.98M|    }
_ZNK3scn2v415basic_scan_argsINS0_18basic_scan_contextINS0_6detail16buffer_range_tagEcEEE3getEm:
 6309|   992k|    {
 6310|   992k|        if (SCN_UNLIKELY(!is_packed())) {
  ------------------
  |  | 1014|   992k|#define SCN_UNLIKELY(x) __builtin_expect(!!(x), 0)
  |  |  ------------------
  |  |  |  Branch (1014:25): [True: 0, False: 992k]
  |  |  ------------------
  ------------------
 6311|      0|            if (SCN_LIKELY(id < max_size())) {
  ------------------
  |  | 1013|      0|#define SCN_LIKELY(x)   __builtin_expect(!!(x), 1)
  |  |  ------------------
  |  |  |  Branch (1013:25): [True: 0, False: 0]
  |  |  ------------------
  ------------------
 6312|      0|                return m_args[id];
 6313|      0|            }
 6314|      0|            return {};
 6315|      0|        }
 6316|       |
 6317|   992k|        if (SCN_UNLIKELY(id >= detail::max_packed_args)) {
  ------------------
  |  | 1014|   992k|#define SCN_UNLIKELY(x) __builtin_expect(!!(x), 0)
  |  |  ------------------
  |  |  |  Branch (1014:25): [True: 0, False: 992k]
  |  |  ------------------
  ------------------
 6318|      0|            return {};
 6319|      0|        }
 6320|       |
 6321|   992k|        const auto t = type(id);
 6322|   992k|        if (SCN_UNLIKELY(t == detail::arg_type::none_type)) {
  ------------------
  |  | 1014|   992k|#define SCN_UNLIKELY(x) __builtin_expect(!!(x), 0)
  |  |  ------------------
  |  |  |  Branch (1014:25): [True: 0, False: 992k]
  |  |  ------------------
  ------------------
 6323|      0|            return {};
 6324|      0|        }
 6325|       |
 6326|   992k|        basic_scan_arg<Context> arg;
 6327|   992k|        arg.m_type = t;
 6328|   992k|        if (is_only_builtin()) {
  ------------------
  |  Branch (6328:13): [True: 992k, False: 0]
  ------------------
 6329|   992k|            arg.m_value.ref_value = m_builtin_values[id];
 6330|   992k|        }
 6331|      0|        else {
 6332|      0|            arg.m_value = m_values[id];
 6333|      0|        }
 6334|   992k|        return arg;
 6335|   992k|    }
_ZNK3scn2v415basic_scan_argsINS0_18basic_scan_contextINS0_6detail16buffer_range_tagEcEEE4typeEm:
 6376|   992k|    {
 6377|       |        // First (0th) index is size, types start after that
 6378|   992k|        const auto shift = (index + 1) * detail::packed_arg_bits;
 6379|   992k|        const std::size_t mask = (1 << detail::packed_arg_bits) - 1;
 6380|   992k|        return static_cast<detail::arg_type>((m_desc >> shift) & mask);
 6381|   992k|    }
_ZNK3scn2v415basic_scan_argsINS0_18basic_scan_contextINS0_6detail16buffer_range_tagEcEEE15is_only_builtinEv:
 6371|   992k|    {
 6372|   992k|        return (m_desc & detail::has_custom_types_bit) == 0;
 6373|   992k|    }
_ZNK3scn2v414basic_scan_argINS0_18basic_scan_contextINS0_6detail16buffer_range_tagEcEEEcvbEv:
 6124|  1.88M|    {
 6125|  1.88M|        return m_type != detail::arg_type::none_type;
 6126|  1.88M|    }
_ZN3scn2v414basic_scan_argINS0_18basic_scan_contextINS0_6detail16buffer_range_tagEcEEE5visitINS0_4impl18default_arg_readerINS2_INS0_6ranges6detail9subrange_8subrangeIPKcSF_EEcEEEEEEDcOT_:
 9605|   152k|{
 9606|   152k|    return detail::visit_impl(SCN_FWD(vis), *this);
  ------------------
  |  | 1085|   152k|#define SCN_FWD(x)          static_cast<decltype(x)&&>(x)
  ------------------
 9607|   152k|}
_ZN3scn2v46detail10visit_implINS0_4impl18default_arg_readerINS0_18basic_scan_contextINS0_6ranges6detail9subrange_8subrangeIPKcSB_EEcEEEENS5_INS1_16buffer_range_tagEcEEEEDcOT_RNS0_14basic_scan_argIT0_EE:
 9462|   152k|{
 9463|   152k|#define SCN_VISIT(Type)                                                    \
 9464|   152k|    do {                                                                   \
 9465|   152k|        if constexpr (!detail::is_type_disabled<Type>) {                   \
 9466|   152k|            return vis(*static_cast<Type*>(get_arg_value(arg).ref_value)); \
 9467|   152k|        }                                                                  \
 9468|   152k|        else {                                                             \
 9469|   152k|            return vis(monostate_val);                                     \
 9470|   152k|        }                                                                  \
 9471|   152k|    } while (false)
 9472|       |
 9473|   152k|    monostate monostate_val{};
 9474|       |
 9475|   152k|    switch (get_arg_type(arg)) {
 9476|      0|        case detail::arg_type::schar_type:
  ------------------
  |  Branch (9476:9): [True: 0, False: 152k]
  ------------------
 9477|      0|            SCN_VISIT(signed char);
  ------------------
  |  | 9464|      0|    do {                                                                   \
  |  | 9465|      0|        if constexpr (!detail::is_type_disabled<Type>) {                   \
  |  | 9466|      0|            return vis(*static_cast<Type*>(get_arg_value(arg).ref_value)); \
  |  | 9467|      0|        }                                                                  \
  |  | 9468|      0|        else {                                                             \
  |  | 9469|      0|            return vis(monostate_val);                                     \
  |  | 9470|      0|        }                                                                  \
  |  | 9471|      0|    } while (false)
  |  |  ------------------
  |  |  |  Branch (9471:14): [Folded - Ignored]
  |  |  ------------------
  ------------------
 9478|      0|        case detail::arg_type::short_type:
  ------------------
  |  Branch (9478:9): [True: 0, False: 152k]
  ------------------
 9479|      0|            SCN_VISIT(short);
  ------------------
  |  | 9464|      0|    do {                                                                   \
  |  | 9465|      0|        if constexpr (!detail::is_type_disabled<Type>) {                   \
  |  | 9466|      0|            return vis(*static_cast<Type*>(get_arg_value(arg).ref_value)); \
  |  | 9467|      0|        }                                                                  \
  |  | 9468|      0|        else {                                                             \
  |  | 9469|      0|            return vis(monostate_val);                                     \
  |  | 9470|      0|        }                                                                  \
  |  | 9471|      0|    } while (false)
  |  |  ------------------
  |  |  |  Branch (9471:14): [Folded - Ignored]
  |  |  ------------------
  ------------------
 9480|      0|        case detail::arg_type::int_type:
  ------------------
  |  Branch (9480:9): [True: 0, False: 152k]
  ------------------
 9481|      0|            SCN_VISIT(int);
  ------------------
  |  | 9464|      0|    do {                                                                   \
  |  | 9465|      0|        if constexpr (!detail::is_type_disabled<Type>) {                   \
  |  | 9466|      0|            return vis(*static_cast<Type*>(get_arg_value(arg).ref_value)); \
  |  | 9467|      0|        }                                                                  \
  |  | 9468|      0|        else {                                                             \
  |  | 9469|      0|            return vis(monostate_val);                                     \
  |  | 9470|      0|        }                                                                  \
  |  | 9471|      0|    } while (false)
  |  |  ------------------
  |  |  |  Branch (9471:14): [Folded - Ignored]
  |  |  ------------------
  ------------------
 9482|      0|        case detail::arg_type::long_type:
  ------------------
  |  Branch (9482:9): [True: 0, False: 152k]
  ------------------
 9483|      0|            SCN_VISIT(long);
  ------------------
  |  | 9464|      0|    do {                                                                   \
  |  | 9465|      0|        if constexpr (!detail::is_type_disabled<Type>) {                   \
  |  | 9466|      0|            return vis(*static_cast<Type*>(get_arg_value(arg).ref_value)); \
  |  | 9467|      0|        }                                                                  \
  |  | 9468|      0|        else {                                                             \
  |  | 9469|      0|            return vis(monostate_val);                                     \
  |  | 9470|      0|        }                                                                  \
  |  | 9471|      0|    } while (false)
  |  |  ------------------
  |  |  |  Branch (9471:14): [Folded - Ignored]
  |  |  ------------------
  ------------------
 9484|      0|        case detail::arg_type::llong_type:
  ------------------
  |  Branch (9484:9): [True: 0, False: 152k]
  ------------------
 9485|      0|            SCN_VISIT(long long);
  ------------------
  |  | 9464|      0|    do {                                                                   \
  |  | 9465|      0|        if constexpr (!detail::is_type_disabled<Type>) {                   \
  |  | 9466|      0|            return vis(*static_cast<Type*>(get_arg_value(arg).ref_value)); \
  |  | 9467|      0|        }                                                                  \
  |  | 9468|      0|        else {                                                             \
  |  | 9469|      0|            return vis(monostate_val);                                     \
  |  | 9470|      0|        }                                                                  \
  |  | 9471|      0|    } while (false)
  |  |  ------------------
  |  |  |  Branch (9471:14): [Folded - Ignored]
  |  |  ------------------
  ------------------
 9486|      0|        case detail::arg_type::int128_type:
  ------------------
  |  Branch (9486:9): [True: 0, False: 152k]
  ------------------
 9487|      0|#if SCN_HAS_INT128
 9488|      0|            SCN_VISIT(int128);
  ------------------
  |  | 9464|      0|    do {                                                                   \
  |  | 9465|      0|        if constexpr (!detail::is_type_disabled<Type>) {                   \
  |  | 9466|      0|            return vis(*static_cast<Type*>(get_arg_value(arg).ref_value)); \
  |  | 9467|      0|        }                                                                  \
  |  | 9468|      0|        else {                                                             \
  |  | 9469|      0|            return vis(monostate_val);                                     \
  |  | 9470|      0|        }                                                                  \
  |  | 9471|      0|    } while (false)
  |  |  ------------------
  |  |  |  Branch (9471:14): [Folded - Ignored]
  |  |  ------------------
  ------------------
 9489|       |#else
 9490|       |            return vis(monostate_val);
 9491|       |#endif
 9492|      0|        case detail::arg_type::uchar_type:
  ------------------
  |  Branch (9492:9): [True: 0, False: 152k]
  ------------------
 9493|      0|            SCN_VISIT(unsigned char);
  ------------------
  |  | 9464|      0|    do {                                                                   \
  |  | 9465|      0|        if constexpr (!detail::is_type_disabled<Type>) {                   \
  |  | 9466|      0|            return vis(*static_cast<Type*>(get_arg_value(arg).ref_value)); \
  |  | 9467|      0|        }                                                                  \
  |  | 9468|      0|        else {                                                             \
  |  | 9469|      0|            return vis(monostate_val);                                     \
  |  | 9470|      0|        }                                                                  \
  |  | 9471|      0|    } while (false)
  |  |  ------------------
  |  |  |  Branch (9471:14): [Folded - Ignored]
  |  |  ------------------
  ------------------
 9494|      0|        case detail::arg_type::ushort_type:
  ------------------
  |  Branch (9494:9): [True: 0, False: 152k]
  ------------------
 9495|      0|            SCN_VISIT(unsigned short);
  ------------------
  |  | 9464|      0|    do {                                                                   \
  |  | 9465|      0|        if constexpr (!detail::is_type_disabled<Type>) {                   \
  |  | 9466|      0|            return vis(*static_cast<Type*>(get_arg_value(arg).ref_value)); \
  |  | 9467|      0|        }                                                                  \
  |  | 9468|      0|        else {                                                             \
  |  | 9469|      0|            return vis(monostate_val);                                     \
  |  | 9470|      0|        }                                                                  \
  |  | 9471|      0|    } while (false)
  |  |  ------------------
  |  |  |  Branch (9471:14): [Folded - Ignored]
  |  |  ------------------
  ------------------
 9496|      0|        case detail::arg_type::uint_type:
  ------------------
  |  Branch (9496:9): [True: 0, False: 152k]
  ------------------
 9497|      0|            SCN_VISIT(unsigned);
  ------------------
  |  | 9464|      0|    do {                                                                   \
  |  | 9465|      0|        if constexpr (!detail::is_type_disabled<Type>) {                   \
  |  | 9466|      0|            return vis(*static_cast<Type*>(get_arg_value(arg).ref_value)); \
  |  | 9467|      0|        }                                                                  \
  |  | 9468|      0|        else {                                                             \
  |  | 9469|      0|            return vis(monostate_val);                                     \
  |  | 9470|      0|        }                                                                  \
  |  | 9471|      0|    } while (false)
  |  |  ------------------
  |  |  |  Branch (9471:14): [Folded - Ignored]
  |  |  ------------------
  ------------------
 9498|      0|        case detail::arg_type::ulong_type:
  ------------------
  |  Branch (9498:9): [True: 0, False: 152k]
  ------------------
 9499|      0|            SCN_VISIT(unsigned long);
  ------------------
  |  | 9464|      0|    do {                                                                   \
  |  | 9465|      0|        if constexpr (!detail::is_type_disabled<Type>) {                   \
  |  | 9466|      0|            return vis(*static_cast<Type*>(get_arg_value(arg).ref_value)); \
  |  | 9467|      0|        }                                                                  \
  |  | 9468|      0|        else {                                                             \
  |  | 9469|      0|            return vis(monostate_val);                                     \
  |  | 9470|      0|        }                                                                  \
  |  | 9471|      0|    } while (false)
  |  |  ------------------
  |  |  |  Branch (9471:14): [Folded - Ignored]
  |  |  ------------------
  ------------------
 9500|      0|        case detail::arg_type::ullong_type:
  ------------------
  |  Branch (9500:9): [True: 0, False: 152k]
  ------------------
 9501|      0|            SCN_VISIT(unsigned long long);
  ------------------
  |  | 9464|      0|    do {                                                                   \
  |  | 9465|      0|        if constexpr (!detail::is_type_disabled<Type>) {                   \
  |  | 9466|      0|            return vis(*static_cast<Type*>(get_arg_value(arg).ref_value)); \
  |  | 9467|      0|        }                                                                  \
  |  | 9468|      0|        else {                                                             \
  |  | 9469|      0|            return vis(monostate_val);                                     \
  |  | 9470|      0|        }                                                                  \
  |  | 9471|      0|    } while (false)
  |  |  ------------------
  |  |  |  Branch (9471:14): [Folded - Ignored]
  |  |  ------------------
  ------------------
 9502|      0|        case detail::arg_type::uint128_type:
  ------------------
  |  Branch (9502:9): [True: 0, False: 152k]
  ------------------
 9503|      0|#if SCN_HAS_INT128
 9504|      0|            SCN_VISIT(uint128);
  ------------------
  |  | 9464|      0|    do {                                                                   \
  |  | 9465|      0|        if constexpr (!detail::is_type_disabled<Type>) {                   \
  |  | 9466|      0|            return vis(*static_cast<Type*>(get_arg_value(arg).ref_value)); \
  |  | 9467|      0|        }                                                                  \
  |  | 9468|      0|        else {                                                             \
  |  | 9469|      0|            return vis(monostate_val);                                     \
  |  | 9470|      0|        }                                                                  \
  |  | 9471|      0|    } while (false)
  |  |  ------------------
  |  |  |  Branch (9471:14): [Folded - Ignored]
  |  |  ------------------
  ------------------
 9505|       |#else
 9506|       |            return vis(monostate_val);
 9507|       |#endif
 9508|      0|        case detail::arg_type::pointer_type:
  ------------------
  |  Branch (9508:9): [True: 0, False: 152k]
  ------------------
 9509|      0|            SCN_VISIT(void*);
  ------------------
  |  | 9464|      0|    do {                                                                   \
  |  | 9465|      0|        if constexpr (!detail::is_type_disabled<Type>) {                   \
  |  | 9466|      0|            return vis(*static_cast<Type*>(get_arg_value(arg).ref_value)); \
  |  | 9467|      0|        }                                                                  \
  |  | 9468|      0|        else {                                                             \
  |  | 9469|      0|            return vis(monostate_val);                                     \
  |  | 9470|      0|        }                                                                  \
  |  | 9471|      0|    } while (false)
  |  |  ------------------
  |  |  |  Branch (9471:14): [Folded - Ignored]
  |  |  ------------------
  ------------------
 9510|      0|        case detail::arg_type::bool_type:
  ------------------
  |  Branch (9510:9): [True: 0, False: 152k]
  ------------------
 9511|      0|            SCN_VISIT(bool);
  ------------------
  |  | 9464|      0|    do {                                                                   \
  |  | 9465|      0|        if constexpr (!detail::is_type_disabled<Type>) {                   \
  |  | 9466|      0|            return vis(*static_cast<Type*>(get_arg_value(arg).ref_value)); \
  |  | 9467|      0|        }                                                                  \
  |  | 9468|      0|        else {                                                             \
  |  | 9469|      0|            return vis(monostate_val);                                     \
  |  | 9470|      0|        }                                                                  \
  |  | 9471|      0|    } while (false)
  |  |  ------------------
  |  |  |  Branch (9471:14): [Folded - Ignored]
  |  |  ------------------
  ------------------
 9512|      0|        case detail::arg_type::narrow_character_type:
  ------------------
  |  Branch (9512:9): [True: 0, False: 152k]
  ------------------
 9513|      0|            SCN_VISIT(char);
  ------------------
  |  | 9464|      0|    do {                                                                   \
  |  | 9465|      0|        if constexpr (!detail::is_type_disabled<Type>) {                   \
  |  | 9466|      0|            return vis(*static_cast<Type*>(get_arg_value(arg).ref_value)); \
  |  | 9467|      0|        }                                                                  \
  |  | 9468|      0|        else {                                                             \
  |  | 9469|      0|            return vis(monostate_val);                                     \
  |  | 9470|      0|        }                                                                  \
  |  | 9471|      0|    } while (false)
  |  |  ------------------
  |  |  |  Branch (9471:14): [Folded - Ignored]
  |  |  ------------------
  ------------------
 9514|      0|        case detail::arg_type::wide_character_type:
  ------------------
  |  Branch (9514:9): [True: 0, False: 152k]
  ------------------
 9515|      0|            SCN_VISIT(wchar_t);
  ------------------
  |  | 9464|      0|    do {                                                                   \
  |  | 9465|      0|        if constexpr (!detail::is_type_disabled<Type>) {                   \
  |  | 9466|      0|            return vis(*static_cast<Type*>(get_arg_value(arg).ref_value)); \
  |  | 9467|      0|        }                                                                  \
  |  | 9468|      0|        else {                                                             \
  |  | 9469|      0|            return vis(monostate_val);                                     \
  |  | 9470|      0|        }                                                                  \
  |  | 9471|      0|    } while (false)
  |  |  ------------------
  |  |  |  Branch (9471:14): [Folded - Ignored]
  |  |  ------------------
  ------------------
 9516|      0|        case detail::arg_type::code_point_type:
  ------------------
  |  Branch (9516:9): [True: 0, False: 152k]
  ------------------
 9517|      0|            SCN_VISIT(char32_t);
  ------------------
  |  | 9464|      0|    do {                                                                   \
  |  | 9465|      0|        if constexpr (!detail::is_type_disabled<Type>) {                   \
  |  | 9466|      0|            return vis(*static_cast<Type*>(get_arg_value(arg).ref_value)); \
  |  | 9467|      0|        }                                                                  \
  |  | 9468|      0|        else {                                                             \
  |  | 9469|      0|            return vis(monostate_val);                                     \
  |  | 9470|      0|        }                                                                  \
  |  | 9471|      0|    } while (false)
  |  |  ------------------
  |  |  |  Branch (9471:14): [Folded - Ignored]
  |  |  ------------------
  ------------------
 9518|  48.7k|        case detail::arg_type::float_type:
  ------------------
  |  Branch (9518:9): [True: 48.7k, False: 103k]
  ------------------
 9519|  48.7k|            SCN_VISIT(float);
  ------------------
  |  | 9464|  48.7k|    do {                                                                   \
  |  | 9465|  48.7k|        if constexpr (!detail::is_type_disabled<Type>) {                   \
  |  | 9466|  48.7k|            return vis(*static_cast<Type*>(get_arg_value(arg).ref_value)); \
  |  | 9467|  48.7k|        }                                                                  \
  |  | 9468|  48.7k|        else {                                                             \
  |  | 9469|  48.7k|            return vis(monostate_val);                                     \
  |  | 9470|  48.7k|        }                                                                  \
  |  | 9471|  48.7k|    } while (false)
  |  |  ------------------
  |  |  |  Branch (9471:14): [Folded - Ignored]
  |  |  ------------------
  ------------------
 9520|  99.8k|        case detail::arg_type::double_type:
  ------------------
  |  Branch (9520:9): [True: 51.1k, False: 101k]
  ------------------
 9521|  99.8k|            SCN_VISIT(double);
  ------------------
  |  | 9464|  99.8k|    do {                                                                   \
  |  | 9465|  99.8k|        if constexpr (!detail::is_type_disabled<Type>) {                   \
  |  | 9466|  99.8k|            return vis(*static_cast<Type*>(get_arg_value(arg).ref_value)); \
  |  | 9467|  99.8k|        }                                                                  \
  |  | 9468|  99.8k|        else {                                                             \
  |  | 9469|  99.8k|            return vis(monostate_val);                                     \
  |  | 9470|  99.8k|        }                                                                  \
  |  | 9471|  99.8k|    } while (false)
  |  |  ------------------
  |  |  |  Branch (9471:14): [Folded - Ignored]
  |  |  ------------------
  ------------------
 9522|   152k|        case detail::arg_type::ldouble_type:
  ------------------
  |  Branch (9522:9): [True: 52.5k, False: 99.8k]
  ------------------
 9523|   152k|            SCN_VISIT(long double);
  ------------------
  |  | 9464|   152k|    do {                                                                   \
  |  | 9465|   152k|        if constexpr (!detail::is_type_disabled<Type>) {                   \
  |  | 9466|   152k|            return vis(*static_cast<Type*>(get_arg_value(arg).ref_value)); \
  |  | 9467|   152k|        }                                                                  \
  |  | 9468|   152k|        else {                                                             \
  |  | 9469|   152k|            return vis(monostate_val);                                     \
  |  | 9470|   152k|        }                                                                  \
  |  | 9471|   152k|    } while (false)
  |  |  ------------------
  |  |  |  Branch (9471:14): [Folded - Ignored]
  |  |  ------------------
  ------------------
 9524|   152k|        case detail::arg_type::float16_type:
  ------------------
  |  Branch (9524:9): [True: 0, False: 152k]
  ------------------
 9525|       |#if SCN_HAS_STD_F16
 9526|       |            SCN_VISIT(std::float16_t);
 9527|       |#else
 9528|   152k|            return vis(monostate_val);
 9529|      0|#endif
 9530|      0|        case detail::arg_type::float32_type:
  ------------------
  |  Branch (9530:9): [True: 0, False: 152k]
  ------------------
 9531|       |#if SCN_HAS_STD_F32
 9532|       |            SCN_VISIT(std::float32_t);
 9533|       |#else
 9534|      0|            return vis(monostate_val);
 9535|      0|#endif
 9536|      0|        case detail::arg_type::float64_type:
  ------------------
  |  Branch (9536:9): [True: 0, False: 152k]
  ------------------
 9537|       |#if SCN_HAS_STD_F64
 9538|       |            SCN_VISIT(std::float64_t);
 9539|       |#else
 9540|      0|            return vis(monostate_val);
 9541|      0|#endif
 9542|      0|        case detail::arg_type::float128_type:
  ------------------
  |  Branch (9542:9): [True: 0, False: 152k]
  ------------------
 9543|       |#if SCN_HAS_STD_F64
 9544|       |            SCN_VISIT(std::float128_t);
 9545|       |#else
 9546|      0|            return vis(monostate_val);
 9547|      0|#endif
 9548|      0|        case detail::arg_type::bfloat16_type:
  ------------------
  |  Branch (9548:9): [True: 0, False: 152k]
  ------------------
 9549|       |#if SCN_HAS_STD_BF16
 9550|       |            SCN_VISIT(std::bfloat16_t);
 9551|       |#else
 9552|      0|            return vis(monostate_val);
 9553|      0|#endif
 9554|      0|        case detail::arg_type::narrow_string_type:
  ------------------
  |  Branch (9554:9): [True: 0, False: 152k]
  ------------------
 9555|      0|            SCN_VISIT(std::string);
  ------------------
  |  | 9464|      0|    do {                                                                   \
  |  | 9465|      0|        if constexpr (!detail::is_type_disabled<Type>) {                   \
  |  | 9466|      0|            return vis(*static_cast<Type*>(get_arg_value(arg).ref_value)); \
  |  | 9467|      0|        }                                                                  \
  |  | 9468|      0|        else {                                                             \
  |  | 9469|      0|            return vis(monostate_val);                                     \
  |  | 9470|      0|        }                                                                  \
  |  | 9471|      0|    } while (false)
  |  |  ------------------
  |  |  |  Branch (9471:14): [Folded - Ignored]
  |  |  ------------------
  ------------------
 9556|      0|        case detail::arg_type::wide_string_type:
  ------------------
  |  Branch (9556:9): [True: 0, False: 152k]
  ------------------
 9557|      0|            SCN_VISIT(std::wstring);
  ------------------
  |  | 9464|      0|    do {                                                                   \
  |  | 9465|      0|        if constexpr (!detail::is_type_disabled<Type>) {                   \
  |  | 9466|      0|            return vis(*static_cast<Type*>(get_arg_value(arg).ref_value)); \
  |  | 9467|      0|        }                                                                  \
  |  | 9468|      0|        else {                                                             \
  |  | 9469|      0|            return vis(monostate_val);                                     \
  |  | 9470|      0|        }                                                                  \
  |  | 9471|      0|    } while (false)
  |  |  ------------------
  |  |  |  Branch (9471:14): [Folded - Ignored]
  |  |  ------------------
  ------------------
 9558|      0|        case detail::arg_type::string_view_type: {
  ------------------
  |  Branch (9558:9): [True: 0, False: 152k]
  ------------------
 9559|      0|            if constexpr (std::is_same_v<typename Ctx::char_type, char>) {
 9560|      0|                SCN_VISIT(std::string_view);
  ------------------
  |  | 9464|      0|    do {                                                                   \
  |  | 9465|      0|        if constexpr (!detail::is_type_disabled<Type>) {                   \
  |  | 9466|      0|            return vis(*static_cast<Type*>(get_arg_value(arg).ref_value)); \
  |  | 9467|      0|        }                                                                  \
  |  | 9468|      0|        else {                                                             \
  |  | 9469|      0|            return vis(monostate_val);                                     \
  |  | 9470|      0|        }                                                                  \
  |  | 9471|      0|    } while (false)
  |  |  ------------------
  |  |  |  Branch (9471:14): [Folded - Ignored]
  |  |  ------------------
  ------------------
 9561|       |            }
 9562|       |            else {
 9563|       |                SCN_VISIT(std::wstring_view);
 9564|       |            }
 9565|      0|        }
 9566|       |
 9567|      0|        case detail::arg_type::custom_type:
  ------------------
  |  Branch (9567:9): [True: 0, False: 152k]
  ------------------
 9568|      0|#if !SCN_DISABLE_TYPE_CUSTOM
 9569|      0|            return vis(typename basic_scan_arg<Ctx>::handle(
 9570|      0|                get_arg_value(arg).custom_value));
 9571|       |#else
 9572|       |            return vis(monostate_val);
 9573|       |#endif
 9574|       |
 9575|      0|            SCN_CLANG_PUSH
 9576|      0|            SCN_CLANG_IGNORE("-Wcovered-switch-default")
 9577|       |
 9578|      0|            SCN_UNLIKELY_ATTR
 9579|      0|        case detail::arg_type::none_type:
  ------------------
  |  Branch (9579:9): [True: 0, False: 152k]
  ------------------
 9580|      0|        default: {
  ------------------
  |  Branch (9580:9): [True: 0, False: 152k]
  ------------------
 9581|      0|            return vis(monostate_val);
 9582|      0|        }
 9583|       |
 9584|   152k|            SCN_CLANG_POP
 9585|   152k|    }
 9586|       |
 9587|      0|#undef SCN_VISIT
 9588|       |
 9589|      0|    SCN_ENSURE(false);
  ------------------
  |  | 1080|      0|#define SCN_ENSURE(cond) SCN_ASSERT(cond, "Postcondition violation")
  |  |  ------------------
  |  |  |  | 1076|      0|#define SCN_ASSERT(cond, msg) assert((cond) && msg)
  |  |  ------------------
  ------------------
 9590|      0|    SCN_UNREACHABLE;
  ------------------
  |  | 1042|      0|#define SCN_UNREACHABLE __builtin_unreachable()
  ------------------
 9591|      0|}
_ZN3scn2v46detail12get_arg_typeINS0_18basic_scan_contextINS1_16buffer_range_tagEcEEEERNS1_8arg_typeERNS0_14basic_scan_argIT_EE:
 6170|  2.67M|{
 6171|  2.67M|    return arg.m_type;
 6172|  2.67M|}
_ZN3scn2v46detail13get_arg_valueINS0_18basic_scan_contextINS1_16buffer_range_tagEcEEEERNS1_9arg_valueERNS0_14basic_scan_argIT_EE:
 6182|  1.09M|{
 6183|  1.09M|    return arg.m_value;
 6184|  1.09M|}
_ZN3scn2v418basic_scan_contextINS0_6detail16buffer_range_tagEcEC2ENS2_17basic_scan_bufferIcE16forward_iteratorENS0_15basic_scan_argsIS4_EENS2_10locale_refE:
 9127|   410k|        : base(SCN_MOVE(a), loc), m_current(curr)
  ------------------
  |  | 1083|   410k|    static_cast<    \
  |  | 1084|   410k|        typename ::scn::detail::remove_reference<decltype(x)>::type&&>(x)
  ------------------
 9128|   410k|    {
 9129|   410k|    }
_ZN3scn2v46detail17basic_scan_bufferIcE3getEv:
 4754|   566k|{
 4755|   566k|    if (is_contiguous()) {
  ------------------
  |  Branch (4755:9): [True: 0, False: 566k]
  ------------------
 4756|      0|        return ranges::subrange{forward_iterator{m_current_view, 0},
 4757|      0|                                ranges::default_sentinel};
 4758|      0|    }
 4759|   566k|    return ranges::subrange{forward_iterator{this, 0},
 4760|   566k|                            ranges::default_sentinel};
 4761|   566k|}
_ZN3scn2v46detail17basic_scan_bufferIcE16forward_iteratorC2EPS3_l:
 4517|   566k|        : m_begin(parent), m_end(nullptr), m_position(pos)
 4518|   566k|    {
 4519|   566k|        SCN_EXPECT(parent);
  ------------------
  |  | 1079|   566k|#define SCN_EXPECT(cond) SCN_ASSERT(cond, "Precondition violation")
  |  |  ------------------
  |  |  |  | 1076|   566k|#define SCN_ASSERT(cond, msg) assert((cond) && msg)
  |  |  ------------------
  ------------------
 4520|   566k|        SCN_EXPECT(!parent->is_contiguous());
  ------------------
  |  | 1079|   566k|#define SCN_EXPECT(cond) SCN_ASSERT(cond, "Precondition violation")
  |  |  ------------------
  |  |  |  | 1076|   566k|#define SCN_ASSERT(cond, msg) assert((cond) && msg)
  |  |  ------------------
  ------------------
 4521|   566k|    }
_ZN3scn2v414basic_scan_argINS0_18basic_scan_contextINS0_6detail16buffer_range_tagEcEEE5visitINS0_4impl18default_arg_readerIS5_EEEEDcOT_:
 9605|   156k|{
 9606|   156k|    return detail::visit_impl(SCN_FWD(vis), *this);
  ------------------
  |  | 1085|   156k|#define SCN_FWD(x)          static_cast<decltype(x)&&>(x)
  ------------------
 9607|   156k|}
_ZN3scn2v46detail10visit_implINS0_4impl18default_arg_readerINS0_18basic_scan_contextINS1_16buffer_range_tagEcEEEES7_EEDcOT_RNS0_14basic_scan_argIT0_EE:
 9462|   156k|{
 9463|   156k|#define SCN_VISIT(Type)                                                    \
 9464|   156k|    do {                                                                   \
 9465|   156k|        if constexpr (!detail::is_type_disabled<Type>) {                   \
 9466|   156k|            return vis(*static_cast<Type*>(get_arg_value(arg).ref_value)); \
 9467|   156k|        }                                                                  \
 9468|   156k|        else {                                                             \
 9469|   156k|            return vis(monostate_val);                                     \
 9470|   156k|        }                                                                  \
 9471|   156k|    } while (false)
 9472|       |
 9473|   156k|    monostate monostate_val{};
 9474|       |
 9475|   156k|    switch (get_arg_type(arg)) {
 9476|      0|        case detail::arg_type::schar_type:
  ------------------
  |  Branch (9476:9): [True: 0, False: 156k]
  ------------------
 9477|      0|            SCN_VISIT(signed char);
  ------------------
  |  | 9464|      0|    do {                                                                   \
  |  | 9465|      0|        if constexpr (!detail::is_type_disabled<Type>) {                   \
  |  | 9466|      0|            return vis(*static_cast<Type*>(get_arg_value(arg).ref_value)); \
  |  | 9467|      0|        }                                                                  \
  |  | 9468|      0|        else {                                                             \
  |  | 9469|      0|            return vis(monostate_val);                                     \
  |  | 9470|      0|        }                                                                  \
  |  | 9471|      0|    } while (false)
  |  |  ------------------
  |  |  |  Branch (9471:14): [Folded - Ignored]
  |  |  ------------------
  ------------------
 9478|      0|        case detail::arg_type::short_type:
  ------------------
  |  Branch (9478:9): [True: 0, False: 156k]
  ------------------
 9479|      0|            SCN_VISIT(short);
  ------------------
  |  | 9464|      0|    do {                                                                   \
  |  | 9465|      0|        if constexpr (!detail::is_type_disabled<Type>) {                   \
  |  | 9466|      0|            return vis(*static_cast<Type*>(get_arg_value(arg).ref_value)); \
  |  | 9467|      0|        }                                                                  \
  |  | 9468|      0|        else {                                                             \
  |  | 9469|      0|            return vis(monostate_val);                                     \
  |  | 9470|      0|        }                                                                  \
  |  | 9471|      0|    } while (false)
  |  |  ------------------
  |  |  |  Branch (9471:14): [Folded - Ignored]
  |  |  ------------------
  ------------------
 9480|      0|        case detail::arg_type::int_type:
  ------------------
  |  Branch (9480:9): [True: 0, False: 156k]
  ------------------
 9481|      0|            SCN_VISIT(int);
  ------------------
  |  | 9464|      0|    do {                                                                   \
  |  | 9465|      0|        if constexpr (!detail::is_type_disabled<Type>) {                   \
  |  | 9466|      0|            return vis(*static_cast<Type*>(get_arg_value(arg).ref_value)); \
  |  | 9467|      0|        }                                                                  \
  |  | 9468|      0|        else {                                                             \
  |  | 9469|      0|            return vis(monostate_val);                                     \
  |  | 9470|      0|        }                                                                  \
  |  | 9471|      0|    } while (false)
  |  |  ------------------
  |  |  |  Branch (9471:14): [Folded - Ignored]
  |  |  ------------------
  ------------------
 9482|      0|        case detail::arg_type::long_type:
  ------------------
  |  Branch (9482:9): [True: 0, False: 156k]
  ------------------
 9483|      0|            SCN_VISIT(long);
  ------------------
  |  | 9464|      0|    do {                                                                   \
  |  | 9465|      0|        if constexpr (!detail::is_type_disabled<Type>) {                   \
  |  | 9466|      0|            return vis(*static_cast<Type*>(get_arg_value(arg).ref_value)); \
  |  | 9467|      0|        }                                                                  \
  |  | 9468|      0|        else {                                                             \
  |  | 9469|      0|            return vis(monostate_val);                                     \
  |  | 9470|      0|        }                                                                  \
  |  | 9471|      0|    } while (false)
  |  |  ------------------
  |  |  |  Branch (9471:14): [Folded - Ignored]
  |  |  ------------------
  ------------------
 9484|      0|        case detail::arg_type::llong_type:
  ------------------
  |  Branch (9484:9): [True: 0, False: 156k]
  ------------------
 9485|      0|            SCN_VISIT(long long);
  ------------------
  |  | 9464|      0|    do {                                                                   \
  |  | 9465|      0|        if constexpr (!detail::is_type_disabled<Type>) {                   \
  |  | 9466|      0|            return vis(*static_cast<Type*>(get_arg_value(arg).ref_value)); \
  |  | 9467|      0|        }                                                                  \
  |  | 9468|      0|        else {                                                             \
  |  | 9469|      0|            return vis(monostate_val);                                     \
  |  | 9470|      0|        }                                                                  \
  |  | 9471|      0|    } while (false)
  |  |  ------------------
  |  |  |  Branch (9471:14): [Folded - Ignored]
  |  |  ------------------
  ------------------
 9486|      0|        case detail::arg_type::int128_type:
  ------------------
  |  Branch (9486:9): [True: 0, False: 156k]
  ------------------
 9487|      0|#if SCN_HAS_INT128
 9488|      0|            SCN_VISIT(int128);
  ------------------
  |  | 9464|      0|    do {                                                                   \
  |  | 9465|      0|        if constexpr (!detail::is_type_disabled<Type>) {                   \
  |  | 9466|      0|            return vis(*static_cast<Type*>(get_arg_value(arg).ref_value)); \
  |  | 9467|      0|        }                                                                  \
  |  | 9468|      0|        else {                                                             \
  |  | 9469|      0|            return vis(monostate_val);                                     \
  |  | 9470|      0|        }                                                                  \
  |  | 9471|      0|    } while (false)
  |  |  ------------------
  |  |  |  Branch (9471:14): [Folded - Ignored]
  |  |  ------------------
  ------------------
 9489|       |#else
 9490|       |            return vis(monostate_val);
 9491|       |#endif
 9492|      0|        case detail::arg_type::uchar_type:
  ------------------
  |  Branch (9492:9): [True: 0, False: 156k]
  ------------------
 9493|      0|            SCN_VISIT(unsigned char);
  ------------------
  |  | 9464|      0|    do {                                                                   \
  |  | 9465|      0|        if constexpr (!detail::is_type_disabled<Type>) {                   \
  |  | 9466|      0|            return vis(*static_cast<Type*>(get_arg_value(arg).ref_value)); \
  |  | 9467|      0|        }                                                                  \
  |  | 9468|      0|        else {                                                             \
  |  | 9469|      0|            return vis(monostate_val);                                     \
  |  | 9470|      0|        }                                                                  \
  |  | 9471|      0|    } while (false)
  |  |  ------------------
  |  |  |  Branch (9471:14): [Folded - Ignored]
  |  |  ------------------
  ------------------
 9494|      0|        case detail::arg_type::ushort_type:
  ------------------
  |  Branch (9494:9): [True: 0, False: 156k]
  ------------------
 9495|      0|            SCN_VISIT(unsigned short);
  ------------------
  |  | 9464|      0|    do {                                                                   \
  |  | 9465|      0|        if constexpr (!detail::is_type_disabled<Type>) {                   \
  |  | 9466|      0|            return vis(*static_cast<Type*>(get_arg_value(arg).ref_value)); \
  |  | 9467|      0|        }                                                                  \
  |  | 9468|      0|        else {                                                             \
  |  | 9469|      0|            return vis(monostate_val);                                     \
  |  | 9470|      0|        }                                                                  \
  |  | 9471|      0|    } while (false)
  |  |  ------------------
  |  |  |  Branch (9471:14): [Folded - Ignored]
  |  |  ------------------
  ------------------
 9496|      0|        case detail::arg_type::uint_type:
  ------------------
  |  Branch (9496:9): [True: 0, False: 156k]
  ------------------
 9497|      0|            SCN_VISIT(unsigned);
  ------------------
  |  | 9464|      0|    do {                                                                   \
  |  | 9465|      0|        if constexpr (!detail::is_type_disabled<Type>) {                   \
  |  | 9466|      0|            return vis(*static_cast<Type*>(get_arg_value(arg).ref_value)); \
  |  | 9467|      0|        }                                                                  \
  |  | 9468|      0|        else {                                                             \
  |  | 9469|      0|            return vis(monostate_val);                                     \
  |  | 9470|      0|        }                                                                  \
  |  | 9471|      0|    } while (false)
  |  |  ------------------
  |  |  |  Branch (9471:14): [Folded - Ignored]
  |  |  ------------------
  ------------------
 9498|      0|        case detail::arg_type::ulong_type:
  ------------------
  |  Branch (9498:9): [True: 0, False: 156k]
  ------------------
 9499|      0|            SCN_VISIT(unsigned long);
  ------------------
  |  | 9464|      0|    do {                                                                   \
  |  | 9465|      0|        if constexpr (!detail::is_type_disabled<Type>) {                   \
  |  | 9466|      0|            return vis(*static_cast<Type*>(get_arg_value(arg).ref_value)); \
  |  | 9467|      0|        }                                                                  \
  |  | 9468|      0|        else {                                                             \
  |  | 9469|      0|            return vis(monostate_val);                                     \
  |  | 9470|      0|        }                                                                  \
  |  | 9471|      0|    } while (false)
  |  |  ------------------
  |  |  |  Branch (9471:14): [Folded - Ignored]
  |  |  ------------------
  ------------------
 9500|      0|        case detail::arg_type::ullong_type:
  ------------------
  |  Branch (9500:9): [True: 0, False: 156k]
  ------------------
 9501|      0|            SCN_VISIT(unsigned long long);
  ------------------
  |  | 9464|      0|    do {                                                                   \
  |  | 9465|      0|        if constexpr (!detail::is_type_disabled<Type>) {                   \
  |  | 9466|      0|            return vis(*static_cast<Type*>(get_arg_value(arg).ref_value)); \
  |  | 9467|      0|        }                                                                  \
  |  | 9468|      0|        else {                                                             \
  |  | 9469|      0|            return vis(monostate_val);                                     \
  |  | 9470|      0|        }                                                                  \
  |  | 9471|      0|    } while (false)
  |  |  ------------------
  |  |  |  Branch (9471:14): [Folded - Ignored]
  |  |  ------------------
  ------------------
 9502|      0|        case detail::arg_type::uint128_type:
  ------------------
  |  Branch (9502:9): [True: 0, False: 156k]
  ------------------
 9503|      0|#if SCN_HAS_INT128
 9504|      0|            SCN_VISIT(uint128);
  ------------------
  |  | 9464|      0|    do {                                                                   \
  |  | 9465|      0|        if constexpr (!detail::is_type_disabled<Type>) {                   \
  |  | 9466|      0|            return vis(*static_cast<Type*>(get_arg_value(arg).ref_value)); \
  |  | 9467|      0|        }                                                                  \
  |  | 9468|      0|        else {                                                             \
  |  | 9469|      0|            return vis(monostate_val);                                     \
  |  | 9470|      0|        }                                                                  \
  |  | 9471|      0|    } while (false)
  |  |  ------------------
  |  |  |  Branch (9471:14): [Folded - Ignored]
  |  |  ------------------
  ------------------
 9505|       |#else
 9506|       |            return vis(monostate_val);
 9507|       |#endif
 9508|      0|        case detail::arg_type::pointer_type:
  ------------------
  |  Branch (9508:9): [True: 0, False: 156k]
  ------------------
 9509|      0|            SCN_VISIT(void*);
  ------------------
  |  | 9464|      0|    do {                                                                   \
  |  | 9465|      0|        if constexpr (!detail::is_type_disabled<Type>) {                   \
  |  | 9466|      0|            return vis(*static_cast<Type*>(get_arg_value(arg).ref_value)); \
  |  | 9467|      0|        }                                                                  \
  |  | 9468|      0|        else {                                                             \
  |  | 9469|      0|            return vis(monostate_val);                                     \
  |  | 9470|      0|        }                                                                  \
  |  | 9471|      0|    } while (false)
  |  |  ------------------
  |  |  |  Branch (9471:14): [Folded - Ignored]
  |  |  ------------------
  ------------------
 9510|      0|        case detail::arg_type::bool_type:
  ------------------
  |  Branch (9510:9): [True: 0, False: 156k]
  ------------------
 9511|      0|            SCN_VISIT(bool);
  ------------------
  |  | 9464|      0|    do {                                                                   \
  |  | 9465|      0|        if constexpr (!detail::is_type_disabled<Type>) {                   \
  |  | 9466|      0|            return vis(*static_cast<Type*>(get_arg_value(arg).ref_value)); \
  |  | 9467|      0|        }                                                                  \
  |  | 9468|      0|        else {                                                             \
  |  | 9469|      0|            return vis(monostate_val);                                     \
  |  | 9470|      0|        }                                                                  \
  |  | 9471|      0|    } while (false)
  |  |  ------------------
  |  |  |  Branch (9471:14): [Folded - Ignored]
  |  |  ------------------
  ------------------
 9512|      0|        case detail::arg_type::narrow_character_type:
  ------------------
  |  Branch (9512:9): [True: 0, False: 156k]
  ------------------
 9513|      0|            SCN_VISIT(char);
  ------------------
  |  | 9464|      0|    do {                                                                   \
  |  | 9465|      0|        if constexpr (!detail::is_type_disabled<Type>) {                   \
  |  | 9466|      0|            return vis(*static_cast<Type*>(get_arg_value(arg).ref_value)); \
  |  | 9467|      0|        }                                                                  \
  |  | 9468|      0|        else {                                                             \
  |  | 9469|      0|            return vis(monostate_val);                                     \
  |  | 9470|      0|        }                                                                  \
  |  | 9471|      0|    } while (false)
  |  |  ------------------
  |  |  |  Branch (9471:14): [Folded - Ignored]
  |  |  ------------------
  ------------------
 9514|      0|        case detail::arg_type::wide_character_type:
  ------------------
  |  Branch (9514:9): [True: 0, False: 156k]
  ------------------
 9515|      0|            SCN_VISIT(wchar_t);
  ------------------
  |  | 9464|      0|    do {                                                                   \
  |  | 9465|      0|        if constexpr (!detail::is_type_disabled<Type>) {                   \
  |  | 9466|      0|            return vis(*static_cast<Type*>(get_arg_value(arg).ref_value)); \
  |  | 9467|      0|        }                                                                  \
  |  | 9468|      0|        else {                                                             \
  |  | 9469|      0|            return vis(monostate_val);                                     \
  |  | 9470|      0|        }                                                                  \
  |  | 9471|      0|    } while (false)
  |  |  ------------------
  |  |  |  Branch (9471:14): [Folded - Ignored]
  |  |  ------------------
  ------------------
 9516|      0|        case detail::arg_type::code_point_type:
  ------------------
  |  Branch (9516:9): [True: 0, False: 156k]
  ------------------
 9517|      0|            SCN_VISIT(char32_t);
  ------------------
  |  | 9464|      0|    do {                                                                   \
  |  | 9465|      0|        if constexpr (!detail::is_type_disabled<Type>) {                   \
  |  | 9466|      0|            return vis(*static_cast<Type*>(get_arg_value(arg).ref_value)); \
  |  | 9467|      0|        }                                                                  \
  |  | 9468|      0|        else {                                                             \
  |  | 9469|      0|            return vis(monostate_val);                                     \
  |  | 9470|      0|        }                                                                  \
  |  | 9471|      0|    } while (false)
  |  |  ------------------
  |  |  |  Branch (9471:14): [Folded - Ignored]
  |  |  ------------------
  ------------------
 9518|  50.2k|        case detail::arg_type::float_type:
  ------------------
  |  Branch (9518:9): [True: 50.2k, False: 105k]
  ------------------
 9519|  50.2k|            SCN_VISIT(float);
  ------------------
  |  | 9464|  50.2k|    do {                                                                   \
  |  | 9465|  50.2k|        if constexpr (!detail::is_type_disabled<Type>) {                   \
  |  | 9466|  50.2k|            return vis(*static_cast<Type*>(get_arg_value(arg).ref_value)); \
  |  | 9467|  50.2k|        }                                                                  \
  |  | 9468|  50.2k|        else {                                                             \
  |  | 9469|  50.2k|            return vis(monostate_val);                                     \
  |  | 9470|  50.2k|        }                                                                  \
  |  | 9471|  50.2k|    } while (false)
  |  |  ------------------
  |  |  |  Branch (9471:14): [Folded - Ignored]
  |  |  ------------------
  ------------------
 9520|   102k|        case detail::arg_type::double_type:
  ------------------
  |  Branch (9520:9): [True: 52.4k, False: 103k]
  ------------------
 9521|   102k|            SCN_VISIT(double);
  ------------------
  |  | 9464|   102k|    do {                                                                   \
  |  | 9465|   102k|        if constexpr (!detail::is_type_disabled<Type>) {                   \
  |  | 9466|   102k|            return vis(*static_cast<Type*>(get_arg_value(arg).ref_value)); \
  |  | 9467|   102k|        }                                                                  \
  |  | 9468|   102k|        else {                                                             \
  |  | 9469|   102k|            return vis(monostate_val);                                     \
  |  | 9470|   102k|        }                                                                  \
  |  | 9471|   102k|    } while (false)
  |  |  ------------------
  |  |  |  Branch (9471:14): [Folded - Ignored]
  |  |  ------------------
  ------------------
 9522|   156k|        case detail::arg_type::ldouble_type:
  ------------------
  |  Branch (9522:9): [True: 53.3k, False: 102k]
  ------------------
 9523|   156k|            SCN_VISIT(long double);
  ------------------
  |  | 9464|   156k|    do {                                                                   \
  |  | 9465|   156k|        if constexpr (!detail::is_type_disabled<Type>) {                   \
  |  | 9466|   156k|            return vis(*static_cast<Type*>(get_arg_value(arg).ref_value)); \
  |  | 9467|   156k|        }                                                                  \
  |  | 9468|   156k|        else {                                                             \
  |  | 9469|   156k|            return vis(monostate_val);                                     \
  |  | 9470|   156k|        }                                                                  \
  |  | 9471|   156k|    } while (false)
  |  |  ------------------
  |  |  |  Branch (9471:14): [Folded - Ignored]
  |  |  ------------------
  ------------------
 9524|   156k|        case detail::arg_type::float16_type:
  ------------------
  |  Branch (9524:9): [True: 0, False: 156k]
  ------------------
 9525|       |#if SCN_HAS_STD_F16
 9526|       |            SCN_VISIT(std::float16_t);
 9527|       |#else
 9528|   156k|            return vis(monostate_val);
 9529|      0|#endif
 9530|      0|        case detail::arg_type::float32_type:
  ------------------
  |  Branch (9530:9): [True: 0, False: 156k]
  ------------------
 9531|       |#if SCN_HAS_STD_F32
 9532|       |            SCN_VISIT(std::float32_t);
 9533|       |#else
 9534|      0|            return vis(monostate_val);
 9535|      0|#endif
 9536|      0|        case detail::arg_type::float64_type:
  ------------------
  |  Branch (9536:9): [True: 0, False: 156k]
  ------------------
 9537|       |#if SCN_HAS_STD_F64
 9538|       |            SCN_VISIT(std::float64_t);
 9539|       |#else
 9540|      0|            return vis(monostate_val);
 9541|      0|#endif
 9542|      0|        case detail::arg_type::float128_type:
  ------------------
  |  Branch (9542:9): [True: 0, False: 156k]
  ------------------
 9543|       |#if SCN_HAS_STD_F64
 9544|       |            SCN_VISIT(std::float128_t);
 9545|       |#else
 9546|      0|            return vis(monostate_val);
 9547|      0|#endif
 9548|      0|        case detail::arg_type::bfloat16_type:
  ------------------
  |  Branch (9548:9): [True: 0, False: 156k]
  ------------------
 9549|       |#if SCN_HAS_STD_BF16
 9550|       |            SCN_VISIT(std::bfloat16_t);
 9551|       |#else
 9552|      0|            return vis(monostate_val);
 9553|      0|#endif
 9554|      0|        case detail::arg_type::narrow_string_type:
  ------------------
  |  Branch (9554:9): [True: 0, False: 156k]
  ------------------
 9555|      0|            SCN_VISIT(std::string);
  ------------------
  |  | 9464|      0|    do {                                                                   \
  |  | 9465|      0|        if constexpr (!detail::is_type_disabled<Type>) {                   \
  |  | 9466|      0|            return vis(*static_cast<Type*>(get_arg_value(arg).ref_value)); \
  |  | 9467|      0|        }                                                                  \
  |  | 9468|      0|        else {                                                             \
  |  | 9469|      0|            return vis(monostate_val);                                     \
  |  | 9470|      0|        }                                                                  \
  |  | 9471|      0|    } while (false)
  |  |  ------------------
  |  |  |  Branch (9471:14): [Folded - Ignored]
  |  |  ------------------
  ------------------
 9556|      0|        case detail::arg_type::wide_string_type:
  ------------------
  |  Branch (9556:9): [True: 0, False: 156k]
  ------------------
 9557|      0|            SCN_VISIT(std::wstring);
  ------------------
  |  | 9464|      0|    do {                                                                   \
  |  | 9465|      0|        if constexpr (!detail::is_type_disabled<Type>) {                   \
  |  | 9466|      0|            return vis(*static_cast<Type*>(get_arg_value(arg).ref_value)); \
  |  | 9467|      0|        }                                                                  \
  |  | 9468|      0|        else {                                                             \
  |  | 9469|      0|            return vis(monostate_val);                                     \
  |  | 9470|      0|        }                                                                  \
  |  | 9471|      0|    } while (false)
  |  |  ------------------
  |  |  |  Branch (9471:14): [Folded - Ignored]
  |  |  ------------------
  ------------------
 9558|      0|        case detail::arg_type::string_view_type: {
  ------------------
  |  Branch (9558:9): [True: 0, False: 156k]
  ------------------
 9559|      0|            if constexpr (std::is_same_v<typename Ctx::char_type, char>) {
 9560|      0|                SCN_VISIT(std::string_view);
  ------------------
  |  | 9464|      0|    do {                                                                   \
  |  | 9465|      0|        if constexpr (!detail::is_type_disabled<Type>) {                   \
  |  | 9466|      0|            return vis(*static_cast<Type*>(get_arg_value(arg).ref_value)); \
  |  | 9467|      0|        }                                                                  \
  |  | 9468|      0|        else {                                                             \
  |  | 9469|      0|            return vis(monostate_val);                                     \
  |  | 9470|      0|        }                                                                  \
  |  | 9471|      0|    } while (false)
  |  |  ------------------
  |  |  |  Branch (9471:14): [Folded - Ignored]
  |  |  ------------------
  ------------------
 9561|       |            }
 9562|       |            else {
 9563|       |                SCN_VISIT(std::wstring_view);
 9564|       |            }
 9565|      0|        }
 9566|       |
 9567|      0|        case detail::arg_type::custom_type:
  ------------------
  |  Branch (9567:9): [True: 0, False: 156k]
  ------------------
 9568|      0|#if !SCN_DISABLE_TYPE_CUSTOM
 9569|      0|            return vis(typename basic_scan_arg<Ctx>::handle(
 9570|      0|                get_arg_value(arg).custom_value));
 9571|       |#else
 9572|       |            return vis(monostate_val);
 9573|       |#endif
 9574|       |
 9575|      0|            SCN_CLANG_PUSH
 9576|      0|            SCN_CLANG_IGNORE("-Wcovered-switch-default")
 9577|       |
 9578|      0|            SCN_UNLIKELY_ATTR
 9579|      0|        case detail::arg_type::none_type:
  ------------------
  |  Branch (9579:9): [True: 0, False: 156k]
  ------------------
 9580|      0|        default: {
  ------------------
  |  Branch (9580:9): [True: 0, False: 156k]
  ------------------
 9581|      0|            return vis(monostate_val);
 9582|      0|        }
 9583|       |
 9584|   156k|            SCN_CLANG_POP
 9585|   156k|    }
 9586|       |
 9587|      0|#undef SCN_VISIT
 9588|       |
 9589|      0|    SCN_ENSURE(false);
  ------------------
  |  | 1080|      0|#define SCN_ENSURE(cond) SCN_ASSERT(cond, "Postcondition violation")
  |  |  ------------------
  |  |  |  | 1076|      0|#define SCN_ASSERT(cond, msg) assert((cond) && msg)
  |  |  ------------------
  ------------------
 9590|      0|    SCN_UNREACHABLE;
  ------------------
  |  | 1042|      0|#define SCN_UNREACHABLE __builtin_unreachable()
  ------------------
 9591|      0|}
_ZN3scn2v424basic_scan_parse_contextIcEC2IONS0_6ranges6detail9subrange_8subrangeIPKcS9_EEEENS0_15source_tag_typeIT_EENSt3__117basic_string_viewIcNSF_11char_traitsIcEEEEi:
 6444|   376k|        : m_format{format},
 6445|   376k|          m_next_arg_id{next_arg_id},
 6446|   376k|          m_is_contiguous(ranges::range<Source> &&
  ------------------
  |  Branch (6446:27): [Folded - Ignored]
  ------------------
 6447|   376k|                          ranges::contiguous_range<Source>),
  ------------------
  |  Branch (6447:27): [Folded - Ignored]
  ------------------
 6448|       |          m_is_borrowed(
 6449|   376k|              (ranges::range<Source> && ranges::borrowed_range<Source>) ||
  ------------------
  |  Branch (6449:16): [Folded - Ignored]
  |  Branch (6449:41): [Folded - Ignored]
  ------------------
 6450|   376k|              std::is_same_v<detail::remove_cvref_t<Source>, std::FILE*>)
  ------------------
  |  Branch (6450:15): [Folded - Ignored]
  ------------------
 6451|   376k|    {
 6452|   376k|    }
_ZNK3scn2v46ranges6detail5size_2fnclIRNS2_9subrange_8subrangeIPKcS9_EEEEDTclsr2fnE4implclsr3stdE7forwardIT_Efp_EtlNS0_6detail12priority_tagILm3EEEEEEOSC_:
 3106|   376k|    {
 3107|   376k|        return fn::impl(std::forward<T>(t), priority_tag<3>{});
 3108|   376k|    }
_ZN3scn2v46ranges6detail5size_2fn4implIRNS2_9subrange_8subrangeIPKcS9_EEmEENSt3__19enable_ifIXaasr3stdE13is_integral_vIT0_Ent19disable_sized_rangeIu11__remove_cvIu20__remove_reference_tIT_EEEESE_E4typeEOSF_NS0_6detail12priority_tagILm2EEE:
 3072|   376k|    {
 3073|   376k|        return decay_copy(SCN_FWD(t).size());
  ------------------
  |  | 1085|   376k|#define SCN_FWD(x)          static_cast<decltype(x)&&>(x)
  ------------------
 3074|   376k|    }
impl.cpp:_ZN3scn2v46detail19parse_format_stringILb0EcRNS0_12_GLOBAL__N_114format_handlerILb1EcEEEENS0_13scan_expectedIvEENSt3__117basic_string_viewIT0_NS9_11char_traitsISB_EEEEOT1_:
 7970|   376k|{
 7971|   376k|    parse_format_string_impl<IsConstexpr>(format, handler);
 7972|   376k|    handler.check_args_exhausted();
 7973|   376k|    return handler.get_error();
 7974|   376k|}
impl.cpp:_ZN3scn2v46detail24parse_format_string_implILb0EcRNS0_12_GLOBAL__N_114format_handlerILb1EcEEEEvNSt3__117basic_string_viewIT0_NS7_11char_traitsIS9_EEEEOT1_:
 7935|   376k|{
 7936|       |    // TODO: memchr fast path with a larger (> 32) format string
 7937|       |
 7938|   376k|    auto begin = format.data();
 7939|   376k|    auto it = begin;
 7940|   376k|    const auto end = format.data() + format.size();
 7941|       |
 7942|   700k|    while (it != end) {
  ------------------
  |  Branch (7942:12): [True: 376k, False: 323k]
  ------------------
 7943|   376k|        const auto ch = *it++;
 7944|   376k|        if (ch == CharT{'{'}) {
  ------------------
  |  Branch (7944:13): [True: 376k, False: 0]
  ------------------
 7945|   376k|            handler.on_literal_text(begin, it - 1);
 7946|       |
 7947|   376k|            begin = it = parse_replacement_field(it - 1, end, handler);
 7948|   376k|            if (!handler.get_error()) {
  ------------------
  |  Branch (7948:17): [True: 52.9k, False: 323k]
  ------------------
 7949|  52.9k|                return;
 7950|  52.9k|            }
 7951|   376k|        }
 7952|      0|        else if (ch == CharT{'}'}) {
  ------------------
  |  Branch (7952:18): [True: 0, False: 0]
  ------------------
 7953|      0|            if (SCN_UNLIKELY(it == end || *it != CharT{'}'})) {
  ------------------
  |  | 1014|      0|#define SCN_UNLIKELY(x) __builtin_expect(!!(x), 0)
  |  |  ------------------
  |  |  |  Branch (1014:25): [True: 0, False: 0]
  |  |  |  Branch (1014:45): [True: 0, False: 0]
  |  |  |  Branch (1014:45): [True: 0, False: 0]
  |  |  ------------------
  ------------------
 7954|      0|                handler.on_error("Unmatched '}' in format string");
 7955|      0|                return;
 7956|      0|            }
 7957|       |
 7958|      0|            handler.on_literal_text(begin, it);
 7959|      0|            begin = ++it;
 7960|      0|        }
 7961|   376k|    }
 7962|       |
 7963|   323k|    handler.on_literal_text(begin, end);
 7964|   323k|}
impl.cpp:_ZN3scn2v46detail23parse_replacement_fieldIcNS0_12_GLOBAL__N_114format_handlerILb1EcEEEEPKT_S8_S8_RT0_:
 7867|   376k|{
 7868|   376k|    struct id_adapter {
 7869|   376k|        constexpr void operator()()
 7870|   376k|        {
 7871|   376k|            arg_id = handler.on_arg_id();
 7872|   376k|        }
 7873|   376k|        constexpr void operator()(std::size_t id)
 7874|   376k|        {
 7875|   376k|            arg_id = handler.on_arg_id(id);
 7876|   376k|        }
 7877|       |
 7878|   376k|        constexpr void on_error(const char* msg)
 7879|   376k|        {
 7880|   376k|            SCN_UNLIKELY_ATTR
 7881|   376k|            handler.on_error(msg);
 7882|   376k|        }
 7883|       |
 7884|   376k|        Handler& handler;
 7885|   376k|        std::size_t arg_id;
 7886|   376k|    };
 7887|       |
 7888|   376k|    ++begin;
 7889|   376k|    if (SCN_UNLIKELY(begin == end)) {
  ------------------
  |  | 1014|   376k|#define SCN_UNLIKELY(x) __builtin_expect(!!(x), 0)
  |  |  ------------------
  |  |  |  Branch (1014:25): [True: 0, False: 376k]
  |  |  ------------------
  ------------------
 7890|      0|        handler.on_error("Unexpected end of replacement field");
 7891|      0|        return begin;
 7892|      0|    }
 7893|       |
 7894|   376k|    if (*begin == CharT{'}'}) {
  ------------------
  |  Branch (7894:9): [True: 0, False: 376k]
  ------------------
 7895|      0|        handler.on_replacement_field(handler.on_arg_id(), begin);
 7896|      0|    }
 7897|   376k|    else if (*begin == CharT{'{'}) {
  ------------------
  |  Branch (7897:14): [True: 0, False: 376k]
  ------------------
 7898|      0|        handler.on_literal_text(begin, begin + 1);
 7899|      0|    }
 7900|   376k|    else {
 7901|   376k|        auto adapter = id_adapter{handler, 0};
 7902|   376k|        begin = parse_arg_id(begin, end, adapter);
 7903|       |
 7904|   376k|        if (SCN_UNLIKELY(begin == end)) {
  ------------------
  |  | 1014|   376k|#define SCN_UNLIKELY(x) __builtin_expect(!!(x), 0)
  |  |  ------------------
  |  |  |  Branch (1014:25): [True: 0, False: 376k]
  |  |  ------------------
  ------------------
 7905|      0|            handler.on_error("Missing '}' in format string");
 7906|      0|            return begin;
 7907|      0|        }
 7908|       |
 7909|   376k|        if (*begin == CharT{'}'}) {
  ------------------
  |  Branch (7909:13): [True: 0, False: 376k]
  ------------------
 7910|      0|            handler.on_replacement_field(adapter.arg_id, begin);
 7911|      0|        }
 7912|   376k|        else if (*begin == CharT{':'}) {
  ------------------
  |  Branch (7912:18): [True: 376k, False: 0]
  ------------------
 7913|   376k|            if (SCN_UNLIKELY(begin + 1 == end)) {
  ------------------
  |  | 1014|   376k|#define SCN_UNLIKELY(x) __builtin_expect(!!(x), 0)
  |  |  ------------------
